	.file	"Difference_Array.cpp"
	.intel_syntax noprefix
# GNU C++17 (Ubuntu 13.2.0-23ubuntu4) version 13.2.0 (x86_64-linux-gnu)
#	compiled by GNU C version 13.2.0, GMP version 6.3.0, MPFR version 4.2.1, MPC version 1.3.1, isl version isl-0.26-GMP

# GGC heuristics: --param ggc-min-expand=100 --param ggc-min-heapsize=131072
# options passed: -masm=intel -mtune=generic -march=x86-64 -O0 -fasynchronous-unwind-tables -fstack-protector-strong -fstack-clash-protection -fcf-protection
	.text
	.section	.text._ZSt17__size_to_integerm,"axG",@progbits,_ZSt17__size_to_integerm,comdat
	.weak	_ZSt17__size_to_integerm
	.type	_ZSt17__size_to_integerm, @function
_ZSt17__size_to_integerm:
.LFB354:
	.cfi_startproc
	endbr64	
	push	rbp	#
	.cfi_def_cfa_offset 16
	.cfi_offset 6, -16
	mov	rbp, rsp	#,
	.cfi_def_cfa_register 6
	mov	QWORD PTR -8[rbp], rdi	# __n, __n
# /usr/include/c++/13/bits/stl_algobase.h:1018:   __size_to_integer(unsigned long __n) { return __n; }
	mov	rax, QWORD PTR -8[rbp]	# _2, __n
# /usr/include/c++/13/bits/stl_algobase.h:1018:   __size_to_integer(unsigned long __n) { return __n; }
	pop	rbp	#
	.cfi_def_cfa 7, 8
	ret	
	.cfi_endproc
.LFE354:
	.size	_ZSt17__size_to_integerm, .-_ZSt17__size_to_integerm
	.section	.text._ZSt3minImERKT_S2_S2_,"axG",@progbits,_ZSt3minImERKT_S2_S2_,comdat
	.weak	_ZSt3minImERKT_S2_S2_
	.type	_ZSt3minImERKT_S2_S2_, @function
_ZSt3minImERKT_S2_S2_:
.LFB1923:
	.cfi_startproc
	endbr64	
	push	rbp	#
	.cfi_def_cfa_offset 16
	.cfi_offset 6, -16
	mov	rbp, rsp	#,
	.cfi_def_cfa_register 6
	mov	QWORD PTR -8[rbp], rdi	# __a, __a
	mov	QWORD PTR -16[rbp], rsi	# __b, __b
# /usr/include/c++/13/bits/stl_algobase.h:238:       if (__b < __a)
	mov	rax, QWORD PTR -16[rbp]	# tmp86, __b
	mov	rdx, QWORD PTR [rax]	# _1, *__b_5(D)
	mov	rax, QWORD PTR -8[rbp]	# tmp87, __a
	mov	rax, QWORD PTR [rax]	# _2, *__a_6(D)
# /usr/include/c++/13/bits/stl_algobase.h:238:       if (__b < __a)
	cmp	rdx, rax	# _1, _2
	jnb	.L4	#,
# /usr/include/c++/13/bits/stl_algobase.h:239: 	return __b;
	mov	rax, QWORD PTR -16[rbp]	# _3, __b
	jmp	.L5	#
.L4:
# /usr/include/c++/13/bits/stl_algobase.h:240:       return __a;
	mov	rax, QWORD PTR -8[rbp]	# _3, __a
.L5:
# /usr/include/c++/13/bits/stl_algobase.h:241:     }
	pop	rbp	#
	.cfi_def_cfa 7, 8
	ret	
	.cfi_endproc
.LFE1923:
	.size	_ZSt3minImERKT_S2_S2_, .-_ZSt3minImERKT_S2_S2_
#APP
	.globl _ZSt21ios_base_library_initv
#NO_APP
	.section	.text._ZNSt12_Vector_baseImSaImEE12_Vector_implD2Ev,"axG",@progbits,_ZNSt12_Vector_baseImSaImEE12_Vector_implD5Ev,comdat
	.align 2
	.weak	_ZNSt12_Vector_baseImSaImEE12_Vector_implD2Ev
	.type	_ZNSt12_Vector_baseImSaImEE12_Vector_implD2Ev, @function
_ZNSt12_Vector_baseImSaImEE12_Vector_implD2Ev:
.LFB8759:
	.cfi_startproc
	endbr64	
	push	rbp	#
	.cfi_def_cfa_offset 16
	.cfi_offset 6, -16
	mov	rbp, rsp	#,
	.cfi_def_cfa_register 6
	sub	rsp, 32	#,
	mov	QWORD PTR -24[rbp], rdi	# this, this
	mov	rax, QWORD PTR -24[rbp]	# tmp82, this
	mov	QWORD PTR -8[rbp], rax	# this, tmp82
# /usr/include/c++/13/bits/allocator.h:184:       ~allocator() _GLIBCXX_NOTHROW { }
	mov	rax, QWORD PTR -8[rbp]	# tmp83, this
	mov	rdi, rax	#, tmp83
	call	_ZNSt15__new_allocatorImED2Ev	#
	nop	
# /usr/include/c++/13/bits/stl_vector.h:133:       struct _Vector_impl
	nop	
	leave	
	.cfi_def_cfa 7, 8
	ret	
	.cfi_endproc
.LFE8759:
	.size	_ZNSt12_Vector_baseImSaImEE12_Vector_implD2Ev, .-_ZNSt12_Vector_baseImSaImEE12_Vector_implD2Ev
	.weak	_ZNSt12_Vector_baseImSaImEE12_Vector_implD1Ev
	.set	_ZNSt12_Vector_baseImSaImEE12_Vector_implD1Ev,_ZNSt12_Vector_baseImSaImEE12_Vector_implD2Ev
	.section	.rodata
.LC0:
	.string	" "
.LC1:
	.string	"\n"
	.text
	.globl	main
	.type	main, @function
main:
.LFB9770:
	.cfi_startproc
	.cfi_personality 0x9b,DW.ref.__gxx_personality_v0
	.cfi_lsda 0x1b,.LLSDA9770
	endbr64	
	push	rbp	#
	.cfi_def_cfa_offset 16
	.cfi_offset 6, -16
	mov	rbp, rsp	#,
	.cfi_def_cfa_register 6
	push	rbx	#
	sub	rsp, 152	#,
	.cfi_offset 3, -24
# Difference_Array.cpp:5: int main() {
	mov	rax, QWORD PTR fs:40	# tmp171, MEM[(<address-space-1> long unsigned int *)40B]
	mov	QWORD PTR -24[rbp], rax	# D.224965, tmp171
	xor	eax, eax	# tmp171
# Difference_Array.cpp:6:     ios_base::sync_with_stdio(0);
	mov	edi, 0	#,
.LEHB0:
	call	_ZNSt8ios_base15sync_with_stdioEb@PLT	#
# Difference_Array.cpp:7:     cin.tie(0);
	mov	esi, 0	#,
	lea	rax, _ZSt3cin[rip+16]	# tmp117,
	mov	rdi, rax	#, tmp117
	call	_ZNSt9basic_iosIcSt11char_traitsIcEE3tieEPSo@PLT	#
# Difference_Array.cpp:10:     cin >> n >> queries;
	lea	rax, -152[rbp]	# tmp118,
	mov	rsi, rax	#, tmp118
	lea	rax, _ZSt3cin[rip]	# tmp119,
	mov	rdi, rax	#, tmp119
	call	_ZNSirsERi@PLT	#
	mov	rdx, rax	# _1,
# Difference_Array.cpp:10:     cin >> n >> queries;
	lea	rax, -148[rbp]	# tmp120,
	mov	rsi, rax	#, tmp120
	mov	rdi, rdx	#, _1
	call	_ZNSirsERi@PLT	#
.LEHE0:
	lea	rax, -128[rbp]	# tmp121,
	mov	QWORD PTR -96[rbp], rax	# this, tmp121
# /usr/include/c++/13/bits/new_allocator.h:88:       __new_allocator() _GLIBCXX_USE_NOEXCEPT { }
	nop	
# /usr/include/c++/13/bits/allocator.h:163:       allocator() _GLIBCXX_NOTHROW { }
	nop	
# Difference_Array.cpp:11:     vector<uint64_t> difference_array(n + 1, 0);
	mov	QWORD PTR -48[rbp], 0	# MEM[(long unsigned int *)_110],
# Difference_Array.cpp:11:     vector<uint64_t> difference_array(n + 1, 0);
	mov	eax, DWORD PTR -152[rbp]	# n.0_2, n
	add	eax, 1	# _3,
# Difference_Array.cpp:11:     vector<uint64_t> difference_array(n + 1, 0);
	movsx	rsi, eax	# _4, _3
	lea	rcx, -128[rbp]	# tmp122,
	lea	rdx, -48[rbp]	# tmp123,
	lea	rax, -80[rbp]	# tmp124,
	mov	rdi, rax	#, tmp124
.LEHB1:
	call	_ZNSt6vectorImSaImEEC1EmRKmRKS0_	#
.LEHE1:
# /usr/include/c++/13/bits/allocator.h:184:       ~allocator() _GLIBCXX_NOTHROW { }
	lea	rax, -128[rbp]	# tmp125,
	mov	rdi, rax	#, tmp125
	call	_ZNSt15__new_allocatorImED2Ev	#
	nop	
	lea	rax, -136[rbp]	# tmp126,
	mov	QWORD PTR -88[rbp], rax	# this, tmp126
# /usr/include/c++/13/bits/new_allocator.h:88:       __new_allocator() _GLIBCXX_USE_NOEXCEPT { }
	nop	
# /usr/include/c++/13/bits/allocator.h:163:       allocator() _GLIBCXX_NOTHROW { }
	nop	
# Difference_Array.cpp:12:     vector<uint64_t> overlapping_segments(n, 0);
	mov	QWORD PTR -128[rbp], 0	# MEM[(long unsigned int *)_118],
# Difference_Array.cpp:12:     vector<uint64_t> overlapping_segments(n, 0);
	mov	eax, DWORD PTR -152[rbp]	# n.1_5, n
	movsx	rsi, eax	# _6, n.1_5
	lea	rcx, -136[rbp]	# tmp127,
	lea	rdx, -128[rbp]	# tmp128,
	lea	rax, -48[rbp]	# tmp129,
	mov	rdi, rax	#, tmp129
.LEHB2:
	call	_ZNSt6vectorImSaImEEC1EmRKmRKS0_	#
.LEHE2:
# /usr/include/c++/13/bits/allocator.h:184:       ~allocator() _GLIBCXX_NOTHROW { }
	lea	rax, -136[rbp]	# tmp130,
	mov	rdi, rax	#, tmp130
	call	_ZNSt15__new_allocatorImED2Ev	#
	nop	
# Difference_Array.cpp:14:     for (int i = 0; i < queries; i++) {
	mov	DWORD PTR -144[rbp], 0	# i,
# Difference_Array.cpp:14:     for (int i = 0; i < queries; i++) {
	jmp	.L8	#
.L9:
# Difference_Array.cpp:16: 	cin >> l >> r;
	lea	rax, -136[rbp]	# tmp131,
	mov	rsi, rax	#, tmp131
	lea	rax, _ZSt3cin[rip]	# tmp132,
	mov	rdi, rax	#, tmp132
.LEHB3:
	call	_ZNSirsERm@PLT	#
	mov	rdx, rax	# _7,
# Difference_Array.cpp:16: 	cin >> l >> r;
	lea	rax, -128[rbp]	# tmp133,
	mov	rsi, rax	#, tmp133
	mov	rdi, rdx	#, _7
	call	_ZNSirsERm@PLT	#
# Difference_Array.cpp:17: 	l--;
	mov	rax, QWORD PTR -136[rbp]	# l.2_8, MEM[(long unsigned int *)_117]
	sub	rax, 1	# _9,
	mov	QWORD PTR -136[rbp], rax	# MEM[(long unsigned int *)_117], _9
# Difference_Array.cpp:18: 	r--;
	mov	rax, QWORD PTR -128[rbp]	# r.3_10, MEM[(long unsigned int *)_118]
	sub	rax, 1	# _11,
	mov	QWORD PTR -128[rbp], rax	# MEM[(long unsigned int *)_118], _11
# Difference_Array.cpp:19: 	difference_array[l]++;
	mov	rdx, QWORD PTR -136[rbp]	# l.4_12, MEM[(long unsigned int *)_117]
	lea	rax, -80[rbp]	# tmp134,
	mov	rsi, rdx	#, l.4_12
	mov	rdi, rax	#, tmp134
	call	_ZNSt6vectorImSaImEEixEm	#
# Difference_Array.cpp:19: 	difference_array[l]++;
	mov	rdx, QWORD PTR [rax]	# _14, *_13
	add	rdx, 1	# _15,
	mov	QWORD PTR [rax], rdx	# *_13, _15
# Difference_Array.cpp:20: 	difference_array[r + 1]--;
	mov	rax, QWORD PTR -128[rbp]	# r.5_16, MEM[(long unsigned int *)_118]
	lea	rdx, 1[rax]	# _17,
	lea	rax, -80[rbp]	# tmp135,
	mov	rsi, rdx	#, _17
	mov	rdi, rax	#, tmp135
	call	_ZNSt6vectorImSaImEEixEm	#
# Difference_Array.cpp:20: 	difference_array[r + 1]--;
	mov	rdx, QWORD PTR [rax]	# _19, *_18
	sub	rdx, 1	# _20,
	mov	QWORD PTR [rax], rdx	# *_18, _20
# Difference_Array.cpp:14:     for (int i = 0; i < queries; i++) {
	add	DWORD PTR -144[rbp], 1	# i,
.L8:
# Difference_Array.cpp:14:     for (int i = 0; i < queries; i++) {
	mov	eax, DWORD PTR -148[rbp]	# queries.6_21, queries
	cmp	DWORD PTR -144[rbp], eax	# i, queries.6_21
	jl	.L9	#,
# Difference_Array.cpp:23:     uint64_t total = 0;
	mov	QWORD PTR -120[rbp], 0	# total,
# Difference_Array.cpp:24:     for (int i = 0; i < n; i++) {
	mov	DWORD PTR -140[rbp], 0	# i,
# Difference_Array.cpp:24:     for (int i = 0; i < n; i++) {
	jmp	.L10	#
.L11:
# Difference_Array.cpp:25: 	total += difference_array[i];
	mov	eax, DWORD PTR -140[rbp]	# tmp136, i
	movsx	rdx, eax	# _22, tmp136
	lea	rax, -80[rbp]	# tmp137,
	mov	rsi, rdx	#, _22
	mov	rdi, rax	#, tmp137
	call	_ZNSt6vectorImSaImEEixEm	#
# Difference_Array.cpp:25: 	total += difference_array[i];
	mov	rax, QWORD PTR [rax]	# _82, *_23
	add	QWORD PTR -120[rbp], rax	# total, _82
# Difference_Array.cpp:26: 	overlapping_segments[i] = total;
	mov	rbx, QWORD PTR -120[rbp]	# total.7_24, total
# Difference_Array.cpp:26: 	overlapping_segments[i] = total;
	mov	eax, DWORD PTR -140[rbp]	# tmp138, i
	movsx	rdx, eax	# _25, tmp138
	lea	rax, -48[rbp]	# tmp139,
	mov	rsi, rdx	#, _25
	mov	rdi, rax	#, tmp139
	call	_ZNSt6vectorImSaImEEixEm	#
# Difference_Array.cpp:26: 	overlapping_segments[i] = total;
	mov	QWORD PTR [rax], rbx	# *_26, total.7_24
# Difference_Array.cpp:24:     for (int i = 0; i < n; i++) {
	add	DWORD PTR -140[rbp], 1	# i,
.L10:
# Difference_Array.cpp:24:     for (int i = 0; i < n; i++) {
	mov	eax, DWORD PTR -152[rbp]	# n.8_27, n
	cmp	DWORD PTR -140[rbp], eax	# i, n.8_27
	jl	.L11	#,
# Difference_Array.cpp:29:     for (auto &&segment : overlapping_segments) {
	lea	rax, -48[rbp]	# tmp140,
	mov	QWORD PTR -112[rbp], rax	# __for_range, tmp140
	mov	rax, QWORD PTR -112[rbp]	# tmp141, __for_range
	mov	rdi, rax	#, tmp141
	call	_ZNSt6vectorImSaImEE5beginEv	#
	mov	QWORD PTR -136[rbp], rax	# MEM[(struct __normal_iterator *)_117], tmp143
# Difference_Array.cpp:29:     for (auto &&segment : overlapping_segments) {
	mov	rax, QWORD PTR -112[rbp]	# tmp144, __for_range
	mov	rdi, rax	#, tmp144
	call	_ZNSt6vectorImSaImEE3endEv	#
	mov	QWORD PTR -128[rbp], rax	# MEM[(struct __normal_iterator *)_118], tmp146
# Difference_Array.cpp:29:     for (auto &&segment : overlapping_segments) {
	jmp	.L12	#
.L13:
# Difference_Array.cpp:29:     for (auto &&segment : overlapping_segments) {
	lea	rax, -136[rbp]	# tmp147,
	mov	rdi, rax	#, tmp147
	call	_ZNK9__gnu_cxx17__normal_iteratorIPmSt6vectorImSaImEEEdeEv	#
	mov	QWORD PTR -104[rbp], rax	# segment, tmp148
# Difference_Array.cpp:30: 	cout << segment << " ";
	mov	rax, QWORD PTR -104[rbp]	# tmp149, segment
	mov	rax, QWORD PTR [rax]	# _28, *segment_74
	mov	rsi, rax	#, _28
	lea	rax, _ZSt4cout[rip]	# tmp150,
	mov	rdi, rax	#, tmp150
	call	_ZNSolsEm@PLT	#
	mov	rdx, rax	# _29,
# Difference_Array.cpp:30: 	cout << segment << " ";
	lea	rax, .LC0[rip]	# tmp151,
	mov	rsi, rax	#, tmp151
	mov	rdi, rdx	#, _29
	call	_ZStlsISt11char_traitsIcEERSt13basic_ostreamIcT_ES5_PKc@PLT	#
# Difference_Array.cpp:29:     for (auto &&segment : overlapping_segments) {
	lea	rax, -136[rbp]	# tmp152,
	mov	rdi, rax	#, tmp152
	call	_ZN9__gnu_cxx17__normal_iteratorIPmSt6vectorImSaImEEEppEv	#
.L12:
# Difference_Array.cpp:29:     for (auto &&segment : overlapping_segments) {
	lea	rdx, -128[rbp]	# tmp153,
	lea	rax, -136[rbp]	# tmp154,
	mov	rsi, rdx	#, tmp153
	mov	rdi, rax	#, tmp154
	call	_ZN9__gnu_cxxneIPmSt6vectorImSaImEEEEbRKNS_17__normal_iteratorIT_T0_EESA_	#
	test	al, al	# retval.9_62
	jne	.L13	#,
# Difference_Array.cpp:32:     cout << "\n";
	lea	rax, .LC1[rip]	# tmp155,
	mov	rsi, rax	#, tmp155
	lea	rax, _ZSt4cout[rip]	# tmp156,
	mov	rdi, rax	#, tmp156
	call	_ZStlsISt11char_traitsIcEERSt13basic_ostreamIcT_ES5_PKc@PLT	#
.LEHE3:
# Difference_Array.cpp:34:     return 0;
	mov	ebx, 0	# _66,
# Difference_Array.cpp:35: }
	lea	rax, -48[rbp]	# tmp157,
	mov	rdi, rax	#, tmp157
	call	_ZNSt6vectorImSaImEED1Ev	#
# Difference_Array.cpp:35: }
	lea	rax, -80[rbp]	# tmp158,
	mov	rdi, rax	#, tmp158
	call	_ZNSt6vectorImSaImEED1Ev	#
# Difference_Array.cpp:35: }
	mov	eax, ebx	# <retval>, _66
	mov	rdx, QWORD PTR -24[rbp]	# tmp172, D.224965
	sub	rdx, QWORD PTR fs:40	# tmp172, MEM[(<address-space-1> long unsigned int *)40B]
	je	.L21	#,
	jmp	.L25	#
.L22:
	endbr64	
# /usr/include/c++/13/bits/allocator.h:184:       ~allocator() _GLIBCXX_NOTHROW { }
	mov	rbx, rax	# tmp161,
	lea	rax, -128[rbp]	# tmp160,
	mov	rdi, rax	#, tmp160
	call	_ZNSt15__new_allocatorImED2Ev	#
	nop	
	mov	rax, rbx	# D.224962, tmp161
	mov	rdx, QWORD PTR -24[rbp]	# tmp173, D.224965
	sub	rdx, QWORD PTR fs:40	# tmp173, MEM[(<address-space-1> long unsigned int *)40B]
	je	.L16	#,
	call	__stack_chk_fail@PLT	#
.L16:
	mov	rdi, rax	#, D.224962
.LEHB4:
	call	_Unwind_Resume@PLT	#
.L23:
	endbr64	
	mov	rbx, rax	# tmp164,
	lea	rax, -136[rbp]	# tmp162,
	mov	rdi, rax	#, tmp162
	call	_ZNSt15__new_allocatorImED2Ev	#
	nop	
	jmp	.L18	#
.L24:
	endbr64	
# Difference_Array.cpp:35: }
	mov	rbx, rax	# tmp168,
	lea	rax, -48[rbp]	# tmp167,
	mov	rdi, rax	#, tmp167
	call	_ZNSt6vectorImSaImEED1Ev	#
.L18:
	lea	rax, -80[rbp]	# tmp170,
	mov	rdi, rax	#, tmp170
	call	_ZNSt6vectorImSaImEED1Ev	#
	mov	rax, rbx	# D.224963, tmp163
	mov	rdx, QWORD PTR -24[rbp]	# tmp174, D.224965
	sub	rdx, QWORD PTR fs:40	# tmp174, MEM[(<address-space-1> long unsigned int *)40B]
	je	.L20	#,
	call	__stack_chk_fail@PLT	#
.L20:
	mov	rdi, rax	#, D.224963
	call	_Unwind_Resume@PLT	#
.LEHE4:
.L25:
	call	__stack_chk_fail@PLT	#
.L21:
	mov	rbx, QWORD PTR -8[rbp]	#,
	leave	
	.cfi_def_cfa 7, 8
	ret	
	.cfi_endproc
.LFE9770:
	.globl	__gxx_personality_v0
	.section	.gcc_except_table,"a",@progbits
.LLSDA9770:
	.byte	0xff
	.byte	0xff
	.byte	0x1
	.uleb128 .LLSDACSE9770-.LLSDACSB9770
.LLSDACSB9770:
	.uleb128 .LEHB0-.LFB9770
	.uleb128 .LEHE0-.LEHB0
	.uleb128 0
	.uleb128 0
	.uleb128 .LEHB1-.LFB9770
	.uleb128 .LEHE1-.LEHB1
	.uleb128 .L22-.LFB9770
	.uleb128 0
	.uleb128 .LEHB2-.LFB9770
	.uleb128 .LEHE2-.LEHB2
	.uleb128 .L23-.LFB9770
	.uleb128 0
	.uleb128 .LEHB3-.LFB9770
	.uleb128 .LEHE3-.LEHB3
	.uleb128 .L24-.LFB9770
	.uleb128 0
	.uleb128 .LEHB4-.LFB9770
	.uleb128 .LEHE4-.LEHB4
	.uleb128 0
	.uleb128 0
.LLSDACSE9770:
	.text
	.size	main, .-main
	.section	.text._ZNSt12_Vector_baseImSaImEED2Ev,"axG",@progbits,_ZNSt12_Vector_baseImSaImEED5Ev,comdat
	.align 2
	.weak	_ZNSt12_Vector_baseImSaImEED2Ev
	.type	_ZNSt12_Vector_baseImSaImEED2Ev, @function
_ZNSt12_Vector_baseImSaImEED2Ev:
.LFB10378:
	.cfi_startproc
	.cfi_personality 0x9b,DW.ref.__gxx_personality_v0
	.cfi_lsda 0x1b,.LLSDA10378
	endbr64	
	push	rbp	#
	.cfi_def_cfa_offset 16
	.cfi_offset 6, -16
	mov	rbp, rsp	#,
	.cfi_def_cfa_register 6
	sub	rsp, 16	#,
	mov	QWORD PTR -8[rbp], rdi	# this, this
# /usr/include/c++/13/bits/stl_vector.h:370: 		      _M_impl._M_end_of_storage - _M_impl._M_start);
	mov	rax, QWORD PTR -8[rbp]	# tmp89, this
	mov	rdx, QWORD PTR 16[rax]	# _1, this_9(D)->_M_impl.D.176853._M_end_of_storage
# /usr/include/c++/13/bits/stl_vector.h:370: 		      _M_impl._M_end_of_storage - _M_impl._M_start);
	mov	rax, QWORD PTR -8[rbp]	# tmp90, this
	mov	rax, QWORD PTR [rax]	# _2, this_9(D)->_M_impl.D.176853._M_start
# /usr/include/c++/13/bits/stl_vector.h:370: 		      _M_impl._M_end_of_storage - _M_impl._M_start);
	sub	rdx, rax	# _3, _2
	mov	rax, rdx	# _3, _3
	sar	rax, 3	# _3,
# /usr/include/c++/13/bits/stl_vector.h:369: 	_M_deallocate(_M_impl._M_start,
	mov	rdx, rax	# _5, _4
	mov	rax, QWORD PTR -8[rbp]	# tmp92, this
	mov	rcx, QWORD PTR [rax]	# _6, this_9(D)->_M_impl.D.176853._M_start
	mov	rax, QWORD PTR -8[rbp]	# tmp93, this
	mov	rsi, rcx	#, _6
	mov	rdi, rax	#, tmp93
	call	_ZNSt12_Vector_baseImSaImEE13_M_deallocateEPmm	#
# /usr/include/c++/13/bits/stl_vector.h:371:       }
	mov	rax, QWORD PTR -8[rbp]	# _7, this
	mov	rdi, rax	#, _7
	call	_ZNSt12_Vector_baseImSaImEE12_Vector_implD1Ev	#
	nop	
	leave	
	.cfi_def_cfa 7, 8
	ret	
	.cfi_endproc
.LFE10378:
	.section	.gcc_except_table
.LLSDA10378:
	.byte	0xff
	.byte	0xff
	.byte	0x1
	.uleb128 .LLSDACSE10378-.LLSDACSB10378
.LLSDACSB10378:
.LLSDACSE10378:
	.section	.text._ZNSt12_Vector_baseImSaImEED2Ev,"axG",@progbits,_ZNSt12_Vector_baseImSaImEED5Ev,comdat
	.size	_ZNSt12_Vector_baseImSaImEED2Ev, .-_ZNSt12_Vector_baseImSaImEED2Ev
	.weak	_ZNSt12_Vector_baseImSaImEED1Ev
	.set	_ZNSt12_Vector_baseImSaImEED1Ev,_ZNSt12_Vector_baseImSaImEED2Ev
	.section	.text._ZNSt6vectorImSaImEED2Ev,"axG",@progbits,_ZNSt6vectorImSaImEED5Ev,comdat
	.align 2
	.weak	_ZNSt6vectorImSaImEED2Ev
	.type	_ZNSt6vectorImSaImEED2Ev, @function
_ZNSt6vectorImSaImEED2Ev:
.LFB10381:
	.cfi_startproc
	.cfi_personality 0x9b,DW.ref.__gxx_personality_v0
	.cfi_lsda 0x1b,.LLSDA10381
	endbr64	
	push	rbp	#
	.cfi_def_cfa_offset 16
	.cfi_offset 6, -16
	mov	rbp, rsp	#,
	.cfi_def_cfa_register 6
	sub	rsp, 48	#,
	mov	QWORD PTR -40[rbp], rdi	# this, this
# /usr/include/c++/13/bits/stl_vector.h:736: 		      _M_get_Tp_allocator());
	mov	rax, QWORD PTR -40[rbp]	# _1, this
	mov	rdi, rax	#, _1
	call	_ZNSt12_Vector_baseImSaImEE19_M_get_Tp_allocatorEv	#
# /usr/include/c++/13/bits/stl_vector.h:735: 	std::_Destroy(this->_M_impl._M_start, this->_M_impl._M_finish,
	mov	rdx, QWORD PTR -40[rbp]	# tmp87, this
	mov	rdx, QWORD PTR 8[rdx]	# _3, this_6(D)->D.177508._M_impl.D.176853._M_finish
	mov	rcx, QWORD PTR -40[rbp]	# tmp88, this
	mov	rcx, QWORD PTR [rcx]	# _4, this_6(D)->D.177508._M_impl.D.176853._M_start
	mov	QWORD PTR -24[rbp], rcx	# __first, _4
	mov	QWORD PTR -16[rbp], rdx	# __last, _3
	mov	QWORD PTR -8[rbp], rax	# D.224904, _2
# /usr/include/c++/13/bits/alloc_traits.h:948:       std::_Destroy(__first, __last);
	mov	rdx, QWORD PTR -16[rbp]	# tmp89, __last
	mov	rax, QWORD PTR -24[rbp]	# tmp90, __first
	mov	rsi, rdx	#, tmp89
	mov	rdi, rax	#, tmp90
	call	_ZSt8_DestroyIPmEvT_S1_	#
# /usr/include/c++/13/bits/alloc_traits.h:949:     }
	nop	
# /usr/include/c++/13/bits/stl_vector.h:738:       }
	mov	rax, QWORD PTR -40[rbp]	# _5, this
	mov	rdi, rax	#, _5
	call	_ZNSt12_Vector_baseImSaImEED2Ev	#
	nop	
	leave	
	.cfi_def_cfa 7, 8
	ret	
	.cfi_endproc
.LFE10381:
	.section	.gcc_except_table
.LLSDA10381:
	.byte	0xff
	.byte	0xff
	.byte	0x1
	.uleb128 .LLSDACSE10381-.LLSDACSB10381
.LLSDACSB10381:
.LLSDACSE10381:
	.section	.text._ZNSt6vectorImSaImEED2Ev,"axG",@progbits,_ZNSt6vectorImSaImEED5Ev,comdat
	.size	_ZNSt6vectorImSaImEED2Ev, .-_ZNSt6vectorImSaImEED2Ev
	.weak	_ZNSt6vectorImSaImEED1Ev
	.set	_ZNSt6vectorImSaImEED1Ev,_ZNSt6vectorImSaImEED2Ev
	.section	.text._ZNSt6vectorImSaImEEC2EmRKmRKS0_,"axG",@progbits,_ZNSt6vectorImSaImEEC5EmRKmRKS0_,comdat
	.align 2
	.weak	_ZNSt6vectorImSaImEEC2EmRKmRKS0_
	.type	_ZNSt6vectorImSaImEEC2EmRKmRKS0_, @function
_ZNSt6vectorImSaImEEC2EmRKmRKS0_:
.LFB10461:
	.cfi_startproc
	.cfi_personality 0x9b,DW.ref.__gxx_personality_v0
	.cfi_lsda 0x1b,.LLSDA10461
	endbr64	
	push	rbp	#
	.cfi_def_cfa_offset 16
	.cfi_offset 6, -16
	mov	rbp, rsp	#,
	.cfi_def_cfa_register 6
	push	rbx	#
	sub	rsp, 40	#,
	.cfi_offset 3, -24
	mov	QWORD PTR -24[rbp], rdi	# this, this
	mov	QWORD PTR -32[rbp], rsi	# __n, __n
	mov	QWORD PTR -40[rbp], rdx	# __value, __value
	mov	QWORD PTR -48[rbp], rcx	# __a, __a
# /usr/include/c++/13/bits/stl_vector.h:571:       : _Base(_S_check_init_len(__n, __a), __a)
	mov	rbx, QWORD PTR -24[rbp]	# _1, this
	mov	rdx, QWORD PTR -48[rbp]	# tmp86, __a
	mov	rax, QWORD PTR -32[rbp]	# tmp87, __n
	mov	rsi, rdx	#, tmp86
	mov	rdi, rax	#, tmp87
.LEHB5:
	call	_ZNSt6vectorImSaImEE17_S_check_init_lenEmRKS0_	#
	mov	rcx, rax	# _2,
# /usr/include/c++/13/bits/stl_vector.h:571:       : _Base(_S_check_init_len(__n, __a), __a)
	mov	rax, QWORD PTR -48[rbp]	# tmp88, __a
	mov	rdx, rax	#, tmp88
	mov	rsi, rcx	#, _2
	mov	rdi, rbx	#, _1
	call	_ZNSt12_Vector_baseImSaImEEC2EmRKS0_	#
.LEHE5:
# /usr/include/c++/13/bits/stl_vector.h:572:       { _M_fill_initialize(__n, __value); }
	mov	rdx, QWORD PTR -40[rbp]	# tmp89, __value
	mov	rcx, QWORD PTR -32[rbp]	# tmp90, __n
	mov	rax, QWORD PTR -24[rbp]	# tmp91, this
	mov	rsi, rcx	#, tmp90
	mov	rdi, rax	#, tmp91
.LEHB6:
	call	_ZNSt6vectorImSaImEE18_M_fill_initializeEmRKm	#
.LEHE6:
# /usr/include/c++/13/bits/stl_vector.h:572:       { _M_fill_initialize(__n, __value); }
	jmp	.L31	#
.L30:
	endbr64	
# /usr/include/c++/13/bits/stl_vector.h:572:       { _M_fill_initialize(__n, __value); }
	mov	rbx, rax	# tmp92,
	mov	rax, QWORD PTR -24[rbp]	# _3, this
	mov	rdi, rax	#, _3
	call	_ZNSt12_Vector_baseImSaImEED2Ev	#
	mov	rax, rbx	# D.224969, tmp92
	mov	rdi, rax	#, D.224969
.LEHB7:
	call	_Unwind_Resume@PLT	#
.LEHE7:
.L31:
# /usr/include/c++/13/bits/stl_vector.h:572:       { _M_fill_initialize(__n, __value); }
	mov	rbx, QWORD PTR -8[rbp]	#,
	leave	
	.cfi_def_cfa 7, 8
	ret	
	.cfi_endproc
.LFE10461:
	.section	.gcc_except_table
.LLSDA10461:
	.byte	0xff
	.byte	0xff
	.byte	0x1
	.uleb128 .LLSDACSE10461-.LLSDACSB10461
.LLSDACSB10461:
	.uleb128 .LEHB5-.LFB10461
	.uleb128 .LEHE5-.LEHB5
	.uleb128 0
	.uleb128 0
	.uleb128 .LEHB6-.LFB10461
	.uleb128 .LEHE6-.LEHB6
	.uleb128 .L30-.LFB10461
	.uleb128 0
	.uleb128 .LEHB7-.LFB10461
	.uleb128 .LEHE7-.LEHB7
	.uleb128 0
	.uleb128 0
.LLSDACSE10461:
	.section	.text._ZNSt6vectorImSaImEEC2EmRKmRKS0_,"axG",@progbits,_ZNSt6vectorImSaImEEC5EmRKmRKS0_,comdat
	.size	_ZNSt6vectorImSaImEEC2EmRKmRKS0_, .-_ZNSt6vectorImSaImEEC2EmRKmRKS0_
	.weak	_ZNSt6vectorImSaImEEC1EmRKmRKS0_
	.set	_ZNSt6vectorImSaImEEC1EmRKmRKS0_,_ZNSt6vectorImSaImEEC2EmRKmRKS0_
	.section	.text._ZNSt6vectorImSaImEEixEm,"axG",@progbits,_ZNSt6vectorImSaImEEixEm,comdat
	.align 2
	.weak	_ZNSt6vectorImSaImEEixEm
	.type	_ZNSt6vectorImSaImEEixEm, @function
_ZNSt6vectorImSaImEEixEm:
.LFB10464:
	.cfi_startproc
	endbr64	
	push	rbp	#
	.cfi_def_cfa_offset 16
	.cfi_offset 6, -16
	mov	rbp, rsp	#,
	.cfi_def_cfa_register 6
	mov	QWORD PTR -8[rbp], rdi	# this, this
	mov	QWORD PTR -16[rbp], rsi	# __n, __n
# /usr/include/c++/13/bits/stl_vector.h:1129: 	return *(this->_M_impl._M_start + __n);
	mov	rax, QWORD PTR -8[rbp]	# tmp86, this
	mov	rax, QWORD PTR [rax]	# _1, this_4(D)->D.177508._M_impl.D.176853._M_start
# /usr/include/c++/13/bits/stl_vector.h:1129: 	return *(this->_M_impl._M_start + __n);
	mov	rdx, QWORD PTR -16[rbp]	# tmp87, __n
	sal	rdx, 3	# _2,
# /usr/include/c++/13/bits/stl_vector.h:1129: 	return *(this->_M_impl._M_start + __n);
	add	rax, rdx	# _6, _2
# /usr/include/c++/13/bits/stl_vector.h:1130:       }
	pop	rbp	#
	.cfi_def_cfa 7, 8
	ret	
	.cfi_endproc
.LFE10464:
	.size	_ZNSt6vectorImSaImEEixEm, .-_ZNSt6vectorImSaImEEixEm
	.section	.text._ZNSt6vectorImSaImEE5beginEv,"axG",@progbits,_ZNSt6vectorImSaImEE5beginEv,comdat
	.align 2
	.weak	_ZNSt6vectorImSaImEE5beginEv
	.type	_ZNSt6vectorImSaImEE5beginEv, @function
_ZNSt6vectorImSaImEE5beginEv:
.LFB10465:
	.cfi_startproc
	endbr64	
	push	rbp	#
	.cfi_def_cfa_offset 16
	.cfi_offset 6, -16
	mov	rbp, rsp	#,
	.cfi_def_cfa_register 6
	sub	rsp, 32	#,
	mov	QWORD PTR -24[rbp], rdi	# this, this
# /usr/include/c++/13/bits/stl_vector.h:873:       begin() _GLIBCXX_NOEXCEPT
	mov	rax, QWORD PTR fs:40	# tmp87, MEM[(<address-space-1> long unsigned int *)40B]
	mov	QWORD PTR -8[rbp], rax	# D.224970, tmp87
	xor	eax, eax	# tmp87
# /usr/include/c++/13/bits/stl_vector.h:874:       { return iterator(this->_M_impl._M_start); }
	mov	rdx, QWORD PTR -24[rbp]	# _1, this
# /usr/include/c++/13/bits/stl_vector.h:874:       { return iterator(this->_M_impl._M_start); }
	lea	rax, -16[rbp]	# tmp85,
	mov	rsi, rdx	#, _1
	mov	rdi, rax	#, tmp85
	call	_ZN9__gnu_cxx17__normal_iteratorIPmSt6vectorImSaImEEEC1ERKS1_	#
# /usr/include/c++/13/bits/stl_vector.h:874:       { return iterator(this->_M_impl._M_start); }
	mov	rax, QWORD PTR -16[rbp]	# D.224834, D.214735
# /usr/include/c++/13/bits/stl_vector.h:874:       { return iterator(this->_M_impl._M_start); }
	mov	rdx, QWORD PTR -8[rbp]	# tmp88, D.224970
	sub	rdx, QWORD PTR fs:40	# tmp88, MEM[(<address-space-1> long unsigned int *)40B]
	je	.L36	#,
	call	__stack_chk_fail@PLT	#
.L36:
	leave	
	.cfi_def_cfa 7, 8
	ret	
	.cfi_endproc
.LFE10465:
	.size	_ZNSt6vectorImSaImEE5beginEv, .-_ZNSt6vectorImSaImEE5beginEv
	.section	.text._ZNSt6vectorImSaImEE3endEv,"axG",@progbits,_ZNSt6vectorImSaImEE3endEv,comdat
	.align 2
	.weak	_ZNSt6vectorImSaImEE3endEv
	.type	_ZNSt6vectorImSaImEE3endEv, @function
_ZNSt6vectorImSaImEE3endEv:
.LFB10466:
	.cfi_startproc
	endbr64	
	push	rbp	#
	.cfi_def_cfa_offset 16
	.cfi_offset 6, -16
	mov	rbp, rsp	#,
	.cfi_def_cfa_register 6
	sub	rsp, 32	#,
	mov	QWORD PTR -24[rbp], rdi	# this, this
# /usr/include/c++/13/bits/stl_vector.h:893:       end() _GLIBCXX_NOEXCEPT
	mov	rax, QWORD PTR fs:40	# tmp88, MEM[(<address-space-1> long unsigned int *)40B]
	mov	QWORD PTR -8[rbp], rax	# D.224971, tmp88
	xor	eax, eax	# tmp88
# /usr/include/c++/13/bits/stl_vector.h:894:       { return iterator(this->_M_impl._M_finish); }
	mov	rax, QWORD PTR -24[rbp]	# tmp85, this
	lea	rdx, 8[rax]	# _1,
# /usr/include/c++/13/bits/stl_vector.h:894:       { return iterator(this->_M_impl._M_finish); }
	lea	rax, -16[rbp]	# tmp86,
	mov	rsi, rdx	#, _1
	mov	rdi, rax	#, tmp86
	call	_ZN9__gnu_cxx17__normal_iteratorIPmSt6vectorImSaImEEEC1ERKS1_	#
# /usr/include/c++/13/bits/stl_vector.h:894:       { return iterator(this->_M_impl._M_finish); }
	mov	rax, QWORD PTR -16[rbp]	# D.224837, D.214737
# /usr/include/c++/13/bits/stl_vector.h:894:       { return iterator(this->_M_impl._M_finish); }
	mov	rdx, QWORD PTR -8[rbp]	# tmp89, D.224971
	sub	rdx, QWORD PTR fs:40	# tmp89, MEM[(<address-space-1> long unsigned int *)40B]
	je	.L39	#,
	call	__stack_chk_fail@PLT	#
.L39:
	leave	
	.cfi_def_cfa 7, 8
	ret	
	.cfi_endproc
.LFE10466:
	.size	_ZNSt6vectorImSaImEE3endEv, .-_ZNSt6vectorImSaImEE3endEv
	.section	.text._ZN9__gnu_cxxneIPmSt6vectorImSaImEEEEbRKNS_17__normal_iteratorIT_T0_EESA_,"axG",@progbits,_ZN9__gnu_cxxneIPmSt6vectorImSaImEEEEbRKNS_17__normal_iteratorIT_T0_EESA_,comdat
	.weak	_ZN9__gnu_cxxneIPmSt6vectorImSaImEEEEbRKNS_17__normal_iteratorIT_T0_EESA_
	.type	_ZN9__gnu_cxxneIPmSt6vectorImSaImEEEEbRKNS_17__normal_iteratorIT_T0_EESA_, @function
_ZN9__gnu_cxxneIPmSt6vectorImSaImEEEEbRKNS_17__normal_iteratorIT_T0_EESA_:
.LFB10467:
	.cfi_startproc
	endbr64	
	push	rbp	#
	.cfi_def_cfa_offset 16
	.cfi_offset 6, -16
	mov	rbp, rsp	#,
	.cfi_def_cfa_register 6
	push	rbx	#
	sub	rsp, 24	#,
	.cfi_offset 3, -24
	mov	QWORD PTR -24[rbp], rdi	# __lhs, __lhs
	mov	QWORD PTR -32[rbp], rsi	# __rhs, __rhs
# /usr/include/c++/13/bits/stl_iterator.h:1244:     { return __lhs.base() != __rhs.base(); }
	mov	rax, QWORD PTR -24[rbp]	# tmp88, __lhs
	mov	rdi, rax	#, tmp88
	call	_ZNK9__gnu_cxx17__normal_iteratorIPmSt6vectorImSaImEEE4baseEv	#
# /usr/include/c++/13/bits/stl_iterator.h:1244:     { return __lhs.base() != __rhs.base(); }
	mov	rbx, QWORD PTR [rax]	# _2, *_1
# /usr/include/c++/13/bits/stl_iterator.h:1244:     { return __lhs.base() != __rhs.base(); }
	mov	rax, QWORD PTR -32[rbp]	# tmp89, __rhs
	mov	rdi, rax	#, tmp89
	call	_ZNK9__gnu_cxx17__normal_iteratorIPmSt6vectorImSaImEEE4baseEv	#
# /usr/include/c++/13/bits/stl_iterator.h:1244:     { return __lhs.base() != __rhs.base(); }
	mov	rax, QWORD PTR [rax]	# _4, *_3
# /usr/include/c++/13/bits/stl_iterator.h:1244:     { return __lhs.base() != __rhs.base(); }
	cmp	rbx, rax	# _2, _4
	setne	al	#, _10
# /usr/include/c++/13/bits/stl_iterator.h:1244:     { return __lhs.base() != __rhs.base(); }
	mov	rbx, QWORD PTR -8[rbp]	#,
	leave	
	.cfi_def_cfa 7, 8
	ret	
	.cfi_endproc
.LFE10467:
	.size	_ZN9__gnu_cxxneIPmSt6vectorImSaImEEEEbRKNS_17__normal_iteratorIT_T0_EESA_, .-_ZN9__gnu_cxxneIPmSt6vectorImSaImEEEEbRKNS_17__normal_iteratorIT_T0_EESA_
	.section	.text._ZN9__gnu_cxx17__normal_iteratorIPmSt6vectorImSaImEEEppEv,"axG",@progbits,_ZN9__gnu_cxx17__normal_iteratorIPmSt6vectorImSaImEEEppEv,comdat
	.align 2
	.weak	_ZN9__gnu_cxx17__normal_iteratorIPmSt6vectorImSaImEEEppEv
	.type	_ZN9__gnu_cxx17__normal_iteratorIPmSt6vectorImSaImEEEppEv, @function
_ZN9__gnu_cxx17__normal_iteratorIPmSt6vectorImSaImEEEppEv:
.LFB10468:
	.cfi_startproc
	endbr64	
	push	rbp	#
	.cfi_def_cfa_offset 16
	.cfi_offset 6, -16
	mov	rbp, rsp	#,
	.cfi_def_cfa_register 6
	mov	QWORD PTR -8[rbp], rdi	# this, this
# /usr/include/c++/13/bits/stl_iterator.h:1111: 	++_M_current;
	mov	rax, QWORD PTR -8[rbp]	# tmp86, this
	mov	rax, QWORD PTR [rax]	# _1, this_4(D)->_M_current
# /usr/include/c++/13/bits/stl_iterator.h:1111: 	++_M_current;
	lea	rdx, 8[rax]	# _2,
	mov	rax, QWORD PTR -8[rbp]	# tmp87, this
	mov	QWORD PTR [rax], rdx	# this_4(D)->_M_current, _2
# /usr/include/c++/13/bits/stl_iterator.h:1112: 	return *this;
	mov	rax, QWORD PTR -8[rbp]	# _6, this
# /usr/include/c++/13/bits/stl_iterator.h:1113:       }
	pop	rbp	#
	.cfi_def_cfa 7, 8
	ret	
	.cfi_endproc
.LFE10468:
	.size	_ZN9__gnu_cxx17__normal_iteratorIPmSt6vectorImSaImEEEppEv, .-_ZN9__gnu_cxx17__normal_iteratorIPmSt6vectorImSaImEEEppEv
	.section	.text._ZNK9__gnu_cxx17__normal_iteratorIPmSt6vectorImSaImEEEdeEv,"axG",@progbits,_ZNK9__gnu_cxx17__normal_iteratorIPmSt6vectorImSaImEEEdeEv,comdat
	.align 2
	.weak	_ZNK9__gnu_cxx17__normal_iteratorIPmSt6vectorImSaImEEEdeEv
	.type	_ZNK9__gnu_cxx17__normal_iteratorIPmSt6vectorImSaImEEEdeEv, @function
_ZNK9__gnu_cxx17__normal_iteratorIPmSt6vectorImSaImEEEdeEv:
.LFB10469:
	.cfi_startproc
	endbr64	
	push	rbp	#
	.cfi_def_cfa_offset 16
	.cfi_offset 6, -16
	mov	rbp, rsp	#,
	.cfi_def_cfa_register 6
	mov	QWORD PTR -8[rbp], rdi	# this, this
# /usr/include/c++/13/bits/stl_iterator.h:1100:       { return *_M_current; }
	mov	rax, QWORD PTR -8[rbp]	# tmp84, this
	mov	rax, QWORD PTR [rax]	# _3, this_2(D)->_M_current
# /usr/include/c++/13/bits/stl_iterator.h:1100:       { return *_M_current; }
	pop	rbp	#
	.cfi_def_cfa 7, 8
	ret	
	.cfi_endproc
.LFE10469:
	.size	_ZNK9__gnu_cxx17__normal_iteratorIPmSt6vectorImSaImEEEdeEv, .-_ZNK9__gnu_cxx17__normal_iteratorIPmSt6vectorImSaImEEEdeEv
	.section	.text._ZNSt12_Vector_baseImSaImEE17_Vector_impl_dataC2Ev,"axG",@progbits,_ZNSt12_Vector_baseImSaImEE17_Vector_impl_dataC5Ev,comdat
	.align 2
	.weak	_ZNSt12_Vector_baseImSaImEE17_Vector_impl_dataC2Ev
	.type	_ZNSt12_Vector_baseImSaImEE17_Vector_impl_dataC2Ev, @function
_ZNSt12_Vector_baseImSaImEE17_Vector_impl_dataC2Ev:
.LFB10779:
	.cfi_startproc
	endbr64	
	push	rbp	#
	.cfi_def_cfa_offset 16
	.cfi_offset 6, -16
	mov	rbp, rsp	#,
	.cfi_def_cfa_register 6
	mov	QWORD PTR -8[rbp], rdi	# this, this
# /usr/include/c++/13/bits/stl_vector.h:100: 	: _M_start(), _M_finish(), _M_end_of_storage()
	mov	rax, QWORD PTR -8[rbp]	# tmp82, this
	mov	QWORD PTR [rax], 0	# this_2(D)->_M_start,
# /usr/include/c++/13/bits/stl_vector.h:100: 	: _M_start(), _M_finish(), _M_end_of_storage()
	mov	rax, QWORD PTR -8[rbp]	# tmp83, this
	mov	QWORD PTR 8[rax], 0	# this_2(D)->_M_finish,
# /usr/include/c++/13/bits/stl_vector.h:100: 	: _M_start(), _M_finish(), _M_end_of_storage()
	mov	rax, QWORD PTR -8[rbp]	# tmp84, this
	mov	QWORD PTR 16[rax], 0	# this_2(D)->_M_end_of_storage,
# /usr/include/c++/13/bits/stl_vector.h:101: 	{ }
	nop	
	pop	rbp	#
	.cfi_def_cfa 7, 8
	ret	
	.cfi_endproc
.LFE10779:
	.size	_ZNSt12_Vector_baseImSaImEE17_Vector_impl_dataC2Ev, .-_ZNSt12_Vector_baseImSaImEE17_Vector_impl_dataC2Ev
	.weak	_ZNSt12_Vector_baseImSaImEE17_Vector_impl_dataC1Ev
	.set	_ZNSt12_Vector_baseImSaImEE17_Vector_impl_dataC1Ev,_ZNSt12_Vector_baseImSaImEE17_Vector_impl_dataC2Ev
	.section	.text._ZNSt15__new_allocatorImED2Ev,"axG",@progbits,_ZNSt15__new_allocatorImED5Ev,comdat
	.align 2
	.weak	_ZNSt15__new_allocatorImED2Ev
	.type	_ZNSt15__new_allocatorImED2Ev, @function
_ZNSt15__new_allocatorImED2Ev:
.LFB10782:
	.cfi_startproc
	endbr64	
	push	rbp	#
	.cfi_def_cfa_offset 16
	.cfi_offset 6, -16
	mov	rbp, rsp	#,
	.cfi_def_cfa_register 6
	mov	QWORD PTR -8[rbp], rdi	# this, this
# /usr/include/c++/13/bits/new_allocator.h:104:       ~__new_allocator() _GLIBCXX_USE_NOEXCEPT { }
	nop	
	pop	rbp	#
	.cfi_def_cfa 7, 8
	ret	
	.cfi_endproc
.LFE10782:
	.size	_ZNSt15__new_allocatorImED2Ev, .-_ZNSt15__new_allocatorImED2Ev
	.weak	_ZNSt15__new_allocatorImED1Ev
	.set	_ZNSt15__new_allocatorImED1Ev,_ZNSt15__new_allocatorImED2Ev
	.section	.text._ZNSt12_Vector_baseImSaImEE13_M_deallocateEPmm,"axG",@progbits,_ZNSt12_Vector_baseImSaImEE13_M_deallocateEPmm,comdat
	.align 2
	.weak	_ZNSt12_Vector_baseImSaImEE13_M_deallocateEPmm
	.type	_ZNSt12_Vector_baseImSaImEE13_M_deallocateEPmm, @function
_ZNSt12_Vector_baseImSaImEE13_M_deallocateEPmm:
.LFB10784:
	.cfi_startproc
	endbr64	
	push	rbp	#
	.cfi_def_cfa_offset 16
	.cfi_offset 6, -16
	mov	rbp, rsp	#,
	.cfi_def_cfa_register 6
	sub	rsp, 64	#,
	mov	QWORD PTR -40[rbp], rdi	# this, this
	mov	QWORD PTR -48[rbp], rsi	# __p, __p
	mov	QWORD PTR -56[rbp], rdx	# __n, __n
# /usr/include/c++/13/bits/stl_vector.h:389: 	if (__p)
	cmp	QWORD PTR -48[rbp], 0	# __p,
	je	.L50	#,
# /usr/include/c++/13/bits/stl_vector.h:390: 	  _Tr::deallocate(_M_impl, __p, __n);
	mov	rax, QWORD PTR -40[rbp]	# _1, this
	mov	QWORD PTR -24[rbp], rax	# __a, _1
	mov	rax, QWORD PTR -48[rbp]	# tmp83, __p
	mov	QWORD PTR -16[rbp], rax	# __p, tmp83
	mov	rax, QWORD PTR -56[rbp]	# tmp84, __n
	mov	QWORD PTR -8[rbp], rax	# __n, tmp84
# /usr/include/c++/13/bits/alloc_traits.h:517:       { __a.deallocate(__p, __n); }
	mov	rdx, QWORD PTR -8[rbp]	# tmp85, __n
	mov	rcx, QWORD PTR -16[rbp]	# tmp86, __p
	mov	rax, QWORD PTR -24[rbp]	# tmp87, __a
	mov	rsi, rcx	#, tmp86
	mov	rdi, rax	#, tmp87
	call	_ZNSt15__new_allocatorImE10deallocateEPmm	#
# /usr/include/c++/13/bits/alloc_traits.h:517:       { __a.deallocate(__p, __n); }
	nop	
.L50:
# /usr/include/c++/13/bits/stl_vector.h:391:       }
	nop	
	leave	
	.cfi_def_cfa 7, 8
	ret	
	.cfi_endproc
.LFE10784:
	.size	_ZNSt12_Vector_baseImSaImEE13_M_deallocateEPmm, .-_ZNSt12_Vector_baseImSaImEE13_M_deallocateEPmm
	.section	.text._ZNSt12_Vector_baseImSaImEE19_M_get_Tp_allocatorEv,"axG",@progbits,_ZNSt12_Vector_baseImSaImEE19_M_get_Tp_allocatorEv,comdat
	.align 2
	.weak	_ZNSt12_Vector_baseImSaImEE19_M_get_Tp_allocatorEv
	.type	_ZNSt12_Vector_baseImSaImEE19_M_get_Tp_allocatorEv, @function
_ZNSt12_Vector_baseImSaImEE19_M_get_Tp_allocatorEv:
.LFB10785:
	.cfi_startproc
	endbr64	
	push	rbp	#
	.cfi_def_cfa_offset 16
	.cfi_offset 6, -16
	mov	rbp, rsp	#,
	.cfi_def_cfa_register 6
	mov	QWORD PTR -8[rbp], rdi	# this, this
# /usr/include/c++/13/bits/stl_vector.h:302:       { return this->_M_impl; }
	mov	rax, QWORD PTR -8[rbp]	# _2, this
# /usr/include/c++/13/bits/stl_vector.h:302:       { return this->_M_impl; }
	pop	rbp	#
	.cfi_def_cfa 7, 8
	ret	
	.cfi_endproc
.LFE10785:
	.size	_ZNSt12_Vector_baseImSaImEE19_M_get_Tp_allocatorEv, .-_ZNSt12_Vector_baseImSaImEE19_M_get_Tp_allocatorEv
	.section	.rodata
	.align 8
.LC2:
	.string	"cannot create std::vector larger than max_size()"
	.section	.text._ZNSt6vectorImSaImEE17_S_check_init_lenEmRKS0_,"axG",@progbits,_ZNSt6vectorImSaImEE17_S_check_init_lenEmRKS0_,comdat
	.weak	_ZNSt6vectorImSaImEE17_S_check_init_lenEmRKS0_
	.type	_ZNSt6vectorImSaImEE17_S_check_init_lenEmRKS0_, @function
_ZNSt6vectorImSaImEE17_S_check_init_lenEmRKS0_:
.LFB10895:
	.cfi_startproc
	endbr64	
	push	rbp	#
	.cfi_def_cfa_offset 16
	.cfi_offset 6, -16
	mov	rbp, rsp	#,
	.cfi_def_cfa_register 6
	push	rbx	#
	sub	rsp, 72	#,
	.cfi_offset 3, -24
	mov	QWORD PTR -72[rbp], rdi	# __n, __n
	mov	QWORD PTR -80[rbp], rsi	# __a, __a
# /usr/include/c++/13/bits/stl_vector.h:1907:       _S_check_init_len(size_type __n, const allocator_type& __a)
	mov	rax, QWORD PTR fs:40	# tmp93, MEM[(<address-space-1> long unsigned int *)40B]
	mov	QWORD PTR -24[rbp], rax	# D.224972, tmp93
	xor	eax, eax	# tmp93
	mov	rax, QWORD PTR -80[rbp]	# tmp86, __a
	mov	QWORD PTR -48[rbp], rax	# __a, tmp86
	lea	rax, -49[rbp]	# tmp87,
	mov	QWORD PTR -40[rbp], rax	# this, tmp87
	mov	rax, QWORD PTR -48[rbp]	# tmp88, __a
	mov	QWORD PTR -32[rbp], rax	# D.224944, tmp88
# /usr/include/c++/13/bits/new_allocator.h:92:       __new_allocator(const __new_allocator&) _GLIBCXX_USE_NOEXCEPT { }
	nop	
# /usr/include/c++/13/bits/allocator.h:168:       : __allocator_base<_Tp>(__a) { }
	nop	
# /usr/include/c++/13/bits/stl_vector.h:1909: 	if (__n > _S_max_size(_Tp_alloc_type(__a)))
	lea	rax, -49[rbp]	# tmp89,
	mov	rdi, rax	#, tmp89
	call	_ZNSt6vectorImSaImEE11_S_max_sizeERKS0_	#
# /usr/include/c++/13/bits/stl_vector.h:1909: 	if (__n > _S_max_size(_Tp_alloc_type(__a)))
	cmp	rax, QWORD PTR -72[rbp]	# _1, __n
	setb	bl	#, retval.10_6
# /usr/include/c++/13/bits/allocator.h:184:       ~allocator() _GLIBCXX_NOTHROW { }
	lea	rax, -49[rbp]	# tmp90,
	mov	rdi, rax	#, tmp90
	call	_ZNSt15__new_allocatorImED2Ev	#
	nop	
# /usr/include/c++/13/bits/stl_vector.h:1909: 	if (__n > _S_max_size(_Tp_alloc_type(__a)))
	test	bl, bl	# retval.10_6
	je	.L54	#,
# /usr/include/c++/13/bits/stl_vector.h:1910: 	  __throw_length_error(
	mov	rax, QWORD PTR -24[rbp]	# tmp94, D.224972
	sub	rax, QWORD PTR fs:40	# tmp94, MEM[(<address-space-1> long unsigned int *)40B]
	je	.L55	#,
	call	__stack_chk_fail@PLT	#
.L55:
	lea	rax, .LC2[rip]	# tmp91,
	mov	rdi, rax	#, tmp91
	call	_ZSt20__throw_length_errorPKc@PLT	#
.L54:
# /usr/include/c++/13/bits/stl_vector.h:1912: 	return __n;
	mov	rax, QWORD PTR -72[rbp]	# _8, __n
# /usr/include/c++/13/bits/stl_vector.h:1913:       }
	mov	rdx, QWORD PTR -24[rbp]	# tmp95, D.224972
	sub	rdx, QWORD PTR fs:40	# tmp95, MEM[(<address-space-1> long unsigned int *)40B]
	je	.L57	#,
	call	__stack_chk_fail@PLT	#
.L57:
	mov	rbx, QWORD PTR -8[rbp]	#,
	leave	
	.cfi_def_cfa 7, 8
	ret	
	.cfi_endproc
.LFE10895:
	.size	_ZNSt6vectorImSaImEE17_S_check_init_lenEmRKS0_, .-_ZNSt6vectorImSaImEE17_S_check_init_lenEmRKS0_
	.section	.text._ZNSt12_Vector_baseImSaImEEC2EmRKS0_,"axG",@progbits,_ZNSt12_Vector_baseImSaImEEC5EmRKS0_,comdat
	.align 2
	.weak	_ZNSt12_Vector_baseImSaImEEC2EmRKS0_
	.type	_ZNSt12_Vector_baseImSaImEEC2EmRKS0_, @function
_ZNSt12_Vector_baseImSaImEEC2EmRKS0_:
.LFB10897:
	.cfi_startproc
	.cfi_personality 0x9b,DW.ref.__gxx_personality_v0
	.cfi_lsda 0x1b,.LLSDA10897
	endbr64	
	push	rbp	#
	.cfi_def_cfa_offset 16
	.cfi_offset 6, -16
	mov	rbp, rsp	#,
	.cfi_def_cfa_register 6
	push	rbx	#
	sub	rsp, 40	#,
	.cfi_offset 3, -24
	mov	QWORD PTR -24[rbp], rdi	# this, this
	mov	QWORD PTR -32[rbp], rsi	# __n, __n
	mov	QWORD PTR -40[rbp], rdx	# __a, __a
# /usr/include/c++/13/bits/stl_vector.h:334:       : _M_impl(__a)
	mov	rax, QWORD PTR -24[rbp]	# _1, this
	mov	rdx, QWORD PTR -40[rbp]	# tmp85, __a
	mov	rsi, rdx	#, tmp85
	mov	rdi, rax	#, _1
	call	_ZNSt12_Vector_baseImSaImEE12_Vector_implC1ERKS0_	#
# /usr/include/c++/13/bits/stl_vector.h:335:       { _M_create_storage(__n); }
	mov	rdx, QWORD PTR -32[rbp]	# tmp86, __n
	mov	rax, QWORD PTR -24[rbp]	# tmp87, this
	mov	rsi, rdx	#, tmp86
	mov	rdi, rax	#, tmp87
.LEHB8:
	call	_ZNSt12_Vector_baseImSaImEE17_M_create_storageEm	#
.LEHE8:
# /usr/include/c++/13/bits/stl_vector.h:335:       { _M_create_storage(__n); }
	jmp	.L61	#
.L60:
	endbr64	
# /usr/include/c++/13/bits/stl_vector.h:335:       { _M_create_storage(__n); }
	mov	rbx, rax	# tmp88,
	mov	rax, QWORD PTR -24[rbp]	# _2, this
	mov	rdi, rax	#, _2
	call	_ZNSt12_Vector_baseImSaImEE12_Vector_implD1Ev	#
	mov	rax, rbx	# D.224974, tmp88
	mov	rdi, rax	#, D.224974
.LEHB9:
	call	_Unwind_Resume@PLT	#
.LEHE9:
.L61:
# /usr/include/c++/13/bits/stl_vector.h:335:       { _M_create_storage(__n); }
	mov	rbx, QWORD PTR -8[rbp]	#,
	leave	
	.cfi_def_cfa 7, 8
	ret	
	.cfi_endproc
.LFE10897:
	.section	.gcc_except_table
.LLSDA10897:
	.byte	0xff
	.byte	0xff
	.byte	0x1
	.uleb128 .LLSDACSE10897-.LLSDACSB10897
.LLSDACSB10897:
	.uleb128 .LEHB8-.LFB10897
	.uleb128 .LEHE8-.LEHB8
	.uleb128 .L60-.LFB10897
	.uleb128 0
	.uleb128 .LEHB9-.LFB10897
	.uleb128 .LEHE9-.LEHB9
	.uleb128 0
	.uleb128 0
.LLSDACSE10897:
	.section	.text._ZNSt12_Vector_baseImSaImEEC2EmRKS0_,"axG",@progbits,_ZNSt12_Vector_baseImSaImEEC5EmRKS0_,comdat
	.size	_ZNSt12_Vector_baseImSaImEEC2EmRKS0_, .-_ZNSt12_Vector_baseImSaImEEC2EmRKS0_
	.weak	_ZNSt12_Vector_baseImSaImEEC1EmRKS0_
	.set	_ZNSt12_Vector_baseImSaImEEC1EmRKS0_,_ZNSt12_Vector_baseImSaImEEC2EmRKS0_
	.section	.text._ZNSt6vectorImSaImEE18_M_fill_initializeEmRKm,"axG",@progbits,_ZNSt6vectorImSaImEE18_M_fill_initializeEmRKm,comdat
	.align 2
	.weak	_ZNSt6vectorImSaImEE18_M_fill_initializeEmRKm
	.type	_ZNSt6vectorImSaImEE18_M_fill_initializeEmRKm, @function
_ZNSt6vectorImSaImEE18_M_fill_initializeEmRKm:
.LFB10899:
	.cfi_startproc
	endbr64	
	push	rbp	#
	.cfi_def_cfa_offset 16
	.cfi_offset 6, -16
	mov	rbp, rsp	#,
	.cfi_def_cfa_register 6
	sub	rsp, 32	#,
	mov	QWORD PTR -8[rbp], rdi	# this, this
	mov	QWORD PTR -16[rbp], rsi	# __n, __n
	mov	QWORD PTR -24[rbp], rdx	# __value, __value
# /usr/include/c++/13/bits/stl_vector.h:1708: 					_M_get_Tp_allocator());
	mov	rax, QWORD PTR -8[rbp]	# _1, this
	mov	rdi, rax	#, _1
	call	_ZNSt12_Vector_baseImSaImEE19_M_get_Tp_allocatorEv	#
	mov	rcx, rax	# _2,
# /usr/include/c++/13/bits/stl_vector.h:1707: 	  std::__uninitialized_fill_n_a(this->_M_impl._M_start, __n, __value,
	mov	rax, QWORD PTR -8[rbp]	# tmp86, this
	mov	rax, QWORD PTR [rax]	# _3, this_5(D)->D.177508._M_impl.D.176853._M_start
	mov	rdx, QWORD PTR -24[rbp]	# tmp87, __value
	mov	rsi, QWORD PTR -16[rbp]	# tmp88, __n
	mov	rdi, rax	#, _3
	call	_ZSt24__uninitialized_fill_n_aIPmmmmET_S1_T0_RKT1_RSaIT2_E	#
# /usr/include/c++/13/bits/stl_vector.h:1706: 	this->_M_impl._M_finish =
	mov	rdx, QWORD PTR -8[rbp]	# tmp89, this
	mov	QWORD PTR 8[rdx], rax	# this_5(D)->D.177508._M_impl.D.176853._M_finish, _4
# /usr/include/c++/13/bits/stl_vector.h:1709:       }
	nop	
	leave	
	.cfi_def_cfa 7, 8
	ret	
	.cfi_endproc
.LFE10899:
	.size	_ZNSt6vectorImSaImEE18_M_fill_initializeEmRKm, .-_ZNSt6vectorImSaImEE18_M_fill_initializeEmRKm
	.section	.text._ZN9__gnu_cxx17__normal_iteratorIPmSt6vectorImSaImEEEC2ERKS1_,"axG",@progbits,_ZN9__gnu_cxx17__normal_iteratorIPmSt6vectorImSaImEEEC5ERKS1_,comdat
	.align 2
	.weak	_ZN9__gnu_cxx17__normal_iteratorIPmSt6vectorImSaImEEEC2ERKS1_
	.type	_ZN9__gnu_cxx17__normal_iteratorIPmSt6vectorImSaImEEEC2ERKS1_, @function
_ZN9__gnu_cxx17__normal_iteratorIPmSt6vectorImSaImEEEC2ERKS1_:
.LFB10901:
	.cfi_startproc
	endbr64	
	push	rbp	#
	.cfi_def_cfa_offset 16
	.cfi_offset 6, -16
	mov	rbp, rsp	#,
	.cfi_def_cfa_register 6
	mov	QWORD PTR -8[rbp], rdi	# this, this
	mov	QWORD PTR -16[rbp], rsi	# __i, __i
# /usr/include/c++/13/bits/stl_iterator.h:1077:       : _M_current(__i) { }
	mov	rax, QWORD PTR -16[rbp]	# tmp83, __i
	mov	rdx, QWORD PTR [rax]	# _1, *__i_5(D)
	mov	rax, QWORD PTR -8[rbp]	# tmp84, this
	mov	QWORD PTR [rax], rdx	# this_3(D)->_M_current, _1
# /usr/include/c++/13/bits/stl_iterator.h:1077:       : _M_current(__i) { }
	nop	
	pop	rbp	#
	.cfi_def_cfa 7, 8
	ret	
	.cfi_endproc
.LFE10901:
	.size	_ZN9__gnu_cxx17__normal_iteratorIPmSt6vectorImSaImEEEC2ERKS1_, .-_ZN9__gnu_cxx17__normal_iteratorIPmSt6vectorImSaImEEEC2ERKS1_
	.weak	_ZN9__gnu_cxx17__normal_iteratorIPmSt6vectorImSaImEEEC1ERKS1_
	.set	_ZN9__gnu_cxx17__normal_iteratorIPmSt6vectorImSaImEEEC1ERKS1_,_ZN9__gnu_cxx17__normal_iteratorIPmSt6vectorImSaImEEEC2ERKS1_
	.section	.text._ZNK9__gnu_cxx17__normal_iteratorIPmSt6vectorImSaImEEE4baseEv,"axG",@progbits,_ZNK9__gnu_cxx17__normal_iteratorIPmSt6vectorImSaImEEE4baseEv,comdat
	.align 2
	.weak	_ZNK9__gnu_cxx17__normal_iteratorIPmSt6vectorImSaImEEE4baseEv
	.type	_ZNK9__gnu_cxx17__normal_iteratorIPmSt6vectorImSaImEEE4baseEv, @function
_ZNK9__gnu_cxx17__normal_iteratorIPmSt6vectorImSaImEEE4baseEv:
.LFB10903:
	.cfi_startproc
	endbr64	
	push	rbp	#
	.cfi_def_cfa_offset 16
	.cfi_offset 6, -16
	mov	rbp, rsp	#,
	.cfi_def_cfa_register 6
	mov	QWORD PTR -8[rbp], rdi	# this, this
# /usr/include/c++/13/bits/stl_iterator.h:1163:       { return _M_current; }
	mov	rax, QWORD PTR -8[rbp]	# _2, this
# /usr/include/c++/13/bits/stl_iterator.h:1163:       { return _M_current; }
	pop	rbp	#
	.cfi_def_cfa 7, 8
	ret	
	.cfi_endproc
.LFE10903:
	.size	_ZNK9__gnu_cxx17__normal_iteratorIPmSt6vectorImSaImEEE4baseEv, .-_ZNK9__gnu_cxx17__normal_iteratorIPmSt6vectorImSaImEEE4baseEv
	.section	.text._ZSt8_DestroyIPmEvT_S1_,"axG",@progbits,_ZSt8_DestroyIPmEvT_S1_,comdat
	.weak	_ZSt8_DestroyIPmEvT_S1_
	.type	_ZSt8_DestroyIPmEvT_S1_, @function
_ZSt8_DestroyIPmEvT_S1_:
.LFB11069:
	.cfi_startproc
	endbr64	
	push	rbp	#
	.cfi_def_cfa_offset 16
	.cfi_offset 6, -16
	mov	rbp, rsp	#,
	.cfi_def_cfa_register 6
	sub	rsp, 16	#,
	mov	QWORD PTR -8[rbp], rdi	# __first, __first
	mov	QWORD PTR -16[rbp], rsi	# __last, __last
# /usr/include/c++/13/bits/stl_construct.h:196: 	__destroy(__first, __last);
	mov	rdx, QWORD PTR -16[rbp]	# tmp82, __last
	mov	rax, QWORD PTR -8[rbp]	# tmp83, __first
	mov	rsi, rdx	#, tmp82
	mov	rdi, rax	#, tmp83
	call	_ZNSt12_Destroy_auxILb1EE9__destroyIPmEEvT_S3_	#
# /usr/include/c++/13/bits/stl_construct.h:197:     }
	nop	
	leave	
	.cfi_def_cfa 7, 8
	ret	
	.cfi_endproc
.LFE11069:
	.size	_ZSt8_DestroyIPmEvT_S1_, .-_ZSt8_DestroyIPmEvT_S1_
	.section	.text._ZNSt6vectorImSaImEE11_S_max_sizeERKS0_,"axG",@progbits,_ZNSt6vectorImSaImEE11_S_max_sizeERKS0_,comdat
	.weak	_ZNSt6vectorImSaImEE11_S_max_sizeERKS0_
	.type	_ZNSt6vectorImSaImEE11_S_max_sizeERKS0_, @function
_ZNSt6vectorImSaImEE11_S_max_sizeERKS0_:
.LFB11113:
	.cfi_startproc
	endbr64	
	push	rbp	#
	.cfi_def_cfa_offset 16
	.cfi_offset 6, -16
	mov	rbp, rsp	#,
	.cfi_def_cfa_register 6
	sub	rsp, 64	#,
	mov	QWORD PTR -56[rbp], rdi	# __a, __a
# /usr/include/c++/13/bits/stl_vector.h:1916:       _S_max_size(const _Tp_alloc_type& __a) _GLIBCXX_NOEXCEPT
	mov	rax, QWORD PTR fs:40	# tmp92, MEM[(<address-space-1> long unsigned int *)40B]
	mov	QWORD PTR -8[rbp], rax	# D.224975, tmp92
	xor	eax, eax	# tmp92
# /usr/include/c++/13/bits/stl_vector.h:1921: 	const size_t __diffmax
	movabs	rax, 1152921504606846975	# tmp95,
	mov	QWORD PTR -48[rbp], rax	# __diffmax, tmp95
	mov	rax, QWORD PTR -56[rbp]	# tmp86, __a
	mov	QWORD PTR -32[rbp], rax	# __a, tmp86
	mov	rax, QWORD PTR -32[rbp]	# tmp87, __a
	mov	QWORD PTR -24[rbp], rax	# this, tmp87
	mov	rax, QWORD PTR -24[rbp]	# tmp88, this
	mov	QWORD PTR -16[rbp], rax	# this, tmp88
# /usr/include/c++/13/bits/new_allocator.h:233: 	return std::size_t(__PTRDIFF_MAX__) / sizeof(_Tp);
	movabs	rax, 1152921504606846975	# D.224934,
# /usr/include/c++/13/bits/new_allocator.h:183:       { return _M_max_size(); }
	nop	
# /usr/include/c++/13/bits/alloc_traits.h:574: 	return __a.max_size();
	nop	
# /usr/include/c++/13/bits/stl_vector.h:1923: 	const size_t __allocmax = _Alloc_traits::max_size(__a);
	mov	QWORD PTR -40[rbp], rax	# __allocmax, D.224934
# /usr/include/c++/13/bits/stl_vector.h:1924: 	return (std::min)(__diffmax, __allocmax);
	lea	rdx, -40[rbp]	# tmp89,
	lea	rax, -48[rbp]	# tmp90,
	mov	rsi, rdx	#, tmp89
	mov	rdi, rax	#, tmp90
	call	_ZSt3minImERKT_S2_S2_	#
# /usr/include/c++/13/bits/stl_vector.h:1924: 	return (std::min)(__diffmax, __allocmax);
	mov	rax, QWORD PTR [rax]	# _8, *_2
# /usr/include/c++/13/bits/stl_vector.h:1925:       }
	mov	rdx, QWORD PTR -8[rbp]	# tmp93, D.224975
	sub	rdx, QWORD PTR fs:40	# tmp93, MEM[(<address-space-1> long unsigned int *)40B]
	je	.L72	#,
	call	__stack_chk_fail@PLT	#
.L72:
	leave	
	.cfi_def_cfa 7, 8
	ret	
	.cfi_endproc
.LFE11113:
	.size	_ZNSt6vectorImSaImEE11_S_max_sizeERKS0_, .-_ZNSt6vectorImSaImEE11_S_max_sizeERKS0_
	.section	.text._ZNSt12_Vector_baseImSaImEE12_Vector_implC2ERKS0_,"axG",@progbits,_ZNSt12_Vector_baseImSaImEE12_Vector_implC5ERKS0_,comdat
	.align 2
	.weak	_ZNSt12_Vector_baseImSaImEE12_Vector_implC2ERKS0_
	.type	_ZNSt12_Vector_baseImSaImEE12_Vector_implC2ERKS0_, @function
_ZNSt12_Vector_baseImSaImEE12_Vector_implC2ERKS0_:
.LFB11118:
	.cfi_startproc
	endbr64	
	push	rbp	#
	.cfi_def_cfa_offset 16
	.cfi_offset 6, -16
	mov	rbp, rsp	#,
	.cfi_def_cfa_register 6
	sub	rsp, 48	#,
	mov	QWORD PTR -40[rbp], rdi	# this, this
	mov	QWORD PTR -48[rbp], rsi	# __a, __a
	mov	rax, QWORD PTR -40[rbp]	# tmp83, this
	mov	QWORD PTR -32[rbp], rax	# this, tmp83
	mov	rax, QWORD PTR -48[rbp]	# tmp84, __a
	mov	QWORD PTR -24[rbp], rax	# __a, tmp84
	mov	rax, QWORD PTR -32[rbp]	# tmp85, this
	mov	QWORD PTR -16[rbp], rax	# this, tmp85
	mov	rax, QWORD PTR -24[rbp]	# tmp86, __a
	mov	QWORD PTR -8[rbp], rax	# D.224909, tmp86
# /usr/include/c++/13/bits/new_allocator.h:92:       __new_allocator(const __new_allocator&) _GLIBCXX_USE_NOEXCEPT { }
	nop	
# /usr/include/c++/13/bits/allocator.h:168:       : __allocator_base<_Tp>(__a) { }
	nop	
# /usr/include/c++/13/bits/stl_vector.h:147: 	: _Tp_alloc_type(__a)
	mov	rax, QWORD PTR -40[rbp]	# _1, this
	mov	rdi, rax	#, _1
	call	_ZNSt12_Vector_baseImSaImEE17_Vector_impl_dataC2Ev	#
# /usr/include/c++/13/bits/stl_vector.h:148: 	{ }
	nop	
	leave	
	.cfi_def_cfa 7, 8
	ret	
	.cfi_endproc
.LFE11118:
	.size	_ZNSt12_Vector_baseImSaImEE12_Vector_implC2ERKS0_, .-_ZNSt12_Vector_baseImSaImEE12_Vector_implC2ERKS0_
	.weak	_ZNSt12_Vector_baseImSaImEE12_Vector_implC1ERKS0_
	.set	_ZNSt12_Vector_baseImSaImEE12_Vector_implC1ERKS0_,_ZNSt12_Vector_baseImSaImEE12_Vector_implC2ERKS0_
	.section	.text._ZNSt12_Vector_baseImSaImEE17_M_create_storageEm,"axG",@progbits,_ZNSt12_Vector_baseImSaImEE17_M_create_storageEm,comdat
	.align 2
	.weak	_ZNSt12_Vector_baseImSaImEE17_M_create_storageEm
	.type	_ZNSt12_Vector_baseImSaImEE17_M_create_storageEm, @function
_ZNSt12_Vector_baseImSaImEE17_M_create_storageEm:
.LFB11120:
	.cfi_startproc
	endbr64	
	push	rbp	#
	.cfi_def_cfa_offset 16
	.cfi_offset 6, -16
	mov	rbp, rsp	#,
	.cfi_def_cfa_register 6
	sub	rsp, 16	#,
	mov	QWORD PTR -8[rbp], rdi	# this, this
	mov	QWORD PTR -16[rbp], rsi	# __n, __n
# /usr/include/c++/13/bits/stl_vector.h:398: 	this->_M_impl._M_start = this->_M_allocate(__n);
	mov	rdx, QWORD PTR -16[rbp]	# tmp87, __n
	mov	rax, QWORD PTR -8[rbp]	# tmp88, this
	mov	rsi, rdx	#, tmp87
	mov	rdi, rax	#, tmp88
	call	_ZNSt12_Vector_baseImSaImEE11_M_allocateEm	#
# /usr/include/c++/13/bits/stl_vector.h:398: 	this->_M_impl._M_start = this->_M_allocate(__n);
	mov	rdx, QWORD PTR -8[rbp]	# tmp89, this
	mov	QWORD PTR [rdx], rax	# this_7(D)->_M_impl.D.176853._M_start, _1
# /usr/include/c++/13/bits/stl_vector.h:399: 	this->_M_impl._M_finish = this->_M_impl._M_start;
	mov	rax, QWORD PTR -8[rbp]	# tmp90, this
	mov	rdx, QWORD PTR [rax]	# _2, this_7(D)->_M_impl.D.176853._M_start
# /usr/include/c++/13/bits/stl_vector.h:399: 	this->_M_impl._M_finish = this->_M_impl._M_start;
	mov	rax, QWORD PTR -8[rbp]	# tmp91, this
	mov	QWORD PTR 8[rax], rdx	# this_7(D)->_M_impl.D.176853._M_finish, _2
# /usr/include/c++/13/bits/stl_vector.h:400: 	this->_M_impl._M_end_of_storage = this->_M_impl._M_start + __n;
	mov	rax, QWORD PTR -8[rbp]	# tmp92, this
	mov	rax, QWORD PTR [rax]	# _3, this_7(D)->_M_impl.D.176853._M_start
# /usr/include/c++/13/bits/stl_vector.h:400: 	this->_M_impl._M_end_of_storage = this->_M_impl._M_start + __n;
	mov	rdx, QWORD PTR -16[rbp]	# tmp93, __n
	sal	rdx, 3	# _4,
	add	rdx, rax	# _5, _3
# /usr/include/c++/13/bits/stl_vector.h:400: 	this->_M_impl._M_end_of_storage = this->_M_impl._M_start + __n;
	mov	rax, QWORD PTR -8[rbp]	# tmp94, this
	mov	QWORD PTR 16[rax], rdx	# this_7(D)->_M_impl.D.176853._M_end_of_storage, _5
# /usr/include/c++/13/bits/stl_vector.h:401:       }
	nop	
	leave	
	.cfi_def_cfa 7, 8
	ret	
	.cfi_endproc
.LFE11120:
	.size	_ZNSt12_Vector_baseImSaImEE17_M_create_storageEm, .-_ZNSt12_Vector_baseImSaImEE17_M_create_storageEm
	.section	.text._ZSt24__uninitialized_fill_n_aIPmmmmET_S1_T0_RKT1_RSaIT2_E,"axG",@progbits,_ZSt24__uninitialized_fill_n_aIPmmmmET_S1_T0_RKT1_RSaIT2_E,comdat
	.weak	_ZSt24__uninitialized_fill_n_aIPmmmmET_S1_T0_RKT1_RSaIT2_E
	.type	_ZSt24__uninitialized_fill_n_aIPmmmmET_S1_T0_RKT1_RSaIT2_E, @function
_ZSt24__uninitialized_fill_n_aIPmmmmET_S1_T0_RKT1_RSaIT2_E:
.LFB11121:
	.cfi_startproc
	endbr64	
	push	rbp	#
	.cfi_def_cfa_offset 16
	.cfi_offset 6, -16
	mov	rbp, rsp	#,
	.cfi_def_cfa_register 6
	sub	rsp, 32	#,
	mov	QWORD PTR -8[rbp], rdi	# __first, __first
	mov	QWORD PTR -16[rbp], rsi	# __n, __n
	mov	QWORD PTR -24[rbp], rdx	# __x, __x
	mov	QWORD PTR -32[rbp], rcx	# D.220948, D.220948
# /usr/include/c++/13/bits/stl_uninitialized.h:472:       return std::uninitialized_fill_n(__first, __n, __x);
	mov	rdx, QWORD PTR -24[rbp]	# tmp84, __x
	mov	rcx, QWORD PTR -16[rbp]	# tmp85, __n
	mov	rax, QWORD PTR -8[rbp]	# tmp86, __first
	mov	rsi, rcx	#, tmp85
	mov	rdi, rax	#, tmp86
	call	_ZSt20uninitialized_fill_nIPmmmET_S1_T0_RKT1_	#
# /usr/include/c++/13/bits/stl_uninitialized.h:473:     }
	leave	
	.cfi_def_cfa 7, 8
	ret	
	.cfi_endproc
.LFE11121:
	.size	_ZSt24__uninitialized_fill_n_aIPmmmmET_S1_T0_RKT1_RSaIT2_E, .-_ZSt24__uninitialized_fill_n_aIPmmmmET_S1_T0_RKT1_RSaIT2_E
	.section	.text._ZNSt15__new_allocatorImE10deallocateEPmm,"axG",@progbits,_ZNSt15__new_allocatorImE10deallocateEPmm,comdat
	.align 2
	.weak	_ZNSt15__new_allocatorImE10deallocateEPmm
	.type	_ZNSt15__new_allocatorImE10deallocateEPmm, @function
_ZNSt15__new_allocatorImE10deallocateEPmm:
.LFB11235:
	.cfi_startproc
	endbr64	
	push	rbp	#
	.cfi_def_cfa_offset 16
	.cfi_offset 6, -16
	mov	rbp, rsp	#,
	.cfi_def_cfa_register 6
	sub	rsp, 32	#,
	mov	QWORD PTR -8[rbp], rdi	# this, this
	mov	QWORD PTR -16[rbp], rsi	# __p, __p
	mov	QWORD PTR -24[rbp], rdx	# __n, __n
# /usr/include/c++/13/bits/new_allocator.h:172: 	_GLIBCXX_OPERATOR_DELETE(_GLIBCXX_SIZED_DEALLOC(__p, __n));
	mov	rax, QWORD PTR -24[rbp]	# tmp83, __n
	lea	rdx, 0[0+rax*8]	# _2,
	mov	rax, QWORD PTR -16[rbp]	# tmp84, __p
	mov	rsi, rdx	#, _2
	mov	rdi, rax	#, tmp84
	call	_ZdlPvm@PLT	#
# /usr/include/c++/13/bits/new_allocator.h:173:       }
	leave	
	.cfi_def_cfa 7, 8
	ret	
	.cfi_endproc
.LFE11235:
	.size	_ZNSt15__new_allocatorImE10deallocateEPmm, .-_ZNSt15__new_allocatorImE10deallocateEPmm
	.section	.text._ZNSt12_Destroy_auxILb1EE9__destroyIPmEEvT_S3_,"axG",@progbits,_ZNSt12_Destroy_auxILb1EE9__destroyIPmEEvT_S3_,comdat
	.weak	_ZNSt12_Destroy_auxILb1EE9__destroyIPmEEvT_S3_
	.type	_ZNSt12_Destroy_auxILb1EE9__destroyIPmEEvT_S3_, @function
_ZNSt12_Destroy_auxILb1EE9__destroyIPmEEvT_S3_:
.LFB11236:
	.cfi_startproc
	endbr64	
	push	rbp	#
	.cfi_def_cfa_offset 16
	.cfi_offset 6, -16
	mov	rbp, rsp	#,
	.cfi_def_cfa_register 6
	mov	QWORD PTR -8[rbp], rdi	# D.222891, D.222891
	mov	QWORD PTR -16[rbp], rsi	# D.222892, D.222892
# /usr/include/c++/13/bits/stl_construct.h:172:         __destroy(_ForwardIterator, _ForwardIterator) { }
	nop	
	pop	rbp	#
	.cfi_def_cfa 7, 8
	ret	
	.cfi_endproc
.LFE11236:
	.size	_ZNSt12_Destroy_auxILb1EE9__destroyIPmEEvT_S3_, .-_ZNSt12_Destroy_auxILb1EE9__destroyIPmEEvT_S3_
	.section	.text._ZNSt12_Vector_baseImSaImEE11_M_allocateEm,"axG",@progbits,_ZNSt12_Vector_baseImSaImEE11_M_allocateEm,comdat
	.align 2
	.weak	_ZNSt12_Vector_baseImSaImEE11_M_allocateEm
	.type	_ZNSt12_Vector_baseImSaImEE11_M_allocateEm, @function
_ZNSt12_Vector_baseImSaImEE11_M_allocateEm:
.LFB11273:
	.cfi_startproc
	endbr64	
	push	rbp	#
	.cfi_def_cfa_offset 16
	.cfi_offset 6, -16
	mov	rbp, rsp	#,
	.cfi_def_cfa_register 6
	sub	rsp, 32	#,
	mov	QWORD PTR -24[rbp], rdi	# this, this
	mov	QWORD PTR -32[rbp], rsi	# __n, __n
# /usr/include/c++/13/bits/stl_vector.h:381: 	return __n != 0 ? _Tr::allocate(_M_impl, __n) : pointer();
	cmp	QWORD PTR -32[rbp], 0	# __n,
	je	.L81	#,
# /usr/include/c++/13/bits/stl_vector.h:381: 	return __n != 0 ? _Tr::allocate(_M_impl, __n) : pointer();
	mov	rax, QWORD PTR -24[rbp]	# _1, this
	mov	QWORD PTR -16[rbp], rax	# __a, _1
	mov	rax, QWORD PTR -32[rbp]	# tmp85, __n
	mov	QWORD PTR -8[rbp], rax	# __n, tmp85
# /usr/include/c++/13/bits/alloc_traits.h:482:       { return __a.allocate(__n); }
	mov	rcx, QWORD PTR -8[rbp]	# tmp86, __n
	mov	rax, QWORD PTR -16[rbp]	# tmp87, __a
	mov	edx, 0	#,
	mov	rsi, rcx	#, tmp86
	mov	rdi, rax	#, tmp87
	call	_ZNSt15__new_allocatorImE8allocateEmPKv	#
# /usr/include/c++/13/bits/alloc_traits.h:482:       { return __a.allocate(__n); }
	nop	
	jmp	.L83	#
.L81:
# /usr/include/c++/13/bits/stl_vector.h:381: 	return __n != 0 ? _Tr::allocate(_M_impl, __n) : pointer();
	mov	eax, 0	# D.224913,
.L83:
# /usr/include/c++/13/bits/stl_vector.h:382:       }
	leave	
	.cfi_def_cfa 7, 8
	ret	
	.cfi_endproc
.LFE11273:
	.size	_ZNSt12_Vector_baseImSaImEE11_M_allocateEm, .-_ZNSt12_Vector_baseImSaImEE11_M_allocateEm
	.section	.text._ZSt20uninitialized_fill_nIPmmmET_S1_T0_RKT1_,"axG",@progbits,_ZSt20uninitialized_fill_nIPmmmET_S1_T0_RKT1_,comdat
	.weak	_ZSt20uninitialized_fill_nIPmmmET_S1_T0_RKT1_
	.type	_ZSt20uninitialized_fill_nIPmmmET_S1_T0_RKT1_, @function
_ZSt20uninitialized_fill_nIPmmmET_S1_T0_RKT1_:
.LFB11274:
	.cfi_startproc
	endbr64	
	push	rbp	#
	.cfi_def_cfa_offset 16
	.cfi_offset 6, -16
	mov	rbp, rsp	#,
	.cfi_def_cfa_register 6
	sub	rsp, 48	#,
	mov	QWORD PTR -24[rbp], rdi	# __first, __first
	mov	QWORD PTR -32[rbp], rsi	# __n, __n
	mov	QWORD PTR -40[rbp], rdx	# __x, __x
# /usr/include/c++/13/bits/stl_uninitialized.h:319:       const bool __can_fill
	mov	BYTE PTR -1[rbp], 1	# __can_fill,
# /usr/include/c++/13/bits/stl_uninitialized.h:327: 	__uninit_fill_n(__first, __n, __x);
	mov	rdx, QWORD PTR -40[rbp]	# tmp84, __x
	mov	rcx, QWORD PTR -32[rbp]	# tmp85, __n
	mov	rax, QWORD PTR -24[rbp]	# tmp86, __first
	mov	rsi, rcx	#, tmp85
	mov	rdi, rax	#, tmp86
	call	_ZNSt22__uninitialized_fill_nILb1EE15__uninit_fill_nIPmmmEET_S3_T0_RKT1_	#
# /usr/include/c++/13/bits/stl_uninitialized.h:328:     }
	leave	
	.cfi_def_cfa 7, 8
	ret	
	.cfi_endproc
.LFE11274:
	.size	_ZSt20uninitialized_fill_nIPmmmET_S1_T0_RKT1_, .-_ZSt20uninitialized_fill_nIPmmmET_S1_T0_RKT1_
	.section	.text._ZNSt22__uninitialized_fill_nILb1EE15__uninit_fill_nIPmmmEET_S3_T0_RKT1_,"axG",@progbits,_ZNSt22__uninitialized_fill_nILb1EE15__uninit_fill_nIPmmmEET_S3_T0_RKT1_,comdat
	.weak	_ZNSt22__uninitialized_fill_nILb1EE15__uninit_fill_nIPmmmEET_S3_T0_RKT1_
	.type	_ZNSt22__uninitialized_fill_nILb1EE15__uninit_fill_nIPmmmEET_S3_T0_RKT1_, @function
_ZNSt22__uninitialized_fill_nILb1EE15__uninit_fill_nIPmmmEET_S3_T0_RKT1_:
.LFB11379:
	.cfi_startproc
	endbr64	
	push	rbp	#
	.cfi_def_cfa_offset 16
	.cfi_offset 6, -16
	mov	rbp, rsp	#,
	.cfi_def_cfa_register 6
	sub	rsp, 32	#,
	mov	QWORD PTR -8[rbp], rdi	# __first, __first
	mov	QWORD PTR -16[rbp], rsi	# __n, __n
	mov	QWORD PTR -24[rbp], rdx	# __x, __x
# /usr/include/c++/13/bits/stl_uninitialized.h:294:         { return std::fill_n(__first, __n, __x); }
	mov	rdx, QWORD PTR -24[rbp]	# tmp84, __x
	mov	rcx, QWORD PTR -16[rbp]	# tmp85, __n
	mov	rax, QWORD PTR -8[rbp]	# tmp86, __first
	mov	rsi, rcx	#, tmp85
	mov	rdi, rax	#, tmp86
	call	_ZSt6fill_nIPmmmET_S1_T0_RKT1_	#
# /usr/include/c++/13/bits/stl_uninitialized.h:294:         { return std::fill_n(__first, __n, __x); }
	leave	
	.cfi_def_cfa 7, 8
	ret	
	.cfi_endproc
.LFE11379:
	.size	_ZNSt22__uninitialized_fill_nILb1EE15__uninit_fill_nIPmmmEET_S3_T0_RKT1_, .-_ZNSt22__uninitialized_fill_nILb1EE15__uninit_fill_nIPmmmEET_S3_T0_RKT1_
	.section	.text._ZNSt15__new_allocatorImE8allocateEmPKv,"axG",@progbits,_ZNSt15__new_allocatorImE8allocateEmPKv,comdat
	.align 2
	.weak	_ZNSt15__new_allocatorImE8allocateEmPKv
	.type	_ZNSt15__new_allocatorImE8allocateEmPKv, @function
_ZNSt15__new_allocatorImE8allocateEmPKv:
.LFB11465:
	.cfi_startproc
	endbr64	
	push	rbp	#
	.cfi_def_cfa_offset 16
	.cfi_offset 6, -16
	mov	rbp, rsp	#,
	.cfi_def_cfa_register 6
	sub	rsp, 48	#,
	mov	QWORD PTR -24[rbp], rdi	# this, this
	mov	QWORD PTR -32[rbp], rsi	# __n, __n
	mov	QWORD PTR -40[rbp], rdx	# D.224075, D.224075
	mov	rax, QWORD PTR -24[rbp]	# tmp90, this
	mov	QWORD PTR -8[rbp], rax	# this, tmp90
# /usr/include/c++/13/bits/new_allocator.h:233: 	return std::size_t(__PTRDIFF_MAX__) / sizeof(_Tp);
	movabs	rax, 1152921504606846975	# D.224947,
# /usr/include/c++/13/bits/new_allocator.h:134: 	if (__builtin_expect(__n > this->_M_max_size(), false))
	cmp	rax, QWORD PTR -32[rbp]	# D.224947, __n
	setb	al	#, _2
# /usr/include/c++/13/bits/new_allocator.h:134: 	if (__builtin_expect(__n > this->_M_max_size(), false))
	movzx	eax, al	# _3, _2
# /usr/include/c++/13/bits/new_allocator.h:134: 	if (__builtin_expect(__n > this->_M_max_size(), false))
	test	rax, rax	# _4
	setne	al	#, retval.12_9
# /usr/include/c++/13/bits/new_allocator.h:134: 	if (__builtin_expect(__n > this->_M_max_size(), false))
	test	al, al	# retval.12_9
	je	.L91	#,
# /usr/include/c++/13/bits/new_allocator.h:138: 	    if (__n > (std::size_t(-1) / sizeof(_Tp)))
	movabs	rax, 2305843009213693951	# tmp91,
	cmp	rax, QWORD PTR -32[rbp]	# tmp91, __n
	jnb	.L92	#,
# /usr/include/c++/13/bits/new_allocator.h:139: 	      std::__throw_bad_array_new_length();
	call	_ZSt28__throw_bad_array_new_lengthv@PLT	#
.L92:
# /usr/include/c++/13/bits/new_allocator.h:140: 	    std::__throw_bad_alloc();
	call	_ZSt17__throw_bad_allocv@PLT	#
.L91:
# /usr/include/c++/13/bits/new_allocator.h:151: 	return static_cast<_Tp*>(_GLIBCXX_OPERATOR_NEW(__n * sizeof(_Tp)));
	mov	rax, QWORD PTR -32[rbp]	# tmp92, __n
	sal	rax, 3	# _6,
	mov	rdi, rax	#, _6
	call	_Znwm@PLT	#
# /usr/include/c++/13/bits/new_allocator.h:151: 	return static_cast<_Tp*>(_GLIBCXX_OPERATOR_NEW(__n * sizeof(_Tp)));
	nop	
# /usr/include/c++/13/bits/new_allocator.h:152:       }
	leave	
	.cfi_def_cfa 7, 8
	ret	
	.cfi_endproc
.LFE11465:
	.size	_ZNSt15__new_allocatorImE8allocateEmPKv, .-_ZNSt15__new_allocatorImE8allocateEmPKv
	.section	.text._ZSt6fill_nIPmmmET_S1_T0_RKT1_,"axG",@progbits,_ZSt6fill_nIPmmmET_S1_T0_RKT1_,comdat
	.weak	_ZSt6fill_nIPmmmET_S1_T0_RKT1_
	.type	_ZSt6fill_nIPmmmET_S1_T0_RKT1_, @function
_ZSt6fill_nIPmmmET_S1_T0_RKT1_:
.LFB11466:
	.cfi_startproc
	endbr64	
	push	rbp	#
	.cfi_def_cfa_offset 16
	.cfi_offset 6, -16
	mov	rbp, rsp	#,
	.cfi_def_cfa_register 6
	sub	rsp, 32	#,
	mov	QWORD PTR -8[rbp], rdi	# __first, __first
	mov	QWORD PTR -16[rbp], rsi	# __n, __n
	mov	QWORD PTR -24[rbp], rdx	# __value, __value
# /usr/include/c++/13/bits/stl_iterator_base_types.h:240:     { return typename iterator_traits<_Iter>::iterator_category(); }
	nop	
# /usr/include/c++/13/bits/stl_algobase.h:1157:       return std::__fill_n_a(__first, std::__size_to_integer(__n), __value,
	mov	rax, QWORD PTR -16[rbp]	# tmp89, __n
	mov	rdi, rax	#, tmp89
	call	_ZSt17__size_to_integerm	#
	mov	rcx, rax	# _1,
# /usr/include/c++/13/bits/stl_algobase.h:1157:       return std::__fill_n_a(__first, std::__size_to_integer(__n), __value,
	mov	rax, QWORD PTR -8[rbp]	# __first.13_2, __first
	mov	rdx, QWORD PTR -24[rbp]	# tmp90, __value
	mov	rsi, rcx	#, _1
	mov	rdi, rax	#, __first.13_2
	call	_ZSt10__fill_n_aIPmmmET_S1_T0_RKT1_St26random_access_iterator_tag	#
# /usr/include/c++/13/bits/stl_algobase.h:1159:     }
	leave	
	.cfi_def_cfa 7, 8
	ret	
	.cfi_endproc
.LFE11466:
	.size	_ZSt6fill_nIPmmmET_S1_T0_RKT1_, .-_ZSt6fill_nIPmmmET_S1_T0_RKT1_
	.section	.text._ZSt10__fill_n_aIPmmmET_S1_T0_RKT1_St26random_access_iterator_tag,"axG",@progbits,_ZSt10__fill_n_aIPmmmET_S1_T0_RKT1_St26random_access_iterator_tag,comdat
	.weak	_ZSt10__fill_n_aIPmmmET_S1_T0_RKT1_St26random_access_iterator_tag
	.type	_ZSt10__fill_n_aIPmmmET_S1_T0_RKT1_St26random_access_iterator_tag, @function
_ZSt10__fill_n_aIPmmmET_S1_T0_RKT1_St26random_access_iterator_tag:
.LFB11506:
	.cfi_startproc
	endbr64	
	push	rbp	#
	.cfi_def_cfa_offset 16
	.cfi_offset 6, -16
	mov	rbp, rsp	#,
	.cfi_def_cfa_register 6
	sub	rsp, 32	#,
	mov	QWORD PTR -8[rbp], rdi	# __first, __first
	mov	QWORD PTR -16[rbp], rsi	# __n, __n
	mov	QWORD PTR -24[rbp], rdx	# __value, __value
# /usr/include/c++/13/bits/stl_algobase.h:1123:       if (__n <= 0)
	cmp	QWORD PTR -16[rbp], 0	# __n,
	jne	.L98	#,
# /usr/include/c++/13/bits/stl_algobase.h:1124: 	return __first;
	mov	rax, QWORD PTR -8[rbp]	# _4, __first
	jmp	.L99	#
.L98:
# /usr/include/c++/13/bits/stl_algobase.h:1128:       std::__fill_a(__first, __first + __n, __value);
	mov	rax, QWORD PTR -16[rbp]	# tmp87, __n
	lea	rdx, 0[0+rax*8]	# _1,
# /usr/include/c++/13/bits/stl_algobase.h:1128:       std::__fill_a(__first, __first + __n, __value);
	mov	rax, QWORD PTR -8[rbp]	# tmp88, __first
	lea	rcx, [rdx+rax]	# _2,
	mov	rdx, QWORD PTR -24[rbp]	# tmp89, __value
	mov	rax, QWORD PTR -8[rbp]	# tmp90, __first
	mov	rsi, rcx	#, _2
	mov	rdi, rax	#, tmp90
	call	_ZSt8__fill_aIPmmEvT_S1_RKT0_	#
# /usr/include/c++/13/bits/stl_algobase.h:1129:       return __first + __n;
	mov	rax, QWORD PTR -16[rbp]	# tmp91, __n
	lea	rdx, 0[0+rax*8]	# _3,
# /usr/include/c++/13/bits/stl_algobase.h:1129:       return __first + __n;
	mov	rax, QWORD PTR -8[rbp]	# tmp92, __first
	add	rax, rdx	# _4, _3
.L99:
# /usr/include/c++/13/bits/stl_algobase.h:1130:     }
	leave	
	.cfi_def_cfa 7, 8
	ret	
	.cfi_endproc
.LFE11506:
	.size	_ZSt10__fill_n_aIPmmmET_S1_T0_RKT1_St26random_access_iterator_tag, .-_ZSt10__fill_n_aIPmmmET_S1_T0_RKT1_St26random_access_iterator_tag
	.section	.text._ZSt8__fill_aIPmmEvT_S1_RKT0_,"axG",@progbits,_ZSt8__fill_aIPmmEvT_S1_RKT0_,comdat
	.weak	_ZSt8__fill_aIPmmEvT_S1_RKT0_
	.type	_ZSt8__fill_aIPmmEvT_S1_RKT0_, @function
_ZSt8__fill_aIPmmEvT_S1_RKT0_:
.LFB11513:
	.cfi_startproc
	endbr64	
	push	rbp	#
	.cfi_def_cfa_offset 16
	.cfi_offset 6, -16
	mov	rbp, rsp	#,
	.cfi_def_cfa_register 6
	sub	rsp, 32	#,
	mov	QWORD PTR -8[rbp], rdi	# __first, __first
	mov	QWORD PTR -16[rbp], rsi	# __last, __last
	mov	QWORD PTR -24[rbp], rdx	# __value, __value
# /usr/include/c++/13/bits/stl_algobase.h:977:     { std::__fill_a1(__first, __last, __value); }
	mov	rdx, QWORD PTR -24[rbp]	# tmp82, __value
	mov	rcx, QWORD PTR -16[rbp]	# tmp83, __last
	mov	rax, QWORD PTR -8[rbp]	# tmp84, __first
	mov	rsi, rcx	#, tmp83
	mov	rdi, rax	#, tmp84
	call	_ZSt9__fill_a1IPmmEN9__gnu_cxx11__enable_ifIXsrSt11__is_scalarIT0_E7__valueEvE6__typeET_S8_RKS4_	#
# /usr/include/c++/13/bits/stl_algobase.h:977:     { std::__fill_a1(__first, __last, __value); }
	nop	
	leave	
	.cfi_def_cfa 7, 8
	ret	
	.cfi_endproc
.LFE11513:
	.size	_ZSt8__fill_aIPmmEvT_S1_RKT0_, .-_ZSt8__fill_aIPmmEvT_S1_RKT0_
	.section	.text._ZSt9__fill_a1IPmmEN9__gnu_cxx11__enable_ifIXsrSt11__is_scalarIT0_E7__valueEvE6__typeET_S8_RKS4_,"axG",@progbits,_ZSt9__fill_a1IPmmEN9__gnu_cxx11__enable_ifIXsrSt11__is_scalarIT0_E7__valueEvE6__typeET_S8_RKS4_,comdat
	.weak	_ZSt9__fill_a1IPmmEN9__gnu_cxx11__enable_ifIXsrSt11__is_scalarIT0_E7__valueEvE6__typeET_S8_RKS4_
	.type	_ZSt9__fill_a1IPmmEN9__gnu_cxx11__enable_ifIXsrSt11__is_scalarIT0_E7__valueEvE6__typeET_S8_RKS4_, @function
_ZSt9__fill_a1IPmmEN9__gnu_cxx11__enable_ifIXsrSt11__is_scalarIT0_E7__valueEvE6__typeET_S8_RKS4_:
.LFB11517:
	.cfi_startproc
	endbr64	
	push	rbp	#
	.cfi_def_cfa_offset 16
	.cfi_offset 6, -16
	mov	rbp, rsp	#,
	.cfi_def_cfa_register 6
	mov	QWORD PTR -24[rbp], rdi	# __first, __first
	mov	QWORD PTR -32[rbp], rsi	# __last, __last
	mov	QWORD PTR -40[rbp], rdx	# __value, __value
# /usr/include/c++/13/bits/stl_algobase.h:929:       const _Tp __tmp = __value;
	mov	rax, QWORD PTR -40[rbp]	# tmp82, __value
	mov	rax, QWORD PTR [rax]	# tmp83, *__value_4(D)
	mov	QWORD PTR -8[rbp], rax	# __tmp, tmp83
# /usr/include/c++/13/bits/stl_algobase.h:930:       for (; __first != __last; ++__first)
	jmp	.L102	#
.L103:
# /usr/include/c++/13/bits/stl_algobase.h:931: 	*__first = __tmp;
	mov	rax, QWORD PTR -24[rbp]	# tmp84, __first
	mov	rdx, QWORD PTR -8[rbp]	# tmp85, __tmp
	mov	QWORD PTR [rax], rdx	# *__first_1, tmp85
# /usr/include/c++/13/bits/stl_algobase.h:930:       for (; __first != __last; ++__first)
	add	QWORD PTR -24[rbp], 8	# __first,
.L102:
# /usr/include/c++/13/bits/stl_algobase.h:930:       for (; __first != __last; ++__first)
	mov	rax, QWORD PTR -24[rbp]	# tmp86, __first
	cmp	rax, QWORD PTR -32[rbp]	# tmp86, __last
	jne	.L103	#,
# /usr/include/c++/13/bits/stl_algobase.h:932:     }
	nop	
	nop	
	pop	rbp	#
	.cfi_def_cfa 7, 8
	ret	
	.cfi_endproc
.LFE11517:
	.size	_ZSt9__fill_a1IPmmEN9__gnu_cxx11__enable_ifIXsrSt11__is_scalarIT0_E7__valueEvE6__typeET_S8_RKS4_, .-_ZSt9__fill_a1IPmmEN9__gnu_cxx11__enable_ifIXsrSt11__is_scalarIT0_E7__valueEvE6__typeET_S8_RKS4_
	.section	.rodata
	.type	_ZNSt8__detail30__integer_to_chars_is_unsignedIjEE, @object
	.size	_ZNSt8__detail30__integer_to_chars_is_unsignedIjEE, 1
_ZNSt8__detail30__integer_to_chars_is_unsignedIjEE:
	.byte	1
	.type	_ZNSt8__detail30__integer_to_chars_is_unsignedImEE, @object
	.size	_ZNSt8__detail30__integer_to_chars_is_unsignedImEE, 1
_ZNSt8__detail30__integer_to_chars_is_unsignedImEE:
	.byte	1
	.type	_ZNSt8__detail30__integer_to_chars_is_unsignedIyEE, @object
	.size	_ZNSt8__detail30__integer_to_chars_is_unsignedIyEE, 1
_ZNSt8__detail30__integer_to_chars_is_unsignedIyEE:
	.byte	1
	.type	_ZSt12__is_ratio_vISt5ratioILl1ELl1000000000EEE, @object
	.size	_ZSt12__is_ratio_vISt5ratioILl1ELl1000000000EEE, 1
_ZSt12__is_ratio_vISt5ratioILl1ELl1000000000EEE:
	.byte	1
	.type	_ZSt12__is_ratio_vISt5ratioILl1ELl1EEE, @object
	.size	_ZSt12__is_ratio_vISt5ratioILl1ELl1EEE, 1
_ZSt12__is_ratio_vISt5ratioILl1ELl1EEE:
	.byte	1
	.type	_ZSt12__is_ratio_vISt5ratioILl1000000000ELl1EEE, @object
	.size	_ZSt12__is_ratio_vISt5ratioILl1000000000ELl1EEE, 1
_ZSt12__is_ratio_vISt5ratioILl1000000000ELl1EEE:
	.byte	1
	.type	_ZNSt8__detail30__integer_to_chars_is_unsignedIoEE, @object
	.size	_ZNSt8__detail30__integer_to_chars_is_unsignedIoEE, 1
_ZNSt8__detail30__integer_to_chars_is_unsignedIoEE:
	.byte	1
	.hidden	DW.ref.__gxx_personality_v0
	.weak	DW.ref.__gxx_personality_v0
	.section	.data.rel.local.DW.ref.__gxx_personality_v0,"awG",@progbits,DW.ref.__gxx_personality_v0,comdat
	.align 8
	.type	DW.ref.__gxx_personality_v0, @object
	.size	DW.ref.__gxx_personality_v0, 8
DW.ref.__gxx_personality_v0:
	.quad	__gxx_personality_v0
	.ident	"GCC: (Ubuntu 13.2.0-23ubuntu4) 13.2.0"
	.section	.note.GNU-stack,"",@progbits
	.section	.note.gnu.property,"a"
	.align 8
	.long	1f - 0f
	.long	4f - 1f
	.long	5
0:
	.string	"GNU"
1:
	.align 8
	.long	0xc0000002
	.long	3f - 2f
2:
	.long	0x3
3:
	.align 8
4:
