	.file	"Disjoint_Set_Union.cpp"
	.intel_syntax noprefix
# GNU C++17 (Ubuntu 13.2.0-23ubuntu4) version 13.2.0 (x86_64-linux-gnu)
#	compiled by GNU C version 13.2.0, GMP version 6.3.0, MPFR version 4.2.1, MPC version 1.3.1, isl version isl-0.26-GMP

# GGC heuristics: --param ggc-min-expand=100 --param ggc-min-heapsize=131072
# options passed: -masm=intel -mtune=generic -march=x86-64 -O0 -fasynchronous-unwind-tables -fstack-protector-strong -fstack-clash-protection -fcf-protection
	.text
	.section	.text._ZSt17__size_to_integerm,"axG",@progbits,_ZSt17__size_to_integerm,comdat
	.weak	_ZSt17__size_to_integerm
	.type	_ZSt17__size_to_integerm, @function
_ZSt17__size_to_integerm:
.LFB354:
	.cfi_startproc
	endbr64	
	push	rbp	#
	.cfi_def_cfa_offset 16
	.cfi_offset 6, -16
	mov	rbp, rsp	#,
	.cfi_def_cfa_register 6
	mov	QWORD PTR -8[rbp], rdi	# __n, __n
# /usr/include/c++/13/bits/stl_algobase.h:1018:   __size_to_integer(unsigned long __n) { return __n; }
	mov	rax, QWORD PTR -8[rbp]	# _2, __n
# /usr/include/c++/13/bits/stl_algobase.h:1018:   __size_to_integer(unsigned long __n) { return __n; }
	pop	rbp	#
	.cfi_def_cfa 7, 8
	ret	
	.cfi_endproc
.LFE354:
	.size	_ZSt17__size_to_integerm, .-_ZSt17__size_to_integerm
	.section	.text._ZSt3minImERKT_S2_S2_,"axG",@progbits,_ZSt3minImERKT_S2_S2_,comdat
	.weak	_ZSt3minImERKT_S2_S2_
	.type	_ZSt3minImERKT_S2_S2_, @function
_ZSt3minImERKT_S2_S2_:
.LFB1923:
	.cfi_startproc
	endbr64	
	push	rbp	#
	.cfi_def_cfa_offset 16
	.cfi_offset 6, -16
	mov	rbp, rsp	#,
	.cfi_def_cfa_register 6
	mov	QWORD PTR -8[rbp], rdi	# __a, __a
	mov	QWORD PTR -16[rbp], rsi	# __b, __b
# /usr/include/c++/13/bits/stl_algobase.h:238:       if (__b < __a)
	mov	rax, QWORD PTR -16[rbp]	# tmp86, __b
	mov	rdx, QWORD PTR [rax]	# _1, *__b_5(D)
	mov	rax, QWORD PTR -8[rbp]	# tmp87, __a
	mov	rax, QWORD PTR [rax]	# _2, *__a_6(D)
# /usr/include/c++/13/bits/stl_algobase.h:238:       if (__b < __a)
	cmp	rdx, rax	# _1, _2
	jnb	.L4	#,
# /usr/include/c++/13/bits/stl_algobase.h:239: 	return __b;
	mov	rax, QWORD PTR -16[rbp]	# _3, __b
	jmp	.L5	#
.L4:
# /usr/include/c++/13/bits/stl_algobase.h:240:       return __a;
	mov	rax, QWORD PTR -8[rbp]	# _3, __a
.L5:
# /usr/include/c++/13/bits/stl_algobase.h:241:     }
	pop	rbp	#
	.cfi_def_cfa 7, 8
	ret	
	.cfi_endproc
.LFE1923:
	.size	_ZSt3minImERKT_S2_S2_, .-_ZSt3minImERKT_S2_S2_
#APP
	.globl _ZSt21ios_base_library_initv
#NO_APP
	.section	.rodata
	.align 8
	.type	_ZL3mod, @object
	.size	_ZL3mod, 8
_ZL3mod:
	.quad	1000000007
	.text
	.globl	_Z4swapPxS_
	.type	_Z4swapPxS_, @function
_Z4swapPxS_:
.LFB9785:
	.cfi_startproc
	endbr64	
	push	rbp	#
	.cfi_def_cfa_offset 16
	.cfi_offset 6, -16
	mov	rbp, rsp	#,
	.cfi_def_cfa_register 6
	mov	QWORD PTR -24[rbp], rdi	# a, a
	mov	QWORD PTR -32[rbp], rsi	# b, b
# Disjoint_Set_Union.cpp:44:     long long buffer = *b;
	mov	rax, QWORD PTR -32[rbp]	# tmp83, b
	mov	rax, QWORD PTR [rax]	# tmp84, *b_3(D)
	mov	QWORD PTR -8[rbp], rax	# buffer, tmp84
# Disjoint_Set_Union.cpp:45:     *b = *a;
	mov	rax, QWORD PTR -24[rbp]	# tmp85, a
	mov	rdx, QWORD PTR [rax]	# _1, *a_5(D)
# Disjoint_Set_Union.cpp:45:     *b = *a;
	mov	rax, QWORD PTR -32[rbp]	# tmp86, b
	mov	QWORD PTR [rax], rdx	# *b_3(D), _1
# Disjoint_Set_Union.cpp:46:     *a = buffer;
	mov	rax, QWORD PTR -24[rbp]	# tmp87, a
	mov	rdx, QWORD PTR -8[rbp]	# tmp88, buffer
	mov	QWORD PTR [rax], rdx	# *a_5(D), tmp88
# Disjoint_Set_Union.cpp:47: }
	nop	
	pop	rbp	#
	.cfi_def_cfa 7, 8
	ret	
	.cfi_endproc
.LFE9785:
	.size	_Z4swapPxS_, .-_Z4swapPxS_
	.globl	_Z8find_setxRSt6vectorIxSaIxEE
	.type	_Z8find_setxRSt6vectorIxSaIxEE, @function
_Z8find_setxRSt6vectorIxSaIxEE:
.LFB9786:
	.cfi_startproc
	endbr64	
	push	rbp	#
	.cfi_def_cfa_offset 16
	.cfi_offset 6, -16
	mov	rbp, rsp	#,
	.cfi_def_cfa_register 6
	push	rbx	#
	sub	rsp, 24	#,
	.cfi_offset 3, -24
	mov	QWORD PTR -24[rbp], rdi	# v, v
	mov	QWORD PTR -32[rbp], rsi	# vec, vec
# Disjoint_Set_Union.cpp:50:     if (vec[v] == v) {
	mov	rdx, QWORD PTR -24[rbp]	# v.1_1, v
	mov	rax, QWORD PTR -32[rbp]	# tmp94, vec
	mov	rsi, rdx	#, v.1_1
	mov	rdi, rax	#, tmp94
	call	_ZNSt6vectorIxSaIxEEixEm	#
# Disjoint_Set_Union.cpp:50:     if (vec[v] == v) {
	mov	rax, QWORD PTR [rax]	# _3, *_2
	cmp	QWORD PTR -24[rbp], rax	# v, _3
	sete	al	#, retval.0_16
# Disjoint_Set_Union.cpp:50:     if (vec[v] == v) {
	test	al, al	# retval.0_16
	je	.L8	#,
# Disjoint_Set_Union.cpp:51: 	return v;
	mov	rax, QWORD PTR -24[rbp]	# _10, v
	jmp	.L9	#
.L8:
# Disjoint_Set_Union.cpp:53:     return vec[v] = find_set(vec[v], vec);
	mov	rdx, QWORD PTR -24[rbp]	# v.2_4, v
	mov	rax, QWORD PTR -32[rbp]	# tmp95, vec
	mov	rsi, rdx	#, v.2_4
	mov	rdi, rax	#, tmp95
	call	_ZNSt6vectorIxSaIxEEixEm	#
# Disjoint_Set_Union.cpp:53:     return vec[v] = find_set(vec[v], vec);
	mov	rax, QWORD PTR [rax]	# _6, *_5
	mov	rdx, QWORD PTR -32[rbp]	# tmp96, vec
	mov	rsi, rdx	#, tmp96
	mov	rdi, rax	#, _6
	call	_Z8find_setxRSt6vectorIxSaIxEE	#
	mov	rbx, rax	# _7,
# Disjoint_Set_Union.cpp:53:     return vec[v] = find_set(vec[v], vec);
	mov	rdx, QWORD PTR -24[rbp]	# v.3_8, v
	mov	rax, QWORD PTR -32[rbp]	# tmp97, vec
	mov	rsi, rdx	#, v.3_8
	mov	rdi, rax	#, tmp97
	call	_ZNSt6vectorIxSaIxEEixEm	#
# Disjoint_Set_Union.cpp:53:     return vec[v] = find_set(vec[v], vec);
	mov	QWORD PTR [rax], rbx	# *_9, _7
# Disjoint_Set_Union.cpp:53:     return vec[v] = find_set(vec[v], vec);
	mov	rax, QWORD PTR [rax]	# _10, *_9
.L9:
# Disjoint_Set_Union.cpp:55: }
	mov	rbx, QWORD PTR -8[rbp]	#,
	leave	
	.cfi_def_cfa 7, 8
	ret	
	.cfi_endproc
.LFE9786:
	.size	_Z8find_setxRSt6vectorIxSaIxEE, .-_Z8find_setxRSt6vectorIxSaIxEE
	.globl	main
	.type	main, @function
main:
.LFB9787:
	.cfi_startproc
	.cfi_personality 0x9b,DW.ref.__gxx_personality_v0
	.cfi_lsda 0x1b,.LLSDA9787
	endbr64	
	push	rbp	#
	.cfi_def_cfa_offset 16
	.cfi_offset 6, -16
	mov	rbp, rsp	#,
	.cfi_def_cfa_register 6
	push	rbx	#
	sub	rsp, 216	#,
	.cfi_offset 3, -24
# Disjoint_Set_Union.cpp:56: int main() {
	mov	rax, QWORD PTR fs:40	# tmp208, MEM[(<address-space-1> long unsigned int *)40B]
	mov	QWORD PTR -24[rbp], rax	# D.226852, tmp208
	xor	eax, eax	# tmp208
# Disjoint_Set_Union.cpp:57:     ios::sync_with_stdio(false);
	mov	edi, 0	#,
.LEHB0:
	call	_ZNSt8ios_base15sync_with_stdioEb@PLT	#
# Disjoint_Set_Union.cpp:58:     cin.tie(0);
	mov	esi, 0	#,
	lea	rax, _ZSt3cin[rip+16]	# tmp145,
	mov	rdi, rax	#, tmp145
	call	_ZNSt9basic_iosIcSt11char_traitsIcEE3tieEPSo@PLT	#
# Disjoint_Set_Union.cpp:60:     cin >> n >> q;
	lea	rax, -224[rbp]	# tmp146,
	mov	rsi, rax	#, tmp146
	lea	rax, _ZSt3cin[rip]	# tmp147,
	mov	rdi, rax	#, tmp147
	call	_ZNSirsERx@PLT	#
	mov	rdx, rax	# _1,
# Disjoint_Set_Union.cpp:60:     cin >> n >> q;
	lea	rax, -216[rbp]	# tmp148,
	mov	rsi, rax	#, tmp148
	mov	rdi, rdx	#, _1
	call	_ZNSirsERx@PLT	#
.LEHE0:
	lea	rax, -80[rbp]	# tmp149,
	mov	QWORD PTR -136[rbp], rax	# this, tmp149
# /usr/include/c++/13/bits/new_allocator.h:88:       __new_allocator() _GLIBCXX_USE_NOEXCEPT { }
	nop	
# /usr/include/c++/13/bits/allocator.h:163:       allocator() _GLIBCXX_NOTHROW { }
	nop	
# Disjoint_Set_Union.cpp:61:     vector<long long> vec(n + 1, 0);
	mov	QWORD PTR -48[rbp], 0	# MEM[(long long int *)_172],
# Disjoint_Set_Union.cpp:61:     vector<long long> vec(n + 1, 0);
	mov	rax, QWORD PTR -224[rbp]	# n.4_2, n
	add	rax, 1	# _3,
# Disjoint_Set_Union.cpp:61:     vector<long long> vec(n + 1, 0);
	mov	rsi, rax	# _4, _3
	lea	rcx, -80[rbp]	# tmp150,
	lea	rdx, -48[rbp]	# tmp151,
	lea	rax, -112[rbp]	# tmp152,
	mov	rdi, rax	#, tmp152
.LEHB1:
	call	_ZNSt6vectorIxSaIxEEC1EmRKxRKS0_	#
.LEHE1:
# /usr/include/c++/13/bits/allocator.h:184:       ~allocator() _GLIBCXX_NOTHROW { }
	lea	rax, -80[rbp]	# tmp153,
	mov	rdi, rax	#, tmp153
	call	_ZNSt15__new_allocatorIxED2Ev	#
	nop	
	lea	rax, -176[rbp]	# tmp154,
	mov	QWORD PTR -128[rbp], rax	# this, tmp154
# /usr/include/c++/13/bits/new_allocator.h:88:       __new_allocator() _GLIBCXX_USE_NOEXCEPT { }
	nop	
# /usr/include/c++/13/bits/allocator.h:163:       allocator() _GLIBCXX_NOTHROW { }
	nop	
# Disjoint_Set_Union.cpp:62:     vector<long long> size(n + 1, 0);
	mov	QWORD PTR -48[rbp], 0	# MEM[(long long int *)_172],
# Disjoint_Set_Union.cpp:62:     vector<long long> size(n + 1, 0);
	mov	rax, QWORD PTR -224[rbp]	# n.5_5, n
	add	rax, 1	# _6,
# Disjoint_Set_Union.cpp:62:     vector<long long> size(n + 1, 0);
	mov	rsi, rax	# _7, _6
	lea	rcx, -176[rbp]	# tmp155,
	lea	rdx, -48[rbp]	# tmp156,
	lea	rax, -80[rbp]	# tmp157,
	mov	rdi, rax	#, tmp157
.LEHB2:
	call	_ZNSt6vectorIxSaIxEEC1EmRKxRKS0_	#
.LEHE2:
# /usr/include/c++/13/bits/allocator.h:184:       ~allocator() _GLIBCXX_NOTHROW { }
	lea	rax, -176[rbp]	# tmp158,
	mov	rdi, rax	#, tmp158
	call	_ZNSt15__new_allocatorIxED2Ev	#
	nop	
	lea	rax, -184[rbp]	# tmp159,
	mov	QWORD PTR -120[rbp], rax	# this, tmp159
# /usr/include/c++/13/bits/new_allocator.h:88:       __new_allocator() _GLIBCXX_USE_NOEXCEPT { }
	nop	
# /usr/include/c++/13/bits/allocator.h:163:       allocator() _GLIBCXX_NOTHROW { }
	nop	
# Disjoint_Set_Union.cpp:63:     vector<long long> rank(n + 1, 0);
	mov	QWORD PTR -176[rbp], 0	# MEM[(long long int *)_174],
# Disjoint_Set_Union.cpp:63:     vector<long long> rank(n + 1, 0);
	mov	rax, QWORD PTR -224[rbp]	# n.6_8, n
	add	rax, 1	# _9,
# Disjoint_Set_Union.cpp:63:     vector<long long> rank(n + 1, 0);
	mov	rsi, rax	# _10, _9
	lea	rcx, -184[rbp]	# tmp160,
	lea	rdx, -176[rbp]	# tmp161,
	lea	rax, -48[rbp]	# tmp162,
	mov	rdi, rax	#, tmp162
.LEHB3:
	call	_ZNSt6vectorIxSaIxEEC1EmRKxRKS0_	#
.LEHE3:
# /usr/include/c++/13/bits/allocator.h:184:       ~allocator() _GLIBCXX_NOTHROW { }
	lea	rax, -184[rbp]	# tmp163,
	mov	rdi, rax	#, tmp163
	call	_ZNSt15__new_allocatorIxED2Ev	#
	nop	
# Disjoint_Set_Union.cpp:64:     for (long long i = 0; i < n; i++) {
	mov	QWORD PTR -168[rbp], 0	# i,
# Disjoint_Set_Union.cpp:64:     for (long long i = 0; i < n; i++) {
	jmp	.L11	#
.L12:
# Disjoint_Set_Union.cpp:65: 	vec[i] = i;
	mov	rbx, QWORD PTR -168[rbp]	# i.7_11, i
# Disjoint_Set_Union.cpp:65: 	vec[i] = i;
	mov	rdx, QWORD PTR -168[rbp]	# i.8_12, i
	lea	rax, -112[rbp]	# tmp164,
	mov	rsi, rdx	#, i.8_12
	mov	rdi, rax	#, tmp164
	call	_ZNSt6vectorIxSaIxEEixEm	#
# Disjoint_Set_Union.cpp:65: 	vec[i] = i;
	mov	QWORD PTR [rax], rbx	# *_13, i.7_11
# Disjoint_Set_Union.cpp:66: 	size[i] = 1;
	mov	rdx, QWORD PTR -168[rbp]	# i.9_14, i
	lea	rax, -80[rbp]	# tmp165,
	mov	rsi, rdx	#, i.9_14
	mov	rdi, rax	#, tmp165
	call	_ZNSt6vectorIxSaIxEEixEm	#
# Disjoint_Set_Union.cpp:66: 	size[i] = 1;
	mov	QWORD PTR [rax], 1	# *_15,
# Disjoint_Set_Union.cpp:67: 	rank[i] = 0;
	mov	rdx, QWORD PTR -168[rbp]	# i.10_16, i
	lea	rax, -48[rbp]	# tmp166,
	mov	rsi, rdx	#, i.10_16
	mov	rdi, rax	#, tmp166
	call	_ZNSt6vectorIxSaIxEEixEm	#
# Disjoint_Set_Union.cpp:67: 	rank[i] = 0;
	mov	QWORD PTR [rax], 0	# *_17,
# Disjoint_Set_Union.cpp:64:     for (long long i = 0; i < n; i++) {
	add	QWORD PTR -168[rbp], 1	# i,
.L11:
# Disjoint_Set_Union.cpp:64:     for (long long i = 0; i < n; i++) {
	mov	rax, QWORD PTR -224[rbp]	# n.11_18, n
	cmp	QWORD PTR -168[rbp], rax	# i, n.11_18
	jl	.L12	#,
# Disjoint_Set_Union.cpp:70:     for (long long i = 0; i < q; i++) {
	mov	QWORD PTR -160[rbp], 0	# i,
# Disjoint_Set_Union.cpp:70:     for (long long i = 0; i < q; i++) {
	jmp	.L13	#
.L20:
# Disjoint_Set_Union.cpp:72: 	cin >> a >> b >> c;
	lea	rax, -208[rbp]	# tmp167,
	mov	rsi, rax	#, tmp167
	lea	rax, _ZSt3cin[rip]	# tmp168,
	mov	rdi, rax	#, tmp168
.LEHB4:
	call	_ZNSirsERx@PLT	#
	mov	rdx, rax	# _19,
# Disjoint_Set_Union.cpp:72: 	cin >> a >> b >> c;
	lea	rax, -200[rbp]	# tmp169,
	mov	rsi, rax	#, tmp169
	mov	rdi, rdx	#, _19
	call	_ZNSirsERx@PLT	#
	mov	rdx, rax	# _20,
# Disjoint_Set_Union.cpp:72: 	cin >> a >> b >> c;
	lea	rax, -192[rbp]	# tmp170,
	mov	rsi, rax	#, tmp170
	mov	rdi, rdx	#, _20
	call	_ZNSirsERx@PLT	#
# Disjoint_Set_Union.cpp:73: 	if (a == 0) {
	mov	rax, QWORD PTR -208[rbp]	# a.12_21, a
# Disjoint_Set_Union.cpp:73: 	if (a == 0) {
	test	rax, rax	# a.12_21
	jne	.L14	#,
# Disjoint_Set_Union.cpp:79: 	    long long bb = find_set(b, vec);
	mov	rax, QWORD PTR -200[rbp]	# b.13_22, b
	lea	rdx, -112[rbp]	# tmp171,
	mov	rsi, rdx	#, tmp171
	mov	rdi, rax	#, b.13_22
	call	_Z8find_setxRSt6vectorIxSaIxEE	#
# Disjoint_Set_Union.cpp:79: 	    long long bb = find_set(b, vec);
	mov	QWORD PTR -184[rbp], rax	# MEM[(long long int *)_173], _23
# Disjoint_Set_Union.cpp:80: 	    long long cc = find_set(c, vec);
	mov	rax, QWORD PTR -192[rbp]	# c.14_24, c
	lea	rdx, -112[rbp]	# tmp172,
	mov	rsi, rdx	#, tmp172
	mov	rdi, rax	#, c.14_24
	call	_Z8find_setxRSt6vectorIxSaIxEE	#
# Disjoint_Set_Union.cpp:80: 	    long long cc = find_set(c, vec);
	mov	QWORD PTR -176[rbp], rax	# MEM[(long long int *)_174], _25
# Disjoint_Set_Union.cpp:81: 	    if (bb != cc) {
	mov	rdx, QWORD PTR -184[rbp]	# bb.15_26, MEM[(long long int *)_173]
	mov	rax, QWORD PTR -176[rbp]	# cc.16_27, MEM[(long long int *)_174]
# Disjoint_Set_Union.cpp:81: 	    if (bb != cc) {
	cmp	rdx, rax	# bb.15_26, cc.16_27
	je	.L17	#,
# Disjoint_Set_Union.cpp:82: 		if (rank[bb] < rank[cc]) {
	mov	rax, QWORD PTR -184[rbp]	# bb.18_28, MEM[(long long int *)_173]
	mov	rdx, rax	# bb.19_29, bb.18_28
	lea	rax, -48[rbp]	# tmp173,
	mov	rsi, rdx	#, bb.19_29
	mov	rdi, rax	#, tmp173
	call	_ZNSt6vectorIxSaIxEEixEm	#
# Disjoint_Set_Union.cpp:82: 		if (rank[bb] < rank[cc]) {
	mov	rbx, QWORD PTR [rax]	# _31, *_30
# Disjoint_Set_Union.cpp:82: 		if (rank[bb] < rank[cc]) {
	mov	rax, QWORD PTR -176[rbp]	# cc.20_32, MEM[(long long int *)_174]
	mov	rdx, rax	# cc.21_33, cc.20_32
	lea	rax, -48[rbp]	# tmp174,
	mov	rsi, rdx	#, cc.21_33
	mov	rdi, rax	#, tmp174
	call	_ZNSt6vectorIxSaIxEEixEm	#
# Disjoint_Set_Union.cpp:82: 		if (rank[bb] < rank[cc]) {
	mov	rax, QWORD PTR [rax]	# _35, *_34
	cmp	rbx, rax	# _31, _35
	setl	al	#, retval.17_120
# Disjoint_Set_Union.cpp:82: 		if (rank[bb] < rank[cc]) {
	test	al, al	# retval.17_120
	je	.L16	#,
# Disjoint_Set_Union.cpp:83: 		    swap(bb, cc);
	lea	rdx, -176[rbp]	# tmp175,
	lea	rax, -184[rbp]	# tmp176,
	mov	rsi, rdx	#, tmp175
	mov	rdi, rax	#, tmp176
	call	_ZSt4swapIxENSt9enable_ifIXsrSt6__and_IJSt6__not_ISt15__is_tuple_likeIT_EESt21is_move_constructibleIS4_ESt18is_move_assignableIS4_EEE5valueEvE4typeERS4_SE_	#
.L16:
# Disjoint_Set_Union.cpp:85: 		vec[cc] = bb;
	mov	rbx, QWORD PTR -184[rbp]	# bb.22_36, MEM[(long long int *)_173]
# Disjoint_Set_Union.cpp:85: 		vec[cc] = bb;
	mov	rax, QWORD PTR -176[rbp]	# cc.23_37, MEM[(long long int *)_174]
	mov	rdx, rax	# cc.24_38, cc.23_37
	lea	rax, -112[rbp]	# tmp177,
	mov	rsi, rdx	#, cc.24_38
	mov	rdi, rax	#, tmp177
	call	_ZNSt6vectorIxSaIxEEixEm	#
# Disjoint_Set_Union.cpp:85: 		vec[cc] = bb;
	mov	QWORD PTR [rax], rbx	# *_39, bb.22_36
# Disjoint_Set_Union.cpp:86: 		if (rank[bb] == rank[cc]) {
	mov	rax, QWORD PTR -184[rbp]	# bb.26_40, MEM[(long long int *)_173]
	mov	rdx, rax	# bb.27_41, bb.26_40
	lea	rax, -48[rbp]	# tmp178,
	mov	rsi, rdx	#, bb.27_41
	mov	rdi, rax	#, tmp178
	call	_ZNSt6vectorIxSaIxEEixEm	#
# Disjoint_Set_Union.cpp:86: 		if (rank[bb] == rank[cc]) {
	mov	rbx, QWORD PTR [rax]	# _43, *_42
# Disjoint_Set_Union.cpp:86: 		if (rank[bb] == rank[cc]) {
	mov	rax, QWORD PTR -176[rbp]	# cc.28_44, MEM[(long long int *)_174]
	mov	rdx, rax	# cc.29_45, cc.28_44
	lea	rax, -48[rbp]	# tmp179,
	mov	rsi, rdx	#, cc.29_45
	mov	rdi, rax	#, tmp179
	call	_ZNSt6vectorIxSaIxEEixEm	#
# Disjoint_Set_Union.cpp:86: 		if (rank[bb] == rank[cc]) {
	mov	rax, QWORD PTR [rax]	# _47, *_46
	cmp	rbx, rax	# _43, _47
	sete	al	#, retval.25_126
# Disjoint_Set_Union.cpp:86: 		if (rank[bb] == rank[cc]) {
	test	al, al	# retval.25_126
	je	.L17	#,
# Disjoint_Set_Union.cpp:87: 		    rank[bb]++;
	mov	rax, QWORD PTR -184[rbp]	# bb.30_48, MEM[(long long int *)_173]
	mov	rdx, rax	# bb.31_49, bb.30_48
	lea	rax, -48[rbp]	# tmp180,
	mov	rsi, rdx	#, bb.31_49
	mov	rdi, rax	#, tmp180
	call	_ZNSt6vectorIxSaIxEEixEm	#
# Disjoint_Set_Union.cpp:87: 		    rank[bb]++;
	mov	rdx, QWORD PTR [rax]	# _51, *_50
	add	rdx, 1	# _52,
	mov	QWORD PTR [rax], rdx	# *_50, _52
	jmp	.L17	#
.L14:
# Disjoint_Set_Union.cpp:91: 	    long long res1 = find_set(b, vec);
	mov	rax, QWORD PTR -200[rbp]	# b.32_53, b
	lea	rdx, -112[rbp]	# tmp181,
	mov	rsi, rdx	#, tmp181
	mov	rdi, rax	#, b.32_53
	call	_Z8find_setxRSt6vectorIxSaIxEE	#
# Disjoint_Set_Union.cpp:91: 	    long long res1 = find_set(b, vec);
	mov	QWORD PTR -152[rbp], rax	# res1, _104
# Disjoint_Set_Union.cpp:92: 	    long long res2 = find_set(c, vec);
	mov	rax, QWORD PTR -192[rbp]	# c.33_54, c
	lea	rdx, -112[rbp]	# tmp182,
	mov	rsi, rdx	#, tmp182
	mov	rdi, rax	#, c.33_54
	call	_Z8find_setxRSt6vectorIxSaIxEE	#
# Disjoint_Set_Union.cpp:92: 	    long long res2 = find_set(c, vec);
	mov	QWORD PTR -144[rbp], rax	# res2, _107
# Disjoint_Set_Union.cpp:94: 	    if (res1 == res2) {
	mov	rax, QWORD PTR -152[rbp]	# tmp183, res1
	cmp	rax, QWORD PTR -144[rbp]	# tmp183, res2
	jne	.L18	#,
# Disjoint_Set_Union.cpp:95: 		cout << '1';
	mov	esi, 49	#,
	lea	rax, _ZSt4cout[rip]	# tmp184,
	mov	rdi, rax	#, tmp184
	call	_ZStlsISt11char_traitsIcEERSt13basic_ostreamIcT_ES5_c@PLT	#
	jmp	.L19	#
.L18:
# Disjoint_Set_Union.cpp:97: 		cout << '0';
	mov	esi, 48	#,
	lea	rax, _ZSt4cout[rip]	# tmp185,
	mov	rdi, rax	#, tmp185
	call	_ZStlsISt11char_traitsIcEERSt13basic_ostreamIcT_ES5_c@PLT	#
.L19:
# Disjoint_Set_Union.cpp:99: 	    cout << '\n';
	mov	esi, 10	#,
	lea	rax, _ZSt4cout[rip]	# tmp186,
	mov	rdi, rax	#, tmp186
	call	_ZStlsISt11char_traitsIcEERSt13basic_ostreamIcT_ES5_c@PLT	#
.LEHE4:
.L17:
# Disjoint_Set_Union.cpp:70:     for (long long i = 0; i < q; i++) {
	add	QWORD PTR -160[rbp], 1	# i,
.L13:
# Disjoint_Set_Union.cpp:70:     for (long long i = 0; i < q; i++) {
	mov	rax, QWORD PTR -216[rbp]	# q.34_55, q
	cmp	QWORD PTR -160[rbp], rax	# i, q.34_55
	jl	.L20	#,
# Disjoint_Set_Union.cpp:106:     return 0;
	mov	ebx, 0	# _89,
# Disjoint_Set_Union.cpp:107: }
	lea	rax, -48[rbp]	# tmp187,
	mov	rdi, rax	#, tmp187
	call	_ZNSt6vectorIxSaIxEED1Ev	#
# Disjoint_Set_Union.cpp:107: }
	lea	rax, -80[rbp]	# tmp188,
	mov	rdi, rax	#, tmp188
	call	_ZNSt6vectorIxSaIxEED1Ev	#
# Disjoint_Set_Union.cpp:107: }
	lea	rax, -112[rbp]	# tmp189,
	mov	rdi, rax	#, tmp189
	call	_ZNSt6vectorIxSaIxEED1Ev	#
# Disjoint_Set_Union.cpp:107: }
	mov	eax, ebx	# <retval>, _89
	mov	rdx, QWORD PTR -24[rbp]	# tmp209, D.226852
	sub	rdx, QWORD PTR fs:40	# tmp209, MEM[(<address-space-1> long unsigned int *)40B]
	je	.L30	#,
	jmp	.L35	#
.L31:
	endbr64	
# /usr/include/c++/13/bits/allocator.h:184:       ~allocator() _GLIBCXX_NOTHROW { }
	mov	rbx, rax	# tmp192,
	lea	rax, -80[rbp]	# tmp191,
	mov	rdi, rax	#, tmp191
	call	_ZNSt15__new_allocatorIxED2Ev	#
	nop	
	mov	rax, rbx	# D.226849, tmp192
	mov	rdx, QWORD PTR -24[rbp]	# tmp210, D.226852
	sub	rdx, QWORD PTR fs:40	# tmp210, MEM[(<address-space-1> long unsigned int *)40B]
	je	.L23	#,
	call	__stack_chk_fail@PLT	#
.L23:
	mov	rdi, rax	#, D.226849
.LEHB5:
	call	_Unwind_Resume@PLT	#
.L32:
	endbr64	
	mov	rbx, rax	# tmp195,
	lea	rax, -176[rbp]	# tmp193,
	mov	rdi, rax	#, tmp193
	call	_ZNSt15__new_allocatorIxED2Ev	#
	nop	
	jmp	.L25	#
.L33:
	endbr64	
	mov	rbx, rax	# tmp200,
	lea	rax, -184[rbp]	# tmp198,
	mov	rdi, rax	#, tmp198
	call	_ZNSt15__new_allocatorIxED2Ev	#
	nop	
	jmp	.L27	#
.L34:
	endbr64	
# Disjoint_Set_Union.cpp:107: }
	mov	rbx, rax	# tmp204,
	lea	rax, -48[rbp]	# tmp203,
	mov	rdi, rax	#, tmp203
	call	_ZNSt6vectorIxSaIxEED1Ev	#
.L27:
	lea	rax, -80[rbp]	# tmp206,
	mov	rdi, rax	#, tmp206
	call	_ZNSt6vectorIxSaIxEED1Ev	#
.L25:
	lea	rax, -112[rbp]	# tmp207,
	mov	rdi, rax	#, tmp207
	call	_ZNSt6vectorIxSaIxEED1Ev	#
	mov	rax, rbx	# D.226850, tmp194
	mov	rdx, QWORD PTR -24[rbp]	# tmp211, D.226852
	sub	rdx, QWORD PTR fs:40	# tmp211, MEM[(<address-space-1> long unsigned int *)40B]
	je	.L29	#,
	call	__stack_chk_fail@PLT	#
.L29:
	mov	rdi, rax	#, D.226850
	call	_Unwind_Resume@PLT	#
.LEHE5:
.L35:
	call	__stack_chk_fail@PLT	#
.L30:
	mov	rbx, QWORD PTR -8[rbp]	#,
	leave	
	.cfi_def_cfa 7, 8
	ret	
	.cfi_endproc
.LFE9787:
	.globl	__gxx_personality_v0
	.section	.gcc_except_table,"a",@progbits
.LLSDA9787:
	.byte	0xff
	.byte	0xff
	.byte	0x1
	.uleb128 .LLSDACSE9787-.LLSDACSB9787
.LLSDACSB9787:
	.uleb128 .LEHB0-.LFB9787
	.uleb128 .LEHE0-.LEHB0
	.uleb128 0
	.uleb128 0
	.uleb128 .LEHB1-.LFB9787
	.uleb128 .LEHE1-.LEHB1
	.uleb128 .L31-.LFB9787
	.uleb128 0
	.uleb128 .LEHB2-.LFB9787
	.uleb128 .LEHE2-.LEHB2
	.uleb128 .L32-.LFB9787
	.uleb128 0
	.uleb128 .LEHB3-.LFB9787
	.uleb128 .LEHE3-.LEHB3
	.uleb128 .L33-.LFB9787
	.uleb128 0
	.uleb128 .LEHB4-.LFB9787
	.uleb128 .LEHE4-.LEHB4
	.uleb128 .L34-.LFB9787
	.uleb128 0
	.uleb128 .LEHB5-.LFB9787
	.uleb128 .LEHE5-.LEHB5
	.uleb128 0
	.uleb128 0
.LLSDACSE9787:
	.text
	.size	main, .-main
	.section	.text._ZNSt6vectorIxSaIxEEixEm,"axG",@progbits,_ZNSt6vectorIxSaIxEEixEm,comdat
	.align 2
	.weak	_ZNSt6vectorIxSaIxEEixEm
	.type	_ZNSt6vectorIxSaIxEEixEm, @function
_ZNSt6vectorIxSaIxEEixEm:
.LFB10488:
	.cfi_startproc
	endbr64	
	push	rbp	#
	.cfi_def_cfa_offset 16
	.cfi_offset 6, -16
	mov	rbp, rsp	#,
	.cfi_def_cfa_register 6
	mov	QWORD PTR -8[rbp], rdi	# this, this
	mov	QWORD PTR -16[rbp], rsi	# __n, __n
# /usr/include/c++/13/bits/stl_vector.h:1129: 	return *(this->_M_impl._M_start + __n);
	mov	rax, QWORD PTR -8[rbp]	# tmp86, this
	mov	rax, QWORD PTR [rax]	# _1, this_4(D)->D.209185._M_impl.D.208534._M_start
# /usr/include/c++/13/bits/stl_vector.h:1129: 	return *(this->_M_impl._M_start + __n);
	mov	rdx, QWORD PTR -16[rbp]	# tmp87, __n
	sal	rdx, 3	# _2,
# /usr/include/c++/13/bits/stl_vector.h:1129: 	return *(this->_M_impl._M_start + __n);
	add	rax, rdx	# _6, _2
# /usr/include/c++/13/bits/stl_vector.h:1130:       }
	pop	rbp	#
	.cfi_def_cfa 7, 8
	ret	
	.cfi_endproc
.LFE10488:
	.size	_ZNSt6vectorIxSaIxEEixEm, .-_ZNSt6vectorIxSaIxEEixEm
	.section	.text._ZNSt6vectorIxSaIxEEC2EmRKxRKS0_,"axG",@progbits,_ZNSt6vectorIxSaIxEEC5EmRKxRKS0_,comdat
	.align 2
	.weak	_ZNSt6vectorIxSaIxEEC2EmRKxRKS0_
	.type	_ZNSt6vectorIxSaIxEEC2EmRKxRKS0_, @function
_ZNSt6vectorIxSaIxEEC2EmRKxRKS0_:
.LFB10498:
	.cfi_startproc
	.cfi_personality 0x9b,DW.ref.__gxx_personality_v0
	.cfi_lsda 0x1b,.LLSDA10498
	endbr64	
	push	rbp	#
	.cfi_def_cfa_offset 16
	.cfi_offset 6, -16
	mov	rbp, rsp	#,
	.cfi_def_cfa_register 6
	push	rbx	#
	sub	rsp, 40	#,
	.cfi_offset 3, -24
	mov	QWORD PTR -24[rbp], rdi	# this, this
	mov	QWORD PTR -32[rbp], rsi	# __n, __n
	mov	QWORD PTR -40[rbp], rdx	# __value, __value
	mov	QWORD PTR -48[rbp], rcx	# __a, __a
# /usr/include/c++/13/bits/stl_vector.h:571:       : _Base(_S_check_init_len(__n, __a), __a)
	mov	rbx, QWORD PTR -24[rbp]	# _1, this
	mov	rdx, QWORD PTR -48[rbp]	# tmp86, __a
	mov	rax, QWORD PTR -32[rbp]	# tmp87, __n
	mov	rsi, rdx	#, tmp86
	mov	rdi, rax	#, tmp87
.LEHB6:
	call	_ZNSt6vectorIxSaIxEE17_S_check_init_lenEmRKS0_	#
	mov	rcx, rax	# _2,
# /usr/include/c++/13/bits/stl_vector.h:571:       : _Base(_S_check_init_len(__n, __a), __a)
	mov	rax, QWORD PTR -48[rbp]	# tmp88, __a
	mov	rdx, rax	#, tmp88
	mov	rsi, rcx	#, _2
	mov	rdi, rbx	#, _1
	call	_ZNSt12_Vector_baseIxSaIxEEC2EmRKS0_	#
.LEHE6:
# /usr/include/c++/13/bits/stl_vector.h:572:       { _M_fill_initialize(__n, __value); }
	mov	rdx, QWORD PTR -40[rbp]	# tmp89, __value
	mov	rcx, QWORD PTR -32[rbp]	# tmp90, __n
	mov	rax, QWORD PTR -24[rbp]	# tmp91, this
	mov	rsi, rcx	#, tmp90
	mov	rdi, rax	#, tmp91
.LEHB7:
	call	_ZNSt6vectorIxSaIxEE18_M_fill_initializeEmRKx	#
.LEHE7:
# /usr/include/c++/13/bits/stl_vector.h:572:       { _M_fill_initialize(__n, __value); }
	jmp	.L41	#
.L40:
	endbr64	
# /usr/include/c++/13/bits/stl_vector.h:572:       { _M_fill_initialize(__n, __value); }
	mov	rbx, rax	# tmp92,
	mov	rax, QWORD PTR -24[rbp]	# _3, this
	mov	rdi, rax	#, _3
	call	_ZNSt12_Vector_baseIxSaIxEED2Ev	#
	mov	rax, rbx	# D.226854, tmp92
	mov	rdi, rax	#, D.226854
.LEHB8:
	call	_Unwind_Resume@PLT	#
.LEHE8:
.L41:
# /usr/include/c++/13/bits/stl_vector.h:572:       { _M_fill_initialize(__n, __value); }
	mov	rbx, QWORD PTR -8[rbp]	#,
	leave	
	.cfi_def_cfa 7, 8
	ret	
	.cfi_endproc
.LFE10498:
	.section	.gcc_except_table
.LLSDA10498:
	.byte	0xff
	.byte	0xff
	.byte	0x1
	.uleb128 .LLSDACSE10498-.LLSDACSB10498
.LLSDACSB10498:
	.uleb128 .LEHB6-.LFB10498
	.uleb128 .LEHE6-.LEHB6
	.uleb128 0
	.uleb128 0
	.uleb128 .LEHB7-.LFB10498
	.uleb128 .LEHE7-.LEHB7
	.uleb128 .L40-.LFB10498
	.uleb128 0
	.uleb128 .LEHB8-.LFB10498
	.uleb128 .LEHE8-.LEHB8
	.uleb128 0
	.uleb128 0
.LLSDACSE10498:
	.section	.text._ZNSt6vectorIxSaIxEEC2EmRKxRKS0_,"axG",@progbits,_ZNSt6vectorIxSaIxEEC5EmRKxRKS0_,comdat
	.size	_ZNSt6vectorIxSaIxEEC2EmRKxRKS0_, .-_ZNSt6vectorIxSaIxEEC2EmRKxRKS0_
	.weak	_ZNSt6vectorIxSaIxEEC1EmRKxRKS0_
	.set	_ZNSt6vectorIxSaIxEEC1EmRKxRKS0_,_ZNSt6vectorIxSaIxEEC2EmRKxRKS0_
	.section	.text._ZNSt6vectorIxSaIxEED2Ev,"axG",@progbits,_ZNSt6vectorIxSaIxEED5Ev,comdat
	.align 2
	.weak	_ZNSt6vectorIxSaIxEED2Ev
	.type	_ZNSt6vectorIxSaIxEED2Ev, @function
_ZNSt6vectorIxSaIxEED2Ev:
.LFB10501:
	.cfi_startproc
	.cfi_personality 0x9b,DW.ref.__gxx_personality_v0
	.cfi_lsda 0x1b,.LLSDA10501
	endbr64	
	push	rbp	#
	.cfi_def_cfa_offset 16
	.cfi_offset 6, -16
	mov	rbp, rsp	#,
	.cfi_def_cfa_register 6
	sub	rsp, 48	#,
	mov	QWORD PTR -40[rbp], rdi	# this, this
# /usr/include/c++/13/bits/stl_vector.h:736: 		      _M_get_Tp_allocator());
	mov	rax, QWORD PTR -40[rbp]	# _1, this
	mov	rdi, rax	#, _1
	call	_ZNSt12_Vector_baseIxSaIxEE19_M_get_Tp_allocatorEv	#
# /usr/include/c++/13/bits/stl_vector.h:735: 	std::_Destroy(this->_M_impl._M_start, this->_M_impl._M_finish,
	mov	rdx, QWORD PTR -40[rbp]	# tmp87, this
	mov	rdx, QWORD PTR 8[rdx]	# _3, this_6(D)->D.209185._M_impl.D.208534._M_finish
	mov	rcx, QWORD PTR -40[rbp]	# tmp88, this
	mov	rcx, QWORD PTR [rcx]	# _4, this_6(D)->D.209185._M_impl.D.208534._M_start
	mov	QWORD PTR -24[rbp], rcx	# __first, _4
	mov	QWORD PTR -16[rbp], rdx	# __last, _3
	mov	QWORD PTR -8[rbp], rax	# D.226793, _2
# /usr/include/c++/13/bits/alloc_traits.h:948:       std::_Destroy(__first, __last);
	mov	rdx, QWORD PTR -16[rbp]	# tmp89, __last
	mov	rax, QWORD PTR -24[rbp]	# tmp90, __first
	mov	rsi, rdx	#, tmp89
	mov	rdi, rax	#, tmp90
	call	_ZSt8_DestroyIPxEvT_S1_	#
# /usr/include/c++/13/bits/alloc_traits.h:949:     }
	nop	
# /usr/include/c++/13/bits/stl_vector.h:738:       }
	mov	rax, QWORD PTR -40[rbp]	# _5, this
	mov	rdi, rax	#, _5
	call	_ZNSt12_Vector_baseIxSaIxEED2Ev	#
	nop	
	leave	
	.cfi_def_cfa 7, 8
	ret	
	.cfi_endproc
.LFE10501:
	.section	.gcc_except_table
.LLSDA10501:
	.byte	0xff
	.byte	0xff
	.byte	0x1
	.uleb128 .LLSDACSE10501-.LLSDACSB10501
.LLSDACSB10501:
.LLSDACSE10501:
	.section	.text._ZNSt6vectorIxSaIxEED2Ev,"axG",@progbits,_ZNSt6vectorIxSaIxEED5Ev,comdat
	.size	_ZNSt6vectorIxSaIxEED2Ev, .-_ZNSt6vectorIxSaIxEED2Ev
	.weak	_ZNSt6vectorIxSaIxEED1Ev
	.set	_ZNSt6vectorIxSaIxEED1Ev,_ZNSt6vectorIxSaIxEED2Ev
	.section	.text._ZSt4swapIxENSt9enable_ifIXsrSt6__and_IJSt6__not_ISt15__is_tuple_likeIT_EESt21is_move_constructibleIS4_ESt18is_move_assignableIS4_EEE5valueEvE4typeERS4_SE_,"axG",@progbits,_ZSt4swapIxENSt9enable_ifIXsrSt6__and_IJSt6__not_ISt15__is_tuple_likeIT_EESt21is_move_constructibleIS4_ESt18is_move_assignableIS4_EEE5valueEvE4typeERS4_SE_,comdat
	.weak	_ZSt4swapIxENSt9enable_ifIXsrSt6__and_IJSt6__not_ISt15__is_tuple_likeIT_EESt21is_move_constructibleIS4_ESt18is_move_assignableIS4_EEE5valueEvE4typeERS4_SE_
	.type	_ZSt4swapIxENSt9enable_ifIXsrSt6__and_IJSt6__not_ISt15__is_tuple_likeIT_EESt21is_move_constructibleIS4_ESt18is_move_assignableIS4_EEE5valueEvE4typeERS4_SE_, @function
_ZSt4swapIxENSt9enable_ifIXsrSt6__and_IJSt6__not_ISt15__is_tuple_likeIT_EESt21is_move_constructibleIS4_ESt18is_move_assignableIS4_EEE5valueEvE4typeERS4_SE_:
.LFB10503:
	.cfi_startproc
	endbr64	
	push	rbp	#
	.cfi_def_cfa_offset 16
	.cfi_offset 6, -16
	mov	rbp, rsp	#,
	.cfi_def_cfa_register 6
	sub	rsp, 32	#,
	mov	QWORD PTR -24[rbp], rdi	# __a, __a
	mov	QWORD PTR -32[rbp], rsi	# __b, __b
# /usr/include/c++/13/bits/move.h:189:     swap(_Tp& __a, _Tp& __b)
	mov	rax, QWORD PTR fs:40	# tmp93, MEM[(<address-space-1> long unsigned int *)40B]
	mov	QWORD PTR -8[rbp], rax	# D.226855, tmp93
	xor	eax, eax	# tmp93
# /usr/include/c++/13/bits/move.h:197:       _Tp __tmp = _GLIBCXX_MOVE(__a);
	mov	rax, QWORD PTR -24[rbp]	# tmp88, __a
	mov	rdi, rax	#, tmp88
	call	_ZSt4moveIRxEONSt16remove_referenceIT_E4typeEOS2_	#
# /usr/include/c++/13/bits/move.h:197:       _Tp __tmp = _GLIBCXX_MOVE(__a);
	mov	rax, QWORD PTR [rax]	# _2, *_1
	mov	QWORD PTR -16[rbp], rax	# __tmp, _2
# /usr/include/c++/13/bits/move.h:198:       __a = _GLIBCXX_MOVE(__b);
	mov	rax, QWORD PTR -32[rbp]	# tmp89, __b
	mov	rdi, rax	#, tmp89
	call	_ZSt4moveIRxEONSt16remove_referenceIT_E4typeEOS2_	#
# /usr/include/c++/13/bits/move.h:198:       __a = _GLIBCXX_MOVE(__b);
	mov	rdx, QWORD PTR [rax]	# _4, *_3
	mov	rax, QWORD PTR -24[rbp]	# tmp90, __a
	mov	QWORD PTR [rax], rdx	# *__a_8(D), _4
# /usr/include/c++/13/bits/move.h:199:       __b = _GLIBCXX_MOVE(__tmp);
	lea	rax, -16[rbp]	# tmp91,
	mov	rdi, rax	#, tmp91
	call	_ZSt4moveIRxEONSt16remove_referenceIT_E4typeEOS2_	#
# /usr/include/c++/13/bits/move.h:199:       __b = _GLIBCXX_MOVE(__tmp);
	mov	rdx, QWORD PTR [rax]	# _6, *_5
	mov	rax, QWORD PTR -32[rbp]	# tmp92, __b
	mov	QWORD PTR [rax], rdx	# *__b_11(D), _6
# /usr/include/c++/13/bits/move.h:200:     }
	nop	
	mov	rax, QWORD PTR -8[rbp]	# tmp94, D.226855
	sub	rax, QWORD PTR fs:40	# tmp94, MEM[(<address-space-1> long unsigned int *)40B]
	je	.L44	#,
	call	__stack_chk_fail@PLT	#
.L44:
	leave	
	.cfi_def_cfa 7, 8
	ret	
	.cfi_endproc
.LFE10503:
	.size	_ZSt4swapIxENSt9enable_ifIXsrSt6__and_IJSt6__not_ISt15__is_tuple_likeIT_EESt21is_move_constructibleIS4_ESt18is_move_assignableIS4_EEE5valueEvE4typeERS4_SE_, .-_ZSt4swapIxENSt9enable_ifIXsrSt6__and_IJSt6__not_ISt15__is_tuple_likeIT_EESt21is_move_constructibleIS4_ESt18is_move_assignableIS4_EEE5valueEvE4typeERS4_SE_
	.section	.text._ZNSt15__new_allocatorIxED2Ev,"axG",@progbits,_ZNSt15__new_allocatorIxED5Ev,comdat
	.align 2
	.weak	_ZNSt15__new_allocatorIxED2Ev
	.type	_ZNSt15__new_allocatorIxED2Ev, @function
_ZNSt15__new_allocatorIxED2Ev:
.LFB10945:
	.cfi_startproc
	endbr64	
	push	rbp	#
	.cfi_def_cfa_offset 16
	.cfi_offset 6, -16
	mov	rbp, rsp	#,
	.cfi_def_cfa_register 6
	mov	QWORD PTR -8[rbp], rdi	# this, this
# /usr/include/c++/13/bits/new_allocator.h:104:       ~__new_allocator() _GLIBCXX_USE_NOEXCEPT { }
	nop	
	pop	rbp	#
	.cfi_def_cfa 7, 8
	ret	
	.cfi_endproc
.LFE10945:
	.size	_ZNSt15__new_allocatorIxED2Ev, .-_ZNSt15__new_allocatorIxED2Ev
	.weak	_ZNSt15__new_allocatorIxED1Ev
	.set	_ZNSt15__new_allocatorIxED1Ev,_ZNSt15__new_allocatorIxED2Ev
	.section	.rodata
	.align 8
.LC0:
	.string	"cannot create std::vector larger than max_size()"
	.section	.text._ZNSt6vectorIxSaIxEE17_S_check_init_lenEmRKS0_,"axG",@progbits,_ZNSt6vectorIxSaIxEE17_S_check_init_lenEmRKS0_,comdat
	.weak	_ZNSt6vectorIxSaIxEE17_S_check_init_lenEmRKS0_
	.type	_ZNSt6vectorIxSaIxEE17_S_check_init_lenEmRKS0_, @function
_ZNSt6vectorIxSaIxEE17_S_check_init_lenEmRKS0_:
.LFB10947:
	.cfi_startproc
	endbr64	
	push	rbp	#
	.cfi_def_cfa_offset 16
	.cfi_offset 6, -16
	mov	rbp, rsp	#,
	.cfi_def_cfa_register 6
	push	rbx	#
	sub	rsp, 72	#,
	.cfi_offset 3, -24
	mov	QWORD PTR -72[rbp], rdi	# __n, __n
	mov	QWORD PTR -80[rbp], rsi	# __a, __a
# /usr/include/c++/13/bits/stl_vector.h:1907:       _S_check_init_len(size_type __n, const allocator_type& __a)
	mov	rax, QWORD PTR fs:40	# tmp93, MEM[(<address-space-1> long unsigned int *)40B]
	mov	QWORD PTR -24[rbp], rax	# D.226856, tmp93
	xor	eax, eax	# tmp93
	mov	rax, QWORD PTR -80[rbp]	# tmp86, __a
	mov	QWORD PTR -48[rbp], rax	# __a, tmp86
	lea	rax, -49[rbp]	# tmp87,
	mov	QWORD PTR -40[rbp], rax	# this, tmp87
	mov	rax, QWORD PTR -48[rbp]	# tmp88, __a
	mov	QWORD PTR -32[rbp], rax	# D.226827, tmp88
# /usr/include/c++/13/bits/new_allocator.h:92:       __new_allocator(const __new_allocator&) _GLIBCXX_USE_NOEXCEPT { }
	nop	
# /usr/include/c++/13/bits/allocator.h:168:       : __allocator_base<_Tp>(__a) { }
	nop	
# /usr/include/c++/13/bits/stl_vector.h:1909: 	if (__n > _S_max_size(_Tp_alloc_type(__a)))
	lea	rax, -49[rbp]	# tmp89,
	mov	rdi, rax	#, tmp89
	call	_ZNSt6vectorIxSaIxEE11_S_max_sizeERKS0_	#
# /usr/include/c++/13/bits/stl_vector.h:1909: 	if (__n > _S_max_size(_Tp_alloc_type(__a)))
	cmp	rax, QWORD PTR -72[rbp]	# _1, __n
	setb	bl	#, retval.35_6
# /usr/include/c++/13/bits/allocator.h:184:       ~allocator() _GLIBCXX_NOTHROW { }
	lea	rax, -49[rbp]	# tmp90,
	mov	rdi, rax	#, tmp90
	call	_ZNSt15__new_allocatorIxED2Ev	#
	nop	
# /usr/include/c++/13/bits/stl_vector.h:1909: 	if (__n > _S_max_size(_Tp_alloc_type(__a)))
	test	bl, bl	# retval.35_6
	je	.L47	#,
# /usr/include/c++/13/bits/stl_vector.h:1910: 	  __throw_length_error(
	mov	rax, QWORD PTR -24[rbp]	# tmp94, D.226856
	sub	rax, QWORD PTR fs:40	# tmp94, MEM[(<address-space-1> long unsigned int *)40B]
	je	.L48	#,
	call	__stack_chk_fail@PLT	#
.L48:
	lea	rax, .LC0[rip]	# tmp91,
	mov	rdi, rax	#, tmp91
	call	_ZSt20__throw_length_errorPKc@PLT	#
.L47:
# /usr/include/c++/13/bits/stl_vector.h:1912: 	return __n;
	mov	rax, QWORD PTR -72[rbp]	# _8, __n
# /usr/include/c++/13/bits/stl_vector.h:1913:       }
	mov	rdx, QWORD PTR -24[rbp]	# tmp95, D.226856
	sub	rdx, QWORD PTR fs:40	# tmp95, MEM[(<address-space-1> long unsigned int *)40B]
	je	.L50	#,
	call	__stack_chk_fail@PLT	#
.L50:
	mov	rbx, QWORD PTR -8[rbp]	#,
	leave	
	.cfi_def_cfa 7, 8
	ret	
	.cfi_endproc
.LFE10947:
	.size	_ZNSt6vectorIxSaIxEE17_S_check_init_lenEmRKS0_, .-_ZNSt6vectorIxSaIxEE17_S_check_init_lenEmRKS0_
	.section	.text._ZNSt12_Vector_baseIxSaIxEE12_Vector_implD2Ev,"axG",@progbits,_ZNSt12_Vector_baseIxSaIxEE12_Vector_implD5Ev,comdat
	.align 2
	.weak	_ZNSt12_Vector_baseIxSaIxEE12_Vector_implD2Ev
	.type	_ZNSt12_Vector_baseIxSaIxEE12_Vector_implD2Ev, @function
_ZNSt12_Vector_baseIxSaIxEE12_Vector_implD2Ev:
.LFB10950:
	.cfi_startproc
	endbr64	
	push	rbp	#
	.cfi_def_cfa_offset 16
	.cfi_offset 6, -16
	mov	rbp, rsp	#,
	.cfi_def_cfa_register 6
	sub	rsp, 32	#,
	mov	QWORD PTR -24[rbp], rdi	# this, this
	mov	rax, QWORD PTR -24[rbp]	# tmp82, this
	mov	QWORD PTR -8[rbp], rax	# this, tmp82
# /usr/include/c++/13/bits/allocator.h:184:       ~allocator() _GLIBCXX_NOTHROW { }
	mov	rax, QWORD PTR -8[rbp]	# tmp83, this
	mov	rdi, rax	#, tmp83
	call	_ZNSt15__new_allocatorIxED2Ev	#
	nop	
# /usr/include/c++/13/bits/stl_vector.h:133:       struct _Vector_impl
	nop	
	leave	
	.cfi_def_cfa 7, 8
	ret	
	.cfi_endproc
.LFE10950:
	.size	_ZNSt12_Vector_baseIxSaIxEE12_Vector_implD2Ev, .-_ZNSt12_Vector_baseIxSaIxEE12_Vector_implD2Ev
	.weak	_ZNSt12_Vector_baseIxSaIxEE12_Vector_implD1Ev
	.set	_ZNSt12_Vector_baseIxSaIxEE12_Vector_implD1Ev,_ZNSt12_Vector_baseIxSaIxEE12_Vector_implD2Ev
	.section	.text._ZNSt12_Vector_baseIxSaIxEEC2EmRKS0_,"axG",@progbits,_ZNSt12_Vector_baseIxSaIxEEC5EmRKS0_,comdat
	.align 2
	.weak	_ZNSt12_Vector_baseIxSaIxEEC2EmRKS0_
	.type	_ZNSt12_Vector_baseIxSaIxEEC2EmRKS0_, @function
_ZNSt12_Vector_baseIxSaIxEEC2EmRKS0_:
.LFB10952:
	.cfi_startproc
	.cfi_personality 0x9b,DW.ref.__gxx_personality_v0
	.cfi_lsda 0x1b,.LLSDA10952
	endbr64	
	push	rbp	#
	.cfi_def_cfa_offset 16
	.cfi_offset 6, -16
	mov	rbp, rsp	#,
	.cfi_def_cfa_register 6
	push	rbx	#
	sub	rsp, 40	#,
	.cfi_offset 3, -24
	mov	QWORD PTR -24[rbp], rdi	# this, this
	mov	QWORD PTR -32[rbp], rsi	# __n, __n
	mov	QWORD PTR -40[rbp], rdx	# __a, __a
# /usr/include/c++/13/bits/stl_vector.h:334:       : _M_impl(__a)
	mov	rax, QWORD PTR -24[rbp]	# _1, this
	mov	rdx, QWORD PTR -40[rbp]	# tmp85, __a
	mov	rsi, rdx	#, tmp85
	mov	rdi, rax	#, _1
	call	_ZNSt12_Vector_baseIxSaIxEE12_Vector_implC1ERKS0_	#
# /usr/include/c++/13/bits/stl_vector.h:335:       { _M_create_storage(__n); }
	mov	rdx, QWORD PTR -32[rbp]	# tmp86, __n
	mov	rax, QWORD PTR -24[rbp]	# tmp87, this
	mov	rsi, rdx	#, tmp86
	mov	rdi, rax	#, tmp87
.LEHB9:
	call	_ZNSt12_Vector_baseIxSaIxEE17_M_create_storageEm	#
.LEHE9:
# /usr/include/c++/13/bits/stl_vector.h:335:       { _M_create_storage(__n); }
	jmp	.L55	#
.L54:
	endbr64	
# /usr/include/c++/13/bits/stl_vector.h:335:       { _M_create_storage(__n); }
	mov	rbx, rax	# tmp88,
	mov	rax, QWORD PTR -24[rbp]	# _2, this
	mov	rdi, rax	#, _2
	call	_ZNSt12_Vector_baseIxSaIxEE12_Vector_implD1Ev	#
	mov	rax, rbx	# D.226858, tmp88
	mov	rdi, rax	#, D.226858
.LEHB10:
	call	_Unwind_Resume@PLT	#
.LEHE10:
.L55:
# /usr/include/c++/13/bits/stl_vector.h:335:       { _M_create_storage(__n); }
	mov	rbx, QWORD PTR -8[rbp]	#,
	leave	
	.cfi_def_cfa 7, 8
	ret	
	.cfi_endproc
.LFE10952:
	.section	.gcc_except_table
.LLSDA10952:
	.byte	0xff
	.byte	0xff
	.byte	0x1
	.uleb128 .LLSDACSE10952-.LLSDACSB10952
.LLSDACSB10952:
	.uleb128 .LEHB9-.LFB10952
	.uleb128 .LEHE9-.LEHB9
	.uleb128 .L54-.LFB10952
	.uleb128 0
	.uleb128 .LEHB10-.LFB10952
	.uleb128 .LEHE10-.LEHB10
	.uleb128 0
	.uleb128 0
.LLSDACSE10952:
	.section	.text._ZNSt12_Vector_baseIxSaIxEEC2EmRKS0_,"axG",@progbits,_ZNSt12_Vector_baseIxSaIxEEC5EmRKS0_,comdat
	.size	_ZNSt12_Vector_baseIxSaIxEEC2EmRKS0_, .-_ZNSt12_Vector_baseIxSaIxEEC2EmRKS0_
	.weak	_ZNSt12_Vector_baseIxSaIxEEC1EmRKS0_
	.set	_ZNSt12_Vector_baseIxSaIxEEC1EmRKS0_,_ZNSt12_Vector_baseIxSaIxEEC2EmRKS0_
	.section	.text._ZNSt12_Vector_baseIxSaIxEED2Ev,"axG",@progbits,_ZNSt12_Vector_baseIxSaIxEED5Ev,comdat
	.align 2
	.weak	_ZNSt12_Vector_baseIxSaIxEED2Ev
	.type	_ZNSt12_Vector_baseIxSaIxEED2Ev, @function
_ZNSt12_Vector_baseIxSaIxEED2Ev:
.LFB10955:
	.cfi_startproc
	.cfi_personality 0x9b,DW.ref.__gxx_personality_v0
	.cfi_lsda 0x1b,.LLSDA10955
	endbr64	
	push	rbp	#
	.cfi_def_cfa_offset 16
	.cfi_offset 6, -16
	mov	rbp, rsp	#,
	.cfi_def_cfa_register 6
	sub	rsp, 16	#,
	mov	QWORD PTR -8[rbp], rdi	# this, this
# /usr/include/c++/13/bits/stl_vector.h:370: 		      _M_impl._M_end_of_storage - _M_impl._M_start);
	mov	rax, QWORD PTR -8[rbp]	# tmp89, this
	mov	rdx, QWORD PTR 16[rax]	# _1, this_9(D)->_M_impl.D.208534._M_end_of_storage
# /usr/include/c++/13/bits/stl_vector.h:370: 		      _M_impl._M_end_of_storage - _M_impl._M_start);
	mov	rax, QWORD PTR -8[rbp]	# tmp90, this
	mov	rax, QWORD PTR [rax]	# _2, this_9(D)->_M_impl.D.208534._M_start
# /usr/include/c++/13/bits/stl_vector.h:370: 		      _M_impl._M_end_of_storage - _M_impl._M_start);
	sub	rdx, rax	# _3, _2
	mov	rax, rdx	# _3, _3
	sar	rax, 3	# _3,
# /usr/include/c++/13/bits/stl_vector.h:369: 	_M_deallocate(_M_impl._M_start,
	mov	rdx, rax	# _5, _4
	mov	rax, QWORD PTR -8[rbp]	# tmp92, this
	mov	rcx, QWORD PTR [rax]	# _6, this_9(D)->_M_impl.D.208534._M_start
	mov	rax, QWORD PTR -8[rbp]	# tmp93, this
	mov	rsi, rcx	#, _6
	mov	rdi, rax	#, tmp93
	call	_ZNSt12_Vector_baseIxSaIxEE13_M_deallocateEPxm	#
# /usr/include/c++/13/bits/stl_vector.h:371:       }
	mov	rax, QWORD PTR -8[rbp]	# _7, this
	mov	rdi, rax	#, _7
	call	_ZNSt12_Vector_baseIxSaIxEE12_Vector_implD1Ev	#
	nop	
	leave	
	.cfi_def_cfa 7, 8
	ret	
	.cfi_endproc
.LFE10955:
	.section	.gcc_except_table
.LLSDA10955:
	.byte	0xff
	.byte	0xff
	.byte	0x1
	.uleb128 .LLSDACSE10955-.LLSDACSB10955
.LLSDACSB10955:
.LLSDACSE10955:
	.section	.text._ZNSt12_Vector_baseIxSaIxEED2Ev,"axG",@progbits,_ZNSt12_Vector_baseIxSaIxEED5Ev,comdat
	.size	_ZNSt12_Vector_baseIxSaIxEED2Ev, .-_ZNSt12_Vector_baseIxSaIxEED2Ev
	.weak	_ZNSt12_Vector_baseIxSaIxEED1Ev
	.set	_ZNSt12_Vector_baseIxSaIxEED1Ev,_ZNSt12_Vector_baseIxSaIxEED2Ev
	.section	.text._ZNSt6vectorIxSaIxEE18_M_fill_initializeEmRKx,"axG",@progbits,_ZNSt6vectorIxSaIxEE18_M_fill_initializeEmRKx,comdat
	.align 2
	.weak	_ZNSt6vectorIxSaIxEE18_M_fill_initializeEmRKx
	.type	_ZNSt6vectorIxSaIxEE18_M_fill_initializeEmRKx, @function
_ZNSt6vectorIxSaIxEE18_M_fill_initializeEmRKx:
.LFB10957:
	.cfi_startproc
	endbr64	
	push	rbp	#
	.cfi_def_cfa_offset 16
	.cfi_offset 6, -16
	mov	rbp, rsp	#,
	.cfi_def_cfa_register 6
	sub	rsp, 32	#,
	mov	QWORD PTR -8[rbp], rdi	# this, this
	mov	QWORD PTR -16[rbp], rsi	# __n, __n
	mov	QWORD PTR -24[rbp], rdx	# __value, __value
# /usr/include/c++/13/bits/stl_vector.h:1708: 					_M_get_Tp_allocator());
	mov	rax, QWORD PTR -8[rbp]	# _1, this
	mov	rdi, rax	#, _1
	call	_ZNSt12_Vector_baseIxSaIxEE19_M_get_Tp_allocatorEv	#
	mov	rcx, rax	# _2,
# /usr/include/c++/13/bits/stl_vector.h:1707: 	  std::__uninitialized_fill_n_a(this->_M_impl._M_start, __n, __value,
	mov	rax, QWORD PTR -8[rbp]	# tmp86, this
	mov	rax, QWORD PTR [rax]	# _3, this_5(D)->D.209185._M_impl.D.208534._M_start
	mov	rdx, QWORD PTR -24[rbp]	# tmp87, __value
	mov	rsi, QWORD PTR -16[rbp]	# tmp88, __n
	mov	rdi, rax	#, _3
	call	_ZSt24__uninitialized_fill_n_aIPxmxxET_S1_T0_RKT1_RSaIT2_E	#
# /usr/include/c++/13/bits/stl_vector.h:1706: 	this->_M_impl._M_finish =
	mov	rdx, QWORD PTR -8[rbp]	# tmp89, this
	mov	QWORD PTR 8[rdx], rax	# this_5(D)->D.209185._M_impl.D.208534._M_finish, _4
# /usr/include/c++/13/bits/stl_vector.h:1709:       }
	nop	
	leave	
	.cfi_def_cfa 7, 8
	ret	
	.cfi_endproc
.LFE10957:
	.size	_ZNSt6vectorIxSaIxEE18_M_fill_initializeEmRKx, .-_ZNSt6vectorIxSaIxEE18_M_fill_initializeEmRKx
	.section	.text._ZNSt12_Vector_baseIxSaIxEE19_M_get_Tp_allocatorEv,"axG",@progbits,_ZNSt12_Vector_baseIxSaIxEE19_M_get_Tp_allocatorEv,comdat
	.align 2
	.weak	_ZNSt12_Vector_baseIxSaIxEE19_M_get_Tp_allocatorEv
	.type	_ZNSt12_Vector_baseIxSaIxEE19_M_get_Tp_allocatorEv, @function
_ZNSt12_Vector_baseIxSaIxEE19_M_get_Tp_allocatorEv:
.LFB10958:
	.cfi_startproc
	endbr64	
	push	rbp	#
	.cfi_def_cfa_offset 16
	.cfi_offset 6, -16
	mov	rbp, rsp	#,
	.cfi_def_cfa_register 6
	mov	QWORD PTR -8[rbp], rdi	# this, this
# /usr/include/c++/13/bits/stl_vector.h:302:       { return this->_M_impl; }
	mov	rax, QWORD PTR -8[rbp]	# _2, this
# /usr/include/c++/13/bits/stl_vector.h:302:       { return this->_M_impl; }
	pop	rbp	#
	.cfi_def_cfa 7, 8
	ret	
	.cfi_endproc
.LFE10958:
	.size	_ZNSt12_Vector_baseIxSaIxEE19_M_get_Tp_allocatorEv, .-_ZNSt12_Vector_baseIxSaIxEE19_M_get_Tp_allocatorEv
	.section	.text._ZSt4moveIRxEONSt16remove_referenceIT_E4typeEOS2_,"axG",@progbits,_ZSt4moveIRxEONSt16remove_referenceIT_E4typeEOS2_,comdat
	.weak	_ZSt4moveIRxEONSt16remove_referenceIT_E4typeEOS2_
	.type	_ZSt4moveIRxEONSt16remove_referenceIT_E4typeEOS2_, @function
_ZSt4moveIRxEONSt16remove_referenceIT_E4typeEOS2_:
.LFB10960:
	.cfi_startproc
	endbr64	
	push	rbp	#
	.cfi_def_cfa_offset 16
	.cfi_offset 6, -16
	mov	rbp, rsp	#,
	.cfi_def_cfa_register 6
	mov	QWORD PTR -8[rbp], rdi	# __t, __t
# /usr/include/c++/13/bits/move.h:98:     { return static_cast<typename std::remove_reference<_Tp>::type&&>(__t); }
	mov	rax, QWORD PTR -8[rbp]	# _2, __t
# /usr/include/c++/13/bits/move.h:98:     { return static_cast<typename std::remove_reference<_Tp>::type&&>(__t); }
	pop	rbp	#
	.cfi_def_cfa 7, 8
	ret	
	.cfi_endproc
.LFE10960:
	.size	_ZSt4moveIRxEONSt16remove_referenceIT_E4typeEOS2_, .-_ZSt4moveIRxEONSt16remove_referenceIT_E4typeEOS2_
	.section	.text._ZNSt6vectorIxSaIxEE11_S_max_sizeERKS0_,"axG",@progbits,_ZNSt6vectorIxSaIxEE11_S_max_sizeERKS0_,comdat
	.weak	_ZNSt6vectorIxSaIxEE11_S_max_sizeERKS0_
	.type	_ZNSt6vectorIxSaIxEE11_S_max_sizeERKS0_, @function
_ZNSt6vectorIxSaIxEE11_S_max_sizeERKS0_:
.LFB11190:
	.cfi_startproc
	endbr64	
	push	rbp	#
	.cfi_def_cfa_offset 16
	.cfi_offset 6, -16
	mov	rbp, rsp	#,
	.cfi_def_cfa_register 6
	sub	rsp, 64	#,
	mov	QWORD PTR -56[rbp], rdi	# __a, __a
# /usr/include/c++/13/bits/stl_vector.h:1916:       _S_max_size(const _Tp_alloc_type& __a) _GLIBCXX_NOEXCEPT
	mov	rax, QWORD PTR fs:40	# tmp92, MEM[(<address-space-1> long unsigned int *)40B]
	mov	QWORD PTR -8[rbp], rax	# D.226859, tmp92
	xor	eax, eax	# tmp92
# /usr/include/c++/13/bits/stl_vector.h:1921: 	const size_t __diffmax
	movabs	rax, 1152921504606846975	# tmp95,
	mov	QWORD PTR -48[rbp], rax	# __diffmax, tmp95
	mov	rax, QWORD PTR -56[rbp]	# tmp86, __a
	mov	QWORD PTR -32[rbp], rax	# __a, tmp86
	mov	rax, QWORD PTR -32[rbp]	# tmp87, __a
	mov	QWORD PTR -24[rbp], rax	# this, tmp87
	mov	rax, QWORD PTR -24[rbp]	# tmp88, this
	mov	QWORD PTR -16[rbp], rax	# this, tmp88
# /usr/include/c++/13/bits/new_allocator.h:233: 	return std::size_t(__PTRDIFF_MAX__) / sizeof(_Tp);
	movabs	rax, 1152921504606846975	# D.226817,
# /usr/include/c++/13/bits/new_allocator.h:183:       { return _M_max_size(); }
	nop	
# /usr/include/c++/13/bits/alloc_traits.h:574: 	return __a.max_size();
	nop	
# /usr/include/c++/13/bits/stl_vector.h:1923: 	const size_t __allocmax = _Alloc_traits::max_size(__a);
	mov	QWORD PTR -40[rbp], rax	# __allocmax, D.226817
# /usr/include/c++/13/bits/stl_vector.h:1924: 	return (std::min)(__diffmax, __allocmax);
	lea	rdx, -40[rbp]	# tmp89,
	lea	rax, -48[rbp]	# tmp90,
	mov	rsi, rdx	#, tmp89
	mov	rdi, rax	#, tmp90
	call	_ZSt3minImERKT_S2_S2_	#
# /usr/include/c++/13/bits/stl_vector.h:1924: 	return (std::min)(__diffmax, __allocmax);
	mov	rax, QWORD PTR [rax]	# _8, *_2
# /usr/include/c++/13/bits/stl_vector.h:1925:       }
	mov	rdx, QWORD PTR -8[rbp]	# tmp93, D.226859
	sub	rdx, QWORD PTR fs:40	# tmp93, MEM[(<address-space-1> long unsigned int *)40B]
	je	.L67	#,
	call	__stack_chk_fail@PLT	#
.L67:
	leave	
	.cfi_def_cfa 7, 8
	ret	
	.cfi_endproc
.LFE11190:
	.size	_ZNSt6vectorIxSaIxEE11_S_max_sizeERKS0_, .-_ZNSt6vectorIxSaIxEE11_S_max_sizeERKS0_
	.section	.text._ZNSt12_Vector_baseIxSaIxEE12_Vector_implC2ERKS0_,"axG",@progbits,_ZNSt12_Vector_baseIxSaIxEE12_Vector_implC5ERKS0_,comdat
	.align 2
	.weak	_ZNSt12_Vector_baseIxSaIxEE12_Vector_implC2ERKS0_
	.type	_ZNSt12_Vector_baseIxSaIxEE12_Vector_implC2ERKS0_, @function
_ZNSt12_Vector_baseIxSaIxEE12_Vector_implC2ERKS0_:
.LFB11195:
	.cfi_startproc
	endbr64	
	push	rbp	#
	.cfi_def_cfa_offset 16
	.cfi_offset 6, -16
	mov	rbp, rsp	#,
	.cfi_def_cfa_register 6
	sub	rsp, 48	#,
	mov	QWORD PTR -40[rbp], rdi	# this, this
	mov	QWORD PTR -48[rbp], rsi	# __a, __a
	mov	rax, QWORD PTR -40[rbp]	# tmp83, this
	mov	QWORD PTR -32[rbp], rax	# this, tmp83
	mov	rax, QWORD PTR -48[rbp]	# tmp84, __a
	mov	QWORD PTR -24[rbp], rax	# __a, tmp84
	mov	rax, QWORD PTR -32[rbp]	# tmp85, this
	mov	QWORD PTR -16[rbp], rax	# this, tmp85
	mov	rax, QWORD PTR -24[rbp]	# tmp86, __a
	mov	QWORD PTR -8[rbp], rax	# D.226786, tmp86
# /usr/include/c++/13/bits/new_allocator.h:92:       __new_allocator(const __new_allocator&) _GLIBCXX_USE_NOEXCEPT { }
	nop	
# /usr/include/c++/13/bits/allocator.h:168:       : __allocator_base<_Tp>(__a) { }
	nop	
# /usr/include/c++/13/bits/stl_vector.h:147: 	: _Tp_alloc_type(__a)
	mov	rax, QWORD PTR -40[rbp]	# _1, this
	mov	rdi, rax	#, _1
	call	_ZNSt12_Vector_baseIxSaIxEE17_Vector_impl_dataC2Ev	#
# /usr/include/c++/13/bits/stl_vector.h:148: 	{ }
	nop	
	leave	
	.cfi_def_cfa 7, 8
	ret	
	.cfi_endproc
.LFE11195:
	.size	_ZNSt12_Vector_baseIxSaIxEE12_Vector_implC2ERKS0_, .-_ZNSt12_Vector_baseIxSaIxEE12_Vector_implC2ERKS0_
	.weak	_ZNSt12_Vector_baseIxSaIxEE12_Vector_implC1ERKS0_
	.set	_ZNSt12_Vector_baseIxSaIxEE12_Vector_implC1ERKS0_,_ZNSt12_Vector_baseIxSaIxEE12_Vector_implC2ERKS0_
	.section	.text._ZNSt12_Vector_baseIxSaIxEE17_M_create_storageEm,"axG",@progbits,_ZNSt12_Vector_baseIxSaIxEE17_M_create_storageEm,comdat
	.align 2
	.weak	_ZNSt12_Vector_baseIxSaIxEE17_M_create_storageEm
	.type	_ZNSt12_Vector_baseIxSaIxEE17_M_create_storageEm, @function
_ZNSt12_Vector_baseIxSaIxEE17_M_create_storageEm:
.LFB11197:
	.cfi_startproc
	endbr64	
	push	rbp	#
	.cfi_def_cfa_offset 16
	.cfi_offset 6, -16
	mov	rbp, rsp	#,
	.cfi_def_cfa_register 6
	sub	rsp, 16	#,
	mov	QWORD PTR -8[rbp], rdi	# this, this
	mov	QWORD PTR -16[rbp], rsi	# __n, __n
# /usr/include/c++/13/bits/stl_vector.h:398: 	this->_M_impl._M_start = this->_M_allocate(__n);
	mov	rdx, QWORD PTR -16[rbp]	# tmp87, __n
	mov	rax, QWORD PTR -8[rbp]	# tmp88, this
	mov	rsi, rdx	#, tmp87
	mov	rdi, rax	#, tmp88
	call	_ZNSt12_Vector_baseIxSaIxEE11_M_allocateEm	#
# /usr/include/c++/13/bits/stl_vector.h:398: 	this->_M_impl._M_start = this->_M_allocate(__n);
	mov	rdx, QWORD PTR -8[rbp]	# tmp89, this
	mov	QWORD PTR [rdx], rax	# this_7(D)->_M_impl.D.208534._M_start, _1
# /usr/include/c++/13/bits/stl_vector.h:399: 	this->_M_impl._M_finish = this->_M_impl._M_start;
	mov	rax, QWORD PTR -8[rbp]	# tmp90, this
	mov	rdx, QWORD PTR [rax]	# _2, this_7(D)->_M_impl.D.208534._M_start
# /usr/include/c++/13/bits/stl_vector.h:399: 	this->_M_impl._M_finish = this->_M_impl._M_start;
	mov	rax, QWORD PTR -8[rbp]	# tmp91, this
	mov	QWORD PTR 8[rax], rdx	# this_7(D)->_M_impl.D.208534._M_finish, _2
# /usr/include/c++/13/bits/stl_vector.h:400: 	this->_M_impl._M_end_of_storage = this->_M_impl._M_start + __n;
	mov	rax, QWORD PTR -8[rbp]	# tmp92, this
	mov	rax, QWORD PTR [rax]	# _3, this_7(D)->_M_impl.D.208534._M_start
# /usr/include/c++/13/bits/stl_vector.h:400: 	this->_M_impl._M_end_of_storage = this->_M_impl._M_start + __n;
	mov	rdx, QWORD PTR -16[rbp]	# tmp93, __n
	sal	rdx, 3	# _4,
	add	rdx, rax	# _5, _3
# /usr/include/c++/13/bits/stl_vector.h:400: 	this->_M_impl._M_end_of_storage = this->_M_impl._M_start + __n;
	mov	rax, QWORD PTR -8[rbp]	# tmp94, this
	mov	QWORD PTR 16[rax], rdx	# this_7(D)->_M_impl.D.208534._M_end_of_storage, _5
# /usr/include/c++/13/bits/stl_vector.h:401:       }
	nop	
	leave	
	.cfi_def_cfa 7, 8
	ret	
	.cfi_endproc
.LFE11197:
	.size	_ZNSt12_Vector_baseIxSaIxEE17_M_create_storageEm, .-_ZNSt12_Vector_baseIxSaIxEE17_M_create_storageEm
	.section	.text._ZNSt12_Vector_baseIxSaIxEE13_M_deallocateEPxm,"axG",@progbits,_ZNSt12_Vector_baseIxSaIxEE13_M_deallocateEPxm,comdat
	.align 2
	.weak	_ZNSt12_Vector_baseIxSaIxEE13_M_deallocateEPxm
	.type	_ZNSt12_Vector_baseIxSaIxEE13_M_deallocateEPxm, @function
_ZNSt12_Vector_baseIxSaIxEE13_M_deallocateEPxm:
.LFB11198:
	.cfi_startproc
	endbr64	
	push	rbp	#
	.cfi_def_cfa_offset 16
	.cfi_offset 6, -16
	mov	rbp, rsp	#,
	.cfi_def_cfa_register 6
	sub	rsp, 64	#,
	mov	QWORD PTR -40[rbp], rdi	# this, this
	mov	QWORD PTR -48[rbp], rsi	# __p, __p
	mov	QWORD PTR -56[rbp], rdx	# __n, __n
# /usr/include/c++/13/bits/stl_vector.h:389: 	if (__p)
	cmp	QWORD PTR -48[rbp], 0	# __p,
	je	.L72	#,
# /usr/include/c++/13/bits/stl_vector.h:390: 	  _Tr::deallocate(_M_impl, __p, __n);
	mov	rax, QWORD PTR -40[rbp]	# _1, this
	mov	QWORD PTR -24[rbp], rax	# __a, _1
	mov	rax, QWORD PTR -48[rbp]	# tmp83, __p
	mov	QWORD PTR -16[rbp], rax	# __p, tmp83
	mov	rax, QWORD PTR -56[rbp]	# tmp84, __n
	mov	QWORD PTR -8[rbp], rax	# __n, tmp84
# /usr/include/c++/13/bits/alloc_traits.h:517:       { __a.deallocate(__p, __n); }
	mov	rdx, QWORD PTR -8[rbp]	# tmp85, __n
	mov	rcx, QWORD PTR -16[rbp]	# tmp86, __p
	mov	rax, QWORD PTR -24[rbp]	# tmp87, __a
	mov	rsi, rcx	#, tmp86
	mov	rdi, rax	#, tmp87
	call	_ZNSt15__new_allocatorIxE10deallocateEPxm	#
# /usr/include/c++/13/bits/alloc_traits.h:517:       { __a.deallocate(__p, __n); }
	nop	
.L72:
# /usr/include/c++/13/bits/stl_vector.h:391:       }
	nop	
	leave	
	.cfi_def_cfa 7, 8
	ret	
	.cfi_endproc
.LFE11198:
	.size	_ZNSt12_Vector_baseIxSaIxEE13_M_deallocateEPxm, .-_ZNSt12_Vector_baseIxSaIxEE13_M_deallocateEPxm
	.section	.text._ZSt24__uninitialized_fill_n_aIPxmxxET_S1_T0_RKT1_RSaIT2_E,"axG",@progbits,_ZSt24__uninitialized_fill_n_aIPxmxxET_S1_T0_RKT1_RSaIT2_E,comdat
	.weak	_ZSt24__uninitialized_fill_n_aIPxmxxET_S1_T0_RKT1_RSaIT2_E
	.type	_ZSt24__uninitialized_fill_n_aIPxmxxET_S1_T0_RKT1_RSaIT2_E, @function
_ZSt24__uninitialized_fill_n_aIPxmxxET_S1_T0_RKT1_RSaIT2_E:
.LFB11199:
	.cfi_startproc
	endbr64	
	push	rbp	#
	.cfi_def_cfa_offset 16
	.cfi_offset 6, -16
	mov	rbp, rsp	#,
	.cfi_def_cfa_register 6
	sub	rsp, 32	#,
	mov	QWORD PTR -8[rbp], rdi	# __first, __first
	mov	QWORD PTR -16[rbp], rsi	# __n, __n
	mov	QWORD PTR -24[rbp], rdx	# __x, __x
	mov	QWORD PTR -32[rbp], rcx	# D.222548, D.222548
# /usr/include/c++/13/bits/stl_uninitialized.h:472:       return std::uninitialized_fill_n(__first, __n, __x);
	mov	rdx, QWORD PTR -24[rbp]	# tmp84, __x
	mov	rcx, QWORD PTR -16[rbp]	# tmp85, __n
	mov	rax, QWORD PTR -8[rbp]	# tmp86, __first
	mov	rsi, rcx	#, tmp85
	mov	rdi, rax	#, tmp86
	call	_ZSt20uninitialized_fill_nIPxmxET_S1_T0_RKT1_	#
# /usr/include/c++/13/bits/stl_uninitialized.h:473:     }
	leave	
	.cfi_def_cfa 7, 8
	ret	
	.cfi_endproc
.LFE11199:
	.size	_ZSt24__uninitialized_fill_n_aIPxmxxET_S1_T0_RKT1_RSaIT2_E, .-_ZSt24__uninitialized_fill_n_aIPxmxxET_S1_T0_RKT1_RSaIT2_E
	.section	.text._ZSt8_DestroyIPxEvT_S1_,"axG",@progbits,_ZSt8_DestroyIPxEvT_S1_,comdat
	.weak	_ZSt8_DestroyIPxEvT_S1_
	.type	_ZSt8_DestroyIPxEvT_S1_, @function
_ZSt8_DestroyIPxEvT_S1_:
.LFB11200:
	.cfi_startproc
	endbr64	
	push	rbp	#
	.cfi_def_cfa_offset 16
	.cfi_offset 6, -16
	mov	rbp, rsp	#,
	.cfi_def_cfa_register 6
	sub	rsp, 16	#,
	mov	QWORD PTR -8[rbp], rdi	# __first, __first
	mov	QWORD PTR -16[rbp], rsi	# __last, __last
# /usr/include/c++/13/bits/stl_construct.h:196: 	__destroy(__first, __last);
	mov	rdx, QWORD PTR -16[rbp]	# tmp82, __last
	mov	rax, QWORD PTR -8[rbp]	# tmp83, __first
	mov	rsi, rdx	#, tmp82
	mov	rdi, rax	#, tmp83
	call	_ZNSt12_Destroy_auxILb1EE9__destroyIPxEEvT_S3_	#
# /usr/include/c++/13/bits/stl_construct.h:197:     }
	nop	
	leave	
	.cfi_def_cfa 7, 8
	ret	
	.cfi_endproc
.LFE11200:
	.size	_ZSt8_DestroyIPxEvT_S1_, .-_ZSt8_DestroyIPxEvT_S1_
	.section	.text._ZNSt12_Vector_baseIxSaIxEE17_Vector_impl_dataC2Ev,"axG",@progbits,_ZNSt12_Vector_baseIxSaIxEE17_Vector_impl_dataC5Ev,comdat
	.align 2
	.weak	_ZNSt12_Vector_baseIxSaIxEE17_Vector_impl_dataC2Ev
	.type	_ZNSt12_Vector_baseIxSaIxEE17_Vector_impl_dataC2Ev, @function
_ZNSt12_Vector_baseIxSaIxEE17_Vector_impl_dataC2Ev:
.LFB11368:
	.cfi_startproc
	endbr64	
	push	rbp	#
	.cfi_def_cfa_offset 16
	.cfi_offset 6, -16
	mov	rbp, rsp	#,
	.cfi_def_cfa_register 6
	mov	QWORD PTR -8[rbp], rdi	# this, this
# /usr/include/c++/13/bits/stl_vector.h:100: 	: _M_start(), _M_finish(), _M_end_of_storage()
	mov	rax, QWORD PTR -8[rbp]	# tmp82, this
	mov	QWORD PTR [rax], 0	# this_2(D)->_M_start,
# /usr/include/c++/13/bits/stl_vector.h:100: 	: _M_start(), _M_finish(), _M_end_of_storage()
	mov	rax, QWORD PTR -8[rbp]	# tmp83, this
	mov	QWORD PTR 8[rax], 0	# this_2(D)->_M_finish,
# /usr/include/c++/13/bits/stl_vector.h:100: 	: _M_start(), _M_finish(), _M_end_of_storage()
	mov	rax, QWORD PTR -8[rbp]	# tmp84, this
	mov	QWORD PTR 16[rax], 0	# this_2(D)->_M_end_of_storage,
# /usr/include/c++/13/bits/stl_vector.h:101: 	{ }
	nop	
	pop	rbp	#
	.cfi_def_cfa 7, 8
	ret	
	.cfi_endproc
.LFE11368:
	.size	_ZNSt12_Vector_baseIxSaIxEE17_Vector_impl_dataC2Ev, .-_ZNSt12_Vector_baseIxSaIxEE17_Vector_impl_dataC2Ev
	.weak	_ZNSt12_Vector_baseIxSaIxEE17_Vector_impl_dataC1Ev
	.set	_ZNSt12_Vector_baseIxSaIxEE17_Vector_impl_dataC1Ev,_ZNSt12_Vector_baseIxSaIxEE17_Vector_impl_dataC2Ev
	.section	.text._ZNSt12_Vector_baseIxSaIxEE11_M_allocateEm,"axG",@progbits,_ZNSt12_Vector_baseIxSaIxEE11_M_allocateEm,comdat
	.align 2
	.weak	_ZNSt12_Vector_baseIxSaIxEE11_M_allocateEm
	.type	_ZNSt12_Vector_baseIxSaIxEE11_M_allocateEm, @function
_ZNSt12_Vector_baseIxSaIxEE11_M_allocateEm:
.LFB11370:
	.cfi_startproc
	endbr64	
	push	rbp	#
	.cfi_def_cfa_offset 16
	.cfi_offset 6, -16
	mov	rbp, rsp	#,
	.cfi_def_cfa_register 6
	sub	rsp, 32	#,
	mov	QWORD PTR -24[rbp], rdi	# this, this
	mov	QWORD PTR -32[rbp], rsi	# __n, __n
# /usr/include/c++/13/bits/stl_vector.h:381: 	return __n != 0 ? _Tr::allocate(_M_impl, __n) : pointer();
	cmp	QWORD PTR -32[rbp], 0	# __n,
	je	.L78	#,
# /usr/include/c++/13/bits/stl_vector.h:381: 	return __n != 0 ? _Tr::allocate(_M_impl, __n) : pointer();
	mov	rax, QWORD PTR -24[rbp]	# _1, this
	mov	QWORD PTR -16[rbp], rax	# __a, _1
	mov	rax, QWORD PTR -32[rbp]	# tmp85, __n
	mov	QWORD PTR -8[rbp], rax	# __n, tmp85
# /usr/include/c++/13/bits/alloc_traits.h:482:       { return __a.allocate(__n); }
	mov	rcx, QWORD PTR -8[rbp]	# tmp86, __n
	mov	rax, QWORD PTR -16[rbp]	# tmp87, __a
	mov	edx, 0	#,
	mov	rsi, rcx	#, tmp86
	mov	rdi, rax	#, tmp87
	call	_ZNSt15__new_allocatorIxE8allocateEmPKv	#
# /usr/include/c++/13/bits/alloc_traits.h:482:       { return __a.allocate(__n); }
	nop	
	jmp	.L80	#
.L78:
# /usr/include/c++/13/bits/stl_vector.h:381: 	return __n != 0 ? _Tr::allocate(_M_impl, __n) : pointer();
	mov	eax, 0	# D.226796,
.L80:
# /usr/include/c++/13/bits/stl_vector.h:382:       }
	leave	
	.cfi_def_cfa 7, 8
	ret	
	.cfi_endproc
.LFE11370:
	.size	_ZNSt12_Vector_baseIxSaIxEE11_M_allocateEm, .-_ZNSt12_Vector_baseIxSaIxEE11_M_allocateEm
	.section	.text._ZSt20uninitialized_fill_nIPxmxET_S1_T0_RKT1_,"axG",@progbits,_ZSt20uninitialized_fill_nIPxmxET_S1_T0_RKT1_,comdat
	.weak	_ZSt20uninitialized_fill_nIPxmxET_S1_T0_RKT1_
	.type	_ZSt20uninitialized_fill_nIPxmxET_S1_T0_RKT1_, @function
_ZSt20uninitialized_fill_nIPxmxET_S1_T0_RKT1_:
.LFB11372:
	.cfi_startproc
	endbr64	
	push	rbp	#
	.cfi_def_cfa_offset 16
	.cfi_offset 6, -16
	mov	rbp, rsp	#,
	.cfi_def_cfa_register 6
	sub	rsp, 48	#,
	mov	QWORD PTR -24[rbp], rdi	# __first, __first
	mov	QWORD PTR -32[rbp], rsi	# __n, __n
	mov	QWORD PTR -40[rbp], rdx	# __x, __x
# /usr/include/c++/13/bits/stl_uninitialized.h:319:       const bool __can_fill
	mov	BYTE PTR -1[rbp], 1	# __can_fill,
# /usr/include/c++/13/bits/stl_uninitialized.h:327: 	__uninit_fill_n(__first, __n, __x);
	mov	rdx, QWORD PTR -40[rbp]	# tmp84, __x
	mov	rcx, QWORD PTR -32[rbp]	# tmp85, __n
	mov	rax, QWORD PTR -24[rbp]	# tmp86, __first
	mov	rsi, rcx	#, tmp85
	mov	rdi, rax	#, tmp86
	call	_ZNSt22__uninitialized_fill_nILb1EE15__uninit_fill_nIPxmxEET_S3_T0_RKT1_	#
# /usr/include/c++/13/bits/stl_uninitialized.h:328:     }
	leave	
	.cfi_def_cfa 7, 8
	ret	
	.cfi_endproc
.LFE11372:
	.size	_ZSt20uninitialized_fill_nIPxmxET_S1_T0_RKT1_, .-_ZSt20uninitialized_fill_nIPxmxET_S1_T0_RKT1_
	.section	.text._ZNSt12_Destroy_auxILb1EE9__destroyIPxEEvT_S3_,"axG",@progbits,_ZNSt12_Destroy_auxILb1EE9__destroyIPxEEvT_S3_,comdat
	.weak	_ZNSt12_Destroy_auxILb1EE9__destroyIPxEEvT_S3_
	.type	_ZNSt12_Destroy_auxILb1EE9__destroyIPxEEvT_S3_, @function
_ZNSt12_Destroy_auxILb1EE9__destroyIPxEEvT_S3_:
.LFB11374:
	.cfi_startproc
	endbr64	
	push	rbp	#
	.cfi_def_cfa_offset 16
	.cfi_offset 6, -16
	mov	rbp, rsp	#,
	.cfi_def_cfa_register 6
	mov	QWORD PTR -8[rbp], rdi	# D.224925, D.224925
	mov	QWORD PTR -16[rbp], rsi	# D.224926, D.224926
# /usr/include/c++/13/bits/stl_construct.h:172:         __destroy(_ForwardIterator, _ForwardIterator) { }
	nop	
	pop	rbp	#
	.cfi_def_cfa 7, 8
	ret	
	.cfi_endproc
.LFE11374:
	.size	_ZNSt12_Destroy_auxILb1EE9__destroyIPxEEvT_S3_, .-_ZNSt12_Destroy_auxILb1EE9__destroyIPxEEvT_S3_
	.section	.text._ZNSt15__new_allocatorIxE10deallocateEPxm,"axG",@progbits,_ZNSt15__new_allocatorIxE10deallocateEPxm,comdat
	.align 2
	.weak	_ZNSt15__new_allocatorIxE10deallocateEPxm
	.type	_ZNSt15__new_allocatorIxE10deallocateEPxm, @function
_ZNSt15__new_allocatorIxE10deallocateEPxm:
.LFB11489:
	.cfi_startproc
	endbr64	
	push	rbp	#
	.cfi_def_cfa_offset 16
	.cfi_offset 6, -16
	mov	rbp, rsp	#,
	.cfi_def_cfa_register 6
	sub	rsp, 32	#,
	mov	QWORD PTR -8[rbp], rdi	# this, this
	mov	QWORD PTR -16[rbp], rsi	# __p, __p
	mov	QWORD PTR -24[rbp], rdx	# __n, __n
# /usr/include/c++/13/bits/new_allocator.h:172: 	_GLIBCXX_OPERATOR_DELETE(_GLIBCXX_SIZED_DEALLOC(__p, __n));
	mov	rax, QWORD PTR -24[rbp]	# tmp83, __n
	lea	rdx, 0[0+rax*8]	# _2,
	mov	rax, QWORD PTR -16[rbp]	# tmp84, __p
	mov	rsi, rdx	#, _2
	mov	rdi, rax	#, tmp84
	call	_ZdlPvm@PLT	#
# /usr/include/c++/13/bits/new_allocator.h:173:       }
	leave	
	.cfi_def_cfa 7, 8
	ret	
	.cfi_endproc
.LFE11489:
	.size	_ZNSt15__new_allocatorIxE10deallocateEPxm, .-_ZNSt15__new_allocatorIxE10deallocateEPxm
	.section	.text._ZNSt22__uninitialized_fill_nILb1EE15__uninit_fill_nIPxmxEET_S3_T0_RKT1_,"axG",@progbits,_ZNSt22__uninitialized_fill_nILb1EE15__uninit_fill_nIPxmxEET_S3_T0_RKT1_,comdat
	.weak	_ZNSt22__uninitialized_fill_nILb1EE15__uninit_fill_nIPxmxEET_S3_T0_RKT1_
	.type	_ZNSt22__uninitialized_fill_nILb1EE15__uninit_fill_nIPxmxEET_S3_T0_RKT1_, @function
_ZNSt22__uninitialized_fill_nILb1EE15__uninit_fill_nIPxmxEET_S3_T0_RKT1_:
.LFB11490:
	.cfi_startproc
	endbr64	
	push	rbp	#
	.cfi_def_cfa_offset 16
	.cfi_offset 6, -16
	mov	rbp, rsp	#,
	.cfi_def_cfa_register 6
	sub	rsp, 32	#,
	mov	QWORD PTR -8[rbp], rdi	# __first, __first
	mov	QWORD PTR -16[rbp], rsi	# __n, __n
	mov	QWORD PTR -24[rbp], rdx	# __x, __x
# /usr/include/c++/13/bits/stl_uninitialized.h:294:         { return std::fill_n(__first, __n, __x); }
	mov	rdx, QWORD PTR -24[rbp]	# tmp84, __x
	mov	rcx, QWORD PTR -16[rbp]	# tmp85, __n
	mov	rax, QWORD PTR -8[rbp]	# tmp86, __first
	mov	rsi, rcx	#, tmp85
	mov	rdi, rax	#, tmp86
	call	_ZSt6fill_nIPxmxET_S1_T0_RKT1_	#
# /usr/include/c++/13/bits/stl_uninitialized.h:294:         { return std::fill_n(__first, __n, __x); }
	leave	
	.cfi_def_cfa 7, 8
	ret	
	.cfi_endproc
.LFE11490:
	.size	_ZNSt22__uninitialized_fill_nILb1EE15__uninit_fill_nIPxmxEET_S3_T0_RKT1_, .-_ZNSt22__uninitialized_fill_nILb1EE15__uninit_fill_nIPxmxEET_S3_T0_RKT1_
	.section	.text._ZNSt15__new_allocatorIxE8allocateEmPKv,"axG",@progbits,_ZNSt15__new_allocatorIxE8allocateEmPKv,comdat
	.align 2
	.weak	_ZNSt15__new_allocatorIxE8allocateEmPKv
	.type	_ZNSt15__new_allocatorIxE8allocateEmPKv, @function
_ZNSt15__new_allocatorIxE8allocateEmPKv:
.LFB11583:
	.cfi_startproc
	endbr64	
	push	rbp	#
	.cfi_def_cfa_offset 16
	.cfi_offset 6, -16
	mov	rbp, rsp	#,
	.cfi_def_cfa_register 6
	sub	rsp, 48	#,
	mov	QWORD PTR -24[rbp], rdi	# this, this
	mov	QWORD PTR -32[rbp], rsi	# __n, __n
	mov	QWORD PTR -40[rbp], rdx	# D.225949, D.225949
	mov	rax, QWORD PTR -24[rbp]	# tmp90, this
	mov	QWORD PTR -8[rbp], rax	# this, tmp90
# /usr/include/c++/13/bits/new_allocator.h:233: 	return std::size_t(__PTRDIFF_MAX__) / sizeof(_Tp);
	movabs	rax, 1152921504606846975	# D.226830,
# /usr/include/c++/13/bits/new_allocator.h:134: 	if (__builtin_expect(__n > this->_M_max_size(), false))
	cmp	rax, QWORD PTR -32[rbp]	# D.226830, __n
	setb	al	#, _2
# /usr/include/c++/13/bits/new_allocator.h:134: 	if (__builtin_expect(__n > this->_M_max_size(), false))
	movzx	eax, al	# _3, _2
# /usr/include/c++/13/bits/new_allocator.h:134: 	if (__builtin_expect(__n > this->_M_max_size(), false))
	test	rax, rax	# _4
	setne	al	#, retval.37_9
# /usr/include/c++/13/bits/new_allocator.h:134: 	if (__builtin_expect(__n > this->_M_max_size(), false))
	test	al, al	# retval.37_9
	je	.L91	#,
# /usr/include/c++/13/bits/new_allocator.h:138: 	    if (__n > (std::size_t(-1) / sizeof(_Tp)))
	movabs	rax, 2305843009213693951	# tmp91,
	cmp	rax, QWORD PTR -32[rbp]	# tmp91, __n
	jnb	.L92	#,
# /usr/include/c++/13/bits/new_allocator.h:139: 	      std::__throw_bad_array_new_length();
	call	_ZSt28__throw_bad_array_new_lengthv@PLT	#
.L92:
# /usr/include/c++/13/bits/new_allocator.h:140: 	    std::__throw_bad_alloc();
	call	_ZSt17__throw_bad_allocv@PLT	#
.L91:
# /usr/include/c++/13/bits/new_allocator.h:151: 	return static_cast<_Tp*>(_GLIBCXX_OPERATOR_NEW(__n * sizeof(_Tp)));
	mov	rax, QWORD PTR -32[rbp]	# tmp92, __n
	sal	rax, 3	# _6,
	mov	rdi, rax	#, _6
	call	_Znwm@PLT	#
# /usr/include/c++/13/bits/new_allocator.h:151: 	return static_cast<_Tp*>(_GLIBCXX_OPERATOR_NEW(__n * sizeof(_Tp)));
	nop	
# /usr/include/c++/13/bits/new_allocator.h:152:       }
	leave	
	.cfi_def_cfa 7, 8
	ret	
	.cfi_endproc
.LFE11583:
	.size	_ZNSt15__new_allocatorIxE8allocateEmPKv, .-_ZNSt15__new_allocatorIxE8allocateEmPKv
	.section	.text._ZSt6fill_nIPxmxET_S1_T0_RKT1_,"axG",@progbits,_ZSt6fill_nIPxmxET_S1_T0_RKT1_,comdat
	.weak	_ZSt6fill_nIPxmxET_S1_T0_RKT1_
	.type	_ZSt6fill_nIPxmxET_S1_T0_RKT1_, @function
_ZSt6fill_nIPxmxET_S1_T0_RKT1_:
.LFB11584:
	.cfi_startproc
	endbr64	
	push	rbp	#
	.cfi_def_cfa_offset 16
	.cfi_offset 6, -16
	mov	rbp, rsp	#,
	.cfi_def_cfa_register 6
	sub	rsp, 32	#,
	mov	QWORD PTR -8[rbp], rdi	# __first, __first
	mov	QWORD PTR -16[rbp], rsi	# __n, __n
	mov	QWORD PTR -24[rbp], rdx	# __value, __value
# /usr/include/c++/13/bits/stl_iterator_base_types.h:240:     { return typename iterator_traits<_Iter>::iterator_category(); }
	nop	
# /usr/include/c++/13/bits/stl_algobase.h:1157:       return std::__fill_n_a(__first, std::__size_to_integer(__n), __value,
	mov	rax, QWORD PTR -16[rbp]	# tmp89, __n
	mov	rdi, rax	#, tmp89
	call	_ZSt17__size_to_integerm	#
	mov	rcx, rax	# _1,
# /usr/include/c++/13/bits/stl_algobase.h:1157:       return std::__fill_n_a(__first, std::__size_to_integer(__n), __value,
	mov	rax, QWORD PTR -8[rbp]	# __first.38_2, __first
	mov	rdx, QWORD PTR -24[rbp]	# tmp90, __value
	mov	rsi, rcx	#, _1
	mov	rdi, rax	#, __first.38_2
	call	_ZSt10__fill_n_aIPxmxET_S1_T0_RKT1_St26random_access_iterator_tag	#
# /usr/include/c++/13/bits/stl_algobase.h:1159:     }
	leave	
	.cfi_def_cfa 7, 8
	ret	
	.cfi_endproc
.LFE11584:
	.size	_ZSt6fill_nIPxmxET_S1_T0_RKT1_, .-_ZSt6fill_nIPxmxET_S1_T0_RKT1_
	.section	.text._ZSt10__fill_n_aIPxmxET_S1_T0_RKT1_St26random_access_iterator_tag,"axG",@progbits,_ZSt10__fill_n_aIPxmxET_S1_T0_RKT1_St26random_access_iterator_tag,comdat
	.weak	_ZSt10__fill_n_aIPxmxET_S1_T0_RKT1_St26random_access_iterator_tag
	.type	_ZSt10__fill_n_aIPxmxET_S1_T0_RKT1_St26random_access_iterator_tag, @function
_ZSt10__fill_n_aIPxmxET_S1_T0_RKT1_St26random_access_iterator_tag:
.LFB11626:
	.cfi_startproc
	endbr64	
	push	rbp	#
	.cfi_def_cfa_offset 16
	.cfi_offset 6, -16
	mov	rbp, rsp	#,
	.cfi_def_cfa_register 6
	sub	rsp, 32	#,
	mov	QWORD PTR -8[rbp], rdi	# __first, __first
	mov	QWORD PTR -16[rbp], rsi	# __n, __n
	mov	QWORD PTR -24[rbp], rdx	# __value, __value
# /usr/include/c++/13/bits/stl_algobase.h:1123:       if (__n <= 0)
	cmp	QWORD PTR -16[rbp], 0	# __n,
	jne	.L98	#,
# /usr/include/c++/13/bits/stl_algobase.h:1124: 	return __first;
	mov	rax, QWORD PTR -8[rbp]	# _4, __first
	jmp	.L99	#
.L98:
# /usr/include/c++/13/bits/stl_algobase.h:1128:       std::__fill_a(__first, __first + __n, __value);
	mov	rax, QWORD PTR -16[rbp]	# tmp87, __n
	lea	rdx, 0[0+rax*8]	# _1,
# /usr/include/c++/13/bits/stl_algobase.h:1128:       std::__fill_a(__first, __first + __n, __value);
	mov	rax, QWORD PTR -8[rbp]	# tmp88, __first
	lea	rcx, [rdx+rax]	# _2,
	mov	rdx, QWORD PTR -24[rbp]	# tmp89, __value
	mov	rax, QWORD PTR -8[rbp]	# tmp90, __first
	mov	rsi, rcx	#, _2
	mov	rdi, rax	#, tmp90
	call	_ZSt8__fill_aIPxxEvT_S1_RKT0_	#
# /usr/include/c++/13/bits/stl_algobase.h:1129:       return __first + __n;
	mov	rax, QWORD PTR -16[rbp]	# tmp91, __n
	lea	rdx, 0[0+rax*8]	# _3,
# /usr/include/c++/13/bits/stl_algobase.h:1129:       return __first + __n;
	mov	rax, QWORD PTR -8[rbp]	# tmp92, __first
	add	rax, rdx	# _4, _3
.L99:
# /usr/include/c++/13/bits/stl_algobase.h:1130:     }
	leave	
	.cfi_def_cfa 7, 8
	ret	
	.cfi_endproc
.LFE11626:
	.size	_ZSt10__fill_n_aIPxmxET_S1_T0_RKT1_St26random_access_iterator_tag, .-_ZSt10__fill_n_aIPxmxET_S1_T0_RKT1_St26random_access_iterator_tag
	.section	.text._ZSt8__fill_aIPxxEvT_S1_RKT0_,"axG",@progbits,_ZSt8__fill_aIPxxEvT_S1_RKT0_,comdat
	.weak	_ZSt8__fill_aIPxxEvT_S1_RKT0_
	.type	_ZSt8__fill_aIPxxEvT_S1_RKT0_, @function
_ZSt8__fill_aIPxxEvT_S1_RKT0_:
.LFB11635:
	.cfi_startproc
	endbr64	
	push	rbp	#
	.cfi_def_cfa_offset 16
	.cfi_offset 6, -16
	mov	rbp, rsp	#,
	.cfi_def_cfa_register 6
	sub	rsp, 32	#,
	mov	QWORD PTR -8[rbp], rdi	# __first, __first
	mov	QWORD PTR -16[rbp], rsi	# __last, __last
	mov	QWORD PTR -24[rbp], rdx	# __value, __value
# /usr/include/c++/13/bits/stl_algobase.h:977:     { std::__fill_a1(__first, __last, __value); }
	mov	rdx, QWORD PTR -24[rbp]	# tmp82, __value
	mov	rcx, QWORD PTR -16[rbp]	# tmp83, __last
	mov	rax, QWORD PTR -8[rbp]	# tmp84, __first
	mov	rsi, rcx	#, tmp83
	mov	rdi, rax	#, tmp84
	call	_ZSt9__fill_a1IPxxEN9__gnu_cxx11__enable_ifIXsrSt11__is_scalarIT0_E7__valueEvE6__typeET_S8_RKS4_	#
# /usr/include/c++/13/bits/stl_algobase.h:977:     { std::__fill_a1(__first, __last, __value); }
	nop	
	leave	
	.cfi_def_cfa 7, 8
	ret	
	.cfi_endproc
.LFE11635:
	.size	_ZSt8__fill_aIPxxEvT_S1_RKT0_, .-_ZSt8__fill_aIPxxEvT_S1_RKT0_
	.section	.text._ZSt9__fill_a1IPxxEN9__gnu_cxx11__enable_ifIXsrSt11__is_scalarIT0_E7__valueEvE6__typeET_S8_RKS4_,"axG",@progbits,_ZSt9__fill_a1IPxxEN9__gnu_cxx11__enable_ifIXsrSt11__is_scalarIT0_E7__valueEvE6__typeET_S8_RKS4_,comdat
	.weak	_ZSt9__fill_a1IPxxEN9__gnu_cxx11__enable_ifIXsrSt11__is_scalarIT0_E7__valueEvE6__typeET_S8_RKS4_
	.type	_ZSt9__fill_a1IPxxEN9__gnu_cxx11__enable_ifIXsrSt11__is_scalarIT0_E7__valueEvE6__typeET_S8_RKS4_, @function
_ZSt9__fill_a1IPxxEN9__gnu_cxx11__enable_ifIXsrSt11__is_scalarIT0_E7__valueEvE6__typeET_S8_RKS4_:
.LFB11639:
	.cfi_startproc
	endbr64	
	push	rbp	#
	.cfi_def_cfa_offset 16
	.cfi_offset 6, -16
	mov	rbp, rsp	#,
	.cfi_def_cfa_register 6
	mov	QWORD PTR -24[rbp], rdi	# __first, __first
	mov	QWORD PTR -32[rbp], rsi	# __last, __last
	mov	QWORD PTR -40[rbp], rdx	# __value, __value
# /usr/include/c++/13/bits/stl_algobase.h:929:       const _Tp __tmp = __value;
	mov	rax, QWORD PTR -40[rbp]	# tmp82, __value
	mov	rax, QWORD PTR [rax]	# tmp83, *__value_4(D)
	mov	QWORD PTR -8[rbp], rax	# __tmp, tmp83
# /usr/include/c++/13/bits/stl_algobase.h:930:       for (; __first != __last; ++__first)
	jmp	.L102	#
.L103:
# /usr/include/c++/13/bits/stl_algobase.h:931: 	*__first = __tmp;
	mov	rax, QWORD PTR -24[rbp]	# tmp84, __first
	mov	rdx, QWORD PTR -8[rbp]	# tmp85, __tmp
	mov	QWORD PTR [rax], rdx	# *__first_1, tmp85
# /usr/include/c++/13/bits/stl_algobase.h:930:       for (; __first != __last; ++__first)
	add	QWORD PTR -24[rbp], 8	# __first,
.L102:
# /usr/include/c++/13/bits/stl_algobase.h:930:       for (; __first != __last; ++__first)
	mov	rax, QWORD PTR -24[rbp]	# tmp86, __first
	cmp	rax, QWORD PTR -32[rbp]	# tmp86, __last
	jne	.L103	#,
# /usr/include/c++/13/bits/stl_algobase.h:932:     }
	nop	
	nop	
	pop	rbp	#
	.cfi_def_cfa 7, 8
	ret	
	.cfi_endproc
.LFE11639:
	.size	_ZSt9__fill_a1IPxxEN9__gnu_cxx11__enable_ifIXsrSt11__is_scalarIT0_E7__valueEvE6__typeET_S8_RKS4_, .-_ZSt9__fill_a1IPxxEN9__gnu_cxx11__enable_ifIXsrSt11__is_scalarIT0_E7__valueEvE6__typeET_S8_RKS4_
	.section	.rodata
	.type	_ZNSt8__detail30__integer_to_chars_is_unsignedIjEE, @object
	.size	_ZNSt8__detail30__integer_to_chars_is_unsignedIjEE, 1
_ZNSt8__detail30__integer_to_chars_is_unsignedIjEE:
	.byte	1
	.type	_ZNSt8__detail30__integer_to_chars_is_unsignedImEE, @object
	.size	_ZNSt8__detail30__integer_to_chars_is_unsignedImEE, 1
_ZNSt8__detail30__integer_to_chars_is_unsignedImEE:
	.byte	1
	.type	_ZNSt8__detail30__integer_to_chars_is_unsignedIyEE, @object
	.size	_ZNSt8__detail30__integer_to_chars_is_unsignedIyEE, 1
_ZNSt8__detail30__integer_to_chars_is_unsignedIyEE:
	.byte	1
	.type	_ZSt12__is_ratio_vISt5ratioILl1ELl1000000000EEE, @object
	.size	_ZSt12__is_ratio_vISt5ratioILl1ELl1000000000EEE, 1
_ZSt12__is_ratio_vISt5ratioILl1ELl1000000000EEE:
	.byte	1
	.type	_ZSt12__is_ratio_vISt5ratioILl1ELl1EEE, @object
	.size	_ZSt12__is_ratio_vISt5ratioILl1ELl1EEE, 1
_ZSt12__is_ratio_vISt5ratioILl1ELl1EEE:
	.byte	1
	.type	_ZSt12__is_ratio_vISt5ratioILl1000000000ELl1EEE, @object
	.size	_ZSt12__is_ratio_vISt5ratioILl1000000000ELl1EEE, 1
_ZSt12__is_ratio_vISt5ratioILl1000000000ELl1EEE:
	.byte	1
	.type	_ZNSt8__detail30__integer_to_chars_is_unsignedIoEE, @object
	.size	_ZNSt8__detail30__integer_to_chars_is_unsignedIoEE, 1
_ZNSt8__detail30__integer_to_chars_is_unsignedIoEE:
	.byte	1
	.hidden	DW.ref.__gxx_personality_v0
	.weak	DW.ref.__gxx_personality_v0
	.section	.data.rel.local.DW.ref.__gxx_personality_v0,"awG",@progbits,DW.ref.__gxx_personality_v0,comdat
	.align 8
	.type	DW.ref.__gxx_personality_v0, @object
	.size	DW.ref.__gxx_personality_v0, 8
DW.ref.__gxx_personality_v0:
	.quad	__gxx_personality_v0
	.ident	"GCC: (Ubuntu 13.2.0-23ubuntu4) 13.2.0"
	.section	.note.GNU-stack,"",@progbits
	.section	.note.gnu.property,"a"
	.align 8
	.long	1f - 0f
	.long	4f - 1f
	.long	5
0:
	.string	"GNU"
1:
	.align 8
	.long	0xc0000002
	.long	3f - 2f
2:
	.long	0x3
3:
	.align 8
4:
