	.file	"Edmond_Karp_MaxFlow.cpp"
	.text
	.section	.text._ZSt17__size_to_integerm,"axG",@progbits,_ZSt17__size_to_integerm,comdat
	.weak	_ZSt17__size_to_integerm
	.type	_ZSt17__size_to_integerm, @function
_ZSt17__size_to_integerm:
.LFB354:
	.cfi_startproc
	endbr64
	pushq	%rbp
	.cfi_def_cfa_offset 16
	.cfi_offset 6, -16
	movq	%rsp, %rbp
	.cfi_def_cfa_register 6
	movq	%rdi, -8(%rbp)
	movq	-8(%rbp), %rax
	popq	%rbp
	.cfi_def_cfa 7, 8
	ret
	.cfi_endproc
.LFE354:
	.size	_ZSt17__size_to_integerm, .-_ZSt17__size_to_integerm
	.section	.text._ZnwmPv,"axG",@progbits,_ZnwmPv,comdat
	.weak	_ZnwmPv
	.type	_ZnwmPv, @function
_ZnwmPv:
.LFB471:
	.cfi_startproc
	endbr64
	pushq	%rbp
	.cfi_def_cfa_offset 16
	.cfi_offset 6, -16
	movq	%rsp, %rbp
	.cfi_def_cfa_register 6
	movq	%rdi, -8(%rbp)
	movq	%rsi, -16(%rbp)
	movq	-16(%rbp), %rax
	popq	%rbp
	.cfi_def_cfa 7, 8
	ret
	.cfi_endproc
.LFE471:
	.size	_ZnwmPv, .-_ZnwmPv
	.section	.text._ZdlPvS_,"axG",@progbits,_ZdlPvS_,comdat
	.weak	_ZdlPvS_
	.type	_ZdlPvS_, @function
_ZdlPvS_:
.LFB473:
	.cfi_startproc
	endbr64
	pushq	%rbp
	.cfi_def_cfa_offset 16
	.cfi_offset 6, -16
	movq	%rsp, %rbp
	.cfi_def_cfa_register 6
	movq	%rdi, -8(%rbp)
	movq	%rsi, -16(%rbp)
	nop
	popq	%rbp
	.cfi_def_cfa 7, 8
	ret
	.cfi_endproc
.LFE473:
	.size	_ZdlPvS_, .-_ZdlPvS_
	.section	.text._ZSt3minImERKT_S2_S2_,"axG",@progbits,_ZSt3minImERKT_S2_S2_,comdat
	.weak	_ZSt3minImERKT_S2_S2_
	.type	_ZSt3minImERKT_S2_S2_, @function
_ZSt3minImERKT_S2_S2_:
.LFB1923:
	.cfi_startproc
	endbr64
	pushq	%rbp
	.cfi_def_cfa_offset 16
	.cfi_offset 6, -16
	movq	%rsp, %rbp
	.cfi_def_cfa_register 6
	movq	%rdi, -8(%rbp)
	movq	%rsi, -16(%rbp)
	movq	-16(%rbp), %rax
	movq	(%rax), %rdx
	movq	-8(%rbp), %rax
	movq	(%rax), %rax
	cmpq	%rax, %rdx
	jnb	.L7
	movq	-16(%rbp), %rax
	jmp	.L8
.L7:
	movq	-8(%rbp), %rax
.L8:
	popq	%rbp
	.cfi_def_cfa 7, 8
	ret
	.cfi_endproc
.LFE1923:
	.size	_ZSt3minImERKT_S2_S2_, .-_ZSt3minImERKT_S2_S2_
	.section	.text._ZSt16__deque_buf_sizem,"axG",@progbits,_ZSt16__deque_buf_sizem,comdat
	.weak	_ZSt16__deque_buf_sizem
	.type	_ZSt16__deque_buf_sizem, @function
_ZSt16__deque_buf_sizem:
.LFB5435:
	.cfi_startproc
	endbr64
	pushq	%rbp
	.cfi_def_cfa_offset 16
	.cfi_offset 6, -16
	movq	%rsp, %rbp
	.cfi_def_cfa_register 6
	movq	%rdi, -8(%rbp)
	cmpq	$511, -8(%rbp)
	ja	.L10
	movl	$512, %eax
	movl	$0, %edx
	divq	-8(%rbp)
	jmp	.L12
.L10:
	movl	$1, %eax
.L12:
	popq	%rbp
	.cfi_def_cfa 7, 8
	ret
	.cfi_endproc
.LFE5435:
	.size	_ZSt16__deque_buf_sizem, .-_ZSt16__deque_buf_sizem
#APP
	.globl _ZSt21ios_base_library_initv
#NO_APP
	.section	.text._ZNSt12_Vector_baseIiSaIiEE12_Vector_implD2Ev,"axG",@progbits,_ZNSt12_Vector_baseIiSaIiEE12_Vector_implD5Ev,comdat
	.align 2
	.weak	_ZNSt12_Vector_baseIiSaIiEE12_Vector_implD2Ev
	.type	_ZNSt12_Vector_baseIiSaIiEE12_Vector_implD2Ev, @function
_ZNSt12_Vector_baseIiSaIiEE12_Vector_implD2Ev:
.LFB9776:
	.cfi_startproc
	endbr64
	pushq	%rbp
	.cfi_def_cfa_offset 16
	.cfi_offset 6, -16
	movq	%rsp, %rbp
	.cfi_def_cfa_register 6
	subq	$32, %rsp
	movq	%rdi, -24(%rbp)
	movq	-24(%rbp), %rax
	movq	%rax, -8(%rbp)
	movq	-8(%rbp), %rax
	movq	%rax, %rdi
	call	_ZNSt15__new_allocatorIiED2Ev
	nop
	nop
	leave
	.cfi_def_cfa 7, 8
	ret
	.cfi_endproc
.LFE9776:
	.size	_ZNSt12_Vector_baseIiSaIiEE12_Vector_implD2Ev, .-_ZNSt12_Vector_baseIiSaIiEE12_Vector_implD2Ev
	.weak	_ZNSt12_Vector_baseIiSaIiEE12_Vector_implD1Ev
	.set	_ZNSt12_Vector_baseIiSaIiEE12_Vector_implD1Ev,_ZNSt12_Vector_baseIiSaIiEE12_Vector_implD2Ev
	.section	.text._ZNSt12_Vector_baseIiSaIiEEC2Ev,"axG",@progbits,_ZNSt12_Vector_baseIiSaIiEEC5Ev,comdat
	.align 2
	.weak	_ZNSt12_Vector_baseIiSaIiEEC2Ev
	.type	_ZNSt12_Vector_baseIiSaIiEEC2Ev, @function
_ZNSt12_Vector_baseIiSaIiEEC2Ev:
.LFB9778:
	.cfi_startproc
	endbr64
	pushq	%rbp
	.cfi_def_cfa_offset 16
	.cfi_offset 6, -16
	movq	%rsp, %rbp
	.cfi_def_cfa_register 6
	subq	$16, %rsp
	movq	%rdi, -8(%rbp)
	movq	-8(%rbp), %rax
	movq	%rax, %rdi
	call	_ZNSt12_Vector_baseIiSaIiEE12_Vector_implC1Ev
	nop
	leave
	.cfi_def_cfa 7, 8
	ret
	.cfi_endproc
.LFE9778:
	.size	_ZNSt12_Vector_baseIiSaIiEEC2Ev, .-_ZNSt12_Vector_baseIiSaIiEEC2Ev
	.weak	_ZNSt12_Vector_baseIiSaIiEEC1Ev
	.set	_ZNSt12_Vector_baseIiSaIiEEC1Ev,_ZNSt12_Vector_baseIiSaIiEEC2Ev
	.section	.text._ZNSt6vectorIiSaIiEEC2Ev,"axG",@progbits,_ZNSt6vectorIiSaIiEEC5Ev,comdat
	.align 2
	.weak	_ZNSt6vectorIiSaIiEEC2Ev
	.type	_ZNSt6vectorIiSaIiEEC2Ev, @function
_ZNSt6vectorIiSaIiEEC2Ev:
.LFB9780:
	.cfi_startproc
	endbr64
	pushq	%rbp
	.cfi_def_cfa_offset 16
	.cfi_offset 6, -16
	movq	%rsp, %rbp
	.cfi_def_cfa_register 6
	subq	$16, %rsp
	movq	%rdi, -8(%rbp)
	movq	-8(%rbp), %rax
	movq	%rax, %rdi
	call	_ZNSt12_Vector_baseIiSaIiEEC2Ev
	nop
	leave
	.cfi_def_cfa 7, 8
	ret
	.cfi_endproc
.LFE9780:
	.size	_ZNSt6vectorIiSaIiEEC2Ev, .-_ZNSt6vectorIiSaIiEEC2Ev
	.weak	_ZNSt6vectorIiSaIiEEC1Ev
	.set	_ZNSt6vectorIiSaIiEEC1Ev,_ZNSt6vectorIiSaIiEEC2Ev
	.section	.rodata
.LC0:
	.string	"\n"
	.text
	.globl	main
	.type	main, @function
main:
.LFB9772:
	.cfi_startproc
	.cfi_personality 0x9b,DW.ref.__gxx_personality_v0
	.cfi_lsda 0x1b,.LLSDA9772
	endbr64
	pushq	%rbp
	.cfi_def_cfa_offset 16
	.cfi_offset 6, -16
	movq	%rsp, %rbp
	.cfi_def_cfa_register 6
	pushq	%rbx
	subq	$168, %rsp
	.cfi_offset 3, -24
	movq	%fs:40, %rax
	movq	%rax, -24(%rbp)
	xorl	%eax, %eax
	movl	$0, %edi
.LEHB0:
	call	_ZNSt8ios_base15sync_with_stdioEb@PLT
	movl	$0, %esi
	leaq	16+_ZSt3cin(%rip), %rax
	movq	%rax, %rdi
	call	_ZNSt9basic_iosIcSt11char_traitsIcEE3tieEPSo@PLT
	leaq	-160(%rbp), %rax
	movq	%rax, %rsi
	leaq	_ZSt3cin(%rip), %rax
	movq	%rax, %rdi
	call	_ZNSirsERi@PLT
	movq	%rax, %rdx
	leaq	-156(%rbp), %rax
	movq	%rax, %rsi
	movq	%rdx, %rdi
	call	_ZNSirsERi@PLT
.LEHE0:
	leaq	-80(%rbp), %rax
	movq	%rax, -136(%rbp)
	nop
	nop
	pxor	%xmm0, %xmm0
	movaps	%xmm0, -48(%rbp)
	movq	%xmm0, -32(%rbp)
	leaq	-48(%rbp), %rax
	movq	%rax, %rdi
	call	_ZNSt6vectorIiSaIiEEC1Ev
	movl	-160(%rbp), %eax
	movslq	%eax, %rsi
	leaq	-80(%rbp), %rcx
	leaq	-48(%rbp), %rdx
	leaq	-112(%rbp), %rax
	movq	%rax, %rdi
.LEHB1:
	call	_ZNSt6vectorIS_IiSaIiEESaIS1_EEC1EmRKS1_RKS2_
.LEHE1:
	leaq	-48(%rbp), %rax
	movq	%rax, %rdi
	call	_ZNSt6vectorIiSaIiEED1Ev
	leaq	-80(%rbp), %rax
	movq	%rax, %rdi
	call	_ZNSt15__new_allocatorISt6vectorIiSaIiEEED2Ev
	nop
	leaq	-152(%rbp), %rax
	movq	%rax, -120(%rbp)
	nop
	nop
	leaq	-161(%rbp), %rax
	movq	%rax, -128(%rbp)
	nop
	nop
	movl	$-2147483648, -148(%rbp)
	movl	-160(%rbp), %eax
	movslq	%eax, %rsi
	leaq	-161(%rbp), %rcx
	leaq	-148(%rbp), %rdx
	leaq	-48(%rbp), %rax
	movq	%rax, %rdi
.LEHB2:
	call	_ZNSt6vectorIiSaIiEEC1EmRKiRKS0_
.LEHE2:
	movl	-160(%rbp), %eax
	movslq	%eax, %rsi
	leaq	-152(%rbp), %rcx
	leaq	-48(%rbp), %rdx
	leaq	-80(%rbp), %rax
	movq	%rax, %rdi
.LEHB3:
	call	_ZNSt6vectorIS_IiSaIiEESaIS1_EEC1EmRKS1_RKS2_
.LEHE3:
	leaq	-48(%rbp), %rax
	movq	%rax, %rdi
	call	_ZNSt6vectorIiSaIiEED1Ev
	leaq	-161(%rbp), %rax
	movq	%rax, %rdi
	call	_ZNSt15__new_allocatorIiED2Ev
	nop
	leaq	-152(%rbp), %rax
	movq	%rax, %rdi
	call	_ZNSt15__new_allocatorISt6vectorIiSaIiEEED2Ev
	nop
	movl	$0, -144(%rbp)
	jmp	.L17
.L18:
	leaq	-152(%rbp), %rax
	movq	%rax, %rsi
	leaq	_ZSt3cin(%rip), %rax
	movq	%rax, %rdi
.LEHB4:
	call	_ZNSirsERi@PLT
	movq	%rax, %rdx
	leaq	-148(%rbp), %rax
	movq	%rax, %rsi
	movq	%rdx, %rdi
	call	_ZNSirsERi@PLT
	movq	%rax, %rdx
	leaq	-48(%rbp), %rax
	movq	%rax, %rsi
	movq	%rdx, %rdi
	call	_ZNSirsERi@PLT
	movl	-152(%rbp), %eax
	movslq	%eax, %rdx
	leaq	-112(%rbp), %rax
	movq	%rdx, %rsi
	movq	%rax, %rdi
	call	_ZNSt6vectorIS_IiSaIiEESaIS1_EEixEm
	movq	%rax, %rdx
	leaq	-148(%rbp), %rax
	movq	%rax, %rsi
	movq	%rdx, %rdi
	call	_ZNSt6vectorIiSaIiEE9push_backERKi
	movl	-148(%rbp), %eax
	movslq	%eax, %rdx
	leaq	-112(%rbp), %rax
	movq	%rdx, %rsi
	movq	%rax, %rdi
	call	_ZNSt6vectorIS_IiSaIiEESaIS1_EEixEm
	movq	%rax, %rdx
	leaq	-152(%rbp), %rax
	movq	%rax, %rsi
	movq	%rdx, %rdi
	call	_ZNSt6vectorIiSaIiEE9push_backERKi
	movl	-48(%rbp), %ebx
	movl	-152(%rbp), %eax
	movslq	%eax, %rdx
	leaq	-80(%rbp), %rax
	movq	%rdx, %rsi
	movq	%rax, %rdi
	call	_ZNSt6vectorIS_IiSaIiEESaIS1_EEixEm
	movq	%rax, %rdx
	movl	-148(%rbp), %eax
	cltq
	movq	%rax, %rsi
	movq	%rdx, %rdi
	call	_ZNSt6vectorIiSaIiEEixEm
	movl	%ebx, (%rax)
	movl	-148(%rbp), %eax
	movslq	%eax, %rdx
	leaq	-80(%rbp), %rax
	movq	%rdx, %rsi
	movq	%rax, %rdi
	call	_ZNSt6vectorIS_IiSaIiEESaIS1_EEixEm
	movq	%rax, %rdx
	movl	-152(%rbp), %eax
	cltq
	movq	%rax, %rsi
	movq	%rdx, %rdi
	call	_ZNSt6vectorIiSaIiEEixEm
	movl	$0, (%rax)
	addl	$1, -144(%rbp)
.L17:
	movl	-156(%rbp), %eax
	cmpl	%eax, -144(%rbp)
	jl	.L18
	movl	-160(%rbp), %eax
	leal	-1(%rax), %esi
	leaq	-80(%rbp), %rdx
	leaq	-112(%rbp), %rax
	movq	%rdx, %rcx
	movq	%rax, %rdx
	movl	$0, %edi
	call	_Z7maxflowIiET_S0_S0_RSt6vectorIS1_IS0_SaIS0_EESaIS3_EES6_
	movl	%eax, -140(%rbp)
	movl	-140(%rbp), %eax
	movl	%eax, %esi
	leaq	_ZSt4cout(%rip), %rax
	movq	%rax, %rdi
	call	_ZNSolsEi@PLT
	movq	%rax, %rdx
	leaq	.LC0(%rip), %rax
	movq	%rax, %rsi
	movq	%rdx, %rdi
	call	_ZStlsISt11char_traitsIcEERSt13basic_ostreamIcT_ES5_PKc@PLT
.LEHE4:
	movl	$0, %ebx
	leaq	-80(%rbp), %rax
	movq	%rax, %rdi
	call	_ZNSt6vectorIS_IiSaIiEESaIS1_EED1Ev
	leaq	-112(%rbp), %rax
	movq	%rax, %rdi
	call	_ZNSt6vectorIS_IiSaIiEESaIS1_EED1Ev
	movl	%ebx, %eax
	movq	-24(%rbp), %rdx
	subq	%fs:40, %rdx
	je	.L27
	jmp	.L32
.L28:
	endbr64
	movq	%rax, %rbx
	leaq	-48(%rbp), %rax
	movq	%rax, %rdi
	call	_ZNSt6vectorIiSaIiEED1Ev
	leaq	-80(%rbp), %rax
	movq	%rax, %rdi
	call	_ZNSt15__new_allocatorISt6vectorIiSaIiEEED2Ev
	nop
	movq	%rbx, %rax
	movq	-24(%rbp), %rdx
	subq	%fs:40, %rdx
	je	.L21
	call	__stack_chk_fail@PLT
.L21:
	movq	%rax, %rdi
.LEHB5:
	call	_Unwind_Resume@PLT
.L30:
	endbr64
	movq	%rax, %rbx
	leaq	-48(%rbp), %rax
	movq	%rax, %rdi
	call	_ZNSt6vectorIiSaIiEED1Ev
	jmp	.L23
.L29:
	endbr64
	movq	%rax, %rbx
.L23:
	leaq	-161(%rbp), %rax
	movq	%rax, %rdi
	call	_ZNSt15__new_allocatorIiED2Ev
	nop
	leaq	-152(%rbp), %rax
	movq	%rax, %rdi
	call	_ZNSt15__new_allocatorISt6vectorIiSaIiEEED2Ev
	nop
	jmp	.L24
.L31:
	endbr64
	movq	%rax, %rbx
	leaq	-80(%rbp), %rax
	movq	%rax, %rdi
	call	_ZNSt6vectorIS_IiSaIiEESaIS1_EED1Ev
.L24:
	leaq	-112(%rbp), %rax
	movq	%rax, %rdi
	call	_ZNSt6vectorIS_IiSaIiEESaIS1_EED1Ev
	movq	%rbx, %rax
	movq	-24(%rbp), %rdx
	subq	%fs:40, %rdx
	je	.L26
	call	__stack_chk_fail@PLT
.L26:
	movq	%rax, %rdi
	call	_Unwind_Resume@PLT
.LEHE5:
.L32:
	call	__stack_chk_fail@PLT
.L27:
	movq	-8(%rbp), %rbx
	leave
	.cfi_def_cfa 7, 8
	ret
	.cfi_endproc
.LFE9772:
	.globl	__gxx_personality_v0
	.section	.gcc_except_table,"a",@progbits
.LLSDA9772:
	.byte	0xff
	.byte	0xff
	.byte	0x1
	.uleb128 .LLSDACSE9772-.LLSDACSB9772
.LLSDACSB9772:
	.uleb128 .LEHB0-.LFB9772
	.uleb128 .LEHE0-.LEHB0
	.uleb128 0
	.uleb128 0
	.uleb128 .LEHB1-.LFB9772
	.uleb128 .LEHE1-.LEHB1
	.uleb128 .L28-.LFB9772
	.uleb128 0
	.uleb128 .LEHB2-.LFB9772
	.uleb128 .LEHE2-.LEHB2
	.uleb128 .L29-.LFB9772
	.uleb128 0
	.uleb128 .LEHB3-.LFB9772
	.uleb128 .LEHE3-.LEHB3
	.uleb128 .L30-.LFB9772
	.uleb128 0
	.uleb128 .LEHB4-.LFB9772
	.uleb128 .LEHE4-.LEHB4
	.uleb128 .L31-.LFB9772
	.uleb128 0
	.uleb128 .LEHB5-.LFB9772
	.uleb128 .LEHE5-.LEHB5
	.uleb128 0
	.uleb128 0
.LLSDACSE9772:
	.text
	.size	main, .-main
	.section	.text._ZSt3maxImERKT_S2_S2_,"axG",@progbits,_ZSt3maxImERKT_S2_S2_,comdat
	.weak	_ZSt3maxImERKT_S2_S2_
	.type	_ZSt3maxImERKT_S2_S2_, @function
_ZSt3maxImERKT_S2_S2_:
.LFB10031:
	.cfi_startproc
	endbr64
	pushq	%rbp
	.cfi_def_cfa_offset 16
	.cfi_offset 6, -16
	movq	%rsp, %rbp
	.cfi_def_cfa_register 6
	movq	%rdi, -8(%rbp)
	movq	%rsi, -16(%rbp)
	movq	-8(%rbp), %rax
	movq	(%rax), %rdx
	movq	-16(%rbp), %rax
	movq	(%rax), %rax
	cmpq	%rax, %rdx
	jnb	.L34
	movq	-16(%rbp), %rax
	jmp	.L35
.L34:
	movq	-8(%rbp), %rax
.L35:
	popq	%rbp
	.cfi_def_cfa 7, 8
	ret
	.cfi_endproc
.LFE10031:
	.size	_ZSt3maxImERKT_S2_S2_, .-_ZSt3maxImERKT_S2_S2_
	.section	.text._ZNSt12_Vector_baseIiSaIiEE12_Vector_implC2Ev,"axG",@progbits,_ZNSt12_Vector_baseIiSaIiEE12_Vector_implC5Ev,comdat
	.align 2
	.weak	_ZNSt12_Vector_baseIiSaIiEE12_Vector_implC2Ev
	.type	_ZNSt12_Vector_baseIiSaIiEE12_Vector_implC2Ev, @function
_ZNSt12_Vector_baseIiSaIiEE12_Vector_implC2Ev:
.LFB10469:
	.cfi_startproc
	endbr64
	pushq	%rbp
	.cfi_def_cfa_offset 16
	.cfi_offset 6, -16
	movq	%rsp, %rbp
	.cfi_def_cfa_register 6
	subq	$32, %rsp
	movq	%rdi, -24(%rbp)
	movq	-24(%rbp), %rax
	movq	%rax, -16(%rbp)
	movq	-16(%rbp), %rax
	movq	%rax, -8(%rbp)
	nop
	nop
	movq	-24(%rbp), %rax
	movq	%rax, %rdi
	call	_ZNSt12_Vector_baseIiSaIiEE17_Vector_impl_dataC2Ev
	nop
	leave
	.cfi_def_cfa 7, 8
	ret
	.cfi_endproc
.LFE10469:
	.size	_ZNSt12_Vector_baseIiSaIiEE12_Vector_implC2Ev, .-_ZNSt12_Vector_baseIiSaIiEE12_Vector_implC2Ev
	.weak	_ZNSt12_Vector_baseIiSaIiEE12_Vector_implC1Ev
	.set	_ZNSt12_Vector_baseIiSaIiEE12_Vector_implC1Ev,_ZNSt12_Vector_baseIiSaIiEE12_Vector_implC2Ev
	.section	.text._ZNSt12_Vector_baseIiSaIiEED2Ev,"axG",@progbits,_ZNSt12_Vector_baseIiSaIiEED5Ev,comdat
	.align 2
	.weak	_ZNSt12_Vector_baseIiSaIiEED2Ev
	.type	_ZNSt12_Vector_baseIiSaIiEED2Ev, @function
_ZNSt12_Vector_baseIiSaIiEED2Ev:
.LFB10475:
	.cfi_startproc
	.cfi_personality 0x9b,DW.ref.__gxx_personality_v0
	.cfi_lsda 0x1b,.LLSDA10475
	endbr64
	pushq	%rbp
	.cfi_def_cfa_offset 16
	.cfi_offset 6, -16
	movq	%rsp, %rbp
	.cfi_def_cfa_register 6
	subq	$16, %rsp
	movq	%rdi, -8(%rbp)
	movq	-8(%rbp), %rax
	movq	16(%rax), %rdx
	movq	-8(%rbp), %rax
	movq	(%rax), %rax
	subq	%rax, %rdx
	movq	%rdx, %rax
	sarq	$2, %rax
	movq	%rax, %rdx
	movq	-8(%rbp), %rax
	movq	(%rax), %rcx
	movq	-8(%rbp), %rax
	movq	%rcx, %rsi
	movq	%rax, %rdi
	call	_ZNSt12_Vector_baseIiSaIiEE13_M_deallocateEPim
	movq	-8(%rbp), %rax
	movq	%rax, %rdi
	call	_ZNSt12_Vector_baseIiSaIiEE12_Vector_implD1Ev
	nop
	leave
	.cfi_def_cfa 7, 8
	ret
	.cfi_endproc
.LFE10475:
	.section	.gcc_except_table
.LLSDA10475:
	.byte	0xff
	.byte	0xff
	.byte	0x1
	.uleb128 .LLSDACSE10475-.LLSDACSB10475
.LLSDACSB10475:
.LLSDACSE10475:
	.section	.text._ZNSt12_Vector_baseIiSaIiEED2Ev,"axG",@progbits,_ZNSt12_Vector_baseIiSaIiEED5Ev,comdat
	.size	_ZNSt12_Vector_baseIiSaIiEED2Ev, .-_ZNSt12_Vector_baseIiSaIiEED2Ev
	.weak	_ZNSt12_Vector_baseIiSaIiEED1Ev
	.set	_ZNSt12_Vector_baseIiSaIiEED1Ev,_ZNSt12_Vector_baseIiSaIiEED2Ev
	.section	.text._ZNSt6vectorIiSaIiEED2Ev,"axG",@progbits,_ZNSt6vectorIiSaIiEED5Ev,comdat
	.align 2
	.weak	_ZNSt6vectorIiSaIiEED2Ev
	.type	_ZNSt6vectorIiSaIiEED2Ev, @function
_ZNSt6vectorIiSaIiEED2Ev:
.LFB10478:
	.cfi_startproc
	.cfi_personality 0x9b,DW.ref.__gxx_personality_v0
	.cfi_lsda 0x1b,.LLSDA10478
	endbr64
	pushq	%rbp
	.cfi_def_cfa_offset 16
	.cfi_offset 6, -16
	movq	%rsp, %rbp
	.cfi_def_cfa_register 6
	subq	$48, %rsp
	movq	%rdi, -40(%rbp)
	movq	-40(%rbp), %rax
	movq	%rax, %rdi
	call	_ZNSt12_Vector_baseIiSaIiEE19_M_get_Tp_allocatorEv
	movq	-40(%rbp), %rdx
	movq	8(%rdx), %rdx
	movq	-40(%rbp), %rcx
	movq	(%rcx), %rcx
	movq	%rcx, -24(%rbp)
	movq	%rdx, -16(%rbp)
	movq	%rax, -8(%rbp)
	movq	-16(%rbp), %rdx
	movq	-24(%rbp), %rax
	movq	%rdx, %rsi
	movq	%rax, %rdi
	call	_ZSt8_DestroyIPiEvT_S1_
	nop
	movq	-40(%rbp), %rax
	movq	%rax, %rdi
	call	_ZNSt12_Vector_baseIiSaIiEED2Ev
	nop
	leave
	.cfi_def_cfa 7, 8
	ret
	.cfi_endproc
.LFE10478:
	.section	.gcc_except_table
.LLSDA10478:
	.byte	0xff
	.byte	0xff
	.byte	0x1
	.uleb128 .LLSDACSE10478-.LLSDACSB10478
.LLSDACSB10478:
.LLSDACSE10478:
	.section	.text._ZNSt6vectorIiSaIiEED2Ev,"axG",@progbits,_ZNSt6vectorIiSaIiEED5Ev,comdat
	.size	_ZNSt6vectorIiSaIiEED2Ev, .-_ZNSt6vectorIiSaIiEED2Ev
	.weak	_ZNSt6vectorIiSaIiEED1Ev
	.set	_ZNSt6vectorIiSaIiEED1Ev,_ZNSt6vectorIiSaIiEED2Ev
	.section	.text._ZNSt6vectorIS_IiSaIiEESaIS1_EEC2EmRKS1_RKS2_,"axG",@progbits,_ZNSt6vectorIS_IiSaIiEESaIS1_EEC5EmRKS1_RKS2_,comdat
	.align 2
	.weak	_ZNSt6vectorIS_IiSaIiEESaIS1_EEC2EmRKS1_RKS2_
	.type	_ZNSt6vectorIS_IiSaIiEESaIS1_EEC2EmRKS1_RKS2_, @function
_ZNSt6vectorIS_IiSaIiEESaIS1_EEC2EmRKS1_RKS2_:
.LFB10487:
	.cfi_startproc
	.cfi_personality 0x9b,DW.ref.__gxx_personality_v0
	.cfi_lsda 0x1b,.LLSDA10487
	endbr64
	pushq	%rbp
	.cfi_def_cfa_offset 16
	.cfi_offset 6, -16
	movq	%rsp, %rbp
	.cfi_def_cfa_register 6
	pushq	%rbx
	subq	$40, %rsp
	.cfi_offset 3, -24
	movq	%rdi, -24(%rbp)
	movq	%rsi, -32(%rbp)
	movq	%rdx, -40(%rbp)
	movq	%rcx, -48(%rbp)
	movq	-24(%rbp), %rbx
	movq	-48(%rbp), %rdx
	movq	-32(%rbp), %rax
	movq	%rdx, %rsi
	movq	%rax, %rdi
.LEHB6:
	call	_ZNSt6vectorIS_IiSaIiEESaIS1_EE17_S_check_init_lenEmRKS2_
	movq	%rax, %rcx
	movq	-48(%rbp), %rax
	movq	%rax, %rdx
	movq	%rcx, %rsi
	movq	%rbx, %rdi
	call	_ZNSt12_Vector_baseISt6vectorIiSaIiEESaIS2_EEC2EmRKS3_
.LEHE6:
	movq	-40(%rbp), %rdx
	movq	-32(%rbp), %rcx
	movq	-24(%rbp), %rax
	movq	%rcx, %rsi
	movq	%rax, %rdi
.LEHB7:
	call	_ZNSt6vectorIS_IiSaIiEESaIS1_EE18_M_fill_initializeEmRKS1_
.LEHE7:
	jmp	.L42
.L41:
	endbr64
	movq	%rax, %rbx
	movq	-24(%rbp), %rax
	movq	%rax, %rdi
	call	_ZNSt12_Vector_baseISt6vectorIiSaIiEESaIS2_EED2Ev
	movq	%rbx, %rax
	movq	%rax, %rdi
.LEHB8:
	call	_Unwind_Resume@PLT
.LEHE8:
.L42:
	movq	-8(%rbp), %rbx
	leave
	.cfi_def_cfa 7, 8
	ret
	.cfi_endproc
.LFE10487:
	.section	.gcc_except_table
.LLSDA10487:
	.byte	0xff
	.byte	0xff
	.byte	0x1
	.uleb128 .LLSDACSE10487-.LLSDACSB10487
.LLSDACSB10487:
	.uleb128 .LEHB6-.LFB10487
	.uleb128 .LEHE6-.LEHB6
	.uleb128 0
	.uleb128 0
	.uleb128 .LEHB7-.LFB10487
	.uleb128 .LEHE7-.LEHB7
	.uleb128 .L41-.LFB10487
	.uleb128 0
	.uleb128 .LEHB8-.LFB10487
	.uleb128 .LEHE8-.LEHB8
	.uleb128 0
	.uleb128 0
.LLSDACSE10487:
	.section	.text._ZNSt6vectorIS_IiSaIiEESaIS1_EEC2EmRKS1_RKS2_,"axG",@progbits,_ZNSt6vectorIS_IiSaIiEESaIS1_EEC5EmRKS1_RKS2_,comdat
	.size	_ZNSt6vectorIS_IiSaIiEESaIS1_EEC2EmRKS1_RKS2_, .-_ZNSt6vectorIS_IiSaIiEESaIS1_EEC2EmRKS1_RKS2_
	.weak	_ZNSt6vectorIS_IiSaIiEESaIS1_EEC1EmRKS1_RKS2_
	.set	_ZNSt6vectorIS_IiSaIiEESaIS1_EEC1EmRKS1_RKS2_,_ZNSt6vectorIS_IiSaIiEESaIS1_EEC2EmRKS1_RKS2_
	.section	.text._ZNSt6vectorIS_IiSaIiEESaIS1_EED2Ev,"axG",@progbits,_ZNSt6vectorIS_IiSaIiEESaIS1_EED5Ev,comdat
	.align 2
	.weak	_ZNSt6vectorIS_IiSaIiEESaIS1_EED2Ev
	.type	_ZNSt6vectorIS_IiSaIiEESaIS1_EED2Ev, @function
_ZNSt6vectorIS_IiSaIiEESaIS1_EED2Ev:
.LFB10490:
	.cfi_startproc
	.cfi_personality 0x9b,DW.ref.__gxx_personality_v0
	.cfi_lsda 0x1b,.LLSDA10490
	endbr64
	pushq	%rbp
	.cfi_def_cfa_offset 16
	.cfi_offset 6, -16
	movq	%rsp, %rbp
	.cfi_def_cfa_register 6
	subq	$48, %rsp
	movq	%rdi, -40(%rbp)
	movq	-40(%rbp), %rax
	movq	%rax, %rdi
	call	_ZNSt12_Vector_baseISt6vectorIiSaIiEESaIS2_EE19_M_get_Tp_allocatorEv
	movq	-40(%rbp), %rdx
	movq	8(%rdx), %rdx
	movq	-40(%rbp), %rcx
	movq	(%rcx), %rcx
	movq	%rcx, -24(%rbp)
	movq	%rdx, -16(%rbp)
	movq	%rax, -8(%rbp)
	movq	-16(%rbp), %rdx
	movq	-24(%rbp), %rax
	movq	%rdx, %rsi
	movq	%rax, %rdi
	call	_ZSt8_DestroyIPSt6vectorIiSaIiEEEvT_S4_
	nop
	movq	-40(%rbp), %rax
	movq	%rax, %rdi
	call	_ZNSt12_Vector_baseISt6vectorIiSaIiEESaIS2_EED2Ev
	nop
	leave
	.cfi_def_cfa 7, 8
	ret
	.cfi_endproc
.LFE10490:
	.section	.gcc_except_table
.LLSDA10490:
	.byte	0xff
	.byte	0xff
	.byte	0x1
	.uleb128 .LLSDACSE10490-.LLSDACSB10490
.LLSDACSB10490:
.LLSDACSE10490:
	.section	.text._ZNSt6vectorIS_IiSaIiEESaIS1_EED2Ev,"axG",@progbits,_ZNSt6vectorIS_IiSaIiEESaIS1_EED5Ev,comdat
	.size	_ZNSt6vectorIS_IiSaIiEESaIS1_EED2Ev, .-_ZNSt6vectorIS_IiSaIiEESaIS1_EED2Ev
	.weak	_ZNSt6vectorIS_IiSaIiEESaIS1_EED1Ev
	.set	_ZNSt6vectorIS_IiSaIiEESaIS1_EED1Ev,_ZNSt6vectorIS_IiSaIiEESaIS1_EED2Ev
	.section	.text._ZNSt6vectorIiSaIiEEC2EmRKiRKS0_,"axG",@progbits,_ZNSt6vectorIiSaIiEEC5EmRKiRKS0_,comdat
	.align 2
	.weak	_ZNSt6vectorIiSaIiEEC2EmRKiRKS0_
	.type	_ZNSt6vectorIiSaIiEEC2EmRKiRKS0_, @function
_ZNSt6vectorIiSaIiEEC2EmRKiRKS0_:
.LFB10496:
	.cfi_startproc
	.cfi_personality 0x9b,DW.ref.__gxx_personality_v0
	.cfi_lsda 0x1b,.LLSDA10496
	endbr64
	pushq	%rbp
	.cfi_def_cfa_offset 16
	.cfi_offset 6, -16
	movq	%rsp, %rbp
	.cfi_def_cfa_register 6
	pushq	%rbx
	subq	$40, %rsp
	.cfi_offset 3, -24
	movq	%rdi, -24(%rbp)
	movq	%rsi, -32(%rbp)
	movq	%rdx, -40(%rbp)
	movq	%rcx, -48(%rbp)
	movq	-24(%rbp), %rbx
	movq	-48(%rbp), %rdx
	movq	-32(%rbp), %rax
	movq	%rdx, %rsi
	movq	%rax, %rdi
.LEHB9:
	call	_ZNSt6vectorIiSaIiEE17_S_check_init_lenEmRKS0_
	movq	%rax, %rcx
	movq	-48(%rbp), %rax
	movq	%rax, %rdx
	movq	%rcx, %rsi
	movq	%rbx, %rdi
	call	_ZNSt12_Vector_baseIiSaIiEEC2EmRKS0_
.LEHE9:
	movq	-40(%rbp), %rdx
	movq	-32(%rbp), %rcx
	movq	-24(%rbp), %rax
	movq	%rcx, %rsi
	movq	%rax, %rdi
.LEHB10:
	call	_ZNSt6vectorIiSaIiEE18_M_fill_initializeEmRKi
.LEHE10:
	jmp	.L47
.L46:
	endbr64
	movq	%rax, %rbx
	movq	-24(%rbp), %rax
	movq	%rax, %rdi
	call	_ZNSt12_Vector_baseIiSaIiEED2Ev
	movq	%rbx, %rax
	movq	%rax, %rdi
.LEHB11:
	call	_Unwind_Resume@PLT
.LEHE11:
.L47:
	movq	-8(%rbp), %rbx
	leave
	.cfi_def_cfa 7, 8
	ret
	.cfi_endproc
.LFE10496:
	.section	.gcc_except_table
.LLSDA10496:
	.byte	0xff
	.byte	0xff
	.byte	0x1
	.uleb128 .LLSDACSE10496-.LLSDACSB10496
.LLSDACSB10496:
	.uleb128 .LEHB9-.LFB10496
	.uleb128 .LEHE9-.LEHB9
	.uleb128 0
	.uleb128 0
	.uleb128 .LEHB10-.LFB10496
	.uleb128 .LEHE10-.LEHB10
	.uleb128 .L46-.LFB10496
	.uleb128 0
	.uleb128 .LEHB11-.LFB10496
	.uleb128 .LEHE11-.LEHB11
	.uleb128 0
	.uleb128 0
.LLSDACSE10496:
	.section	.text._ZNSt6vectorIiSaIiEEC2EmRKiRKS0_,"axG",@progbits,_ZNSt6vectorIiSaIiEEC5EmRKiRKS0_,comdat
	.size	_ZNSt6vectorIiSaIiEEC2EmRKiRKS0_, .-_ZNSt6vectorIiSaIiEEC2EmRKiRKS0_
	.weak	_ZNSt6vectorIiSaIiEEC1EmRKiRKS0_
	.set	_ZNSt6vectorIiSaIiEEC1EmRKiRKS0_,_ZNSt6vectorIiSaIiEEC2EmRKiRKS0_
	.section	.text._ZNSt6vectorIS_IiSaIiEESaIS1_EEixEm,"axG",@progbits,_ZNSt6vectorIS_IiSaIiEESaIS1_EEixEm,comdat
	.align 2
	.weak	_ZNSt6vectorIS_IiSaIiEESaIS1_EEixEm
	.type	_ZNSt6vectorIS_IiSaIiEESaIS1_EEixEm, @function
_ZNSt6vectorIS_IiSaIiEESaIS1_EEixEm:
.LFB10498:
	.cfi_startproc
	endbr64
	pushq	%rbp
	.cfi_def_cfa_offset 16
	.cfi_offset 6, -16
	movq	%rsp, %rbp
	.cfi_def_cfa_register 6
	movq	%rdi, -8(%rbp)
	movq	%rsi, -16(%rbp)
	movq	-8(%rbp), %rax
	movq	(%rax), %rcx
	movq	-16(%rbp), %rdx
	movq	%rdx, %rax
	addq	%rax, %rax
	addq	%rdx, %rax
	salq	$3, %rax
	addq	%rcx, %rax
	popq	%rbp
	.cfi_def_cfa 7, 8
	ret
	.cfi_endproc
.LFE10498:
	.size	_ZNSt6vectorIS_IiSaIiEESaIS1_EEixEm, .-_ZNSt6vectorIS_IiSaIiEESaIS1_EEixEm
	.section	.text._ZNSt6vectorIiSaIiEE9push_backERKi,"axG",@progbits,_ZNSt6vectorIiSaIiEE9push_backERKi,comdat
	.align 2
	.weak	_ZNSt6vectorIiSaIiEE9push_backERKi
	.type	_ZNSt6vectorIiSaIiEE9push_backERKi, @function
_ZNSt6vectorIiSaIiEE9push_backERKi:
.LFB10499:
	.cfi_startproc
	endbr64
	pushq	%rbp
	.cfi_def_cfa_offset 16
	.cfi_offset 6, -16
	movq	%rsp, %rbp
	.cfi_def_cfa_register 6
	pushq	%rbx
	subq	$72, %rsp
	.cfi_offset 3, -24
	movq	%rdi, -72(%rbp)
	movq	%rsi, -80(%rbp)
	movq	-72(%rbp), %rax
	movq	8(%rax), %rdx
	movq	-72(%rbp), %rax
	movq	16(%rax), %rax
	cmpq	%rax, %rdx
	je	.L51
	movq	-72(%rbp), %rax
	movq	8(%rax), %rax
	movq	-72(%rbp), %rdx
	movq	%rdx, -64(%rbp)
	movq	%rax, -56(%rbp)
	movq	-80(%rbp), %rax
	movq	%rax, -48(%rbp)
	movq	-48(%rbp), %rax
	movq	%rax, %rdi
	call	_ZSt7forwardIRKiEOT_RNSt16remove_referenceIS2_E4typeE
	movq	-64(%rbp), %rdx
	movq	%rdx, -40(%rbp)
	movq	-56(%rbp), %rdx
	movq	%rdx, -32(%rbp)
	movq	%rax, -24(%rbp)
	movq	-32(%rbp), %rax
	movq	%rax, %rsi
	movl	$4, %edi
	call	_ZnwmPv
	movq	%rax, %rbx
	movq	-24(%rbp), %rax
	movq	%rax, %rdi
	call	_ZSt7forwardIRKiEOT_RNSt16remove_referenceIS2_E4typeE
	movl	(%rax), %eax
	movl	%eax, (%rbx)
	nop
	nop
	movq	-72(%rbp), %rax
	movq	8(%rax), %rax
	leaq	4(%rax), %rdx
	movq	-72(%rbp), %rax
	movq	%rdx, 8(%rax)
	jmp	.L53
.L51:
	movq	-72(%rbp), %rax
	movq	%rax, %rdi
	call	_ZNSt6vectorIiSaIiEE3endEv
	movq	%rax, %rcx
	movq	-80(%rbp), %rdx
	movq	-72(%rbp), %rax
	movq	%rcx, %rsi
	movq	%rax, %rdi
	call	_ZNSt6vectorIiSaIiEE17_M_realloc_insertIJRKiEEEvN9__gnu_cxx17__normal_iteratorIPiS1_EEDpOT_
.L53:
	nop
	movq	-8(%rbp), %rbx
	leave
	.cfi_def_cfa 7, 8
	ret
	.cfi_endproc
.LFE10499:
	.size	_ZNSt6vectorIiSaIiEE9push_backERKi, .-_ZNSt6vectorIiSaIiEE9push_backERKi
	.section	.text._ZNSt6vectorIiSaIiEEixEm,"axG",@progbits,_ZNSt6vectorIiSaIiEEixEm,comdat
	.align 2
	.weak	_ZNSt6vectorIiSaIiEEixEm
	.type	_ZNSt6vectorIiSaIiEEixEm, @function
_ZNSt6vectorIiSaIiEEixEm:
.LFB10501:
	.cfi_startproc
	endbr64
	pushq	%rbp
	.cfi_def_cfa_offset 16
	.cfi_offset 6, -16
	movq	%rsp, %rbp
	.cfi_def_cfa_register 6
	movq	%rdi, -8(%rbp)
	movq	%rsi, -16(%rbp)
	movq	-8(%rbp), %rax
	movq	(%rax), %rax
	movq	-16(%rbp), %rdx
	salq	$2, %rdx
	addq	%rdx, %rax
	popq	%rbp
	.cfi_def_cfa 7, 8
	ret
	.cfi_endproc
.LFE10501:
	.size	_ZNSt6vectorIiSaIiEEixEm, .-_ZNSt6vectorIiSaIiEEixEm
	.section	.text._Z7maxflowIiET_S0_S0_RSt6vectorIS1_IS0_SaIS0_EESaIS3_EES6_,"axG",@progbits,_Z7maxflowIiET_S0_S0_RSt6vectorIS1_IS0_SaIS0_EESaIS3_EES6_,comdat
	.weak	_Z7maxflowIiET_S0_S0_RSt6vectorIS1_IS0_SaIS0_EESaIS3_EES6_
	.type	_Z7maxflowIiET_S0_S0_RSt6vectorIS1_IS0_SaIS0_EESaIS3_EES6_, @function
_Z7maxflowIiET_S0_S0_RSt6vectorIS1_IS0_SaIS0_EESaIS3_EES6_:
.LFB10502:
	.cfi_startproc
	.cfi_personality 0x9b,DW.ref.__gxx_personality_v0
	.cfi_lsda 0x1b,.LLSDA10502
	endbr64
	pushq	%rbp
	.cfi_def_cfa_offset 16
	.cfi_offset 6, -16
	movq	%rsp, %rbp
	.cfi_def_cfa_register 6
	pushq	%rbx
	subq	$104, %rsp
	.cfi_offset 3, -24
	movl	%edi, -84(%rbp)
	movl	%esi, -88(%rbp)
	movq	%rdx, -96(%rbp)
	movq	%rcx, -104(%rbp)
	movq	%fs:40, %rax
	movq	%rax, -24(%rbp)
	xorl	%eax, %eax
	movl	$0, -72(%rbp)
	leaq	-73(%rbp), %rax
	movq	%rax, -56(%rbp)
	nop
	nop
	movq	-96(%rbp), %rax
	movq	%rax, %rdi
	call	_ZNKSt6vectorIS_IiSaIiEESaIS1_EE4sizeEv
	movslq	%eax, %rcx
	leaq	-73(%rbp), %rdx
	leaq	-48(%rbp), %rax
	movq	%rcx, %rsi
	movq	%rax, %rdi
.LEHB12:
	call	_ZNSt6vectorIiSaIiEEC1EmRKS0_
.LEHE12:
	leaq	-73(%rbp), %rax
	movq	%rax, %rdi
	call	_ZNSt15__new_allocatorIiED2Ev
	nop
	movl	$0, -64(%rbp)
	jmp	.L57
.L60:
	movl	-64(%rbp), %eax
	addl	%eax, -72(%rbp)
	movl	-88(%rbp), %eax
	movl	%eax, -68(%rbp)
	jmp	.L58
.L59:
	movl	-68(%rbp), %eax
	movslq	%eax, %rdx
	leaq	-48(%rbp), %rax
	movq	%rdx, %rsi
	movq	%rax, %rdi
	call	_ZNSt6vectorIiSaIiEEixEm
	movl	(%rax), %eax
	movl	%eax, -60(%rbp)
	movl	-60(%rbp), %eax
	movslq	%eax, %rdx
	movq	-104(%rbp), %rax
	movq	%rdx, %rsi
	movq	%rax, %rdi
	call	_ZNSt6vectorIS_IiSaIiEESaIS1_EEixEm
	movq	%rax, %rdx
	movl	-68(%rbp), %eax
	cltq
	movq	%rax, %rsi
	movq	%rdx, %rdi
	call	_ZNSt6vectorIiSaIiEEixEm
	movl	(%rax), %edx
	subl	-64(%rbp), %edx
	movl	%edx, (%rax)
	movl	-68(%rbp), %eax
	movslq	%eax, %rdx
	movq	-104(%rbp), %rax
	movq	%rdx, %rsi
	movq	%rax, %rdi
	call	_ZNSt6vectorIS_IiSaIiEESaIS1_EEixEm
	movq	%rax, %rdx
	movl	-60(%rbp), %eax
	cltq
	movq	%rax, %rsi
	movq	%rdx, %rdi
	call	_ZNSt6vectorIiSaIiEEixEm
	movl	(%rax), %ecx
	movl	-64(%rbp), %edx
	addl	%ecx, %edx
	movl	%edx, (%rax)
	movl	-60(%rbp), %eax
	movl	%eax, -68(%rbp)
.L58:
	movl	-68(%rbp), %eax
	cmpl	-84(%rbp), %eax
	jne	.L59
.L57:
	leaq	-48(%rbp), %rdi
	movq	-104(%rbp), %rcx
	movq	-96(%rbp), %rdx
	movl	-88(%rbp), %esi
	movl	-84(%rbp), %eax
	movq	%rdi, %r8
	movl	%eax, %edi
.LEHB13:
	call	_Z3bfsIiET_S0_S0_RSt6vectorIS1_IS0_SaIS0_EESaIS3_EES6_RS3_
.LEHE13:
	movl	%eax, -64(%rbp)
	cmpl	$0, -64(%rbp)
	setne	%al
	testb	%al, %al
	jne	.L60
	movl	-72(%rbp), %ebx
	leaq	-48(%rbp), %rax
	movq	%rax, %rdi
	call	_ZNSt6vectorIiSaIiEED1Ev
	movl	%ebx, %eax
	movq	-24(%rbp), %rdx
	subq	%fs:40, %rdx
	je	.L66
	jmp	.L69
.L67:
	endbr64
	movq	%rax, %rbx
	leaq	-73(%rbp), %rax
	movq	%rax, %rdi
	call	_ZNSt15__new_allocatorIiED2Ev
	nop
	movq	%rbx, %rax
	movq	-24(%rbp), %rdx
	subq	%fs:40, %rdx
	je	.L63
	call	__stack_chk_fail@PLT
.L63:
	movq	%rax, %rdi
.LEHB14:
	call	_Unwind_Resume@PLT
.L68:
	endbr64
	movq	%rax, %rbx
	leaq	-48(%rbp), %rax
	movq	%rax, %rdi
	call	_ZNSt6vectorIiSaIiEED1Ev
	movq	%rbx, %rax
	movq	-24(%rbp), %rdx
	subq	%fs:40, %rdx
	je	.L65
	call	__stack_chk_fail@PLT
.L65:
	movq	%rax, %rdi
	call	_Unwind_Resume@PLT
.LEHE14:
.L69:
	call	__stack_chk_fail@PLT
.L66:
	movq	-8(%rbp), %rbx
	leave
	.cfi_def_cfa 7, 8
	ret
	.cfi_endproc
.LFE10502:
	.section	.gcc_except_table
.LLSDA10502:
	.byte	0xff
	.byte	0xff
	.byte	0x1
	.uleb128 .LLSDACSE10502-.LLSDACSB10502
.LLSDACSB10502:
	.uleb128 .LEHB12-.LFB10502
	.uleb128 .LEHE12-.LEHB12
	.uleb128 .L67-.LFB10502
	.uleb128 0
	.uleb128 .LEHB13-.LFB10502
	.uleb128 .LEHE13-.LEHB13
	.uleb128 .L68-.LFB10502
	.uleb128 0
	.uleb128 .LEHB14-.LFB10502
	.uleb128 .LEHE14-.LEHB14
	.uleb128 0
	.uleb128 0
.LLSDACSE10502:
	.section	.text._Z7maxflowIiET_S0_S0_RSt6vectorIS1_IS0_SaIS0_EESaIS3_EES6_,"axG",@progbits,_Z7maxflowIiET_S0_S0_RSt6vectorIS1_IS0_SaIS0_EESaIS3_EES6_,comdat
	.size	_Z7maxflowIiET_S0_S0_RSt6vectorIS1_IS0_SaIS0_EESaIS3_EES6_, .-_Z7maxflowIiET_S0_S0_RSt6vectorIS1_IS0_SaIS0_EESaIS3_EES6_
	.section	.text._ZSt7forwardIiEOT_RNSt16remove_referenceIS0_E4typeE,"axG",@progbits,_ZSt7forwardIiEOT_RNSt16remove_referenceIS0_E4typeE,comdat
	.weak	_ZSt7forwardIiEOT_RNSt16remove_referenceIS0_E4typeE
	.type	_ZSt7forwardIiEOT_RNSt16remove_referenceIS0_E4typeE, @function
_ZSt7forwardIiEOT_RNSt16remove_referenceIS0_E4typeE:
.LFB10602:
	.cfi_startproc
	endbr64
	pushq	%rbp
	.cfi_def_cfa_offset 16
	.cfi_offset 6, -16
	movq	%rsp, %rbp
	.cfi_def_cfa_register 6
	movq	%rdi, -8(%rbp)
	movq	-8(%rbp), %rax
	popq	%rbp
	.cfi_def_cfa 7, 8
	ret
	.cfi_endproc
.LFE10602:
	.size	_ZSt7forwardIiEOT_RNSt16remove_referenceIS0_E4typeE, .-_ZSt7forwardIiEOT_RNSt16remove_referenceIS0_E4typeE
	.section	.text._ZNSt12_Vector_baseIiSaIiEE17_Vector_impl_dataC2Ev,"axG",@progbits,_ZNSt12_Vector_baseIiSaIiEE17_Vector_impl_dataC5Ev,comdat
	.align 2
	.weak	_ZNSt12_Vector_baseIiSaIiEE17_Vector_impl_dataC2Ev
	.type	_ZNSt12_Vector_baseIiSaIiEE17_Vector_impl_dataC2Ev, @function
_ZNSt12_Vector_baseIiSaIiEE17_Vector_impl_dataC2Ev:
.LFB10928:
	.cfi_startproc
	endbr64
	pushq	%rbp
	.cfi_def_cfa_offset 16
	.cfi_offset 6, -16
	movq	%rsp, %rbp
	.cfi_def_cfa_register 6
	movq	%rdi, -8(%rbp)
	movq	-8(%rbp), %rax
	movq	$0, (%rax)
	movq	-8(%rbp), %rax
	movq	$0, 8(%rax)
	movq	-8(%rbp), %rax
	movq	$0, 16(%rax)
	nop
	popq	%rbp
	.cfi_def_cfa 7, 8
	ret
	.cfi_endproc
.LFE10928:
	.size	_ZNSt12_Vector_baseIiSaIiEE17_Vector_impl_dataC2Ev, .-_ZNSt12_Vector_baseIiSaIiEE17_Vector_impl_dataC2Ev
	.weak	_ZNSt12_Vector_baseIiSaIiEE17_Vector_impl_dataC1Ev
	.set	_ZNSt12_Vector_baseIiSaIiEE17_Vector_impl_dataC1Ev,_ZNSt12_Vector_baseIiSaIiEE17_Vector_impl_dataC2Ev
	.section	.text._ZNSt15__new_allocatorIiED2Ev,"axG",@progbits,_ZNSt15__new_allocatorIiED5Ev,comdat
	.align 2
	.weak	_ZNSt15__new_allocatorIiED2Ev
	.type	_ZNSt15__new_allocatorIiED2Ev, @function
_ZNSt15__new_allocatorIiED2Ev:
.LFB10931:
	.cfi_startproc
	endbr64
	pushq	%rbp
	.cfi_def_cfa_offset 16
	.cfi_offset 6, -16
	movq	%rsp, %rbp
	.cfi_def_cfa_register 6
	movq	%rdi, -8(%rbp)
	nop
	popq	%rbp
	.cfi_def_cfa 7, 8
	ret
	.cfi_endproc
.LFE10931:
	.size	_ZNSt15__new_allocatorIiED2Ev, .-_ZNSt15__new_allocatorIiED2Ev
	.weak	_ZNSt15__new_allocatorIiED1Ev
	.set	_ZNSt15__new_allocatorIiED1Ev,_ZNSt15__new_allocatorIiED2Ev
	.section	.text._ZNSt12_Vector_baseIiSaIiEE13_M_deallocateEPim,"axG",@progbits,_ZNSt12_Vector_baseIiSaIiEE13_M_deallocateEPim,comdat
	.align 2
	.weak	_ZNSt12_Vector_baseIiSaIiEE13_M_deallocateEPim
	.type	_ZNSt12_Vector_baseIiSaIiEE13_M_deallocateEPim, @function
_ZNSt12_Vector_baseIiSaIiEE13_M_deallocateEPim:
.LFB10933:
	.cfi_startproc
	endbr64
	pushq	%rbp
	.cfi_def_cfa_offset 16
	.cfi_offset 6, -16
	movq	%rsp, %rbp
	.cfi_def_cfa_register 6
	subq	$64, %rsp
	movq	%rdi, -40(%rbp)
	movq	%rsi, -48(%rbp)
	movq	%rdx, -56(%rbp)
	cmpq	$0, -48(%rbp)
	je	.L76
	movq	-40(%rbp), %rax
	movq	%rax, -24(%rbp)
	movq	-48(%rbp), %rax
	movq	%rax, -16(%rbp)
	movq	-56(%rbp), %rax
	movq	%rax, -8(%rbp)
	movq	-8(%rbp), %rdx
	movq	-16(%rbp), %rcx
	movq	-24(%rbp), %rax
	movq	%rcx, %rsi
	movq	%rax, %rdi
	call	_ZNSt15__new_allocatorIiE10deallocateEPim
	nop
.L76:
	nop
	leave
	.cfi_def_cfa 7, 8
	ret
	.cfi_endproc
.LFE10933:
	.size	_ZNSt12_Vector_baseIiSaIiEE13_M_deallocateEPim, .-_ZNSt12_Vector_baseIiSaIiEE13_M_deallocateEPim
	.section	.text._ZNSt12_Vector_baseIiSaIiEE19_M_get_Tp_allocatorEv,"axG",@progbits,_ZNSt12_Vector_baseIiSaIiEE19_M_get_Tp_allocatorEv,comdat
	.align 2
	.weak	_ZNSt12_Vector_baseIiSaIiEE19_M_get_Tp_allocatorEv
	.type	_ZNSt12_Vector_baseIiSaIiEE19_M_get_Tp_allocatorEv, @function
_ZNSt12_Vector_baseIiSaIiEE19_M_get_Tp_allocatorEv:
.LFB10934:
	.cfi_startproc
	endbr64
	pushq	%rbp
	.cfi_def_cfa_offset 16
	.cfi_offset 6, -16
	movq	%rsp, %rbp
	.cfi_def_cfa_register 6
	movq	%rdi, -8(%rbp)
	movq	-8(%rbp), %rax
	popq	%rbp
	.cfi_def_cfa 7, 8
	ret
	.cfi_endproc
.LFE10934:
	.size	_ZNSt12_Vector_baseIiSaIiEE19_M_get_Tp_allocatorEv, .-_ZNSt12_Vector_baseIiSaIiEE19_M_get_Tp_allocatorEv
	.section	.text._ZNSt15__new_allocatorISt6vectorIiSaIiEEED2Ev,"axG",@progbits,_ZNSt15__new_allocatorISt6vectorIiSaIiEEED5Ev,comdat
	.align 2
	.weak	_ZNSt15__new_allocatorISt6vectorIiSaIiEEED2Ev
	.type	_ZNSt15__new_allocatorISt6vectorIiSaIiEEED2Ev, @function
_ZNSt15__new_allocatorISt6vectorIiSaIiEEED2Ev:
.LFB10940:
	.cfi_startproc
	endbr64
	pushq	%rbp
	.cfi_def_cfa_offset 16
	.cfi_offset 6, -16
	movq	%rsp, %rbp
	.cfi_def_cfa_register 6
	movq	%rdi, -8(%rbp)
	nop
	popq	%rbp
	.cfi_def_cfa 7, 8
	ret
	.cfi_endproc
.LFE10940:
	.size	_ZNSt15__new_allocatorISt6vectorIiSaIiEEED2Ev, .-_ZNSt15__new_allocatorISt6vectorIiSaIiEEED2Ev
	.weak	_ZNSt15__new_allocatorISt6vectorIiSaIiEEED1Ev
	.set	_ZNSt15__new_allocatorISt6vectorIiSaIiEEED1Ev,_ZNSt15__new_allocatorISt6vectorIiSaIiEEED2Ev
	.section	.rodata
	.align 8
.LC1:
	.string	"cannot create std::vector larger than max_size()"
	.section	.text._ZNSt6vectorIS_IiSaIiEESaIS1_EE17_S_check_init_lenEmRKS2_,"axG",@progbits,_ZNSt6vectorIS_IiSaIiEESaIS1_EE17_S_check_init_lenEmRKS2_,comdat
	.weak	_ZNSt6vectorIS_IiSaIiEESaIS1_EE17_S_check_init_lenEmRKS2_
	.type	_ZNSt6vectorIS_IiSaIiEESaIS1_EE17_S_check_init_lenEmRKS2_, @function
_ZNSt6vectorIS_IiSaIiEESaIS1_EE17_S_check_init_lenEmRKS2_:
.LFB10942:
	.cfi_startproc
	endbr64
	pushq	%rbp
	.cfi_def_cfa_offset 16
	.cfi_offset 6, -16
	movq	%rsp, %rbp
	.cfi_def_cfa_register 6
	pushq	%rbx
	subq	$72, %rsp
	.cfi_offset 3, -24
	movq	%rdi, -72(%rbp)
	movq	%rsi, -80(%rbp)
	movq	%fs:40, %rax
	movq	%rax, -24(%rbp)
	xorl	%eax, %eax
	movq	-80(%rbp), %rax
	movq	%rax, -48(%rbp)
	leaq	-49(%rbp), %rax
	movq	%rax, -40(%rbp)
	movq	-48(%rbp), %rax
	movq	%rax, -32(%rbp)
	nop
	nop
	leaq	-49(%rbp), %rax
	movq	%rax, %rdi
	call	_ZNSt6vectorIS_IiSaIiEESaIS1_EE11_S_max_sizeERKS2_
	cmpq	-72(%rbp), %rax
	setb	%bl
	leaq	-49(%rbp), %rax
	movq	%rax, %rdi
	call	_ZNSt15__new_allocatorISt6vectorIiSaIiEEED2Ev
	nop
	testb	%bl, %bl
	je	.L81
	movq	-24(%rbp), %rax
	subq	%fs:40, %rax
	je	.L82
	call	__stack_chk_fail@PLT
.L82:
	leaq	.LC1(%rip), %rax
	movq	%rax, %rdi
	call	_ZSt20__throw_length_errorPKc@PLT
.L81:
	movq	-72(%rbp), %rax
	movq	-24(%rbp), %rdx
	subq	%fs:40, %rdx
	je	.L84
	call	__stack_chk_fail@PLT
.L84:
	movq	-8(%rbp), %rbx
	leave
	.cfi_def_cfa 7, 8
	ret
	.cfi_endproc
.LFE10942:
	.size	_ZNSt6vectorIS_IiSaIiEESaIS1_EE17_S_check_init_lenEmRKS2_, .-_ZNSt6vectorIS_IiSaIiEESaIS1_EE17_S_check_init_lenEmRKS2_
	.section	.text._ZNSt12_Vector_baseISt6vectorIiSaIiEESaIS2_EE12_Vector_implD2Ev,"axG",@progbits,_ZNSt12_Vector_baseISt6vectorIiSaIiEESaIS2_EE12_Vector_implD5Ev,comdat
	.align 2
	.weak	_ZNSt12_Vector_baseISt6vectorIiSaIiEESaIS2_EE12_Vector_implD2Ev
	.type	_ZNSt12_Vector_baseISt6vectorIiSaIiEESaIS2_EE12_Vector_implD2Ev, @function
_ZNSt12_Vector_baseISt6vectorIiSaIiEESaIS2_EE12_Vector_implD2Ev:
.LFB10945:
	.cfi_startproc
	endbr64
	pushq	%rbp
	.cfi_def_cfa_offset 16
	.cfi_offset 6, -16
	movq	%rsp, %rbp
	.cfi_def_cfa_register 6
	subq	$32, %rsp
	movq	%rdi, -24(%rbp)
	movq	-24(%rbp), %rax
	movq	%rax, -8(%rbp)
	movq	-8(%rbp), %rax
	movq	%rax, %rdi
	call	_ZNSt15__new_allocatorISt6vectorIiSaIiEEED2Ev
	nop
	nop
	leave
	.cfi_def_cfa 7, 8
	ret
	.cfi_endproc
.LFE10945:
	.size	_ZNSt12_Vector_baseISt6vectorIiSaIiEESaIS2_EE12_Vector_implD2Ev, .-_ZNSt12_Vector_baseISt6vectorIiSaIiEESaIS2_EE12_Vector_implD2Ev
	.weak	_ZNSt12_Vector_baseISt6vectorIiSaIiEESaIS2_EE12_Vector_implD1Ev
	.set	_ZNSt12_Vector_baseISt6vectorIiSaIiEESaIS2_EE12_Vector_implD1Ev,_ZNSt12_Vector_baseISt6vectorIiSaIiEESaIS2_EE12_Vector_implD2Ev
	.section	.text._ZNSt12_Vector_baseISt6vectorIiSaIiEESaIS2_EEC2EmRKS3_,"axG",@progbits,_ZNSt12_Vector_baseISt6vectorIiSaIiEESaIS2_EEC5EmRKS3_,comdat
	.align 2
	.weak	_ZNSt12_Vector_baseISt6vectorIiSaIiEESaIS2_EEC2EmRKS3_
	.type	_ZNSt12_Vector_baseISt6vectorIiSaIiEESaIS2_EEC2EmRKS3_, @function
_ZNSt12_Vector_baseISt6vectorIiSaIiEESaIS2_EEC2EmRKS3_:
.LFB10947:
	.cfi_startproc
	.cfi_personality 0x9b,DW.ref.__gxx_personality_v0
	.cfi_lsda 0x1b,.LLSDA10947
	endbr64
	pushq	%rbp
	.cfi_def_cfa_offset 16
	.cfi_offset 6, -16
	movq	%rsp, %rbp
	.cfi_def_cfa_register 6
	pushq	%rbx
	subq	$40, %rsp
	.cfi_offset 3, -24
	movq	%rdi, -24(%rbp)
	movq	%rsi, -32(%rbp)
	movq	%rdx, -40(%rbp)
	movq	-24(%rbp), %rax
	movq	-40(%rbp), %rdx
	movq	%rdx, %rsi
	movq	%rax, %rdi
	call	_ZNSt12_Vector_baseISt6vectorIiSaIiEESaIS2_EE12_Vector_implC1ERKS3_
	movq	-32(%rbp), %rdx
	movq	-24(%rbp), %rax
	movq	%rdx, %rsi
	movq	%rax, %rdi
.LEHB15:
	call	_ZNSt12_Vector_baseISt6vectorIiSaIiEESaIS2_EE17_M_create_storageEm
.LEHE15:
	jmp	.L89
.L88:
	endbr64
	movq	%rax, %rbx
	movq	-24(%rbp), %rax
	movq	%rax, %rdi
	call	_ZNSt12_Vector_baseISt6vectorIiSaIiEESaIS2_EE12_Vector_implD1Ev
	movq	%rbx, %rax
	movq	%rax, %rdi
.LEHB16:
	call	_Unwind_Resume@PLT
.LEHE16:
.L89:
	movq	-8(%rbp), %rbx
	leave
	.cfi_def_cfa 7, 8
	ret
	.cfi_endproc
.LFE10947:
	.section	.gcc_except_table
.LLSDA10947:
	.byte	0xff
	.byte	0xff
	.byte	0x1
	.uleb128 .LLSDACSE10947-.LLSDACSB10947
.LLSDACSB10947:
	.uleb128 .LEHB15-.LFB10947
	.uleb128 .LEHE15-.LEHB15
	.uleb128 .L88-.LFB10947
	.uleb128 0
	.uleb128 .LEHB16-.LFB10947
	.uleb128 .LEHE16-.LEHB16
	.uleb128 0
	.uleb128 0
.LLSDACSE10947:
	.section	.text._ZNSt12_Vector_baseISt6vectorIiSaIiEESaIS2_EEC2EmRKS3_,"axG",@progbits,_ZNSt12_Vector_baseISt6vectorIiSaIiEESaIS2_EEC5EmRKS3_,comdat
	.size	_ZNSt12_Vector_baseISt6vectorIiSaIiEESaIS2_EEC2EmRKS3_, .-_ZNSt12_Vector_baseISt6vectorIiSaIiEESaIS2_EEC2EmRKS3_
	.weak	_ZNSt12_Vector_baseISt6vectorIiSaIiEESaIS2_EEC1EmRKS3_
	.set	_ZNSt12_Vector_baseISt6vectorIiSaIiEESaIS2_EEC1EmRKS3_,_ZNSt12_Vector_baseISt6vectorIiSaIiEESaIS2_EEC2EmRKS3_
	.section	.text._ZNSt12_Vector_baseISt6vectorIiSaIiEESaIS2_EED2Ev,"axG",@progbits,_ZNSt12_Vector_baseISt6vectorIiSaIiEESaIS2_EED5Ev,comdat
	.align 2
	.weak	_ZNSt12_Vector_baseISt6vectorIiSaIiEESaIS2_EED2Ev
	.type	_ZNSt12_Vector_baseISt6vectorIiSaIiEESaIS2_EED2Ev, @function
_ZNSt12_Vector_baseISt6vectorIiSaIiEESaIS2_EED2Ev:
.LFB10950:
	.cfi_startproc
	.cfi_personality 0x9b,DW.ref.__gxx_personality_v0
	.cfi_lsda 0x1b,.LLSDA10950
	endbr64
	pushq	%rbp
	.cfi_def_cfa_offset 16
	.cfi_offset 6, -16
	movq	%rsp, %rbp
	.cfi_def_cfa_register 6
	subq	$16, %rsp
	movq	%rdi, -8(%rbp)
	movq	-8(%rbp), %rax
	movq	16(%rax), %rdx
	movq	-8(%rbp), %rax
	movq	(%rax), %rax
	subq	%rax, %rdx
	sarq	$3, %rdx
	movabsq	$-6148914691236517205, %rax
	imulq	%rdx, %rax
	movq	%rax, %rdx
	movq	-8(%rbp), %rax
	movq	(%rax), %rcx
	movq	-8(%rbp), %rax
	movq	%rcx, %rsi
	movq	%rax, %rdi
	call	_ZNSt12_Vector_baseISt6vectorIiSaIiEESaIS2_EE13_M_deallocateEPS2_m
	movq	-8(%rbp), %rax
	movq	%rax, %rdi
	call	_ZNSt12_Vector_baseISt6vectorIiSaIiEESaIS2_EE12_Vector_implD1Ev
	nop
	leave
	.cfi_def_cfa 7, 8
	ret
	.cfi_endproc
.LFE10950:
	.section	.gcc_except_table
.LLSDA10950:
	.byte	0xff
	.byte	0xff
	.byte	0x1
	.uleb128 .LLSDACSE10950-.LLSDACSB10950
.LLSDACSB10950:
.LLSDACSE10950:
	.section	.text._ZNSt12_Vector_baseISt6vectorIiSaIiEESaIS2_EED2Ev,"axG",@progbits,_ZNSt12_Vector_baseISt6vectorIiSaIiEESaIS2_EED5Ev,comdat
	.size	_ZNSt12_Vector_baseISt6vectorIiSaIiEESaIS2_EED2Ev, .-_ZNSt12_Vector_baseISt6vectorIiSaIiEESaIS2_EED2Ev
	.weak	_ZNSt12_Vector_baseISt6vectorIiSaIiEESaIS2_EED1Ev
	.set	_ZNSt12_Vector_baseISt6vectorIiSaIiEESaIS2_EED1Ev,_ZNSt12_Vector_baseISt6vectorIiSaIiEESaIS2_EED2Ev
	.section	.text._ZNSt6vectorIS_IiSaIiEESaIS1_EE18_M_fill_initializeEmRKS1_,"axG",@progbits,_ZNSt6vectorIS_IiSaIiEESaIS1_EE18_M_fill_initializeEmRKS1_,comdat
	.align 2
	.weak	_ZNSt6vectorIS_IiSaIiEESaIS1_EE18_M_fill_initializeEmRKS1_
	.type	_ZNSt6vectorIS_IiSaIiEESaIS1_EE18_M_fill_initializeEmRKS1_, @function
_ZNSt6vectorIS_IiSaIiEESaIS1_EE18_M_fill_initializeEmRKS1_:
.LFB10952:
	.cfi_startproc
	endbr64
	pushq	%rbp
	.cfi_def_cfa_offset 16
	.cfi_offset 6, -16
	movq	%rsp, %rbp
	.cfi_def_cfa_register 6
	subq	$32, %rsp
	movq	%rdi, -8(%rbp)
	movq	%rsi, -16(%rbp)
	movq	%rdx, -24(%rbp)
	movq	-8(%rbp), %rax
	movq	%rax, %rdi
	call	_ZNSt12_Vector_baseISt6vectorIiSaIiEESaIS2_EE19_M_get_Tp_allocatorEv
	movq	%rax, %rcx
	movq	-8(%rbp), %rax
	movq	(%rax), %rax
	movq	-24(%rbp), %rdx
	movq	-16(%rbp), %rsi
	movq	%rax, %rdi
	call	_ZSt24__uninitialized_fill_n_aIPSt6vectorIiSaIiEEmS2_S2_ET_S4_T0_RKT1_RSaIT2_E
	movq	-8(%rbp), %rdx
	movq	%rax, 8(%rdx)
	nop
	leave
	.cfi_def_cfa 7, 8
	ret
	.cfi_endproc
.LFE10952:
	.size	_ZNSt6vectorIS_IiSaIiEESaIS1_EE18_M_fill_initializeEmRKS1_, .-_ZNSt6vectorIS_IiSaIiEESaIS1_EE18_M_fill_initializeEmRKS1_
	.section	.text._ZNSt12_Vector_baseISt6vectorIiSaIiEESaIS2_EE19_M_get_Tp_allocatorEv,"axG",@progbits,_ZNSt12_Vector_baseISt6vectorIiSaIiEESaIS2_EE19_M_get_Tp_allocatorEv,comdat
	.align 2
	.weak	_ZNSt12_Vector_baseISt6vectorIiSaIiEESaIS2_EE19_M_get_Tp_allocatorEv
	.type	_ZNSt12_Vector_baseISt6vectorIiSaIiEESaIS2_EE19_M_get_Tp_allocatorEv, @function
_ZNSt12_Vector_baseISt6vectorIiSaIiEESaIS2_EE19_M_get_Tp_allocatorEv:
.LFB10953:
	.cfi_startproc
	endbr64
	pushq	%rbp
	.cfi_def_cfa_offset 16
	.cfi_offset 6, -16
	movq	%rsp, %rbp
	.cfi_def_cfa_register 6
	movq	%rdi, -8(%rbp)
	movq	-8(%rbp), %rax
	popq	%rbp
	.cfi_def_cfa 7, 8
	ret
	.cfi_endproc
.LFE10953:
	.size	_ZNSt12_Vector_baseISt6vectorIiSaIiEESaIS2_EE19_M_get_Tp_allocatorEv, .-_ZNSt12_Vector_baseISt6vectorIiSaIiEESaIS2_EE19_M_get_Tp_allocatorEv
	.section	.text._ZNSt6vectorIiSaIiEE17_S_check_init_lenEmRKS0_,"axG",@progbits,_ZNSt6vectorIiSaIiEE17_S_check_init_lenEmRKS0_,comdat
	.weak	_ZNSt6vectorIiSaIiEE17_S_check_init_lenEmRKS0_
	.type	_ZNSt6vectorIiSaIiEE17_S_check_init_lenEmRKS0_, @function
_ZNSt6vectorIiSaIiEE17_S_check_init_lenEmRKS0_:
.LFB10958:
	.cfi_startproc
	endbr64
	pushq	%rbp
	.cfi_def_cfa_offset 16
	.cfi_offset 6, -16
	movq	%rsp, %rbp
	.cfi_def_cfa_register 6
	pushq	%rbx
	subq	$72, %rsp
	.cfi_offset 3, -24
	movq	%rdi, -72(%rbp)
	movq	%rsi, -80(%rbp)
	movq	%fs:40, %rax
	movq	%rax, -24(%rbp)
	xorl	%eax, %eax
	movq	-80(%rbp), %rax
	movq	%rax, -48(%rbp)
	leaq	-49(%rbp), %rax
	movq	%rax, -40(%rbp)
	movq	-48(%rbp), %rax
	movq	%rax, -32(%rbp)
	nop
	nop
	leaq	-49(%rbp), %rax
	movq	%rax, %rdi
	call	_ZNSt6vectorIiSaIiEE11_S_max_sizeERKS0_
	cmpq	-72(%rbp), %rax
	setb	%bl
	leaq	-49(%rbp), %rax
	movq	%rax, %rdi
	call	_ZNSt15__new_allocatorIiED2Ev
	nop
	testb	%bl, %bl
	je	.L95
	movq	-24(%rbp), %rax
	subq	%fs:40, %rax
	je	.L96
	call	__stack_chk_fail@PLT
.L96:
	leaq	.LC1(%rip), %rax
	movq	%rax, %rdi
	call	_ZSt20__throw_length_errorPKc@PLT
.L95:
	movq	-72(%rbp), %rax
	movq	-24(%rbp), %rdx
	subq	%fs:40, %rdx
	je	.L98
	call	__stack_chk_fail@PLT
.L98:
	movq	-8(%rbp), %rbx
	leave
	.cfi_def_cfa 7, 8
	ret
	.cfi_endproc
.LFE10958:
	.size	_ZNSt6vectorIiSaIiEE17_S_check_init_lenEmRKS0_, .-_ZNSt6vectorIiSaIiEE17_S_check_init_lenEmRKS0_
	.section	.text._ZNSt12_Vector_baseIiSaIiEEC2EmRKS0_,"axG",@progbits,_ZNSt12_Vector_baseIiSaIiEEC5EmRKS0_,comdat
	.align 2
	.weak	_ZNSt12_Vector_baseIiSaIiEEC2EmRKS0_
	.type	_ZNSt12_Vector_baseIiSaIiEEC2EmRKS0_, @function
_ZNSt12_Vector_baseIiSaIiEEC2EmRKS0_:
.LFB10960:
	.cfi_startproc
	.cfi_personality 0x9b,DW.ref.__gxx_personality_v0
	.cfi_lsda 0x1b,.LLSDA10960
	endbr64
	pushq	%rbp
	.cfi_def_cfa_offset 16
	.cfi_offset 6, -16
	movq	%rsp, %rbp
	.cfi_def_cfa_register 6
	pushq	%rbx
	subq	$40, %rsp
	.cfi_offset 3, -24
	movq	%rdi, -24(%rbp)
	movq	%rsi, -32(%rbp)
	movq	%rdx, -40(%rbp)
	movq	-24(%rbp), %rax
	movq	-40(%rbp), %rdx
	movq	%rdx, %rsi
	movq	%rax, %rdi
	call	_ZNSt12_Vector_baseIiSaIiEE12_Vector_implC1ERKS0_
	movq	-32(%rbp), %rdx
	movq	-24(%rbp), %rax
	movq	%rdx, %rsi
	movq	%rax, %rdi
.LEHB17:
	call	_ZNSt12_Vector_baseIiSaIiEE17_M_create_storageEm
.LEHE17:
	jmp	.L102
.L101:
	endbr64
	movq	%rax, %rbx
	movq	-24(%rbp), %rax
	movq	%rax, %rdi
	call	_ZNSt12_Vector_baseIiSaIiEE12_Vector_implD1Ev
	movq	%rbx, %rax
	movq	%rax, %rdi
.LEHB18:
	call	_Unwind_Resume@PLT
.LEHE18:
.L102:
	movq	-8(%rbp), %rbx
	leave
	.cfi_def_cfa 7, 8
	ret
	.cfi_endproc
.LFE10960:
	.section	.gcc_except_table
.LLSDA10960:
	.byte	0xff
	.byte	0xff
	.byte	0x1
	.uleb128 .LLSDACSE10960-.LLSDACSB10960
.LLSDACSB10960:
	.uleb128 .LEHB17-.LFB10960
	.uleb128 .LEHE17-.LEHB17
	.uleb128 .L101-.LFB10960
	.uleb128 0
	.uleb128 .LEHB18-.LFB10960
	.uleb128 .LEHE18-.LEHB18
	.uleb128 0
	.uleb128 0
.LLSDACSE10960:
	.section	.text._ZNSt12_Vector_baseIiSaIiEEC2EmRKS0_,"axG",@progbits,_ZNSt12_Vector_baseIiSaIiEEC5EmRKS0_,comdat
	.size	_ZNSt12_Vector_baseIiSaIiEEC2EmRKS0_, .-_ZNSt12_Vector_baseIiSaIiEEC2EmRKS0_
	.weak	_ZNSt12_Vector_baseIiSaIiEEC1EmRKS0_
	.set	_ZNSt12_Vector_baseIiSaIiEEC1EmRKS0_,_ZNSt12_Vector_baseIiSaIiEEC2EmRKS0_
	.section	.text._ZNSt6vectorIiSaIiEE18_M_fill_initializeEmRKi,"axG",@progbits,_ZNSt6vectorIiSaIiEE18_M_fill_initializeEmRKi,comdat
	.align 2
	.weak	_ZNSt6vectorIiSaIiEE18_M_fill_initializeEmRKi
	.type	_ZNSt6vectorIiSaIiEE18_M_fill_initializeEmRKi, @function
_ZNSt6vectorIiSaIiEE18_M_fill_initializeEmRKi:
.LFB10962:
	.cfi_startproc
	endbr64
	pushq	%rbp
	.cfi_def_cfa_offset 16
	.cfi_offset 6, -16
	movq	%rsp, %rbp
	.cfi_def_cfa_register 6
	subq	$32, %rsp
	movq	%rdi, -8(%rbp)
	movq	%rsi, -16(%rbp)
	movq	%rdx, -24(%rbp)
	movq	-8(%rbp), %rax
	movq	%rax, %rdi
	call	_ZNSt12_Vector_baseIiSaIiEE19_M_get_Tp_allocatorEv
	movq	%rax, %rcx
	movq	-8(%rbp), %rax
	movq	(%rax), %rax
	movq	-24(%rbp), %rdx
	movq	-16(%rbp), %rsi
	movq	%rax, %rdi
	call	_ZSt24__uninitialized_fill_n_aIPimiiET_S1_T0_RKT1_RSaIT2_E
	movq	-8(%rbp), %rdx
	movq	%rax, 8(%rdx)
	nop
	leave
	.cfi_def_cfa 7, 8
	ret
	.cfi_endproc
.LFE10962:
	.size	_ZNSt6vectorIiSaIiEE18_M_fill_initializeEmRKi, .-_ZNSt6vectorIiSaIiEE18_M_fill_initializeEmRKi
	.section	.text._ZNSt6vectorIiSaIiEE3endEv,"axG",@progbits,_ZNSt6vectorIiSaIiEE3endEv,comdat
	.align 2
	.weak	_ZNSt6vectorIiSaIiEE3endEv
	.type	_ZNSt6vectorIiSaIiEE3endEv, @function
_ZNSt6vectorIiSaIiEE3endEv:
.LFB10964:
	.cfi_startproc
	endbr64
	pushq	%rbp
	.cfi_def_cfa_offset 16
	.cfi_offset 6, -16
	movq	%rsp, %rbp
	.cfi_def_cfa_register 6
	subq	$32, %rsp
	movq	%rdi, -24(%rbp)
	movq	%fs:40, %rax
	movq	%rax, -8(%rbp)
	xorl	%eax, %eax
	movq	-24(%rbp), %rax
	leaq	8(%rax), %rdx
	leaq	-16(%rbp), %rax
	movq	%rdx, %rsi
	movq	%rax, %rdi
	call	_ZN9__gnu_cxx17__normal_iteratorIPiSt6vectorIiSaIiEEEC1ERKS1_
	movq	-16(%rbp), %rax
	movq	-8(%rbp), %rdx
	subq	%fs:40, %rdx
	je	.L106
	call	__stack_chk_fail@PLT
.L106:
	leave
	.cfi_def_cfa 7, 8
	ret
	.cfi_endproc
.LFE10964:
	.size	_ZNSt6vectorIiSaIiEE3endEv, .-_ZNSt6vectorIiSaIiEE3endEv
	.section	.rodata
.LC2:
	.string	"vector::_M_realloc_insert"
	.section	.text._ZNSt6vectorIiSaIiEE17_M_realloc_insertIJRKiEEEvN9__gnu_cxx17__normal_iteratorIPiS1_EEDpOT_,"axG",@progbits,_ZNSt6vectorIiSaIiEE17_M_realloc_insertIJRKiEEEvN9__gnu_cxx17__normal_iteratorIPiS1_EEDpOT_,comdat
	.align 2
	.weak	_ZNSt6vectorIiSaIiEE17_M_realloc_insertIJRKiEEEvN9__gnu_cxx17__normal_iteratorIPiS1_EEDpOT_
	.type	_ZNSt6vectorIiSaIiEE17_M_realloc_insertIJRKiEEEvN9__gnu_cxx17__normal_iteratorIPiS1_EEDpOT_, @function
_ZNSt6vectorIiSaIiEE17_M_realloc_insertIJRKiEEEvN9__gnu_cxx17__normal_iteratorIPiS1_EEDpOT_:
.LFB10965:
	.cfi_startproc
	endbr64
	pushq	%rbp
	.cfi_def_cfa_offset 16
	.cfi_offset 6, -16
	movq	%rsp, %rbp
	.cfi_def_cfa_register 6
	pushq	%rbx
	subq	$152, %rsp
	.cfi_offset 3, -24
	movq	%rdi, -136(%rbp)
	movq	%rsi, -144(%rbp)
	movq	%rdx, -152(%rbp)
	movq	%fs:40, %rax
	movq	%rax, -24(%rbp)
	xorl	%eax, %eax
	movq	-136(%rbp), %rax
	leaq	.LC2(%rip), %rdx
	movl	$1, %esi
	movq	%rax, %rdi
	call	_ZNKSt6vectorIiSaIiEE12_M_check_lenEmPKc
	movq	%rax, -120(%rbp)
	movq	-136(%rbp), %rax
	movq	(%rax), %rax
	movq	%rax, -112(%rbp)
	movq	-136(%rbp), %rax
	movq	8(%rax), %rax
	movq	%rax, -104(%rbp)
	movq	-136(%rbp), %rax
	movq	%rax, %rdi
	call	_ZNSt6vectorIiSaIiEE5beginEv
	movq	%rax, -128(%rbp)
	leaq	-128(%rbp), %rdx
	leaq	-144(%rbp), %rax
	movq	%rdx, %rsi
	movq	%rax, %rdi
	call	_ZN9__gnu_cxxmiIPiSt6vectorIiSaIiEEEENS_17__normal_iteratorIT_T0_E15difference_typeERKS8_SB_
	movq	%rax, -96(%rbp)
	movq	-136(%rbp), %rax
	movq	-120(%rbp), %rdx
	movq	%rdx, %rsi
	movq	%rax, %rdi
	call	_ZNSt12_Vector_baseIiSaIiEE11_M_allocateEm
	movq	%rax, -88(%rbp)
	movq	-88(%rbp), %rax
	movq	%rax, -80(%rbp)
	movq	-152(%rbp), %rax
	movq	%rax, %rdi
	call	_ZSt7forwardIRKiEOT_RNSt16remove_referenceIS2_E4typeE
	movq	-96(%rbp), %rdx
	leaq	0(,%rdx,4), %rcx
	movq	-88(%rbp), %rdx
	addq	%rdx, %rcx
	movq	-136(%rbp), %rdx
	movq	%rdx, -72(%rbp)
	movq	%rcx, -64(%rbp)
	movq	%rax, -56(%rbp)
	movq	-56(%rbp), %rax
	movq	%rax, %rdi
	call	_ZSt7forwardIRKiEOT_RNSt16remove_referenceIS2_E4typeE
	movq	-72(%rbp), %rdx
	movq	%rdx, -48(%rbp)
	movq	-64(%rbp), %rdx
	movq	%rdx, -40(%rbp)
	movq	%rax, -32(%rbp)
	movq	-40(%rbp), %rax
	movq	%rax, %rsi
	movl	$4, %edi
	call	_ZnwmPv
	movq	%rax, %rbx
	movq	-32(%rbp), %rax
	movq	%rax, %rdi
	call	_ZSt7forwardIRKiEOT_RNSt16remove_referenceIS2_E4typeE
	movl	(%rax), %eax
	movl	%eax, (%rbx)
	nop
	nop
	movq	$0, -80(%rbp)
	movq	-136(%rbp), %rax
	movq	%rax, %rdi
	call	_ZNSt12_Vector_baseIiSaIiEE19_M_get_Tp_allocatorEv
	movq	%rax, %rbx
	leaq	-144(%rbp), %rax
	movq	%rax, %rdi
	call	_ZNK9__gnu_cxx17__normal_iteratorIPiSt6vectorIiSaIiEEE4baseEv
	movq	(%rax), %rsi
	movq	-88(%rbp), %rdx
	movq	-112(%rbp), %rax
	movq	%rbx, %rcx
	movq	%rax, %rdi
	call	_ZNSt6vectorIiSaIiEE11_S_relocateEPiS2_S2_RS0_
	movq	%rax, -80(%rbp)
	addq	$4, -80(%rbp)
	movq	-136(%rbp), %rax
	movq	%rax, %rdi
	call	_ZNSt12_Vector_baseIiSaIiEE19_M_get_Tp_allocatorEv
	movq	%rax, %rbx
	leaq	-144(%rbp), %rax
	movq	%rax, %rdi
	call	_ZNK9__gnu_cxx17__normal_iteratorIPiSt6vectorIiSaIiEEE4baseEv
	movq	(%rax), %rax
	movq	-80(%rbp), %rdx
	movq	-104(%rbp), %rsi
	movq	%rbx, %rcx
	movq	%rax, %rdi
	call	_ZNSt6vectorIiSaIiEE11_S_relocateEPiS2_S2_RS0_
	movq	%rax, -80(%rbp)
	movq	-136(%rbp), %rax
	movq	-136(%rbp), %rdx
	movq	16(%rdx), %rdx
	subq	-112(%rbp), %rdx
	sarq	$2, %rdx
	movq	-112(%rbp), %rcx
	movq	%rcx, %rsi
	movq	%rax, %rdi
	call	_ZNSt12_Vector_baseIiSaIiEE13_M_deallocateEPim
	movq	-136(%rbp), %rax
	movq	-88(%rbp), %rdx
	movq	%rdx, (%rax)
	movq	-136(%rbp), %rax
	movq	-80(%rbp), %rdx
	movq	%rdx, 8(%rax)
	movq	-120(%rbp), %rax
	leaq	0(,%rax,4), %rdx
	movq	-88(%rbp), %rax
	addq	%rax, %rdx
	movq	-136(%rbp), %rax
	movq	%rdx, 16(%rax)
	nop
	movq	-24(%rbp), %rax
	subq	%fs:40, %rax
	je	.L108
	call	__stack_chk_fail@PLT
.L108:
	movq	-8(%rbp), %rbx
	leave
	.cfi_def_cfa 7, 8
	ret
	.cfi_endproc
.LFE10965:
	.size	_ZNSt6vectorIiSaIiEE17_M_realloc_insertIJRKiEEEvN9__gnu_cxx17__normal_iteratorIPiS1_EEDpOT_, .-_ZNSt6vectorIiSaIiEE17_M_realloc_insertIJRKiEEEvN9__gnu_cxx17__normal_iteratorIPiS1_EEDpOT_
	.section	.text._ZNKSt6vectorIS_IiSaIiEESaIS1_EE4sizeEv,"axG",@progbits,_ZNKSt6vectorIS_IiSaIiEESaIS1_EE4sizeEv,comdat
	.align 2
	.weak	_ZNKSt6vectorIS_IiSaIiEESaIS1_EE4sizeEv
	.type	_ZNKSt6vectorIS_IiSaIiEESaIS1_EE4sizeEv, @function
_ZNKSt6vectorIS_IiSaIiEESaIS1_EE4sizeEv:
.LFB10969:
	.cfi_startproc
	endbr64
	pushq	%rbp
	.cfi_def_cfa_offset 16
	.cfi_offset 6, -16
	movq	%rsp, %rbp
	.cfi_def_cfa_register 6
	movq	%rdi, -8(%rbp)
	movq	-8(%rbp), %rax
	movq	8(%rax), %rdx
	movq	-8(%rbp), %rax
	movq	(%rax), %rax
	subq	%rax, %rdx
	sarq	$3, %rdx
	movabsq	$-6148914691236517205, %rax
	imulq	%rdx, %rax
	popq	%rbp
	.cfi_def_cfa 7, 8
	ret
	.cfi_endproc
.LFE10969:
	.size	_ZNKSt6vectorIS_IiSaIiEESaIS1_EE4sizeEv, .-_ZNKSt6vectorIS_IiSaIiEESaIS1_EE4sizeEv
	.section	.text._ZNSt6vectorIiSaIiEEC2EmRKS0_,"axG",@progbits,_ZNSt6vectorIiSaIiEEC5EmRKS0_,comdat
	.align 2
	.weak	_ZNSt6vectorIiSaIiEEC2EmRKS0_
	.type	_ZNSt6vectorIiSaIiEEC2EmRKS0_, @function
_ZNSt6vectorIiSaIiEEC2EmRKS0_:
.LFB10971:
	.cfi_startproc
	.cfi_personality 0x9b,DW.ref.__gxx_personality_v0
	.cfi_lsda 0x1b,.LLSDA10971
	endbr64
	pushq	%rbp
	.cfi_def_cfa_offset 16
	.cfi_offset 6, -16
	movq	%rsp, %rbp
	.cfi_def_cfa_register 6
	pushq	%rbx
	subq	$40, %rsp
	.cfi_offset 3, -24
	movq	%rdi, -24(%rbp)
	movq	%rsi, -32(%rbp)
	movq	%rdx, -40(%rbp)
	movq	-24(%rbp), %rbx
	movq	-40(%rbp), %rdx
	movq	-32(%rbp), %rax
	movq	%rdx, %rsi
	movq	%rax, %rdi
.LEHB19:
	call	_ZNSt6vectorIiSaIiEE17_S_check_init_lenEmRKS0_
	movq	%rax, %rcx
	movq	-40(%rbp), %rax
	movq	%rax, %rdx
	movq	%rcx, %rsi
	movq	%rbx, %rdi
	call	_ZNSt12_Vector_baseIiSaIiEEC2EmRKS0_
.LEHE19:
	movq	-32(%rbp), %rdx
	movq	-24(%rbp), %rax
	movq	%rdx, %rsi
	movq	%rax, %rdi
.LEHB20:
	call	_ZNSt6vectorIiSaIiEE21_M_default_initializeEm
.LEHE20:
	jmp	.L114
.L113:
	endbr64
	movq	%rax, %rbx
	movq	-24(%rbp), %rax
	movq	%rax, %rdi
	call	_ZNSt12_Vector_baseIiSaIiEED2Ev
	movq	%rbx, %rax
	movq	%rax, %rdi
.LEHB21:
	call	_Unwind_Resume@PLT
.LEHE21:
.L114:
	movq	-8(%rbp), %rbx
	leave
	.cfi_def_cfa 7, 8
	ret
	.cfi_endproc
.LFE10971:
	.section	.gcc_except_table
.LLSDA10971:
	.byte	0xff
	.byte	0xff
	.byte	0x1
	.uleb128 .LLSDACSE10971-.LLSDACSB10971
.LLSDACSB10971:
	.uleb128 .LEHB19-.LFB10971
	.uleb128 .LEHE19-.LEHB19
	.uleb128 0
	.uleb128 0
	.uleb128 .LEHB20-.LFB10971
	.uleb128 .LEHE20-.LEHB20
	.uleb128 .L113-.LFB10971
	.uleb128 0
	.uleb128 .LEHB21-.LFB10971
	.uleb128 .LEHE21-.LEHB21
	.uleb128 0
	.uleb128 0
.LLSDACSE10971:
	.section	.text._ZNSt6vectorIiSaIiEEC2EmRKS0_,"axG",@progbits,_ZNSt6vectorIiSaIiEEC5EmRKS0_,comdat
	.size	_ZNSt6vectorIiSaIiEEC2EmRKS0_, .-_ZNSt6vectorIiSaIiEEC2EmRKS0_
	.weak	_ZNSt6vectorIiSaIiEEC1EmRKS0_
	.set	_ZNSt6vectorIiSaIiEEC1EmRKS0_,_ZNSt6vectorIiSaIiEEC2EmRKS0_
	.section	.text._ZNSt5queueISt4pairIiiESt5dequeIS1_SaIS1_EEED2Ev,"axG",@progbits,_ZNSt5queueISt4pairIiiESt5dequeIS1_SaIS1_EEED5Ev,comdat
	.align 2
	.weak	_ZNSt5queueISt4pairIiiESt5dequeIS1_SaIS1_EEED2Ev
	.type	_ZNSt5queueISt4pairIiiESt5dequeIS1_SaIS1_EEED2Ev, @function
_ZNSt5queueISt4pairIiiESt5dequeIS1_SaIS1_EEED2Ev:
.LFB10976:
	.cfi_startproc
	endbr64
	pushq	%rbp
	.cfi_def_cfa_offset 16
	.cfi_offset 6, -16
	movq	%rsp, %rbp
	.cfi_def_cfa_register 6
	subq	$16, %rsp
	movq	%rdi, -8(%rbp)
	movq	-8(%rbp), %rax
	movq	%rax, %rdi
	call	_ZNSt5dequeISt4pairIiiESaIS1_EED1Ev
	nop
	leave
	.cfi_def_cfa 7, 8
	ret
	.cfi_endproc
.LFE10976:
	.size	_ZNSt5queueISt4pairIiiESt5dequeIS1_SaIS1_EEED2Ev, .-_ZNSt5queueISt4pairIiiESt5dequeIS1_SaIS1_EEED2Ev
	.weak	_ZNSt5queueISt4pairIiiESt5dequeIS1_SaIS1_EEED1Ev
	.set	_ZNSt5queueISt4pairIiiESt5dequeIS1_SaIS1_EEED1Ev,_ZNSt5queueISt4pairIiiESt5dequeIS1_SaIS1_EEED2Ev
	.section	.text._Z3bfsIiET_S0_S0_RSt6vectorIS1_IS0_SaIS0_EESaIS3_EES6_RS3_,"axG",@progbits,_Z3bfsIiET_S0_S0_RSt6vectorIS1_IS0_SaIS0_EESaIS3_EES6_RS3_,comdat
	.weak	_Z3bfsIiET_S0_S0_RSt6vectorIS1_IS0_SaIS0_EESaIS3_EES6_RS3_
	.type	_Z3bfsIiET_S0_S0_RSt6vectorIS1_IS0_SaIS0_EESaIS3_EES6_RS3_, @function
_Z3bfsIiET_S0_S0_RSt6vectorIS1_IS0_SaIS0_EESaIS3_EES6_RS3_:
.LFB10973:
	.cfi_startproc
	.cfi_personality 0x9b,DW.ref.__gxx_personality_v0
	.cfi_lsda 0x1b,.LLSDA10973
	endbr64
	pushq	%rbp
	.cfi_def_cfa_offset 16
	.cfi_offset 6, -16
	movq	%rsp, %rbp
	.cfi_def_cfa_register 6
	pushq	%rbx
	subq	$216, %rsp
	.cfi_offset 3, -24
	movl	%edi, -196(%rbp)
	movl	%esi, -200(%rbp)
	movq	%rdx, -208(%rbp)
	movq	%rcx, -216(%rbp)
	movq	%r8, -224(%rbp)
	movq	%fs:40, %rax
	movq	%rax, -24(%rbp)
	xorl	%eax, %eax
	movq	-224(%rbp), %rax
	movq	%rax, -152(%rbp)
	movq	-152(%rbp), %rax
	movq	%rax, %rdi
	call	_ZNSt6vectorIiSaIiEE5beginEv
	movq	%rax, -120(%rbp)
	movq	-152(%rbp), %rax
	movq	%rax, %rdi
	call	_ZNSt6vectorIiSaIiEE3endEv
	movq	%rax, -112(%rbp)
	jmp	.L117
.L118:
	leaq	-120(%rbp), %rax
	movq	%rax, %rdi
	call	_ZNK9__gnu_cxx17__normal_iteratorIPiSt6vectorIiSaIiEEEdeEv
	movq	%rax, -128(%rbp)
	movq	-128(%rbp), %rax
	movl	$-1, (%rax)
	leaq	-120(%rbp), %rax
	movq	%rax, %rdi
	call	_ZN9__gnu_cxx17__normal_iteratorIPiSt6vectorIiSaIiEEEppEv
.L117:
	leaq	-112(%rbp), %rdx
	leaq	-120(%rbp), %rax
	movq	%rdx, %rsi
	movq	%rax, %rdi
	call	_ZN9__gnu_cxxneIPiSt6vectorIiSaIiEEEEbRKNS_17__normal_iteratorIT_T0_EESA_
	testb	%al, %al
	jne	.L118
	movl	-196(%rbp), %eax
	movslq	%eax, %rdx
	movq	-224(%rbp), %rax
	movq	%rdx, %rsi
	movq	%rax, %rdi
	call	_ZNSt6vectorIiSaIiEEixEm
	movl	$-2137, (%rax)
	leaq	-112(%rbp), %rax
	movq	%rax, %rdi
.LEHB22:
	call	_ZNSt5queueISt4pairIiiESt5dequeIS1_SaIS1_EEEC1IS4_vEEv
.LEHE22:
	movl	$2147483647, -160(%rbp)
	leaq	-160(%rbp), %rdx
	leaq	-196(%rbp), %rcx
	leaq	-120(%rbp), %rax
	movq	%rcx, %rsi
	movq	%rax, %rdi
	call	_ZNSt4pairIiiEC1IRiiLb1EEEOT_OT0_
	leaq	-120(%rbp), %rdx
	leaq	-112(%rbp), %rax
	movq	%rdx, %rsi
	movq	%rax, %rdi
.LEHB23:
	call	_ZNSt5queueISt4pairIiiESt5dequeIS1_SaIS1_EEE4pushEOS1_
	jmp	.L119
.L127:
	leaq	-112(%rbp), %rax
	movq	%rax, %rdi
	call	_ZNSt5queueISt4pairIiiESt5dequeIS1_SaIS1_EEE5frontEv
	movl	(%rax), %eax
	movl	%eax, -172(%rbp)
	leaq	-112(%rbp), %rax
	movq	%rax, %rdi
	call	_ZNSt5queueISt4pairIiiESt5dequeIS1_SaIS1_EEE5frontEv
	movl	4(%rax), %eax
	movl	%eax, -180(%rbp)
	leaq	-112(%rbp), %rax
	movq	%rax, %rdi
	call	_ZNSt5queueISt4pairIiiESt5dequeIS1_SaIS1_EEE3popEv
	movl	-172(%rbp), %eax
	movslq	%eax, %rdx
	movq	-208(%rbp), %rax
	movq	%rdx, %rsi
	movq	%rax, %rdi
	call	_ZNSt6vectorIS_IiSaIiEESaIS1_EEixEm
	movq	%rax, -144(%rbp)
	movq	-144(%rbp), %rax
	movq	%rax, %rdi
	call	_ZNSt6vectorIiSaIiEE5beginEv
	movq	%rax, -168(%rbp)
	movq	-144(%rbp), %rax
	movq	%rax, %rdi
	call	_ZNSt6vectorIiSaIiEE3endEv
	movq	%rax, -160(%rbp)
	jmp	.L120
.L126:
	leaq	-168(%rbp), %rax
	movq	%rax, %rdi
	call	_ZNK9__gnu_cxx17__normal_iteratorIPiSt6vectorIiSaIiEEEdeEv
	movq	%rax, -136(%rbp)
	movq	-136(%rbp), %rax
	movl	(%rax), %eax
	movslq	%eax, %rdx
	movq	-224(%rbp), %rax
	movq	%rdx, %rsi
	movq	%rax, %rdi
	call	_ZNSt6vectorIiSaIiEEixEm
	movl	(%rax), %eax
	cmpl	$-1, %eax
	jne	.L121
	movl	-172(%rbp), %eax
	movslq	%eax, %rdx
	movq	-216(%rbp), %rax
	movq	%rdx, %rsi
	movq	%rax, %rdi
	call	_ZNSt6vectorIS_IiSaIiEESaIS1_EEixEm
	movq	%rax, %rdx
	movq	-136(%rbp), %rax
	movl	(%rax), %eax
	cltq
	movq	%rax, %rsi
	movq	%rdx, %rdi
	call	_ZNSt6vectorIiSaIiEEixEm
	movl	(%rax), %eax
	testl	%eax, %eax
	je	.L121
	movl	$1, %eax
	jmp	.L122
.L121:
	movl	$0, %eax
.L122:
	testb	%al, %al
	je	.L123
	movl	-172(%rbp), %ebx
	movq	-136(%rbp), %rax
	movl	(%rax), %eax
	movslq	%eax, %rdx
	movq	-224(%rbp), %rax
	movq	%rdx, %rsi
	movq	%rax, %rdi
	call	_ZNSt6vectorIiSaIiEEixEm
	movl	%ebx, (%rax)
	movl	-172(%rbp), %eax
	movslq	%eax, %rdx
	movq	-216(%rbp), %rax
	movq	%rdx, %rsi
	movq	%rax, %rdi
	call	_ZNSt6vectorIS_IiSaIiEESaIS1_EEixEm
	movq	%rax, %rdx
	movq	-136(%rbp), %rax
	movl	(%rax), %eax
	cltq
	movq	%rax, %rsi
	movq	%rdx, %rdi
	call	_ZNSt6vectorIiSaIiEEixEm
	movq	%rax, %rdx
	leaq	-180(%rbp), %rax
	movq	%rdx, %rsi
	movq	%rax, %rdi
	call	_ZSt3minIiERKT_S2_S2_
	movl	(%rax), %eax
	movl	%eax, -176(%rbp)
	movq	-136(%rbp), %rax
	movl	(%rax), %eax
	cmpl	%eax, -200(%rbp)
	jne	.L124
	movl	-176(%rbp), %ebx
	jmp	.L125
.L124:
	leaq	-176(%rbp), %rdx
	movq	-136(%rbp), %rcx
	leaq	-120(%rbp), %rax
	movq	%rcx, %rsi
	movq	%rax, %rdi
	call	_ZNSt4pairIiiEC1IRiS2_Lb1EEEOT_OT0_
	leaq	-120(%rbp), %rdx
	leaq	-112(%rbp), %rax
	movq	%rdx, %rsi
	movq	%rax, %rdi
	call	_ZNSt5queueISt4pairIiiESt5dequeIS1_SaIS1_EEE4pushEOS1_
.LEHE23:
.L123:
	leaq	-168(%rbp), %rax
	movq	%rax, %rdi
	call	_ZN9__gnu_cxx17__normal_iteratorIPiSt6vectorIiSaIiEEEppEv
.L120:
	leaq	-160(%rbp), %rdx
	leaq	-168(%rbp), %rax
	movq	%rdx, %rsi
	movq	%rax, %rdi
	call	_ZN9__gnu_cxxneIPiSt6vectorIiSaIiEEEEbRKNS_17__normal_iteratorIT_T0_EESA_
	testb	%al, %al
	jne	.L126
.L119:
	leaq	-112(%rbp), %rax
	movq	%rax, %rdi
	call	_ZNKSt5queueISt4pairIiiESt5dequeIS1_SaIS1_EEE5emptyEv
	xorl	$1, %eax
	testb	%al, %al
	jne	.L127
	movl	$0, %ebx
.L125:
	leaq	-112(%rbp), %rax
	movq	%rax, %rdi
	call	_ZNSt5queueISt4pairIiiESt5dequeIS1_SaIS1_EEED1Ev
	movl	%ebx, %eax
	movq	-24(%rbp), %rdx
	subq	%fs:40, %rdx
	je	.L131
	jmp	.L133
.L132:
	endbr64
	movq	%rax, %rbx
	leaq	-112(%rbp), %rax
	movq	%rax, %rdi
	call	_ZNSt5queueISt4pairIiiESt5dequeIS1_SaIS1_EEED1Ev
	movq	%rbx, %rax
	movq	-24(%rbp), %rdx
	subq	%fs:40, %rdx
	je	.L130
	call	__stack_chk_fail@PLT
.L130:
	movq	%rax, %rdi
.LEHB24:
	call	_Unwind_Resume@PLT
.LEHE24:
.L133:
	call	__stack_chk_fail@PLT
.L131:
	movq	-8(%rbp), %rbx
	leave
	.cfi_def_cfa 7, 8
	ret
	.cfi_endproc
.LFE10973:
	.section	.gcc_except_table
.LLSDA10973:
	.byte	0xff
	.byte	0xff
	.byte	0x1
	.uleb128 .LLSDACSE10973-.LLSDACSB10973
.LLSDACSB10973:
	.uleb128 .LEHB22-.LFB10973
	.uleb128 .LEHE22-.LEHB22
	.uleb128 0
	.uleb128 0
	.uleb128 .LEHB23-.LFB10973
	.uleb128 .LEHE23-.LEHB23
	.uleb128 .L132-.LFB10973
	.uleb128 0
	.uleb128 .LEHB24-.LFB10973
	.uleb128 .LEHE24-.LEHB24
	.uleb128 0
	.uleb128 0
.LLSDACSE10973:
	.section	.text._Z3bfsIiET_S0_S0_RSt6vectorIS1_IS0_SaIS0_EESaIS3_EES6_RS3_,"axG",@progbits,_Z3bfsIiET_S0_S0_RSt6vectorIS1_IS0_SaIS0_EESaIS3_EES6_RS3_,comdat
	.size	_Z3bfsIiET_S0_S0_RSt6vectorIS1_IS0_SaIS0_EESaIS3_EES6_RS3_, .-_Z3bfsIiET_S0_S0_RSt6vectorIS1_IS0_SaIS0_EESaIS3_EES6_RS3_
	.section	.text._ZSt8_DestroyIPiEvT_S1_,"axG",@progbits,_ZSt8_DestroyIPiEvT_S1_,comdat
	.weak	_ZSt8_DestroyIPiEvT_S1_
	.type	_ZSt8_DestroyIPiEvT_S1_, @function
_ZSt8_DestroyIPiEvT_S1_:
.LFB11197:
	.cfi_startproc
	endbr64
	pushq	%rbp
	.cfi_def_cfa_offset 16
	.cfi_offset 6, -16
	movq	%rsp, %rbp
	.cfi_def_cfa_register 6
	subq	$16, %rsp
	movq	%rdi, -8(%rbp)
	movq	%rsi, -16(%rbp)
	movq	-16(%rbp), %rdx
	movq	-8(%rbp), %rax
	movq	%rdx, %rsi
	movq	%rax, %rdi
	call	_ZNSt12_Destroy_auxILb1EE9__destroyIPiEEvT_S3_
	nop
	leave
	.cfi_def_cfa 7, 8
	ret
	.cfi_endproc
.LFE11197:
	.size	_ZSt8_DestroyIPiEvT_S1_, .-_ZSt8_DestroyIPiEvT_S1_
	.section	.text._ZNSt6vectorIS_IiSaIiEESaIS1_EE11_S_max_sizeERKS2_,"axG",@progbits,_ZNSt6vectorIS_IiSaIiEESaIS1_EE11_S_max_sizeERKS2_,comdat
	.weak	_ZNSt6vectorIS_IiSaIiEESaIS1_EE11_S_max_sizeERKS2_
	.type	_ZNSt6vectorIS_IiSaIiEESaIS1_EE11_S_max_sizeERKS2_, @function
_ZNSt6vectorIS_IiSaIiEESaIS1_EE11_S_max_sizeERKS2_:
.LFB11198:
	.cfi_startproc
	endbr64
	pushq	%rbp
	.cfi_def_cfa_offset 16
	.cfi_offset 6, -16
	movq	%rsp, %rbp
	.cfi_def_cfa_register 6
	subq	$64, %rsp
	movq	%rdi, -56(%rbp)
	movq	%fs:40, %rax
	movq	%rax, -8(%rbp)
	xorl	%eax, %eax
	movabsq	$384307168202282325, %rax
	movq	%rax, -48(%rbp)
	movq	-56(%rbp), %rax
	movq	%rax, -32(%rbp)
	movq	-32(%rbp), %rax
	movq	%rax, -24(%rbp)
	movq	-24(%rbp), %rax
	movq	%rax, -16(%rbp)
	movabsq	$384307168202282325, %rax
	nop
	nop
	movq	%rax, -40(%rbp)
	leaq	-40(%rbp), %rdx
	leaq	-48(%rbp), %rax
	movq	%rdx, %rsi
	movq	%rax, %rdi
	call	_ZSt3minImERKT_S2_S2_
	movq	(%rax), %rax
	movq	-8(%rbp), %rdx
	subq	%fs:40, %rdx
	je	.L140
	call	__stack_chk_fail@PLT
.L140:
	leave
	.cfi_def_cfa 7, 8
	ret
	.cfi_endproc
.LFE11198:
	.size	_ZNSt6vectorIS_IiSaIiEESaIS1_EE11_S_max_sizeERKS2_, .-_ZNSt6vectorIS_IiSaIiEESaIS1_EE11_S_max_sizeERKS2_
	.section	.text._ZNSt12_Vector_baseISt6vectorIiSaIiEESaIS2_EE12_Vector_implC2ERKS3_,"axG",@progbits,_ZNSt12_Vector_baseISt6vectorIiSaIiEESaIS2_EE12_Vector_implC5ERKS3_,comdat
	.align 2
	.weak	_ZNSt12_Vector_baseISt6vectorIiSaIiEESaIS2_EE12_Vector_implC2ERKS3_
	.type	_ZNSt12_Vector_baseISt6vectorIiSaIiEESaIS2_EE12_Vector_implC2ERKS3_, @function
_ZNSt12_Vector_baseISt6vectorIiSaIiEESaIS2_EE12_Vector_implC2ERKS3_:
.LFB11203:
	.cfi_startproc
	endbr64
	pushq	%rbp
	.cfi_def_cfa_offset 16
	.cfi_offset 6, -16
	movq	%rsp, %rbp
	.cfi_def_cfa_register 6
	subq	$48, %rsp
	movq	%rdi, -40(%rbp)
	movq	%rsi, -48(%rbp)
	movq	-40(%rbp), %rax
	movq	%rax, -32(%rbp)
	movq	-48(%rbp), %rax
	movq	%rax, -24(%rbp)
	movq	-32(%rbp), %rax
	movq	%rax, -16(%rbp)
	movq	-24(%rbp), %rax
	movq	%rax, -8(%rbp)
	nop
	nop
	movq	-40(%rbp), %rax
	movq	%rax, %rdi
	call	_ZNSt12_Vector_baseISt6vectorIiSaIiEESaIS2_EE17_Vector_impl_dataC2Ev
	nop
	leave
	.cfi_def_cfa 7, 8
	ret
	.cfi_endproc
.LFE11203:
	.size	_ZNSt12_Vector_baseISt6vectorIiSaIiEESaIS2_EE12_Vector_implC2ERKS3_, .-_ZNSt12_Vector_baseISt6vectorIiSaIiEESaIS2_EE12_Vector_implC2ERKS3_
	.weak	_ZNSt12_Vector_baseISt6vectorIiSaIiEESaIS2_EE12_Vector_implC1ERKS3_
	.set	_ZNSt12_Vector_baseISt6vectorIiSaIiEESaIS2_EE12_Vector_implC1ERKS3_,_ZNSt12_Vector_baseISt6vectorIiSaIiEESaIS2_EE12_Vector_implC2ERKS3_
	.section	.text._ZNSt12_Vector_baseISt6vectorIiSaIiEESaIS2_EE17_M_create_storageEm,"axG",@progbits,_ZNSt12_Vector_baseISt6vectorIiSaIiEESaIS2_EE17_M_create_storageEm,comdat
	.align 2
	.weak	_ZNSt12_Vector_baseISt6vectorIiSaIiEESaIS2_EE17_M_create_storageEm
	.type	_ZNSt12_Vector_baseISt6vectorIiSaIiEESaIS2_EE17_M_create_storageEm, @function
_ZNSt12_Vector_baseISt6vectorIiSaIiEESaIS2_EE17_M_create_storageEm:
.LFB11205:
	.cfi_startproc
	endbr64
	pushq	%rbp
	.cfi_def_cfa_offset 16
	.cfi_offset 6, -16
	movq	%rsp, %rbp
	.cfi_def_cfa_register 6
	subq	$16, %rsp
	movq	%rdi, -8(%rbp)
	movq	%rsi, -16(%rbp)
	movq	-16(%rbp), %rdx
	movq	-8(%rbp), %rax
	movq	%rdx, %rsi
	movq	%rax, %rdi
	call	_ZNSt12_Vector_baseISt6vectorIiSaIiEESaIS2_EE11_M_allocateEm
	movq	-8(%rbp), %rdx
	movq	%rax, (%rdx)
	movq	-8(%rbp), %rax
	movq	(%rax), %rdx
	movq	-8(%rbp), %rax
	movq	%rdx, 8(%rax)
	movq	-8(%rbp), %rax
	movq	(%rax), %rcx
	movq	-16(%rbp), %rdx
	movq	%rdx, %rax
	addq	%rax, %rax
	addq	%rdx, %rax
	salq	$3, %rax
	leaq	(%rcx,%rax), %rdx
	movq	-8(%rbp), %rax
	movq	%rdx, 16(%rax)
	nop
	leave
	.cfi_def_cfa 7, 8
	ret
	.cfi_endproc
.LFE11205:
	.size	_ZNSt12_Vector_baseISt6vectorIiSaIiEESaIS2_EE17_M_create_storageEm, .-_ZNSt12_Vector_baseISt6vectorIiSaIiEESaIS2_EE17_M_create_storageEm
	.section	.text._ZNSt12_Vector_baseISt6vectorIiSaIiEESaIS2_EE13_M_deallocateEPS2_m,"axG",@progbits,_ZNSt12_Vector_baseISt6vectorIiSaIiEESaIS2_EE13_M_deallocateEPS2_m,comdat
	.align 2
	.weak	_ZNSt12_Vector_baseISt6vectorIiSaIiEESaIS2_EE13_M_deallocateEPS2_m
	.type	_ZNSt12_Vector_baseISt6vectorIiSaIiEESaIS2_EE13_M_deallocateEPS2_m, @function
_ZNSt12_Vector_baseISt6vectorIiSaIiEESaIS2_EE13_M_deallocateEPS2_m:
.LFB11206:
	.cfi_startproc
	endbr64
	pushq	%rbp
	.cfi_def_cfa_offset 16
	.cfi_offset 6, -16
	movq	%rsp, %rbp
	.cfi_def_cfa_register 6
	subq	$64, %rsp
	movq	%rdi, -40(%rbp)
	movq	%rsi, -48(%rbp)
	movq	%rdx, -56(%rbp)
	cmpq	$0, -48(%rbp)
	je	.L145
	movq	-40(%rbp), %rax
	movq	%rax, -24(%rbp)
	movq	-48(%rbp), %rax
	movq	%rax, -16(%rbp)
	movq	-56(%rbp), %rax
	movq	%rax, -8(%rbp)
	movq	-8(%rbp), %rdx
	movq	-16(%rbp), %rcx
	movq	-24(%rbp), %rax
	movq	%rcx, %rsi
	movq	%rax, %rdi
	call	_ZNSt15__new_allocatorISt6vectorIiSaIiEEE10deallocateEPS2_m
	nop
.L145:
	nop
	leave
	.cfi_def_cfa 7, 8
	ret
	.cfi_endproc
.LFE11206:
	.size	_ZNSt12_Vector_baseISt6vectorIiSaIiEESaIS2_EE13_M_deallocateEPS2_m, .-_ZNSt12_Vector_baseISt6vectorIiSaIiEESaIS2_EE13_M_deallocateEPS2_m
	.section	.text._ZSt24__uninitialized_fill_n_aIPSt6vectorIiSaIiEEmS2_S2_ET_S4_T0_RKT1_RSaIT2_E,"axG",@progbits,_ZSt24__uninitialized_fill_n_aIPSt6vectorIiSaIiEEmS2_S2_ET_S4_T0_RKT1_RSaIT2_E,comdat
	.weak	_ZSt24__uninitialized_fill_n_aIPSt6vectorIiSaIiEEmS2_S2_ET_S4_T0_RKT1_RSaIT2_E
	.type	_ZSt24__uninitialized_fill_n_aIPSt6vectorIiSaIiEEmS2_S2_ET_S4_T0_RKT1_RSaIT2_E, @function
_ZSt24__uninitialized_fill_n_aIPSt6vectorIiSaIiEEmS2_S2_ET_S4_T0_RKT1_RSaIT2_E:
.LFB11207:
	.cfi_startproc
	endbr64
	pushq	%rbp
	.cfi_def_cfa_offset 16
	.cfi_offset 6, -16
	movq	%rsp, %rbp
	.cfi_def_cfa_register 6
	subq	$32, %rsp
	movq	%rdi, -8(%rbp)
	movq	%rsi, -16(%rbp)
	movq	%rdx, -24(%rbp)
	movq	%rcx, -32(%rbp)
	movq	-24(%rbp), %rdx
	movq	-16(%rbp), %rcx
	movq	-8(%rbp), %rax
	movq	%rcx, %rsi
	movq	%rax, %rdi
	call	_ZSt20uninitialized_fill_nIPSt6vectorIiSaIiEEmS2_ET_S4_T0_RKT1_
	leave
	.cfi_def_cfa 7, 8
	ret
	.cfi_endproc
.LFE11207:
	.size	_ZSt24__uninitialized_fill_n_aIPSt6vectorIiSaIiEEmS2_S2_ET_S4_T0_RKT1_RSaIT2_E, .-_ZSt24__uninitialized_fill_n_aIPSt6vectorIiSaIiEEmS2_S2_ET_S4_T0_RKT1_RSaIT2_E
	.section	.text._ZSt8_DestroyIPSt6vectorIiSaIiEEEvT_S4_,"axG",@progbits,_ZSt8_DestroyIPSt6vectorIiSaIiEEEvT_S4_,comdat
	.weak	_ZSt8_DestroyIPSt6vectorIiSaIiEEEvT_S4_
	.type	_ZSt8_DestroyIPSt6vectorIiSaIiEEEvT_S4_, @function
_ZSt8_DestroyIPSt6vectorIiSaIiEEEvT_S4_:
.LFB11208:
	.cfi_startproc
	endbr64
	pushq	%rbp
	.cfi_def_cfa_offset 16
	.cfi_offset 6, -16
	movq	%rsp, %rbp
	.cfi_def_cfa_register 6
	subq	$16, %rsp
	movq	%rdi, -8(%rbp)
	movq	%rsi, -16(%rbp)
	movq	-16(%rbp), %rdx
	movq	-8(%rbp), %rax
	movq	%rdx, %rsi
	movq	%rax, %rdi
	call	_ZNSt12_Destroy_auxILb0EE9__destroyIPSt6vectorIiSaIiEEEEvT_S6_
	nop
	leave
	.cfi_def_cfa 7, 8
	ret
	.cfi_endproc
.LFE11208:
	.size	_ZSt8_DestroyIPSt6vectorIiSaIiEEEvT_S4_, .-_ZSt8_DestroyIPSt6vectorIiSaIiEEEvT_S4_
	.section	.text._ZNSt6vectorIiSaIiEE11_S_max_sizeERKS0_,"axG",@progbits,_ZNSt6vectorIiSaIiEE11_S_max_sizeERKS0_,comdat
	.weak	_ZNSt6vectorIiSaIiEE11_S_max_sizeERKS0_
	.type	_ZNSt6vectorIiSaIiEE11_S_max_sizeERKS0_, @function
_ZNSt6vectorIiSaIiEE11_S_max_sizeERKS0_:
.LFB11210:
	.cfi_startproc
	endbr64
	pushq	%rbp
	.cfi_def_cfa_offset 16
	.cfi_offset 6, -16
	movq	%rsp, %rbp
	.cfi_def_cfa_register 6
	subq	$64, %rsp
	movq	%rdi, -56(%rbp)
	movq	%fs:40, %rax
	movq	%rax, -8(%rbp)
	xorl	%eax, %eax
	movabsq	$2305843009213693951, %rax
	movq	%rax, -48(%rbp)
	movq	-56(%rbp), %rax
	movq	%rax, -32(%rbp)
	movq	-32(%rbp), %rax
	movq	%rax, -24(%rbp)
	movq	-24(%rbp), %rax
	movq	%rax, -16(%rbp)
	movabsq	$2305843009213693951, %rax
	nop
	nop
	movq	%rax, -40(%rbp)
	leaq	-40(%rbp), %rdx
	leaq	-48(%rbp), %rax
	movq	%rdx, %rsi
	movq	%rax, %rdi
	call	_ZSt3minImERKT_S2_S2_
	movq	(%rax), %rax
	movq	-8(%rbp), %rdx
	subq	%fs:40, %rdx
	je	.L154
	call	__stack_chk_fail@PLT
.L154:
	leave
	.cfi_def_cfa 7, 8
	ret
	.cfi_endproc
.LFE11210:
	.size	_ZNSt6vectorIiSaIiEE11_S_max_sizeERKS0_, .-_ZNSt6vectorIiSaIiEE11_S_max_sizeERKS0_
	.section	.text._ZNSt12_Vector_baseIiSaIiEE12_Vector_implC2ERKS0_,"axG",@progbits,_ZNSt12_Vector_baseIiSaIiEE12_Vector_implC5ERKS0_,comdat
	.align 2
	.weak	_ZNSt12_Vector_baseIiSaIiEE12_Vector_implC2ERKS0_
	.type	_ZNSt12_Vector_baseIiSaIiEE12_Vector_implC2ERKS0_, @function
_ZNSt12_Vector_baseIiSaIiEE12_Vector_implC2ERKS0_:
.LFB11215:
	.cfi_startproc
	endbr64
	pushq	%rbp
	.cfi_def_cfa_offset 16
	.cfi_offset 6, -16
	movq	%rsp, %rbp
	.cfi_def_cfa_register 6
	subq	$48, %rsp
	movq	%rdi, -40(%rbp)
	movq	%rsi, -48(%rbp)
	movq	-40(%rbp), %rax
	movq	%rax, -32(%rbp)
	movq	-48(%rbp), %rax
	movq	%rax, -24(%rbp)
	movq	-32(%rbp), %rax
	movq	%rax, -16(%rbp)
	movq	-24(%rbp), %rax
	movq	%rax, -8(%rbp)
	nop
	nop
	movq	-40(%rbp), %rax
	movq	%rax, %rdi
	call	_ZNSt12_Vector_baseIiSaIiEE17_Vector_impl_dataC2Ev
	nop
	leave
	.cfi_def_cfa 7, 8
	ret
	.cfi_endproc
.LFE11215:
	.size	_ZNSt12_Vector_baseIiSaIiEE12_Vector_implC2ERKS0_, .-_ZNSt12_Vector_baseIiSaIiEE12_Vector_implC2ERKS0_
	.weak	_ZNSt12_Vector_baseIiSaIiEE12_Vector_implC1ERKS0_
	.set	_ZNSt12_Vector_baseIiSaIiEE12_Vector_implC1ERKS0_,_ZNSt12_Vector_baseIiSaIiEE12_Vector_implC2ERKS0_
	.section	.text._ZNSt12_Vector_baseIiSaIiEE17_M_create_storageEm,"axG",@progbits,_ZNSt12_Vector_baseIiSaIiEE17_M_create_storageEm,comdat
	.align 2
	.weak	_ZNSt12_Vector_baseIiSaIiEE17_M_create_storageEm
	.type	_ZNSt12_Vector_baseIiSaIiEE17_M_create_storageEm, @function
_ZNSt12_Vector_baseIiSaIiEE17_M_create_storageEm:
.LFB11217:
	.cfi_startproc
	endbr64
	pushq	%rbp
	.cfi_def_cfa_offset 16
	.cfi_offset 6, -16
	movq	%rsp, %rbp
	.cfi_def_cfa_register 6
	subq	$16, %rsp
	movq	%rdi, -8(%rbp)
	movq	%rsi, -16(%rbp)
	movq	-16(%rbp), %rdx
	movq	-8(%rbp), %rax
	movq	%rdx, %rsi
	movq	%rax, %rdi
	call	_ZNSt12_Vector_baseIiSaIiEE11_M_allocateEm
	movq	-8(%rbp), %rdx
	movq	%rax, (%rdx)
	movq	-8(%rbp), %rax
	movq	(%rax), %rdx
	movq	-8(%rbp), %rax
	movq	%rdx, 8(%rax)
	movq	-8(%rbp), %rax
	movq	(%rax), %rax
	movq	-16(%rbp), %rdx
	salq	$2, %rdx
	addq	%rax, %rdx
	movq	-8(%rbp), %rax
	movq	%rdx, 16(%rax)
	nop
	leave
	.cfi_def_cfa 7, 8
	ret
	.cfi_endproc
.LFE11217:
	.size	_ZNSt12_Vector_baseIiSaIiEE17_M_create_storageEm, .-_ZNSt12_Vector_baseIiSaIiEE17_M_create_storageEm
	.section	.text._ZSt24__uninitialized_fill_n_aIPimiiET_S1_T0_RKT1_RSaIT2_E,"axG",@progbits,_ZSt24__uninitialized_fill_n_aIPimiiET_S1_T0_RKT1_RSaIT2_E,comdat
	.weak	_ZSt24__uninitialized_fill_n_aIPimiiET_S1_T0_RKT1_RSaIT2_E
	.type	_ZSt24__uninitialized_fill_n_aIPimiiET_S1_T0_RKT1_RSaIT2_E, @function
_ZSt24__uninitialized_fill_n_aIPimiiET_S1_T0_RKT1_RSaIT2_E:
.LFB11218:
	.cfi_startproc
	endbr64
	pushq	%rbp
	.cfi_def_cfa_offset 16
	.cfi_offset 6, -16
	movq	%rsp, %rbp
	.cfi_def_cfa_register 6
	subq	$32, %rsp
	movq	%rdi, -8(%rbp)
	movq	%rsi, -16(%rbp)
	movq	%rdx, -24(%rbp)
	movq	%rcx, -32(%rbp)
	movq	-24(%rbp), %rdx
	movq	-16(%rbp), %rcx
	movq	-8(%rbp), %rax
	movq	%rcx, %rsi
	movq	%rax, %rdi
	call	_ZSt20uninitialized_fill_nIPimiET_S1_T0_RKT1_
	leave
	.cfi_def_cfa 7, 8
	ret
	.cfi_endproc
.LFE11218:
	.size	_ZSt24__uninitialized_fill_n_aIPimiiET_S1_T0_RKT1_RSaIT2_E, .-_ZSt24__uninitialized_fill_n_aIPimiiET_S1_T0_RKT1_RSaIT2_E
	.section	.text._ZSt7forwardIRKiEOT_RNSt16remove_referenceIS2_E4typeE,"axG",@progbits,_ZSt7forwardIRKiEOT_RNSt16remove_referenceIS2_E4typeE,comdat
	.weak	_ZSt7forwardIRKiEOT_RNSt16remove_referenceIS2_E4typeE
	.type	_ZSt7forwardIRKiEOT_RNSt16remove_referenceIS2_E4typeE, @function
_ZSt7forwardIRKiEOT_RNSt16remove_referenceIS2_E4typeE:
.LFB11219:
	.cfi_startproc
	endbr64
	pushq	%rbp
	.cfi_def_cfa_offset 16
	.cfi_offset 6, -16
	movq	%rsp, %rbp
	.cfi_def_cfa_register 6
	movq	%rdi, -8(%rbp)
	movq	-8(%rbp), %rax
	popq	%rbp
	.cfi_def_cfa 7, 8
	ret
	.cfi_endproc
.LFE11219:
	.size	_ZSt7forwardIRKiEOT_RNSt16remove_referenceIS2_E4typeE, .-_ZSt7forwardIRKiEOT_RNSt16remove_referenceIS2_E4typeE
	.section	.text._ZN9__gnu_cxx17__normal_iteratorIPiSt6vectorIiSaIiEEEC2ERKS1_,"axG",@progbits,_ZN9__gnu_cxx17__normal_iteratorIPiSt6vectorIiSaIiEEEC5ERKS1_,comdat
	.align 2
	.weak	_ZN9__gnu_cxx17__normal_iteratorIPiSt6vectorIiSaIiEEEC2ERKS1_
	.type	_ZN9__gnu_cxx17__normal_iteratorIPiSt6vectorIiSaIiEEEC2ERKS1_, @function
_ZN9__gnu_cxx17__normal_iteratorIPiSt6vectorIiSaIiEEEC2ERKS1_:
.LFB11222:
	.cfi_startproc
	endbr64
	pushq	%rbp
	.cfi_def_cfa_offset 16
	.cfi_offset 6, -16
	movq	%rsp, %rbp
	.cfi_def_cfa_register 6
	movq	%rdi, -8(%rbp)
	movq	%rsi, -16(%rbp)
	movq	-16(%rbp), %rax
	movq	(%rax), %rdx
	movq	-8(%rbp), %rax
	movq	%rdx, (%rax)
	nop
	popq	%rbp
	.cfi_def_cfa 7, 8
	ret
	.cfi_endproc
.LFE11222:
	.size	_ZN9__gnu_cxx17__normal_iteratorIPiSt6vectorIiSaIiEEEC2ERKS1_, .-_ZN9__gnu_cxx17__normal_iteratorIPiSt6vectorIiSaIiEEEC2ERKS1_
	.weak	_ZN9__gnu_cxx17__normal_iteratorIPiSt6vectorIiSaIiEEEC1ERKS1_
	.set	_ZN9__gnu_cxx17__normal_iteratorIPiSt6vectorIiSaIiEEEC1ERKS1_,_ZN9__gnu_cxx17__normal_iteratorIPiSt6vectorIiSaIiEEEC2ERKS1_
	.section	.text._ZNKSt6vectorIiSaIiEE12_M_check_lenEmPKc,"axG",@progbits,_ZNKSt6vectorIiSaIiEE12_M_check_lenEmPKc,comdat
	.align 2
	.weak	_ZNKSt6vectorIiSaIiEE12_M_check_lenEmPKc
	.type	_ZNKSt6vectorIiSaIiEE12_M_check_lenEmPKc, @function
_ZNKSt6vectorIiSaIiEE12_M_check_lenEmPKc:
.LFB11224:
	.cfi_startproc
	endbr64
	pushq	%rbp
	.cfi_def_cfa_offset 16
	.cfi_offset 6, -16
	movq	%rsp, %rbp
	.cfi_def_cfa_register 6
	pushq	%rbx
	subq	$72, %rsp
	.cfi_offset 3, -24
	movq	%rdi, -56(%rbp)
	movq	%rsi, -64(%rbp)
	movq	%rdx, -72(%rbp)
	movq	%fs:40, %rax
	movq	%rax, -24(%rbp)
	xorl	%eax, %eax
	movq	-56(%rbp), %rax
	movq	%rax, %rdi
	call	_ZNKSt6vectorIiSaIiEE8max_sizeEv
	movq	%rax, %rbx
	movq	-56(%rbp), %rax
	movq	%rax, %rdi
	call	_ZNKSt6vectorIiSaIiEE4sizeEv
	subq	%rax, %rbx
	movq	%rbx, %rdx
	movq	-64(%rbp), %rax
	cmpq	%rax, %rdx
	setb	%al
	testb	%al, %al
	je	.L163
	movq	-24(%rbp), %rax
	subq	%fs:40, %rax
	je	.L164
	call	__stack_chk_fail@PLT
.L164:
	movq	-72(%rbp), %rax
	movq	%rax, %rdi
	call	_ZSt20__throw_length_errorPKc@PLT
.L163:
	movq	-56(%rbp), %rax
	movq	%rax, %rdi
	call	_ZNKSt6vectorIiSaIiEE4sizeEv
	movq	%rax, %rbx
	movq	-56(%rbp), %rax
	movq	%rax, %rdi
	call	_ZNKSt6vectorIiSaIiEE4sizeEv
	movq	%rax, -40(%rbp)
	leaq	-64(%rbp), %rdx
	leaq	-40(%rbp), %rax
	movq	%rdx, %rsi
	movq	%rax, %rdi
	call	_ZSt3maxImERKT_S2_S2_
	movq	(%rax), %rax
	addq	%rbx, %rax
	movq	%rax, -32(%rbp)
	movq	-56(%rbp), %rax
	movq	%rax, %rdi
	call	_ZNKSt6vectorIiSaIiEE4sizeEv
	cmpq	%rax, -32(%rbp)
	jb	.L165
	movq	-56(%rbp), %rax
	movq	%rax, %rdi
	call	_ZNKSt6vectorIiSaIiEE8max_sizeEv
	cmpq	-32(%rbp), %rax
	jnb	.L166
.L165:
	movq	-56(%rbp), %rax
	movq	%rax, %rdi
	call	_ZNKSt6vectorIiSaIiEE8max_sizeEv
	jmp	.L167
.L166:
	movq	-32(%rbp), %rax
.L167:
	movq	-24(%rbp), %rdx
	subq	%fs:40, %rdx
	je	.L169
	call	__stack_chk_fail@PLT
.L169:
	movq	-8(%rbp), %rbx
	leave
	.cfi_def_cfa 7, 8
	ret
	.cfi_endproc
.LFE11224:
	.size	_ZNKSt6vectorIiSaIiEE12_M_check_lenEmPKc, .-_ZNKSt6vectorIiSaIiEE12_M_check_lenEmPKc
	.section	.text._ZNSt6vectorIiSaIiEE5beginEv,"axG",@progbits,_ZNSt6vectorIiSaIiEE5beginEv,comdat
	.align 2
	.weak	_ZNSt6vectorIiSaIiEE5beginEv
	.type	_ZNSt6vectorIiSaIiEE5beginEv, @function
_ZNSt6vectorIiSaIiEE5beginEv:
.LFB11225:
	.cfi_startproc
	endbr64
	pushq	%rbp
	.cfi_def_cfa_offset 16
	.cfi_offset 6, -16
	movq	%rsp, %rbp
	.cfi_def_cfa_register 6
	subq	$32, %rsp
	movq	%rdi, -24(%rbp)
	movq	%fs:40, %rax
	movq	%rax, -8(%rbp)
	xorl	%eax, %eax
	movq	-24(%rbp), %rdx
	leaq	-16(%rbp), %rax
	movq	%rdx, %rsi
	movq	%rax, %rdi
	call	_ZN9__gnu_cxx17__normal_iteratorIPiSt6vectorIiSaIiEEEC1ERKS1_
	movq	-16(%rbp), %rax
	movq	-8(%rbp), %rdx
	subq	%fs:40, %rdx
	je	.L172
	call	__stack_chk_fail@PLT
.L172:
	leave
	.cfi_def_cfa 7, 8
	ret
	.cfi_endproc
.LFE11225:
	.size	_ZNSt6vectorIiSaIiEE5beginEv, .-_ZNSt6vectorIiSaIiEE5beginEv
	.section	.text._ZN9__gnu_cxxmiIPiSt6vectorIiSaIiEEEENS_17__normal_iteratorIT_T0_E15difference_typeERKS8_SB_,"axG",@progbits,_ZN9__gnu_cxxmiIPiSt6vectorIiSaIiEEEENS_17__normal_iteratorIT_T0_E15difference_typeERKS8_SB_,comdat
	.weak	_ZN9__gnu_cxxmiIPiSt6vectorIiSaIiEEEENS_17__normal_iteratorIT_T0_E15difference_typeERKS8_SB_
	.type	_ZN9__gnu_cxxmiIPiSt6vectorIiSaIiEEEENS_17__normal_iteratorIT_T0_E15difference_typeERKS8_SB_, @function
_ZN9__gnu_cxxmiIPiSt6vectorIiSaIiEEEENS_17__normal_iteratorIT_T0_E15difference_typeERKS8_SB_:
.LFB11226:
	.cfi_startproc
	endbr64
	pushq	%rbp
	.cfi_def_cfa_offset 16
	.cfi_offset 6, -16
	movq	%rsp, %rbp
	.cfi_def_cfa_register 6
	pushq	%rbx
	subq	$24, %rsp
	.cfi_offset 3, -24
	movq	%rdi, -24(%rbp)
	movq	%rsi, -32(%rbp)
	movq	-24(%rbp), %rax
	movq	%rax, %rdi
	call	_ZNK9__gnu_cxx17__normal_iteratorIPiSt6vectorIiSaIiEEE4baseEv
	movq	(%rax), %rbx
	movq	-32(%rbp), %rax
	movq	%rax, %rdi
	call	_ZNK9__gnu_cxx17__normal_iteratorIPiSt6vectorIiSaIiEEE4baseEv
	movq	(%rax), %rax
	movq	%rbx, %rdx
	subq	%rax, %rdx
	movq	%rdx, %rax
	sarq	$2, %rax
	movq	-8(%rbp), %rbx
	leave
	.cfi_def_cfa 7, 8
	ret
	.cfi_endproc
.LFE11226:
	.size	_ZN9__gnu_cxxmiIPiSt6vectorIiSaIiEEEENS_17__normal_iteratorIT_T0_E15difference_typeERKS8_SB_, .-_ZN9__gnu_cxxmiIPiSt6vectorIiSaIiEEEENS_17__normal_iteratorIT_T0_E15difference_typeERKS8_SB_
	.section	.text._ZNSt12_Vector_baseIiSaIiEE11_M_allocateEm,"axG",@progbits,_ZNSt12_Vector_baseIiSaIiEE11_M_allocateEm,comdat
	.align 2
	.weak	_ZNSt12_Vector_baseIiSaIiEE11_M_allocateEm
	.type	_ZNSt12_Vector_baseIiSaIiEE11_M_allocateEm, @function
_ZNSt12_Vector_baseIiSaIiEE11_M_allocateEm:
.LFB11227:
	.cfi_startproc
	endbr64
	pushq	%rbp
	.cfi_def_cfa_offset 16
	.cfi_offset 6, -16
	movq	%rsp, %rbp
	.cfi_def_cfa_register 6
	subq	$32, %rsp
	movq	%rdi, -24(%rbp)
	movq	%rsi, -32(%rbp)
	cmpq	$0, -32(%rbp)
	je	.L176
	movq	-24(%rbp), %rax
	movq	%rax, -16(%rbp)
	movq	-32(%rbp), %rax
	movq	%rax, -8(%rbp)
	movq	-8(%rbp), %rcx
	movq	-16(%rbp), %rax
	movl	$0, %edx
	movq	%rcx, %rsi
	movq	%rax, %rdi
	call	_ZNSt15__new_allocatorIiE8allocateEmPKv
	nop
	jmp	.L178
.L176:
	movl	$0, %eax
.L178:
	leave
	.cfi_def_cfa 7, 8
	ret
	.cfi_endproc
.LFE11227:
	.size	_ZNSt12_Vector_baseIiSaIiEE11_M_allocateEm, .-_ZNSt12_Vector_baseIiSaIiEE11_M_allocateEm
	.section	.text._ZNSt6vectorIiSaIiEE11_S_relocateEPiS2_S2_RS0_,"axG",@progbits,_ZNSt6vectorIiSaIiEE11_S_relocateEPiS2_S2_RS0_,comdat
	.weak	_ZNSt6vectorIiSaIiEE11_S_relocateEPiS2_S2_RS0_
	.type	_ZNSt6vectorIiSaIiEE11_S_relocateEPiS2_S2_RS0_, @function
_ZNSt6vectorIiSaIiEE11_S_relocateEPiS2_S2_RS0_:
.LFB11228:
	.cfi_startproc
	endbr64
	pushq	%rbp
	.cfi_def_cfa_offset 16
	.cfi_offset 6, -16
	movq	%rsp, %rbp
	.cfi_def_cfa_register 6
	subq	$32, %rsp
	movq	%rdi, -8(%rbp)
	movq	%rsi, -16(%rbp)
	movq	%rdx, -24(%rbp)
	movq	%rcx, -32(%rbp)
	movq	-32(%rbp), %rcx
	movq	-24(%rbp), %rdx
	movq	-16(%rbp), %rsi
	movq	-8(%rbp), %rax
	movq	%rax, %rdi
	call	_ZSt12__relocate_aIPiS0_SaIiEET0_T_S3_S2_RT1_
	leave
	.cfi_def_cfa 7, 8
	ret
	.cfi_endproc
.LFE11228:
	.size	_ZNSt6vectorIiSaIiEE11_S_relocateEPiS2_S2_RS0_, .-_ZNSt6vectorIiSaIiEE11_S_relocateEPiS2_S2_RS0_
	.section	.text._ZNK9__gnu_cxx17__normal_iteratorIPiSt6vectorIiSaIiEEE4baseEv,"axG",@progbits,_ZNK9__gnu_cxx17__normal_iteratorIPiSt6vectorIiSaIiEEE4baseEv,comdat
	.align 2
	.weak	_ZNK9__gnu_cxx17__normal_iteratorIPiSt6vectorIiSaIiEEE4baseEv
	.type	_ZNK9__gnu_cxx17__normal_iteratorIPiSt6vectorIiSaIiEEE4baseEv, @function
_ZNK9__gnu_cxx17__normal_iteratorIPiSt6vectorIiSaIiEEE4baseEv:
.LFB11229:
	.cfi_startproc
	endbr64
	pushq	%rbp
	.cfi_def_cfa_offset 16
	.cfi_offset 6, -16
	movq	%rsp, %rbp
	.cfi_def_cfa_register 6
	movq	%rdi, -8(%rbp)
	movq	-8(%rbp), %rax
	popq	%rbp
	.cfi_def_cfa 7, 8
	ret
	.cfi_endproc
.LFE11229:
	.size	_ZNK9__gnu_cxx17__normal_iteratorIPiSt6vectorIiSaIiEEE4baseEv, .-_ZNK9__gnu_cxx17__normal_iteratorIPiSt6vectorIiSaIiEEE4baseEv
	.section	.text._ZNSt6vectorIiSaIiEE21_M_default_initializeEm,"axG",@progbits,_ZNSt6vectorIiSaIiEE21_M_default_initializeEm,comdat
	.align 2
	.weak	_ZNSt6vectorIiSaIiEE21_M_default_initializeEm
	.type	_ZNSt6vectorIiSaIiEE21_M_default_initializeEm, @function
_ZNSt6vectorIiSaIiEE21_M_default_initializeEm:
.LFB11231:
	.cfi_startproc
	endbr64
	pushq	%rbp
	.cfi_def_cfa_offset 16
	.cfi_offset 6, -16
	movq	%rsp, %rbp
	.cfi_def_cfa_register 6
	subq	$16, %rsp
	movq	%rdi, -8(%rbp)
	movq	%rsi, -16(%rbp)
	movq	-8(%rbp), %rax
	movq	%rax, %rdi
	call	_ZNSt12_Vector_baseIiSaIiEE19_M_get_Tp_allocatorEv
	movq	%rax, %rdx
	movq	-8(%rbp), %rax
	movq	(%rax), %rax
	movq	-16(%rbp), %rcx
	movq	%rcx, %rsi
	movq	%rax, %rdi
	call	_ZSt27__uninitialized_default_n_aIPimiET_S1_T0_RSaIT1_E
	movq	-8(%rbp), %rdx
	movq	%rax, 8(%rdx)
	nop
	leave
	.cfi_def_cfa 7, 8
	ret
	.cfi_endproc
.LFE11231:
	.size	_ZNSt6vectorIiSaIiEE21_M_default_initializeEm, .-_ZNSt6vectorIiSaIiEE21_M_default_initializeEm
	.section	.text._ZN9__gnu_cxxneIPiSt6vectorIiSaIiEEEEbRKNS_17__normal_iteratorIT_T0_EESA_,"axG",@progbits,_ZN9__gnu_cxxneIPiSt6vectorIiSaIiEEEEbRKNS_17__normal_iteratorIT_T0_EESA_,comdat
	.weak	_ZN9__gnu_cxxneIPiSt6vectorIiSaIiEEEEbRKNS_17__normal_iteratorIT_T0_EESA_
	.type	_ZN9__gnu_cxxneIPiSt6vectorIiSaIiEEEEbRKNS_17__normal_iteratorIT_T0_EESA_, @function
_ZN9__gnu_cxxneIPiSt6vectorIiSaIiEEEEbRKNS_17__normal_iteratorIT_T0_EESA_:
.LFB11232:
	.cfi_startproc
	endbr64
	pushq	%rbp
	.cfi_def_cfa_offset 16
	.cfi_offset 6, -16
	movq	%rsp, %rbp
	.cfi_def_cfa_register 6
	pushq	%rbx
	subq	$24, %rsp
	.cfi_offset 3, -24
	movq	%rdi, -24(%rbp)
	movq	%rsi, -32(%rbp)
	movq	-24(%rbp), %rax
	movq	%rax, %rdi
	call	_ZNK9__gnu_cxx17__normal_iteratorIPiSt6vectorIiSaIiEEE4baseEv
	movq	(%rax), %rbx
	movq	-32(%rbp), %rax
	movq	%rax, %rdi
	call	_ZNK9__gnu_cxx17__normal_iteratorIPiSt6vectorIiSaIiEEE4baseEv
	movq	(%rax), %rax
	cmpq	%rax, %rbx
	setne	%al
	movq	-8(%rbp), %rbx
	leave
	.cfi_def_cfa 7, 8
	ret
	.cfi_endproc
.LFE11232:
	.size	_ZN9__gnu_cxxneIPiSt6vectorIiSaIiEEEEbRKNS_17__normal_iteratorIT_T0_EESA_, .-_ZN9__gnu_cxxneIPiSt6vectorIiSaIiEEEEbRKNS_17__normal_iteratorIT_T0_EESA_
	.section	.text._ZN9__gnu_cxx17__normal_iteratorIPiSt6vectorIiSaIiEEEppEv,"axG",@progbits,_ZN9__gnu_cxx17__normal_iteratorIPiSt6vectorIiSaIiEEEppEv,comdat
	.align 2
	.weak	_ZN9__gnu_cxx17__normal_iteratorIPiSt6vectorIiSaIiEEEppEv
	.type	_ZN9__gnu_cxx17__normal_iteratorIPiSt6vectorIiSaIiEEEppEv, @function
_ZN9__gnu_cxx17__normal_iteratorIPiSt6vectorIiSaIiEEEppEv:
.LFB11233:
	.cfi_startproc
	endbr64
	pushq	%rbp
	.cfi_def_cfa_offset 16
	.cfi_offset 6, -16
	movq	%rsp, %rbp
	.cfi_def_cfa_register 6
	movq	%rdi, -8(%rbp)
	movq	-8(%rbp), %rax
	movq	(%rax), %rax
	leaq	4(%rax), %rdx
	movq	-8(%rbp), %rax
	movq	%rdx, (%rax)
	movq	-8(%rbp), %rax
	popq	%rbp
	.cfi_def_cfa 7, 8
	ret
	.cfi_endproc
.LFE11233:
	.size	_ZN9__gnu_cxx17__normal_iteratorIPiSt6vectorIiSaIiEEEppEv, .-_ZN9__gnu_cxx17__normal_iteratorIPiSt6vectorIiSaIiEEEppEv
	.section	.text._ZNK9__gnu_cxx17__normal_iteratorIPiSt6vectorIiSaIiEEEdeEv,"axG",@progbits,_ZNK9__gnu_cxx17__normal_iteratorIPiSt6vectorIiSaIiEEEdeEv,comdat
	.align 2
	.weak	_ZNK9__gnu_cxx17__normal_iteratorIPiSt6vectorIiSaIiEEEdeEv
	.type	_ZNK9__gnu_cxx17__normal_iteratorIPiSt6vectorIiSaIiEEEdeEv, @function
_ZNK9__gnu_cxx17__normal_iteratorIPiSt6vectorIiSaIiEEEdeEv:
.LFB11234:
	.cfi_startproc
	endbr64
	pushq	%rbp
	.cfi_def_cfa_offset 16
	.cfi_offset 6, -16
	movq	%rsp, %rbp
	.cfi_def_cfa_register 6
	movq	%rdi, -8(%rbp)
	movq	-8(%rbp), %rax
	movq	(%rax), %rax
	popq	%rbp
	.cfi_def_cfa 7, 8
	ret
	.cfi_endproc
.LFE11234:
	.size	_ZNK9__gnu_cxx17__normal_iteratorIPiSt6vectorIiSaIiEEEdeEv, .-_ZNK9__gnu_cxx17__normal_iteratorIPiSt6vectorIiSaIiEEEdeEv
	.section	.text._ZNSt5dequeISt4pairIiiESaIS1_EEC2Ev,"axG",@progbits,_ZNSt5dequeISt4pairIiiESaIS1_EEC5Ev,comdat
	.align 2
	.weak	_ZNSt5dequeISt4pairIiiESaIS1_EEC2Ev
	.type	_ZNSt5dequeISt4pairIiiESaIS1_EEC2Ev, @function
_ZNSt5dequeISt4pairIiiESaIS1_EEC2Ev:
.LFB11237:
	.cfi_startproc
	endbr64
	pushq	%rbp
	.cfi_def_cfa_offset 16
	.cfi_offset 6, -16
	movq	%rsp, %rbp
	.cfi_def_cfa_register 6
	subq	$16, %rsp
	movq	%rdi, -8(%rbp)
	movq	-8(%rbp), %rax
	movq	%rax, %rdi
	call	_ZNSt11_Deque_baseISt4pairIiiESaIS1_EEC2Ev
	nop
	leave
	.cfi_def_cfa 7, 8
	ret
	.cfi_endproc
.LFE11237:
	.size	_ZNSt5dequeISt4pairIiiESaIS1_EEC2Ev, .-_ZNSt5dequeISt4pairIiiESaIS1_EEC2Ev
	.weak	_ZNSt5dequeISt4pairIiiESaIS1_EEC1Ev
	.set	_ZNSt5dequeISt4pairIiiESaIS1_EEC1Ev,_ZNSt5dequeISt4pairIiiESaIS1_EEC2Ev
	.section	.text._ZNSt5queueISt4pairIiiESt5dequeIS1_SaIS1_EEEC2IS4_vEEv,"axG",@progbits,_ZNSt5queueISt4pairIiiESt5dequeIS1_SaIS1_EEEC5IS4_vEEv,comdat
	.align 2
	.weak	_ZNSt5queueISt4pairIiiESt5dequeIS1_SaIS1_EEEC2IS4_vEEv
	.type	_ZNSt5queueISt4pairIiiESt5dequeIS1_SaIS1_EEEC2IS4_vEEv, @function
_ZNSt5queueISt4pairIiiESt5dequeIS1_SaIS1_EEEC2IS4_vEEv:
.LFB11239:
	.cfi_startproc
	endbr64
	pushq	%rbp
	.cfi_def_cfa_offset 16
	.cfi_offset 6, -16
	movq	%rsp, %rbp
	.cfi_def_cfa_register 6
	subq	$16, %rsp
	movq	%rdi, -8(%rbp)
	movq	-8(%rbp), %rax
	pxor	%xmm0, %xmm0
	movups	%xmm0, (%rax)
	movups	%xmm0, 16(%rax)
	movups	%xmm0, 32(%rax)
	movups	%xmm0, 48(%rax)
	movups	%xmm0, 64(%rax)
	movq	-8(%rbp), %rax
	movq	%rax, %rdi
	call	_ZNSt5dequeISt4pairIiiESaIS1_EEC1Ev
	nop
	leave
	.cfi_def_cfa 7, 8
	ret
	.cfi_endproc
.LFE11239:
	.size	_ZNSt5queueISt4pairIiiESt5dequeIS1_SaIS1_EEEC2IS4_vEEv, .-_ZNSt5queueISt4pairIiiESt5dequeIS1_SaIS1_EEEC2IS4_vEEv
	.weak	_ZNSt5queueISt4pairIiiESt5dequeIS1_SaIS1_EEEC1IS4_vEEv
	.set	_ZNSt5queueISt4pairIiiESt5dequeIS1_SaIS1_EEEC1IS4_vEEv,_ZNSt5queueISt4pairIiiESt5dequeIS1_SaIS1_EEEC2IS4_vEEv
	.section	.text._ZNSt5dequeISt4pairIiiESaIS1_EED2Ev,"axG",@progbits,_ZNSt5dequeISt4pairIiiESaIS1_EED5Ev,comdat
	.align 2
	.weak	_ZNSt5dequeISt4pairIiiESaIS1_EED2Ev
	.type	_ZNSt5dequeISt4pairIiiESaIS1_EED2Ev, @function
_ZNSt5dequeISt4pairIiiESaIS1_EED2Ev:
.LFB11242:
	.cfi_startproc
	.cfi_personality 0x9b,DW.ref.__gxx_personality_v0
	.cfi_lsda 0x1b,.LLSDA11242
	endbr64
	pushq	%rbp
	.cfi_def_cfa_offset 16
	.cfi_offset 6, -16
	movq	%rsp, %rbp
	.cfi_def_cfa_register 6
	pushq	%rbx
	subq	$104, %rsp
	.cfi_offset 3, -24
	movq	%rdi, -104(%rbp)
	movq	%fs:40, %rax
	movq	%rax, -24(%rbp)
	xorl	%eax, %eax
	movq	-104(%rbp), %rax
	movq	%rax, %rdi
	call	_ZNSt11_Deque_baseISt4pairIiiESaIS1_EE19_M_get_Tp_allocatorEv
	movq	%rax, %rbx
	leaq	-64(%rbp), %rax
	movq	-104(%rbp), %rdx
	movq	%rdx, %rsi
	movq	%rax, %rdi
	call	_ZNSt5dequeISt4pairIiiESaIS1_EE3endEv
	leaq	-96(%rbp), %rax
	movq	-104(%rbp), %rdx
	movq	%rdx, %rsi
	movq	%rax, %rdi
	call	_ZNSt5dequeISt4pairIiiESaIS1_EE5beginEv
	leaq	-64(%rbp), %rdx
	leaq	-96(%rbp), %rsi
	movq	-104(%rbp), %rax
	movq	%rbx, %rcx
	movq	%rax, %rdi
	call	_ZNSt5dequeISt4pairIiiESaIS1_EE15_M_destroy_dataESt15_Deque_iteratorIS1_RS1_PS1_ES7_RKS2_
	movq	-104(%rbp), %rax
	movq	%rax, %rdi
	call	_ZNSt11_Deque_baseISt4pairIiiESaIS1_EED2Ev
	nop
	movq	-24(%rbp), %rax
	subq	%fs:40, %rax
	je	.L194
	call	__stack_chk_fail@PLT
.L194:
	movq	-8(%rbp), %rbx
	leave
	.cfi_def_cfa 7, 8
	ret
	.cfi_endproc
.LFE11242:
	.section	.gcc_except_table
.LLSDA11242:
	.byte	0xff
	.byte	0xff
	.byte	0x1
	.uleb128 .LLSDACSE11242-.LLSDACSB11242
.LLSDACSB11242:
.LLSDACSE11242:
	.section	.text._ZNSt5dequeISt4pairIiiESaIS1_EED2Ev,"axG",@progbits,_ZNSt5dequeISt4pairIiiESaIS1_EED5Ev,comdat
	.size	_ZNSt5dequeISt4pairIiiESaIS1_EED2Ev, .-_ZNSt5dequeISt4pairIiiESaIS1_EED2Ev
	.weak	_ZNSt5dequeISt4pairIiiESaIS1_EED1Ev
	.set	_ZNSt5dequeISt4pairIiiESaIS1_EED1Ev,_ZNSt5dequeISt4pairIiiESaIS1_EED2Ev
	.section	.text._ZNSt4pairIiiEC2IRiiLb1EEEOT_OT0_,"axG",@progbits,_ZNSt4pairIiiEC5IRiiLb1EEEOT_OT0_,comdat
	.align 2
	.weak	_ZNSt4pairIiiEC2IRiiLb1EEEOT_OT0_
	.type	_ZNSt4pairIiiEC2IRiiLb1EEEOT_OT0_, @function
_ZNSt4pairIiiEC2IRiiLb1EEEOT_OT0_:
.LFB11245:
	.cfi_startproc
	endbr64
	pushq	%rbp
	.cfi_def_cfa_offset 16
	.cfi_offset 6, -16
	movq	%rsp, %rbp
	.cfi_def_cfa_register 6
	subq	$32, %rsp
	movq	%rdi, -8(%rbp)
	movq	%rsi, -16(%rbp)
	movq	%rdx, -24(%rbp)
	movq	-16(%rbp), %rax
	movq	%rax, %rdi
	call	_ZSt7forwardIRiEOT_RNSt16remove_referenceIS1_E4typeE
	movl	(%rax), %edx
	movq	-8(%rbp), %rax
	movl	%edx, (%rax)
	movq	-24(%rbp), %rax
	movq	%rax, %rdi
	call	_ZSt7forwardIiEOT_RNSt16remove_referenceIS0_E4typeE
	movl	(%rax), %edx
	movq	-8(%rbp), %rax
	movl	%edx, 4(%rax)
	nop
	leave
	.cfi_def_cfa 7, 8
	ret
	.cfi_endproc
.LFE11245:
	.size	_ZNSt4pairIiiEC2IRiiLb1EEEOT_OT0_, .-_ZNSt4pairIiiEC2IRiiLb1EEEOT_OT0_
	.weak	_ZNSt4pairIiiEC1IRiiLb1EEEOT_OT0_
	.set	_ZNSt4pairIiiEC1IRiiLb1EEEOT_OT0_,_ZNSt4pairIiiEC2IRiiLb1EEEOT_OT0_
	.section	.text._ZNSt5queueISt4pairIiiESt5dequeIS1_SaIS1_EEE4pushEOS1_,"axG",@progbits,_ZNSt5queueISt4pairIiiESt5dequeIS1_SaIS1_EEE4pushEOS1_,comdat
	.align 2
	.weak	_ZNSt5queueISt4pairIiiESt5dequeIS1_SaIS1_EEE4pushEOS1_
	.type	_ZNSt5queueISt4pairIiiESt5dequeIS1_SaIS1_EEE4pushEOS1_, @function
_ZNSt5queueISt4pairIiiESt5dequeIS1_SaIS1_EEE4pushEOS1_:
.LFB11247:
	.cfi_startproc
	endbr64
	pushq	%rbp
	.cfi_def_cfa_offset 16
	.cfi_offset 6, -16
	movq	%rsp, %rbp
	.cfi_def_cfa_register 6
	pushq	%rbx
	subq	$24, %rsp
	.cfi_offset 3, -24
	movq	%rdi, -24(%rbp)
	movq	%rsi, -32(%rbp)
	movq	-24(%rbp), %rbx
	movq	-32(%rbp), %rax
	movq	%rax, %rdi
	call	_ZSt4moveIRSt4pairIiiEEONSt16remove_referenceIT_E4typeEOS4_
	movq	%rax, %rsi
	movq	%rbx, %rdi
	call	_ZNSt5dequeISt4pairIiiESaIS1_EE9push_backEOS1_
	nop
	movq	-8(%rbp), %rbx
	leave
	.cfi_def_cfa 7, 8
	ret
	.cfi_endproc
.LFE11247:
	.size	_ZNSt5queueISt4pairIiiESt5dequeIS1_SaIS1_EEE4pushEOS1_, .-_ZNSt5queueISt4pairIiiESt5dequeIS1_SaIS1_EEE4pushEOS1_
	.section	.text._ZNKSt5queueISt4pairIiiESt5dequeIS1_SaIS1_EEE5emptyEv,"axG",@progbits,_ZNKSt5queueISt4pairIiiESt5dequeIS1_SaIS1_EEE5emptyEv,comdat
	.align 2
	.weak	_ZNKSt5queueISt4pairIiiESt5dequeIS1_SaIS1_EEE5emptyEv
	.type	_ZNKSt5queueISt4pairIiiESt5dequeIS1_SaIS1_EEE5emptyEv, @function
_ZNKSt5queueISt4pairIiiESt5dequeIS1_SaIS1_EEE5emptyEv:
.LFB11248:
	.cfi_startproc
	endbr64
	pushq	%rbp
	.cfi_def_cfa_offset 16
	.cfi_offset 6, -16
	movq	%rsp, %rbp
	.cfi_def_cfa_register 6
	subq	$16, %rsp
	movq	%rdi, -8(%rbp)
	movq	-8(%rbp), %rax
	movq	%rax, %rdi
	call	_ZNKSt5dequeISt4pairIiiESaIS1_EE5emptyEv
	leave
	.cfi_def_cfa 7, 8
	ret
	.cfi_endproc
.LFE11248:
	.size	_ZNKSt5queueISt4pairIiiESt5dequeIS1_SaIS1_EEE5emptyEv, .-_ZNKSt5queueISt4pairIiiESt5dequeIS1_SaIS1_EEE5emptyEv
	.section	.text._ZNSt5queueISt4pairIiiESt5dequeIS1_SaIS1_EEE5frontEv,"axG",@progbits,_ZNSt5queueISt4pairIiiESt5dequeIS1_SaIS1_EEE5frontEv,comdat
	.align 2
	.weak	_ZNSt5queueISt4pairIiiESt5dequeIS1_SaIS1_EEE5frontEv
	.type	_ZNSt5queueISt4pairIiiESt5dequeIS1_SaIS1_EEE5frontEv, @function
_ZNSt5queueISt4pairIiiESt5dequeIS1_SaIS1_EEE5frontEv:
.LFB11249:
	.cfi_startproc
	endbr64
	pushq	%rbp
	.cfi_def_cfa_offset 16
	.cfi_offset 6, -16
	movq	%rsp, %rbp
	.cfi_def_cfa_register 6
	subq	$16, %rsp
	movq	%rdi, -8(%rbp)
	movq	-8(%rbp), %rax
	movq	%rax, %rdi
	call	_ZNSt5dequeISt4pairIiiESaIS1_EE5frontEv
	leave
	.cfi_def_cfa 7, 8
	ret
	.cfi_endproc
.LFE11249:
	.size	_ZNSt5queueISt4pairIiiESt5dequeIS1_SaIS1_EEE5frontEv, .-_ZNSt5queueISt4pairIiiESt5dequeIS1_SaIS1_EEE5frontEv
	.section	.text._ZNSt5queueISt4pairIiiESt5dequeIS1_SaIS1_EEE3popEv,"axG",@progbits,_ZNSt5queueISt4pairIiiESt5dequeIS1_SaIS1_EEE3popEv,comdat
	.align 2
	.weak	_ZNSt5queueISt4pairIiiESt5dequeIS1_SaIS1_EEE3popEv
	.type	_ZNSt5queueISt4pairIiiESt5dequeIS1_SaIS1_EEE3popEv, @function
_ZNSt5queueISt4pairIiiESt5dequeIS1_SaIS1_EEE3popEv:
.LFB11250:
	.cfi_startproc
	endbr64
	pushq	%rbp
	.cfi_def_cfa_offset 16
	.cfi_offset 6, -16
	movq	%rsp, %rbp
	.cfi_def_cfa_register 6
	subq	$16, %rsp
	movq	%rdi, -8(%rbp)
	movq	-8(%rbp), %rax
	movq	%rax, %rdi
	call	_ZNSt5dequeISt4pairIiiESaIS1_EE9pop_frontEv
	nop
	leave
	.cfi_def_cfa 7, 8
	ret
	.cfi_endproc
.LFE11250:
	.size	_ZNSt5queueISt4pairIiiESt5dequeIS1_SaIS1_EEE3popEv, .-_ZNSt5queueISt4pairIiiESt5dequeIS1_SaIS1_EEE3popEv
	.section	.text._ZSt3minIiERKT_S2_S2_,"axG",@progbits,_ZSt3minIiERKT_S2_S2_,comdat
	.weak	_ZSt3minIiERKT_S2_S2_
	.type	_ZSt3minIiERKT_S2_S2_, @function
_ZSt3minIiERKT_S2_S2_:
.LFB11251:
	.cfi_startproc
	endbr64
	pushq	%rbp
	.cfi_def_cfa_offset 16
	.cfi_offset 6, -16
	movq	%rsp, %rbp
	.cfi_def_cfa_register 6
	movq	%rdi, -8(%rbp)
	movq	%rsi, -16(%rbp)
	movq	-16(%rbp), %rax
	movl	(%rax), %edx
	movq	-8(%rbp), %rax
	movl	(%rax), %eax
	cmpl	%eax, %edx
	jge	.L203
	movq	-16(%rbp), %rax
	jmp	.L204
.L203:
	movq	-8(%rbp), %rax
.L204:
	popq	%rbp
	.cfi_def_cfa 7, 8
	ret
	.cfi_endproc
.LFE11251:
	.size	_ZSt3minIiERKT_S2_S2_, .-_ZSt3minIiERKT_S2_S2_
	.section	.text._ZNSt4pairIiiEC2IRiS2_Lb1EEEOT_OT0_,"axG",@progbits,_ZNSt4pairIiiEC5IRiS2_Lb1EEEOT_OT0_,comdat
	.align 2
	.weak	_ZNSt4pairIiiEC2IRiS2_Lb1EEEOT_OT0_
	.type	_ZNSt4pairIiiEC2IRiS2_Lb1EEEOT_OT0_, @function
_ZNSt4pairIiiEC2IRiS2_Lb1EEEOT_OT0_:
.LFB11253:
	.cfi_startproc
	endbr64
	pushq	%rbp
	.cfi_def_cfa_offset 16
	.cfi_offset 6, -16
	movq	%rsp, %rbp
	.cfi_def_cfa_register 6
	subq	$32, %rsp
	movq	%rdi, -8(%rbp)
	movq	%rsi, -16(%rbp)
	movq	%rdx, -24(%rbp)
	movq	-16(%rbp), %rax
	movq	%rax, %rdi
	call	_ZSt7forwardIRiEOT_RNSt16remove_referenceIS1_E4typeE
	movl	(%rax), %edx
	movq	-8(%rbp), %rax
	movl	%edx, (%rax)
	movq	-24(%rbp), %rax
	movq	%rax, %rdi
	call	_ZSt7forwardIRiEOT_RNSt16remove_referenceIS1_E4typeE
	movl	(%rax), %edx
	movq	-8(%rbp), %rax
	movl	%edx, 4(%rax)
	nop
	leave
	.cfi_def_cfa 7, 8
	ret
	.cfi_endproc
.LFE11253:
	.size	_ZNSt4pairIiiEC2IRiS2_Lb1EEEOT_OT0_, .-_ZNSt4pairIiiEC2IRiS2_Lb1EEEOT_OT0_
	.weak	_ZNSt4pairIiiEC1IRiS2_Lb1EEEOT_OT0_
	.set	_ZNSt4pairIiiEC1IRiS2_Lb1EEEOT_OT0_,_ZNSt4pairIiiEC2IRiS2_Lb1EEEOT_OT0_
	.section	.text._ZNSt15__new_allocatorIiE10deallocateEPim,"axG",@progbits,_ZNSt15__new_allocatorIiE10deallocateEPim,comdat
	.align 2
	.weak	_ZNSt15__new_allocatorIiE10deallocateEPim
	.type	_ZNSt15__new_allocatorIiE10deallocateEPim, @function
_ZNSt15__new_allocatorIiE10deallocateEPim:
.LFB11402:
	.cfi_startproc
	endbr64
	pushq	%rbp
	.cfi_def_cfa_offset 16
	.cfi_offset 6, -16
	movq	%rsp, %rbp
	.cfi_def_cfa_register 6
	subq	$32, %rsp
	movq	%rdi, -8(%rbp)
	movq	%rsi, -16(%rbp)
	movq	%rdx, -24(%rbp)
	movq	-24(%rbp), %rax
	leaq	0(,%rax,4), %rdx
	movq	-16(%rbp), %rax
	movq	%rdx, %rsi
	movq	%rax, %rdi
	call	_ZdlPvm@PLT
	leave
	.cfi_def_cfa 7, 8
	ret
	.cfi_endproc
.LFE11402:
	.size	_ZNSt15__new_allocatorIiE10deallocateEPim, .-_ZNSt15__new_allocatorIiE10deallocateEPim
	.section	.text._ZNSt12_Destroy_auxILb1EE9__destroyIPiEEvT_S3_,"axG",@progbits,_ZNSt12_Destroy_auxILb1EE9__destroyIPiEEvT_S3_,comdat
	.weak	_ZNSt12_Destroy_auxILb1EE9__destroyIPiEEvT_S3_
	.type	_ZNSt12_Destroy_auxILb1EE9__destroyIPiEEvT_S3_, @function
_ZNSt12_Destroy_auxILb1EE9__destroyIPiEEvT_S3_:
.LFB11403:
	.cfi_startproc
	endbr64
	pushq	%rbp
	.cfi_def_cfa_offset 16
	.cfi_offset 6, -16
	movq	%rsp, %rbp
	.cfi_def_cfa_register 6
	movq	%rdi, -8(%rbp)
	movq	%rsi, -16(%rbp)
	nop
	popq	%rbp
	.cfi_def_cfa 7, 8
	ret
	.cfi_endproc
.LFE11403:
	.size	_ZNSt12_Destroy_auxILb1EE9__destroyIPiEEvT_S3_, .-_ZNSt12_Destroy_auxILb1EE9__destroyIPiEEvT_S3_
	.section	.text._ZNSt12_Vector_baseISt6vectorIiSaIiEESaIS2_EE17_Vector_impl_dataC2Ev,"axG",@progbits,_ZNSt12_Vector_baseISt6vectorIiSaIiEESaIS2_EE17_Vector_impl_dataC5Ev,comdat
	.align 2
	.weak	_ZNSt12_Vector_baseISt6vectorIiSaIiEESaIS2_EE17_Vector_impl_dataC2Ev
	.type	_ZNSt12_Vector_baseISt6vectorIiSaIiEESaIS2_EE17_Vector_impl_dataC2Ev, @function
_ZNSt12_Vector_baseISt6vectorIiSaIiEESaIS2_EE17_Vector_impl_dataC2Ev:
.LFB11409:
	.cfi_startproc
	endbr64
	pushq	%rbp
	.cfi_def_cfa_offset 16
	.cfi_offset 6, -16
	movq	%rsp, %rbp
	.cfi_def_cfa_register 6
	movq	%rdi, -8(%rbp)
	movq	-8(%rbp), %rax
	movq	$0, (%rax)
	movq	-8(%rbp), %rax
	movq	$0, 8(%rax)
	movq	-8(%rbp), %rax
	movq	$0, 16(%rax)
	nop
	popq	%rbp
	.cfi_def_cfa 7, 8
	ret
	.cfi_endproc
.LFE11409:
	.size	_ZNSt12_Vector_baseISt6vectorIiSaIiEESaIS2_EE17_Vector_impl_dataC2Ev, .-_ZNSt12_Vector_baseISt6vectorIiSaIiEESaIS2_EE17_Vector_impl_dataC2Ev
	.weak	_ZNSt12_Vector_baseISt6vectorIiSaIiEESaIS2_EE17_Vector_impl_dataC1Ev
	.set	_ZNSt12_Vector_baseISt6vectorIiSaIiEESaIS2_EE17_Vector_impl_dataC1Ev,_ZNSt12_Vector_baseISt6vectorIiSaIiEESaIS2_EE17_Vector_impl_dataC2Ev
	.section	.text._ZNSt12_Vector_baseISt6vectorIiSaIiEESaIS2_EE11_M_allocateEm,"axG",@progbits,_ZNSt12_Vector_baseISt6vectorIiSaIiEESaIS2_EE11_M_allocateEm,comdat
	.align 2
	.weak	_ZNSt12_Vector_baseISt6vectorIiSaIiEESaIS2_EE11_M_allocateEm
	.type	_ZNSt12_Vector_baseISt6vectorIiSaIiEESaIS2_EE11_M_allocateEm, @function
_ZNSt12_Vector_baseISt6vectorIiSaIiEESaIS2_EE11_M_allocateEm:
.LFB11411:
	.cfi_startproc
	endbr64
	pushq	%rbp
	.cfi_def_cfa_offset 16
	.cfi_offset 6, -16
	movq	%rsp, %rbp
	.cfi_def_cfa_register 6
	subq	$32, %rsp
	movq	%rdi, -24(%rbp)
	movq	%rsi, -32(%rbp)
	cmpq	$0, -32(%rbp)
	je	.L211
	movq	-24(%rbp), %rax
	movq	%rax, -16(%rbp)
	movq	-32(%rbp), %rax
	movq	%rax, -8(%rbp)
	movq	-8(%rbp), %rcx
	movq	-16(%rbp), %rax
	movl	$0, %edx
	movq	%rcx, %rsi
	movq	%rax, %rdi
	call	_ZNSt15__new_allocatorISt6vectorIiSaIiEEE8allocateEmPKv
	nop
	jmp	.L213
.L211:
	movl	$0, %eax
.L213:
	leave
	.cfi_def_cfa 7, 8
	ret
	.cfi_endproc
.LFE11411:
	.size	_ZNSt12_Vector_baseISt6vectorIiSaIiEESaIS2_EE11_M_allocateEm, .-_ZNSt12_Vector_baseISt6vectorIiSaIiEESaIS2_EE11_M_allocateEm
	.section	.text._ZSt20uninitialized_fill_nIPSt6vectorIiSaIiEEmS2_ET_S4_T0_RKT1_,"axG",@progbits,_ZSt20uninitialized_fill_nIPSt6vectorIiSaIiEEmS2_ET_S4_T0_RKT1_,comdat
	.weak	_ZSt20uninitialized_fill_nIPSt6vectorIiSaIiEEmS2_ET_S4_T0_RKT1_
	.type	_ZSt20uninitialized_fill_nIPSt6vectorIiSaIiEEmS2_ET_S4_T0_RKT1_, @function
_ZSt20uninitialized_fill_nIPSt6vectorIiSaIiEEmS2_ET_S4_T0_RKT1_:
.LFB11413:
	.cfi_startproc
	endbr64
	pushq	%rbp
	.cfi_def_cfa_offset 16
	.cfi_offset 6, -16
	movq	%rsp, %rbp
	.cfi_def_cfa_register 6
	subq	$48, %rsp
	movq	%rdi, -24(%rbp)
	movq	%rsi, -32(%rbp)
	movq	%rdx, -40(%rbp)
	movb	$0, -1(%rbp)
	movq	-40(%rbp), %rdx
	movq	-32(%rbp), %rcx
	movq	-24(%rbp), %rax
	movq	%rcx, %rsi
	movq	%rax, %rdi
	call	_ZNSt22__uninitialized_fill_nILb0EE15__uninit_fill_nIPSt6vectorIiSaIiEEmS4_EET_S6_T0_RKT1_
	leave
	.cfi_def_cfa 7, 8
	ret
	.cfi_endproc
.LFE11413:
	.size	_ZSt20uninitialized_fill_nIPSt6vectorIiSaIiEEmS2_ET_S4_T0_RKT1_, .-_ZSt20uninitialized_fill_nIPSt6vectorIiSaIiEEmS2_ET_S4_T0_RKT1_
	.section	.text._ZNSt12_Destroy_auxILb0EE9__destroyIPSt6vectorIiSaIiEEEEvT_S6_,"axG",@progbits,_ZNSt12_Destroy_auxILb0EE9__destroyIPSt6vectorIiSaIiEEEEvT_S6_,comdat
	.weak	_ZNSt12_Destroy_auxILb0EE9__destroyIPSt6vectorIiSaIiEEEEvT_S6_
	.type	_ZNSt12_Destroy_auxILb0EE9__destroyIPSt6vectorIiSaIiEEEEvT_S6_, @function
_ZNSt12_Destroy_auxILb0EE9__destroyIPSt6vectorIiSaIiEEEEvT_S6_:
.LFB11415:
	.cfi_startproc
	endbr64
	pushq	%rbp
	.cfi_def_cfa_offset 16
	.cfi_offset 6, -16
	movq	%rsp, %rbp
	.cfi_def_cfa_register 6
	subq	$16, %rsp
	movq	%rdi, -8(%rbp)
	movq	%rsi, -16(%rbp)
	jmp	.L218
.L219:
	movq	-8(%rbp), %rax
	movq	%rax, %rdi
	call	_ZSt11__addressofISt6vectorIiSaIiEEEPT_RS3_
	movq	%rax, %rdi
	call	_ZSt8_DestroyISt6vectorIiSaIiEEEvPT_
	addq	$24, -8(%rbp)
.L218:
	movq	-8(%rbp), %rax
	cmpq	-16(%rbp), %rax
	jne	.L219
	nop
	nop
	leave
	.cfi_def_cfa 7, 8
	ret
	.cfi_endproc
.LFE11415:
	.size	_ZNSt12_Destroy_auxILb0EE9__destroyIPSt6vectorIiSaIiEEEEvT_S6_, .-_ZNSt12_Destroy_auxILb0EE9__destroyIPSt6vectorIiSaIiEEEEvT_S6_
	.section	.text._ZSt20uninitialized_fill_nIPimiET_S1_T0_RKT1_,"axG",@progbits,_ZSt20uninitialized_fill_nIPimiET_S1_T0_RKT1_,comdat
	.weak	_ZSt20uninitialized_fill_nIPimiET_S1_T0_RKT1_
	.type	_ZSt20uninitialized_fill_nIPimiET_S1_T0_RKT1_, @function
_ZSt20uninitialized_fill_nIPimiET_S1_T0_RKT1_:
.LFB11420:
	.cfi_startproc
	endbr64
	pushq	%rbp
	.cfi_def_cfa_offset 16
	.cfi_offset 6, -16
	movq	%rsp, %rbp
	.cfi_def_cfa_register 6
	subq	$48, %rsp
	movq	%rdi, -24(%rbp)
	movq	%rsi, -32(%rbp)
	movq	%rdx, -40(%rbp)
	movb	$1, -1(%rbp)
	movq	-40(%rbp), %rdx
	movq	-32(%rbp), %rcx
	movq	-24(%rbp), %rax
	movq	%rcx, %rsi
	movq	%rax, %rdi
	call	_ZNSt22__uninitialized_fill_nILb1EE15__uninit_fill_nIPimiEET_S3_T0_RKT1_
	leave
	.cfi_def_cfa 7, 8
	ret
	.cfi_endproc
.LFE11420:
	.size	_ZSt20uninitialized_fill_nIPimiET_S1_T0_RKT1_, .-_ZSt20uninitialized_fill_nIPimiET_S1_T0_RKT1_
	.section	.text._ZNKSt6vectorIiSaIiEE8max_sizeEv,"axG",@progbits,_ZNKSt6vectorIiSaIiEE8max_sizeEv,comdat
	.align 2
	.weak	_ZNKSt6vectorIiSaIiEE8max_sizeEv
	.type	_ZNKSt6vectorIiSaIiEE8max_sizeEv, @function
_ZNKSt6vectorIiSaIiEE8max_sizeEv:
.LFB11422:
	.cfi_startproc
	endbr64
	pushq	%rbp
	.cfi_def_cfa_offset 16
	.cfi_offset 6, -16
	movq	%rsp, %rbp
	.cfi_def_cfa_register 6
	subq	$16, %rsp
	movq	%rdi, -8(%rbp)
	movq	-8(%rbp), %rax
	movq	%rax, %rdi
	call	_ZNKSt12_Vector_baseIiSaIiEE19_M_get_Tp_allocatorEv
	movq	%rax, %rdi
	call	_ZNSt6vectorIiSaIiEE11_S_max_sizeERKS0_
	leave
	.cfi_def_cfa 7, 8
	ret
	.cfi_endproc
.LFE11422:
	.size	_ZNKSt6vectorIiSaIiEE8max_sizeEv, .-_ZNKSt6vectorIiSaIiEE8max_sizeEv
	.section	.text._ZNKSt6vectorIiSaIiEE4sizeEv,"axG",@progbits,_ZNKSt6vectorIiSaIiEE4sizeEv,comdat
	.align 2
	.weak	_ZNKSt6vectorIiSaIiEE4sizeEv
	.type	_ZNKSt6vectorIiSaIiEE4sizeEv, @function
_ZNKSt6vectorIiSaIiEE4sizeEv:
.LFB11423:
	.cfi_startproc
	endbr64
	pushq	%rbp
	.cfi_def_cfa_offset 16
	.cfi_offset 6, -16
	movq	%rsp, %rbp
	.cfi_def_cfa_register 6
	movq	%rdi, -8(%rbp)
	movq	-8(%rbp), %rax
	movq	8(%rax), %rdx
	movq	-8(%rbp), %rax
	movq	(%rax), %rax
	subq	%rax, %rdx
	movq	%rdx, %rax
	sarq	$2, %rax
	popq	%rbp
	.cfi_def_cfa 7, 8
	ret
	.cfi_endproc
.LFE11423:
	.size	_ZNKSt6vectorIiSaIiEE4sizeEv, .-_ZNKSt6vectorIiSaIiEE4sizeEv
	.section	.text._ZSt12__relocate_aIPiS0_SaIiEET0_T_S3_S2_RT1_,"axG",@progbits,_ZSt12__relocate_aIPiS0_SaIiEET0_T_S3_S2_RT1_,comdat
	.weak	_ZSt12__relocate_aIPiS0_SaIiEET0_T_S3_S2_RT1_
	.type	_ZSt12__relocate_aIPiS0_SaIiEET0_T_S3_S2_RT1_, @function
_ZSt12__relocate_aIPiS0_SaIiEET0_T_S3_S2_RT1_:
.LFB11425:
	.cfi_startproc
	endbr64
	pushq	%rbp
	.cfi_def_cfa_offset 16
	.cfi_offset 6, -16
	movq	%rsp, %rbp
	.cfi_def_cfa_register 6
	pushq	%r12
	pushq	%rbx
	subq	$32, %rsp
	.cfi_offset 12, -24
	.cfi_offset 3, -32
	movq	%rdi, -24(%rbp)
	movq	%rsi, -32(%rbp)
	movq	%rdx, -40(%rbp)
	movq	%rcx, -48(%rbp)
	movq	-40(%rbp), %rax
	movq	%rax, %rdi
	call	_ZSt12__niter_baseIPiET_S1_
	movq	%rax, %r12
	movq	-32(%rbp), %rax
	movq	%rax, %rdi
	call	_ZSt12__niter_baseIPiET_S1_
	movq	%rax, %rbx
	movq	-24(%rbp), %rax
	movq	%rax, %rdi
	call	_ZSt12__niter_baseIPiET_S1_
	movq	%rax, %rdi
	movq	-48(%rbp), %rax
	movq	%rax, %rcx
	movq	%r12, %rdx
	movq	%rbx, %rsi
	call	_ZSt14__relocate_a_1IiiENSt9enable_ifIXsrSt24__is_bitwise_relocatableIT_vE5valueEPS2_E4typeES4_S4_S4_RSaIT0_E
	addq	$32, %rsp
	popq	%rbx
	popq	%r12
	popq	%rbp
	.cfi_def_cfa 7, 8
	ret
	.cfi_endproc
.LFE11425:
	.size	_ZSt12__relocate_aIPiS0_SaIiEET0_T_S3_S2_RT1_, .-_ZSt12__relocate_aIPiS0_SaIiEET0_T_S3_S2_RT1_
	.section	.text._ZSt27__uninitialized_default_n_aIPimiET_S1_T0_RSaIT1_E,"axG",@progbits,_ZSt27__uninitialized_default_n_aIPimiET_S1_T0_RSaIT1_E,comdat
	.weak	_ZSt27__uninitialized_default_n_aIPimiET_S1_T0_RSaIT1_E
	.type	_ZSt27__uninitialized_default_n_aIPimiET_S1_T0_RSaIT1_E, @function
_ZSt27__uninitialized_default_n_aIPimiET_S1_T0_RSaIT1_E:
.LFB11427:
	.cfi_startproc
	endbr64
	pushq	%rbp
	.cfi_def_cfa_offset 16
	.cfi_offset 6, -16
	movq	%rsp, %rbp
	.cfi_def_cfa_register 6
	subq	$32, %rsp
	movq	%rdi, -8(%rbp)
	movq	%rsi, -16(%rbp)
	movq	%rdx, -24(%rbp)
	movq	-16(%rbp), %rdx
	movq	-8(%rbp), %rax
	movq	%rdx, %rsi
	movq	%rax, %rdi
	call	_ZSt25__uninitialized_default_nIPimET_S1_T0_
	leave
	.cfi_def_cfa 7, 8
	ret
	.cfi_endproc
.LFE11427:
	.size	_ZSt27__uninitialized_default_n_aIPimiET_S1_T0_RSaIT1_E, .-_ZSt27__uninitialized_default_n_aIPimiET_S1_T0_RSaIT1_E
	.section	.text._ZNSt11_Deque_baseISt4pairIiiESaIS1_EE11_Deque_implD2Ev,"axG",@progbits,_ZNSt11_Deque_baseISt4pairIiiESaIS1_EE11_Deque_implD5Ev,comdat
	.align 2
	.weak	_ZNSt11_Deque_baseISt4pairIiiESaIS1_EE11_Deque_implD2Ev
	.type	_ZNSt11_Deque_baseISt4pairIiiESaIS1_EE11_Deque_implD2Ev, @function
_ZNSt11_Deque_baseISt4pairIiiESaIS1_EE11_Deque_implD2Ev:
.LFB11431:
	.cfi_startproc
	endbr64
	pushq	%rbp
	.cfi_def_cfa_offset 16
	.cfi_offset 6, -16
	movq	%rsp, %rbp
	.cfi_def_cfa_register 6
	subq	$32, %rsp
	movq	%rdi, -24(%rbp)
	movq	-24(%rbp), %rax
	movq	%rax, -8(%rbp)
	movq	-8(%rbp), %rax
	movq	%rax, %rdi
	call	_ZNSt15__new_allocatorISt4pairIiiEED2Ev
	nop
	nop
	leave
	.cfi_def_cfa 7, 8
	ret
	.cfi_endproc
.LFE11431:
	.size	_ZNSt11_Deque_baseISt4pairIiiESaIS1_EE11_Deque_implD2Ev, .-_ZNSt11_Deque_baseISt4pairIiiESaIS1_EE11_Deque_implD2Ev
	.weak	_ZNSt11_Deque_baseISt4pairIiiESaIS1_EE11_Deque_implD1Ev
	.set	_ZNSt11_Deque_baseISt4pairIiiESaIS1_EE11_Deque_implD1Ev,_ZNSt11_Deque_baseISt4pairIiiESaIS1_EE11_Deque_implD2Ev
	.section	.text._ZNSt11_Deque_baseISt4pairIiiESaIS1_EEC2Ev,"axG",@progbits,_ZNSt11_Deque_baseISt4pairIiiESaIS1_EEC5Ev,comdat
	.align 2
	.weak	_ZNSt11_Deque_baseISt4pairIiiESaIS1_EEC2Ev
	.type	_ZNSt11_Deque_baseISt4pairIiiESaIS1_EEC2Ev, @function
_ZNSt11_Deque_baseISt4pairIiiESaIS1_EEC2Ev:
.LFB11433:
	.cfi_startproc
	.cfi_personality 0x9b,DW.ref.__gxx_personality_v0
	.cfi_lsda 0x1b,.LLSDA11433
	endbr64
	pushq	%rbp
	.cfi_def_cfa_offset 16
	.cfi_offset 6, -16
	movq	%rsp, %rbp
	.cfi_def_cfa_register 6
	pushq	%rbx
	subq	$24, %rsp
	.cfi_offset 3, -24
	movq	%rdi, -24(%rbp)
	movq	-24(%rbp), %rax
	movq	%rax, %rdi
	call	_ZNSt11_Deque_baseISt4pairIiiESaIS1_EE11_Deque_implC1Ev
	movq	-24(%rbp), %rax
	movl	$0, %esi
	movq	%rax, %rdi
.LEHB25:
	call	_ZNSt11_Deque_baseISt4pairIiiESaIS1_EE17_M_initialize_mapEm
.LEHE25:
	jmp	.L234
.L233:
	endbr64
	movq	%rax, %rbx
	movq	-24(%rbp), %rax
	movq	%rax, %rdi
	call	_ZNSt11_Deque_baseISt4pairIiiESaIS1_EE11_Deque_implD1Ev
	movq	%rbx, %rax
	movq	%rax, %rdi
.LEHB26:
	call	_Unwind_Resume@PLT
.LEHE26:
.L234:
	movq	-8(%rbp), %rbx
	leave
	.cfi_def_cfa 7, 8
	ret
	.cfi_endproc
.LFE11433:
	.section	.gcc_except_table
.LLSDA11433:
	.byte	0xff
	.byte	0xff
	.byte	0x1
	.uleb128 .LLSDACSE11433-.LLSDACSB11433
.LLSDACSB11433:
	.uleb128 .LEHB25-.LFB11433
	.uleb128 .LEHE25-.LEHB25
	.uleb128 .L233-.LFB11433
	.uleb128 0
	.uleb128 .LEHB26-.LFB11433
	.uleb128 .LEHE26-.LEHB26
	.uleb128 0
	.uleb128 0
.LLSDACSE11433:
	.section	.text._ZNSt11_Deque_baseISt4pairIiiESaIS1_EEC2Ev,"axG",@progbits,_ZNSt11_Deque_baseISt4pairIiiESaIS1_EEC5Ev,comdat
	.size	_ZNSt11_Deque_baseISt4pairIiiESaIS1_EEC2Ev, .-_ZNSt11_Deque_baseISt4pairIiiESaIS1_EEC2Ev
	.weak	_ZNSt11_Deque_baseISt4pairIiiESaIS1_EEC1Ev
	.set	_ZNSt11_Deque_baseISt4pairIiiESaIS1_EEC1Ev,_ZNSt11_Deque_baseISt4pairIiiESaIS1_EEC2Ev
	.section	.text._ZNSt11_Deque_baseISt4pairIiiESaIS1_EED2Ev,"axG",@progbits,_ZNSt11_Deque_baseISt4pairIiiESaIS1_EED5Ev,comdat
	.align 2
	.weak	_ZNSt11_Deque_baseISt4pairIiiESaIS1_EED2Ev
	.type	_ZNSt11_Deque_baseISt4pairIiiESaIS1_EED2Ev, @function
_ZNSt11_Deque_baseISt4pairIiiESaIS1_EED2Ev:
.LFB11436:
	.cfi_startproc
	endbr64
	pushq	%rbp
	.cfi_def_cfa_offset 16
	.cfi_offset 6, -16
	movq	%rsp, %rbp
	.cfi_def_cfa_register 6
	subq	$16, %rsp
	movq	%rdi, -8(%rbp)
	movq	-8(%rbp), %rax
	movq	(%rax), %rax
	testq	%rax, %rax
	je	.L236
	movq	-8(%rbp), %rax
	movq	72(%rax), %rax
	leaq	8(%rax), %rdx
	movq	-8(%rbp), %rax
	movq	40(%rax), %rcx
	movq	-8(%rbp), %rax
	movq	%rcx, %rsi
	movq	%rax, %rdi
	call	_ZNSt11_Deque_baseISt4pairIiiESaIS1_EE16_M_destroy_nodesEPPS1_S5_
	movq	-8(%rbp), %rax
	movq	8(%rax), %rdx
	movq	-8(%rbp), %rax
	movq	(%rax), %rcx
	movq	-8(%rbp), %rax
	movq	%rcx, %rsi
	movq	%rax, %rdi
	call	_ZNSt11_Deque_baseISt4pairIiiESaIS1_EE17_M_deallocate_mapEPPS1_m
.L236:
	movq	-8(%rbp), %rax
	movq	%rax, %rdi
	call	_ZNSt11_Deque_baseISt4pairIiiESaIS1_EE11_Deque_implD1Ev
	nop
	leave
	.cfi_def_cfa 7, 8
	ret
	.cfi_endproc
.LFE11436:
	.size	_ZNSt11_Deque_baseISt4pairIiiESaIS1_EED2Ev, .-_ZNSt11_Deque_baseISt4pairIiiESaIS1_EED2Ev
	.weak	_ZNSt11_Deque_baseISt4pairIiiESaIS1_EED1Ev
	.set	_ZNSt11_Deque_baseISt4pairIiiESaIS1_EED1Ev,_ZNSt11_Deque_baseISt4pairIiiESaIS1_EED2Ev
	.section	.text._ZNSt5dequeISt4pairIiiESaIS1_EE5beginEv,"axG",@progbits,_ZNSt5dequeISt4pairIiiESaIS1_EE5beginEv,comdat
	.align 2
	.weak	_ZNSt5dequeISt4pairIiiESaIS1_EE5beginEv
	.type	_ZNSt5dequeISt4pairIiiESaIS1_EE5beginEv, @function
_ZNSt5dequeISt4pairIiiESaIS1_EE5beginEv:
.LFB11438:
	.cfi_startproc
	endbr64
	pushq	%rbp
	.cfi_def_cfa_offset 16
	.cfi_offset 6, -16
	movq	%rsp, %rbp
	.cfi_def_cfa_register 6
	subq	$16, %rsp
	movq	%rdi, -8(%rbp)
	movq	%rsi, -16(%rbp)
	movq	-16(%rbp), %rax
	leaq	16(%rax), %rdx
	movq	-8(%rbp), %rax
	movq	%rdx, %rsi
	movq	%rax, %rdi
	call	_ZNSt15_Deque_iteratorISt4pairIiiERS1_PS1_EC1ERKS4_
	movq	-8(%rbp), %rax
	leave
	.cfi_def_cfa 7, 8
	ret
	.cfi_endproc
.LFE11438:
	.size	_ZNSt5dequeISt4pairIiiESaIS1_EE5beginEv, .-_ZNSt5dequeISt4pairIiiESaIS1_EE5beginEv
	.section	.text._ZNSt5dequeISt4pairIiiESaIS1_EE3endEv,"axG",@progbits,_ZNSt5dequeISt4pairIiiESaIS1_EE3endEv,comdat
	.align 2
	.weak	_ZNSt5dequeISt4pairIiiESaIS1_EE3endEv
	.type	_ZNSt5dequeISt4pairIiiESaIS1_EE3endEv, @function
_ZNSt5dequeISt4pairIiiESaIS1_EE3endEv:
.LFB11439:
	.cfi_startproc
	endbr64
	pushq	%rbp
	.cfi_def_cfa_offset 16
	.cfi_offset 6, -16
	movq	%rsp, %rbp
	.cfi_def_cfa_register 6
	subq	$16, %rsp
	movq	%rdi, -8(%rbp)
	movq	%rsi, -16(%rbp)
	movq	-16(%rbp), %rax
	leaq	48(%rax), %rdx
	movq	-8(%rbp), %rax
	movq	%rdx, %rsi
	movq	%rax, %rdi
	call	_ZNSt15_Deque_iteratorISt4pairIiiERS1_PS1_EC1ERKS4_
	movq	-8(%rbp), %rax
	leave
	.cfi_def_cfa 7, 8
	ret
	.cfi_endproc
.LFE11439:
	.size	_ZNSt5dequeISt4pairIiiESaIS1_EE3endEv, .-_ZNSt5dequeISt4pairIiiESaIS1_EE3endEv
	.section	.text._ZNSt11_Deque_baseISt4pairIiiESaIS1_EE19_M_get_Tp_allocatorEv,"axG",@progbits,_ZNSt11_Deque_baseISt4pairIiiESaIS1_EE19_M_get_Tp_allocatorEv,comdat
	.align 2
	.weak	_ZNSt11_Deque_baseISt4pairIiiESaIS1_EE19_M_get_Tp_allocatorEv
	.type	_ZNSt11_Deque_baseISt4pairIiiESaIS1_EE19_M_get_Tp_allocatorEv, @function
_ZNSt11_Deque_baseISt4pairIiiESaIS1_EE19_M_get_Tp_allocatorEv:
.LFB11440:
	.cfi_startproc
	endbr64
	pushq	%rbp
	.cfi_def_cfa_offset 16
	.cfi_offset 6, -16
	movq	%rsp, %rbp
	.cfi_def_cfa_register 6
	movq	%rdi, -8(%rbp)
	movq	-8(%rbp), %rax
	popq	%rbp
	.cfi_def_cfa 7, 8
	ret
	.cfi_endproc
.LFE11440:
	.size	_ZNSt11_Deque_baseISt4pairIiiESaIS1_EE19_M_get_Tp_allocatorEv, .-_ZNSt11_Deque_baseISt4pairIiiESaIS1_EE19_M_get_Tp_allocatorEv
	.section	.text._ZNSt5dequeISt4pairIiiESaIS1_EE15_M_destroy_dataESt15_Deque_iteratorIS1_RS1_PS1_ES7_RKS2_,"axG",@progbits,_ZNSt5dequeISt4pairIiiESaIS1_EE15_M_destroy_dataESt15_Deque_iteratorIS1_RS1_PS1_ES7_RKS2_,comdat
	.align 2
	.weak	_ZNSt5dequeISt4pairIiiESaIS1_EE15_M_destroy_dataESt15_Deque_iteratorIS1_RS1_PS1_ES7_RKS2_
	.type	_ZNSt5dequeISt4pairIiiESaIS1_EE15_M_destroy_dataESt15_Deque_iteratorIS1_RS1_PS1_ES7_RKS2_, @function
_ZNSt5dequeISt4pairIiiESaIS1_EE15_M_destroy_dataESt15_Deque_iteratorIS1_RS1_PS1_ES7_RKS2_:
.LFB11441:
	.cfi_startproc
	endbr64
	pushq	%rbp
	.cfi_def_cfa_offset 16
	.cfi_offset 6, -16
	movq	%rsp, %rbp
	.cfi_def_cfa_register 6
	subq	$80, %rsp
	movq	%rdi, -56(%rbp)
	movq	%rsi, -64(%rbp)
	movq	%rdx, -72(%rbp)
	movq	%rcx, -80(%rbp)
	movq	%fs:40, %rax
	movq	%rax, -8(%rbp)
	xorl	%eax, %eax
	nop
	movq	-8(%rbp), %rax
	subq	%fs:40, %rax
	je	.L244
	call	__stack_chk_fail@PLT
.L244:
	leave
	.cfi_def_cfa 7, 8
	ret
	.cfi_endproc
.LFE11441:
	.size	_ZNSt5dequeISt4pairIiiESaIS1_EE15_M_destroy_dataESt15_Deque_iteratorIS1_RS1_PS1_ES7_RKS2_, .-_ZNSt5dequeISt4pairIiiESaIS1_EE15_M_destroy_dataESt15_Deque_iteratorIS1_RS1_PS1_ES7_RKS2_
	.section	.text._ZSt7forwardIRiEOT_RNSt16remove_referenceIS1_E4typeE,"axG",@progbits,_ZSt7forwardIRiEOT_RNSt16remove_referenceIS1_E4typeE,comdat
	.weak	_ZSt7forwardIRiEOT_RNSt16remove_referenceIS1_E4typeE
	.type	_ZSt7forwardIRiEOT_RNSt16remove_referenceIS1_E4typeE, @function
_ZSt7forwardIRiEOT_RNSt16remove_referenceIS1_E4typeE:
.LFB11442:
	.cfi_startproc
	endbr64
	pushq	%rbp
	.cfi_def_cfa_offset 16
	.cfi_offset 6, -16
	movq	%rsp, %rbp
	.cfi_def_cfa_register 6
	movq	%rdi, -8(%rbp)
	movq	-8(%rbp), %rax
	popq	%rbp
	.cfi_def_cfa 7, 8
	ret
	.cfi_endproc
.LFE11442:
	.size	_ZSt7forwardIRiEOT_RNSt16remove_referenceIS1_E4typeE, .-_ZSt7forwardIRiEOT_RNSt16remove_referenceIS1_E4typeE
	.section	.text._ZSt4moveIRSt4pairIiiEEONSt16remove_referenceIT_E4typeEOS4_,"axG",@progbits,_ZSt4moveIRSt4pairIiiEEONSt16remove_referenceIT_E4typeEOS4_,comdat
	.weak	_ZSt4moveIRSt4pairIiiEEONSt16remove_referenceIT_E4typeEOS4_
	.type	_ZSt4moveIRSt4pairIiiEEONSt16remove_referenceIT_E4typeEOS4_, @function
_ZSt4moveIRSt4pairIiiEEONSt16remove_referenceIT_E4typeEOS4_:
.LFB11443:
	.cfi_startproc
	endbr64
	pushq	%rbp
	.cfi_def_cfa_offset 16
	.cfi_offset 6, -16
	movq	%rsp, %rbp
	.cfi_def_cfa_register 6
	movq	%rdi, -8(%rbp)
	movq	-8(%rbp), %rax
	popq	%rbp
	.cfi_def_cfa 7, 8
	ret
	.cfi_endproc
.LFE11443:
	.size	_ZSt4moveIRSt4pairIiiEEONSt16remove_referenceIT_E4typeEOS4_, .-_ZSt4moveIRSt4pairIiiEEONSt16remove_referenceIT_E4typeEOS4_
	.section	.text._ZNSt5dequeISt4pairIiiESaIS1_EE9push_backEOS1_,"axG",@progbits,_ZNSt5dequeISt4pairIiiESaIS1_EE9push_backEOS1_,comdat
	.align 2
	.weak	_ZNSt5dequeISt4pairIiiESaIS1_EE9push_backEOS1_
	.type	_ZNSt5dequeISt4pairIiiESaIS1_EE9push_backEOS1_, @function
_ZNSt5dequeISt4pairIiiESaIS1_EE9push_backEOS1_:
.LFB11444:
	.cfi_startproc
	endbr64
	pushq	%rbp
	.cfi_def_cfa_offset 16
	.cfi_offset 6, -16
	movq	%rsp, %rbp
	.cfi_def_cfa_register 6
	subq	$16, %rsp
	movq	%rdi, -8(%rbp)
	movq	%rsi, -16(%rbp)
	movq	-16(%rbp), %rax
	movq	%rax, %rdi
	call	_ZSt4moveIRSt4pairIiiEEONSt16remove_referenceIT_E4typeEOS4_
	movq	%rax, %rdx
	movq	-8(%rbp), %rax
	movq	%rdx, %rsi
	movq	%rax, %rdi
	call	_ZNSt5dequeISt4pairIiiESaIS1_EE12emplace_backIJS1_EEERS1_DpOT_
	nop
	leave
	.cfi_def_cfa 7, 8
	ret
	.cfi_endproc
.LFE11444:
	.size	_ZNSt5dequeISt4pairIiiESaIS1_EE9push_backEOS1_, .-_ZNSt5dequeISt4pairIiiESaIS1_EE9push_backEOS1_
	.section	.text._ZNKSt5dequeISt4pairIiiESaIS1_EE5emptyEv,"axG",@progbits,_ZNKSt5dequeISt4pairIiiESaIS1_EE5emptyEv,comdat
	.align 2
	.weak	_ZNKSt5dequeISt4pairIiiESaIS1_EE5emptyEv
	.type	_ZNKSt5dequeISt4pairIiiESaIS1_EE5emptyEv, @function
_ZNKSt5dequeISt4pairIiiESaIS1_EE5emptyEv:
.LFB11445:
	.cfi_startproc
	endbr64
	pushq	%rbp
	.cfi_def_cfa_offset 16
	.cfi_offset 6, -16
	movq	%rsp, %rbp
	.cfi_def_cfa_register 6
	subq	$16, %rsp
	movq	%rdi, -8(%rbp)
	movq	-8(%rbp), %rax
	leaq	16(%rax), %rdx
	movq	-8(%rbp), %rax
	addq	$48, %rax
	movq	%rdx, %rsi
	movq	%rax, %rdi
	call	_ZSteqRKSt15_Deque_iteratorISt4pairIiiERS1_PS1_ES6_
	leave
	.cfi_def_cfa 7, 8
	ret
	.cfi_endproc
.LFE11445:
	.size	_ZNKSt5dequeISt4pairIiiESaIS1_EE5emptyEv, .-_ZNKSt5dequeISt4pairIiiESaIS1_EE5emptyEv
	.section	.text._ZNSt5dequeISt4pairIiiESaIS1_EE5frontEv,"axG",@progbits,_ZNSt5dequeISt4pairIiiESaIS1_EE5frontEv,comdat
	.align 2
	.weak	_ZNSt5dequeISt4pairIiiESaIS1_EE5frontEv
	.type	_ZNSt5dequeISt4pairIiiESaIS1_EE5frontEv, @function
_ZNSt5dequeISt4pairIiiESaIS1_EE5frontEv:
.LFB11446:
	.cfi_startproc
	endbr64
	pushq	%rbp
	.cfi_def_cfa_offset 16
	.cfi_offset 6, -16
	movq	%rsp, %rbp
	.cfi_def_cfa_register 6
	subq	$64, %rsp
	movq	%rdi, -56(%rbp)
	movq	%fs:40, %rax
	movq	%rax, -8(%rbp)
	xorl	%eax, %eax
	leaq	-48(%rbp), %rax
	movq	-56(%rbp), %rdx
	movq	%rdx, %rsi
	movq	%rax, %rdi
	call	_ZNSt5dequeISt4pairIiiESaIS1_EE5beginEv
	leaq	-48(%rbp), %rax
	movq	%rax, %rdi
	call	_ZNKSt15_Deque_iteratorISt4pairIiiERS1_PS1_EdeEv
	movq	-8(%rbp), %rdx
	subq	%fs:40, %rdx
	je	.L254
	call	__stack_chk_fail@PLT
.L254:
	leave
	.cfi_def_cfa 7, 8
	ret
	.cfi_endproc
.LFE11446:
	.size	_ZNSt5dequeISt4pairIiiESaIS1_EE5frontEv, .-_ZNSt5dequeISt4pairIiiESaIS1_EE5frontEv
	.section	.text._ZNSt5dequeISt4pairIiiESaIS1_EE9pop_frontEv,"axG",@progbits,_ZNSt5dequeISt4pairIiiESaIS1_EE9pop_frontEv,comdat
	.align 2
	.weak	_ZNSt5dequeISt4pairIiiESaIS1_EE9pop_frontEv
	.type	_ZNSt5dequeISt4pairIiiESaIS1_EE9pop_frontEv, @function
_ZNSt5dequeISt4pairIiiESaIS1_EE9pop_frontEv:
.LFB11447:
	.cfi_startproc
	endbr64
	pushq	%rbp
	.cfi_def_cfa_offset 16
	.cfi_offset 6, -16
	movq	%rsp, %rbp
	.cfi_def_cfa_register 6
	pushq	%rbx
	subq	$56, %rsp
	.cfi_offset 3, -24
	movq	%rdi, -56(%rbp)
	movq	-56(%rbp), %rax
	movq	16(%rax), %rdx
	movq	-56(%rbp), %rax
	movq	32(%rax), %rax
	subq	$8, %rax
	cmpq	%rax, %rdx
	je	.L256
	movq	-56(%rbp), %rax
	movq	16(%rax), %rbx
	movq	-56(%rbp), %rax
	movq	%rax, %rdi
	call	_ZNSt11_Deque_baseISt4pairIiiESaIS1_EE19_M_get_Tp_allocatorEv
	movq	%rax, -48(%rbp)
	movq	%rbx, -40(%rbp)
	movq	-48(%rbp), %rax
	movq	%rax, -32(%rbp)
	movq	-40(%rbp), %rax
	movq	%rax, -24(%rbp)
	nop
	nop
	movq	-56(%rbp), %rax
	movq	16(%rax), %rax
	leaq	8(%rax), %rdx
	movq	-56(%rbp), %rax
	movq	%rdx, 16(%rax)
	jmp	.L258
.L256:
	movq	-56(%rbp), %rax
	movq	%rax, %rdi
	call	_ZNSt5dequeISt4pairIiiESaIS1_EE16_M_pop_front_auxEv
.L258:
	nop
	movq	-8(%rbp), %rbx
	leave
	.cfi_def_cfa 7, 8
	ret
	.cfi_endproc
.LFE11447:
	.size	_ZNSt5dequeISt4pairIiiESaIS1_EE9pop_frontEv, .-_ZNSt5dequeISt4pairIiiESaIS1_EE9pop_frontEv
	.section	.text._ZNSt15__new_allocatorISt6vectorIiSaIiEEE10deallocateEPS2_m,"axG",@progbits,_ZNSt15__new_allocatorISt6vectorIiSaIiEEE10deallocateEPS2_m,comdat
	.align 2
	.weak	_ZNSt15__new_allocatorISt6vectorIiSaIiEEE10deallocateEPS2_m
	.type	_ZNSt15__new_allocatorISt6vectorIiSaIiEEE10deallocateEPS2_m, @function
_ZNSt15__new_allocatorISt6vectorIiSaIiEEE10deallocateEPS2_m:
.LFB11552:
	.cfi_startproc
	endbr64
	pushq	%rbp
	.cfi_def_cfa_offset 16
	.cfi_offset 6, -16
	movq	%rsp, %rbp
	.cfi_def_cfa_register 6
	subq	$32, %rsp
	movq	%rdi, -8(%rbp)
	movq	%rsi, -16(%rbp)
	movq	%rdx, -24(%rbp)
	movq	-24(%rbp), %rdx
	movq	%rdx, %rax
	addq	%rax, %rax
	addq	%rdx, %rax
	salq	$3, %rax
	movq	%rax, %rdx
	movq	-16(%rbp), %rax
	movq	%rdx, %rsi
	movq	%rax, %rdi
	call	_ZdlPvm@PLT
	leave
	.cfi_def_cfa 7, 8
	ret
	.cfi_endproc
.LFE11552:
	.size	_ZNSt15__new_allocatorISt6vectorIiSaIiEEE10deallocateEPS2_m, .-_ZNSt15__new_allocatorISt6vectorIiSaIiEEE10deallocateEPS2_m
	.section	.text._ZNSt22__uninitialized_fill_nILb0EE15__uninit_fill_nIPSt6vectorIiSaIiEEmS4_EET_S6_T0_RKT1_,"axG",@progbits,_ZNSt22__uninitialized_fill_nILb0EE15__uninit_fill_nIPSt6vectorIiSaIiEEmS4_EET_S6_T0_RKT1_,comdat
	.weak	_ZNSt22__uninitialized_fill_nILb0EE15__uninit_fill_nIPSt6vectorIiSaIiEEmS4_EET_S6_T0_RKT1_
	.type	_ZNSt22__uninitialized_fill_nILb0EE15__uninit_fill_nIPSt6vectorIiSaIiEEmS4_EET_S6_T0_RKT1_, @function
_ZNSt22__uninitialized_fill_nILb0EE15__uninit_fill_nIPSt6vectorIiSaIiEEmS4_EET_S6_T0_RKT1_:
.LFB11553:
	.cfi_startproc
	endbr64
	pushq	%rbp
	.cfi_def_cfa_offset 16
	.cfi_offset 6, -16
	movq	%rsp, %rbp
	.cfi_def_cfa_register 6
	subq	$32, %rsp
	movq	%rdi, -8(%rbp)
	movq	%rsi, -16(%rbp)
	movq	%rdx, -24(%rbp)
	movq	-24(%rbp), %rdx
	movq	-16(%rbp), %rcx
	movq	-8(%rbp), %rax
	movq	%rcx, %rsi
	movq	%rax, %rdi
	call	_ZSt18__do_uninit_fill_nIPSt6vectorIiSaIiEEmS2_ET_S4_T0_RKT1_
	leave
	.cfi_def_cfa 7, 8
	ret
	.cfi_endproc
.LFE11553:
	.size	_ZNSt22__uninitialized_fill_nILb0EE15__uninit_fill_nIPSt6vectorIiSaIiEEmS4_EET_S6_T0_RKT1_, .-_ZNSt22__uninitialized_fill_nILb0EE15__uninit_fill_nIPSt6vectorIiSaIiEEmS4_EET_S6_T0_RKT1_
	.section	.text._ZSt11__addressofISt6vectorIiSaIiEEEPT_RS3_,"axG",@progbits,_ZSt11__addressofISt6vectorIiSaIiEEEPT_RS3_,comdat
	.weak	_ZSt11__addressofISt6vectorIiSaIiEEEPT_RS3_
	.type	_ZSt11__addressofISt6vectorIiSaIiEEEPT_RS3_, @function
_ZSt11__addressofISt6vectorIiSaIiEEEPT_RS3_:
.LFB11554:
	.cfi_startproc
	endbr64
	pushq	%rbp
	.cfi_def_cfa_offset 16
	.cfi_offset 6, -16
	movq	%rsp, %rbp
	.cfi_def_cfa_register 6
	movq	%rdi, -8(%rbp)
	movq	-8(%rbp), %rax
	popq	%rbp
	.cfi_def_cfa 7, 8
	ret
	.cfi_endproc
.LFE11554:
	.size	_ZSt11__addressofISt6vectorIiSaIiEEEPT_RS3_, .-_ZSt11__addressofISt6vectorIiSaIiEEEPT_RS3_
	.section	.text._ZSt8_DestroyISt6vectorIiSaIiEEEvPT_,"axG",@progbits,_ZSt8_DestroyISt6vectorIiSaIiEEEvPT_,comdat
	.weak	_ZSt8_DestroyISt6vectorIiSaIiEEEvPT_
	.type	_ZSt8_DestroyISt6vectorIiSaIiEEEvPT_, @function
_ZSt8_DestroyISt6vectorIiSaIiEEEvPT_:
.LFB11555:
	.cfi_startproc
	endbr64
	pushq	%rbp
	.cfi_def_cfa_offset 16
	.cfi_offset 6, -16
	movq	%rsp, %rbp
	.cfi_def_cfa_register 6
	subq	$16, %rsp
	movq	%rdi, -8(%rbp)
	movq	-8(%rbp), %rax
	movq	%rax, %rdi
	call	_ZNSt6vectorIiSaIiEED1Ev
	nop
	leave
	.cfi_def_cfa 7, 8
	ret
	.cfi_endproc
.LFE11555:
	.size	_ZSt8_DestroyISt6vectorIiSaIiEEEvPT_, .-_ZSt8_DestroyISt6vectorIiSaIiEEEvPT_
	.section	.text._ZNSt22__uninitialized_fill_nILb1EE15__uninit_fill_nIPimiEET_S3_T0_RKT1_,"axG",@progbits,_ZNSt22__uninitialized_fill_nILb1EE15__uninit_fill_nIPimiEET_S3_T0_RKT1_,comdat
	.weak	_ZNSt22__uninitialized_fill_nILb1EE15__uninit_fill_nIPimiEET_S3_T0_RKT1_
	.type	_ZNSt22__uninitialized_fill_nILb1EE15__uninit_fill_nIPimiEET_S3_T0_RKT1_, @function
_ZNSt22__uninitialized_fill_nILb1EE15__uninit_fill_nIPimiEET_S3_T0_RKT1_:
.LFB11557:
	.cfi_startproc
	endbr64
	pushq	%rbp
	.cfi_def_cfa_offset 16
	.cfi_offset 6, -16
	movq	%rsp, %rbp
	.cfi_def_cfa_register 6
	subq	$32, %rsp
	movq	%rdi, -8(%rbp)
	movq	%rsi, -16(%rbp)
	movq	%rdx, -24(%rbp)
	movq	-24(%rbp), %rdx
	movq	-16(%rbp), %rcx
	movq	-8(%rbp), %rax
	movq	%rcx, %rsi
	movq	%rax, %rdi
	call	_ZSt6fill_nIPimiET_S1_T0_RKT1_
	leave
	.cfi_def_cfa 7, 8
	ret
	.cfi_endproc
.LFE11557:
	.size	_ZNSt22__uninitialized_fill_nILb1EE15__uninit_fill_nIPimiEET_S3_T0_RKT1_, .-_ZNSt22__uninitialized_fill_nILb1EE15__uninit_fill_nIPimiEET_S3_T0_RKT1_
	.section	.text._ZNKSt12_Vector_baseIiSaIiEE19_M_get_Tp_allocatorEv,"axG",@progbits,_ZNKSt12_Vector_baseIiSaIiEE19_M_get_Tp_allocatorEv,comdat
	.align 2
	.weak	_ZNKSt12_Vector_baseIiSaIiEE19_M_get_Tp_allocatorEv
	.type	_ZNKSt12_Vector_baseIiSaIiEE19_M_get_Tp_allocatorEv, @function
_ZNKSt12_Vector_baseIiSaIiEE19_M_get_Tp_allocatorEv:
.LFB11558:
	.cfi_startproc
	endbr64
	pushq	%rbp
	.cfi_def_cfa_offset 16
	.cfi_offset 6, -16
	movq	%rsp, %rbp
	.cfi_def_cfa_register 6
	movq	%rdi, -8(%rbp)
	movq	-8(%rbp), %rax
	popq	%rbp
	.cfi_def_cfa 7, 8
	ret
	.cfi_endproc
.LFE11558:
	.size	_ZNKSt12_Vector_baseIiSaIiEE19_M_get_Tp_allocatorEv, .-_ZNKSt12_Vector_baseIiSaIiEE19_M_get_Tp_allocatorEv
	.section	.text._ZNSt15__new_allocatorIiE8allocateEmPKv,"axG",@progbits,_ZNSt15__new_allocatorIiE8allocateEmPKv,comdat
	.align 2
	.weak	_ZNSt15__new_allocatorIiE8allocateEmPKv
	.type	_ZNSt15__new_allocatorIiE8allocateEmPKv, @function
_ZNSt15__new_allocatorIiE8allocateEmPKv:
.LFB11559:
	.cfi_startproc
	endbr64
	pushq	%rbp
	.cfi_def_cfa_offset 16
	.cfi_offset 6, -16
	movq	%rsp, %rbp
	.cfi_def_cfa_register 6
	subq	$48, %rsp
	movq	%rdi, -24(%rbp)
	movq	%rsi, -32(%rbp)
	movq	%rdx, -40(%rbp)
	movq	-24(%rbp), %rax
	movq	%rax, -8(%rbp)
	movabsq	$2305843009213693951, %rax
	cmpq	-32(%rbp), %rax
	setb	%al
	movzbl	%al, %eax
	testq	%rax, %rax
	setne	%al
	testb	%al, %al
	je	.L272
	movabsq	$4611686018427387903, %rax
	cmpq	-32(%rbp), %rax
	jnb	.L273
	call	_ZSt28__throw_bad_array_new_lengthv@PLT
.L273:
	call	_ZSt17__throw_bad_allocv@PLT
.L272:
	movq	-32(%rbp), %rax
	salq	$2, %rax
	movq	%rax, %rdi
	call	_Znwm@PLT
	nop
	leave
	.cfi_def_cfa 7, 8
	ret
	.cfi_endproc
.LFE11559:
	.size	_ZNSt15__new_allocatorIiE8allocateEmPKv, .-_ZNSt15__new_allocatorIiE8allocateEmPKv
	.section	.text._ZSt12__niter_baseIPiET_S1_,"axG",@progbits,_ZSt12__niter_baseIPiET_S1_,comdat
	.weak	_ZSt12__niter_baseIPiET_S1_
	.type	_ZSt12__niter_baseIPiET_S1_, @function
_ZSt12__niter_baseIPiET_S1_:
.LFB11560:
	.cfi_startproc
	endbr64
	pushq	%rbp
	.cfi_def_cfa_offset 16
	.cfi_offset 6, -16
	movq	%rsp, %rbp
	.cfi_def_cfa_register 6
	movq	%rdi, -8(%rbp)
	movq	-8(%rbp), %rax
	popq	%rbp
	.cfi_def_cfa 7, 8
	ret
	.cfi_endproc
.LFE11560:
	.size	_ZSt12__niter_baseIPiET_S1_, .-_ZSt12__niter_baseIPiET_S1_
	.section	.text._ZSt14__relocate_a_1IiiENSt9enable_ifIXsrSt24__is_bitwise_relocatableIT_vE5valueEPS2_E4typeES4_S4_S4_RSaIT0_E,"axG",@progbits,_ZSt14__relocate_a_1IiiENSt9enable_ifIXsrSt24__is_bitwise_relocatableIT_vE5valueEPS2_E4typeES4_S4_S4_RSaIT0_E,comdat
	.weak	_ZSt14__relocate_a_1IiiENSt9enable_ifIXsrSt24__is_bitwise_relocatableIT_vE5valueEPS2_E4typeES4_S4_S4_RSaIT0_E
	.type	_ZSt14__relocate_a_1IiiENSt9enable_ifIXsrSt24__is_bitwise_relocatableIT_vE5valueEPS2_E4typeES4_S4_S4_RSaIT0_E, @function
_ZSt14__relocate_a_1IiiENSt9enable_ifIXsrSt24__is_bitwise_relocatableIT_vE5valueEPS2_E4typeES4_S4_S4_RSaIT0_E:
.LFB11561:
	.cfi_startproc
	endbr64
	pushq	%rbp
	.cfi_def_cfa_offset 16
	.cfi_offset 6, -16
	movq	%rsp, %rbp
	.cfi_def_cfa_register 6
	subq	$48, %rsp
	movq	%rdi, -24(%rbp)
	movq	%rsi, -32(%rbp)
	movq	%rdx, -40(%rbp)
	movq	%rcx, -48(%rbp)
	movq	-32(%rbp), %rax
	subq	-24(%rbp), %rax
	sarq	$2, %rax
	movq	%rax, -8(%rbp)
	cmpq	$0, -8(%rbp)
	jle	.L278
	movq	-8(%rbp), %rax
	leaq	0(,%rax,4), %rdx
	movq	-24(%rbp), %rcx
	movq	-40(%rbp), %rax
	movq	%rcx, %rsi
	movq	%rax, %rdi
	call	memmove@PLT
.L278:
	movq	-8(%rbp), %rax
	leaq	0(,%rax,4), %rdx
	movq	-40(%rbp), %rax
	addq	%rdx, %rax
	leave
	.cfi_def_cfa 7, 8
	ret
	.cfi_endproc
.LFE11561:
	.size	_ZSt14__relocate_a_1IiiENSt9enable_ifIXsrSt24__is_bitwise_relocatableIT_vE5valueEPS2_E4typeES4_S4_S4_RSaIT0_E, .-_ZSt14__relocate_a_1IiiENSt9enable_ifIXsrSt24__is_bitwise_relocatableIT_vE5valueEPS2_E4typeES4_S4_S4_RSaIT0_E
	.section	.text._ZSt25__uninitialized_default_nIPimET_S1_T0_,"axG",@progbits,_ZSt25__uninitialized_default_nIPimET_S1_T0_,comdat
	.weak	_ZSt25__uninitialized_default_nIPimET_S1_T0_
	.type	_ZSt25__uninitialized_default_nIPimET_S1_T0_, @function
_ZSt25__uninitialized_default_nIPimET_S1_T0_:
.LFB11562:
	.cfi_startproc
	endbr64
	pushq	%rbp
	.cfi_def_cfa_offset 16
	.cfi_offset 6, -16
	movq	%rsp, %rbp
	.cfi_def_cfa_register 6
	subq	$32, %rsp
	movq	%rdi, -24(%rbp)
	movq	%rsi, -32(%rbp)
	movb	$1, -1(%rbp)
	movq	-32(%rbp), %rdx
	movq	-24(%rbp), %rax
	movq	%rdx, %rsi
	movq	%rax, %rdi
	call	_ZNSt27__uninitialized_default_n_1ILb1EE18__uninit_default_nIPimEET_S3_T0_
	leave
	.cfi_def_cfa 7, 8
	ret
	.cfi_endproc
.LFE11562:
	.size	_ZSt25__uninitialized_default_nIPimET_S1_T0_, .-_ZSt25__uninitialized_default_nIPimET_S1_T0_
	.section	.text._ZNSt11_Deque_baseISt4pairIiiESaIS1_EE11_Deque_implC2Ev,"axG",@progbits,_ZNSt11_Deque_baseISt4pairIiiESaIS1_EE11_Deque_implC5Ev,comdat
	.align 2
	.weak	_ZNSt11_Deque_baseISt4pairIiiESaIS1_EE11_Deque_implC2Ev
	.type	_ZNSt11_Deque_baseISt4pairIiiESaIS1_EE11_Deque_implC2Ev, @function
_ZNSt11_Deque_baseISt4pairIiiESaIS1_EE11_Deque_implC2Ev:
.LFB11564:
	.cfi_startproc
	endbr64
	pushq	%rbp
	.cfi_def_cfa_offset 16
	.cfi_offset 6, -16
	movq	%rsp, %rbp
	.cfi_def_cfa_register 6
	subq	$32, %rsp
	movq	%rdi, -24(%rbp)
	movq	-24(%rbp), %rax
	movq	%rax, -16(%rbp)
	movq	-16(%rbp), %rax
	movq	%rax, -8(%rbp)
	nop
	nop
	movq	-24(%rbp), %rax
	movq	%rax, %rdi
	call	_ZNSt11_Deque_baseISt4pairIiiESaIS1_EE16_Deque_impl_dataC2Ev
	nop
	leave
	.cfi_def_cfa 7, 8
	ret
	.cfi_endproc
.LFE11564:
	.size	_ZNSt11_Deque_baseISt4pairIiiESaIS1_EE11_Deque_implC2Ev, .-_ZNSt11_Deque_baseISt4pairIiiESaIS1_EE11_Deque_implC2Ev
	.weak	_ZNSt11_Deque_baseISt4pairIiiESaIS1_EE11_Deque_implC1Ev
	.set	_ZNSt11_Deque_baseISt4pairIiiESaIS1_EE11_Deque_implC1Ev,_ZNSt11_Deque_baseISt4pairIiiESaIS1_EE11_Deque_implC2Ev
	.section	.text._ZNSt11_Deque_baseISt4pairIiiESaIS1_EE17_M_initialize_mapEm,"axG",@progbits,_ZNSt11_Deque_baseISt4pairIiiESaIS1_EE17_M_initialize_mapEm,comdat
	.align 2
	.weak	_ZNSt11_Deque_baseISt4pairIiiESaIS1_EE17_M_initialize_mapEm
	.type	_ZNSt11_Deque_baseISt4pairIiiESaIS1_EE17_M_initialize_mapEm, @function
_ZNSt11_Deque_baseISt4pairIiiESaIS1_EE17_M_initialize_mapEm:
.LFB11569:
	.cfi_startproc
	.cfi_personality 0x9b,DW.ref.__gxx_personality_v0
	.cfi_lsda 0x1b,.LLSDA11569
	endbr64
	pushq	%rbp
	.cfi_def_cfa_offset 16
	.cfi_offset 6, -16
	movq	%rsp, %rbp
	.cfi_def_cfa_register 6
	pushq	%rbx
	subq	$72, %rsp
	.cfi_offset 3, -24
	movq	%rdi, -72(%rbp)
	movq	%rsi, -80(%rbp)
	movq	%fs:40, %rax
	movq	%rax, -24(%rbp)
	xorl	%eax, %eax
	movl	$8, %edi
	call	_ZSt16__deque_buf_sizem
	movq	%rax, %rbx
	movq	-80(%rbp), %rax
	movl	$0, %edx
	divq	%rbx
	addq	$1, %rax
	movq	%rax, -48(%rbp)
	movq	-48(%rbp), %rax
	addq	$2, %rax
	movq	%rax, -56(%rbp)
	movq	$8, -64(%rbp)
	leaq	-56(%rbp), %rdx
	leaq	-64(%rbp), %rax
	movq	%rdx, %rsi
	movq	%rax, %rdi
	call	_ZSt3maxImERKT_S2_S2_
	movq	(%rax), %rdx
	movq	-72(%rbp), %rax
	movq	%rdx, 8(%rax)
	movq	-72(%rbp), %rax
	movq	8(%rax), %rdx
	movq	-72(%rbp), %rax
	movq	%rdx, %rsi
	movq	%rax, %rdi
.LEHB27:
	call	_ZNSt11_Deque_baseISt4pairIiiESaIS1_EE15_M_allocate_mapEm
.LEHE27:
	movq	-72(%rbp), %rdx
	movq	%rax, (%rdx)
	movq	-72(%rbp), %rax
	movq	(%rax), %rdx
	movq	-72(%rbp), %rax
	movq	8(%rax), %rax
	subq	-48(%rbp), %rax
	shrq	%rax
	salq	$3, %rax
	addq	%rdx, %rax
	movq	%rax, -40(%rbp)
	movq	-48(%rbp), %rax
	leaq	0(,%rax,8), %rdx
	movq	-40(%rbp), %rax
	addq	%rdx, %rax
	movq	%rax, -32(%rbp)
	movq	-32(%rbp), %rdx
	movq	-40(%rbp), %rcx
	movq	-72(%rbp), %rax
	movq	%rcx, %rsi
	movq	%rax, %rdi
.LEHB28:
	call	_ZNSt11_Deque_baseISt4pairIiiESaIS1_EE15_M_create_nodesEPPS1_S5_
.LEHE28:
	movq	-72(%rbp), %rax
	leaq	16(%rax), %rdx
	movq	-40(%rbp), %rax
	movq	%rax, %rsi
	movq	%rdx, %rdi
	call	_ZNSt15_Deque_iteratorISt4pairIiiERS1_PS1_E11_M_set_nodeEPS3_
	movq	-72(%rbp), %rax
	addq	$48, %rax
	movq	-32(%rbp), %rdx
	subq	$8, %rdx
	movq	%rdx, %rsi
	movq	%rax, %rdi
	call	_ZNSt15_Deque_iteratorISt4pairIiiERS1_PS1_E11_M_set_nodeEPS3_
	movq	-72(%rbp), %rax
	movq	24(%rax), %rdx
	movq	-72(%rbp), %rax
	movq	%rdx, 16(%rax)
	movq	-72(%rbp), %rax
	movq	56(%rax), %rbx
	movl	$8, %edi
	call	_ZSt16__deque_buf_sizem
	movq	%rax, %rcx
	movq	-80(%rbp), %rax
	movl	$0, %edx
	divq	%rcx
	movq	%rdx, %rcx
	movq	%rcx, %rax
	salq	$3, %rax
	leaq	(%rbx,%rax), %rdx
	movq	-72(%rbp), %rax
	movq	%rdx, 48(%rax)
	nop
	movq	-24(%rbp), %rax
	subq	%fs:40, %rax
	je	.L288
	jmp	.L291
.L289:
	endbr64
	movq	%rax, %rdi
	call	__cxa_begin_catch@PLT
	movq	-72(%rbp), %rax
	movq	8(%rax), %rdx
	movq	-72(%rbp), %rax
	movq	(%rax), %rcx
	movq	-72(%rbp), %rax
	movq	%rcx, %rsi
	movq	%rax, %rdi
	call	_ZNSt11_Deque_baseISt4pairIiiESaIS1_EE17_M_deallocate_mapEPPS1_m
	movq	-72(%rbp), %rax
	movq	$0, (%rax)
	movq	-72(%rbp), %rax
	movq	$0, 8(%rax)
	movq	-24(%rbp), %rax
	subq	%fs:40, %rax
	je	.L285
	call	__stack_chk_fail@PLT
.L285:
.LEHB29:
	call	__cxa_rethrow@PLT
.LEHE29:
.L290:
	endbr64
	movq	%rax, %rbx
	call	__cxa_end_catch@PLT
	movq	%rbx, %rax
	movq	-24(%rbp), %rdx
	subq	%fs:40, %rdx
	je	.L287
	call	__stack_chk_fail@PLT
.L287:
	movq	%rax, %rdi
.LEHB30:
	call	_Unwind_Resume@PLT
.LEHE30:
.L291:
	call	__stack_chk_fail@PLT
.L288:
	movq	-8(%rbp), %rbx
	leave
	.cfi_def_cfa 7, 8
	ret
	.cfi_endproc
.LFE11569:
	.section	.gcc_except_table
	.align 4
.LLSDA11569:
	.byte	0xff
	.byte	0x9b
	.uleb128 .LLSDATT11569-.LLSDATTD11569
.LLSDATTD11569:
	.byte	0x1
	.uleb128 .LLSDACSE11569-.LLSDACSB11569
.LLSDACSB11569:
	.uleb128 .LEHB27-.LFB11569
	.uleb128 .LEHE27-.LEHB27
	.uleb128 0
	.uleb128 0
	.uleb128 .LEHB28-.LFB11569
	.uleb128 .LEHE28-.LEHB28
	.uleb128 .L289-.LFB11569
	.uleb128 0x1
	.uleb128 .LEHB29-.LFB11569
	.uleb128 .LEHE29-.LEHB29
	.uleb128 .L290-.LFB11569
	.uleb128 0
	.uleb128 .LEHB30-.LFB11569
	.uleb128 .LEHE30-.LEHB30
	.uleb128 0
	.uleb128 0
.LLSDACSE11569:
	.byte	0x1
	.byte	0
	.align 4
	.long	0

.LLSDATT11569:
	.section	.text._ZNSt11_Deque_baseISt4pairIiiESaIS1_EE17_M_initialize_mapEm,"axG",@progbits,_ZNSt11_Deque_baseISt4pairIiiESaIS1_EE17_M_initialize_mapEm,comdat
	.size	_ZNSt11_Deque_baseISt4pairIiiESaIS1_EE17_M_initialize_mapEm, .-_ZNSt11_Deque_baseISt4pairIiiESaIS1_EE17_M_initialize_mapEm
	.section	.text._ZNSt11_Deque_baseISt4pairIiiESaIS1_EE16_M_destroy_nodesEPPS1_S5_,"axG",@progbits,_ZNSt11_Deque_baseISt4pairIiiESaIS1_EE16_M_destroy_nodesEPPS1_S5_,comdat
	.align 2
	.weak	_ZNSt11_Deque_baseISt4pairIiiESaIS1_EE16_M_destroy_nodesEPPS1_S5_
	.type	_ZNSt11_Deque_baseISt4pairIiiESaIS1_EE16_M_destroy_nodesEPPS1_S5_, @function
_ZNSt11_Deque_baseISt4pairIiiESaIS1_EE16_M_destroy_nodesEPPS1_S5_:
.LFB11570:
	.cfi_startproc
	endbr64
	pushq	%rbp
	.cfi_def_cfa_offset 16
	.cfi_offset 6, -16
	movq	%rsp, %rbp
	.cfi_def_cfa_register 6
	subq	$48, %rsp
	movq	%rdi, -24(%rbp)
	movq	%rsi, -32(%rbp)
	movq	%rdx, -40(%rbp)
	movq	-32(%rbp), %rax
	movq	%rax, -8(%rbp)
	jmp	.L293
.L294:
	movq	-8(%rbp), %rax
	movq	(%rax), %rdx
	movq	-24(%rbp), %rax
	movq	%rdx, %rsi
	movq	%rax, %rdi
	call	_ZNSt11_Deque_baseISt4pairIiiESaIS1_EE18_M_deallocate_nodeEPS1_
	addq	$8, -8(%rbp)
.L293:
	movq	-8(%rbp), %rax
	cmpq	-40(%rbp), %rax
	jb	.L294
	nop
	nop
	leave
	.cfi_def_cfa 7, 8
	ret
	.cfi_endproc
.LFE11570:
	.size	_ZNSt11_Deque_baseISt4pairIiiESaIS1_EE16_M_destroy_nodesEPPS1_S5_, .-_ZNSt11_Deque_baseISt4pairIiiESaIS1_EE16_M_destroy_nodesEPPS1_S5_
	.section	.text._ZNSt11_Deque_baseISt4pairIiiESaIS1_EE17_M_deallocate_mapEPPS1_m,"axG",@progbits,_ZNSt11_Deque_baseISt4pairIiiESaIS1_EE17_M_deallocate_mapEPPS1_m,comdat
	.align 2
	.weak	_ZNSt11_Deque_baseISt4pairIiiESaIS1_EE17_M_deallocate_mapEPPS1_m
	.type	_ZNSt11_Deque_baseISt4pairIiiESaIS1_EE17_M_deallocate_mapEPPS1_m, @function
_ZNSt11_Deque_baseISt4pairIiiESaIS1_EE17_M_deallocate_mapEPPS1_m:
.LFB11571:
	.cfi_startproc
	endbr64
	pushq	%rbp
	.cfi_def_cfa_offset 16
	.cfi_offset 6, -16
	movq	%rsp, %rbp
	.cfi_def_cfa_register 6
	subq	$64, %rsp
	movq	%rdi, -40(%rbp)
	movq	%rsi, -48(%rbp)
	movq	%rdx, -56(%rbp)
	movq	%fs:40, %rax
	movq	%rax, -8(%rbp)
	xorl	%eax, %eax
	leaq	-25(%rbp), %rax
	movq	-40(%rbp), %rdx
	movq	%rdx, %rsi
	movq	%rax, %rdi
	call	_ZNKSt11_Deque_baseISt4pairIiiESaIS1_EE20_M_get_map_allocatorEv
	movq	-48(%rbp), %rax
	movq	%rax, -24(%rbp)
	movq	-56(%rbp), %rax
	movq	%rax, -16(%rbp)
	movq	-16(%rbp), %rdx
	movq	-24(%rbp), %rcx
	leaq	-25(%rbp), %rax
	movq	%rcx, %rsi
	movq	%rax, %rdi
	call	_ZNSt15__new_allocatorIPSt4pairIiiEE10deallocateEPS2_m
	nop
	leaq	-25(%rbp), %rax
	movq	%rax, %rdi
	call	_ZNSt15__new_allocatorIPSt4pairIiiEED2Ev
	nop
	nop
	movq	-8(%rbp), %rax
	subq	%fs:40, %rax
	je	.L296
	call	__stack_chk_fail@PLT
.L296:
	leave
	.cfi_def_cfa 7, 8
	ret
	.cfi_endproc
.LFE11571:
	.size	_ZNSt11_Deque_baseISt4pairIiiESaIS1_EE17_M_deallocate_mapEPPS1_m, .-_ZNSt11_Deque_baseISt4pairIiiESaIS1_EE17_M_deallocate_mapEPPS1_m
	.section	.text._ZNSt15_Deque_iteratorISt4pairIiiERS1_PS1_EC2ERKS4_,"axG",@progbits,_ZNSt15_Deque_iteratorISt4pairIiiERS1_PS1_EC5ERKS4_,comdat
	.align 2
	.weak	_ZNSt15_Deque_iteratorISt4pairIiiERS1_PS1_EC2ERKS4_
	.type	_ZNSt15_Deque_iteratorISt4pairIiiERS1_PS1_EC2ERKS4_, @function
_ZNSt15_Deque_iteratorISt4pairIiiERS1_PS1_EC2ERKS4_:
.LFB11573:
	.cfi_startproc
	endbr64
	pushq	%rbp
	.cfi_def_cfa_offset 16
	.cfi_offset 6, -16
	movq	%rsp, %rbp
	.cfi_def_cfa_register 6
	movq	%rdi, -8(%rbp)
	movq	%rsi, -16(%rbp)
	movq	-16(%rbp), %rax
	movq	(%rax), %rdx
	movq	-8(%rbp), %rax
	movq	%rdx, (%rax)
	movq	-16(%rbp), %rax
	movq	8(%rax), %rdx
	movq	-8(%rbp), %rax
	movq	%rdx, 8(%rax)
	movq	-16(%rbp), %rax
	movq	16(%rax), %rdx
	movq	-8(%rbp), %rax
	movq	%rdx, 16(%rax)
	movq	-16(%rbp), %rax
	movq	24(%rax), %rdx
	movq	-8(%rbp), %rax
	movq	%rdx, 24(%rax)
	nop
	popq	%rbp
	.cfi_def_cfa 7, 8
	ret
	.cfi_endproc
.LFE11573:
	.size	_ZNSt15_Deque_iteratorISt4pairIiiERS1_PS1_EC2ERKS4_, .-_ZNSt15_Deque_iteratorISt4pairIiiERS1_PS1_EC2ERKS4_
	.weak	_ZNSt15_Deque_iteratorISt4pairIiiERS1_PS1_EC1ERKS4_
	.set	_ZNSt15_Deque_iteratorISt4pairIiiERS1_PS1_EC1ERKS4_,_ZNSt15_Deque_iteratorISt4pairIiiERS1_PS1_EC2ERKS4_
	.section	.text._ZNSt5dequeISt4pairIiiESaIS1_EE12emplace_backIJS1_EEERS1_DpOT_,"axG",@progbits,_ZNSt5dequeISt4pairIiiESaIS1_EE12emplace_backIJS1_EEERS1_DpOT_,comdat
	.align 2
	.weak	_ZNSt5dequeISt4pairIiiESaIS1_EE12emplace_backIJS1_EEERS1_DpOT_
	.type	_ZNSt5dequeISt4pairIiiESaIS1_EE12emplace_backIJS1_EEERS1_DpOT_, @function
_ZNSt5dequeISt4pairIiiESaIS1_EE12emplace_backIJS1_EEERS1_DpOT_:
.LFB11576:
	.cfi_startproc
	endbr64
	pushq	%rbp
	.cfi_def_cfa_offset 16
	.cfi_offset 6, -16
	movq	%rsp, %rbp
	.cfi_def_cfa_register 6
	pushq	%rbx
	subq	$72, %rsp
	.cfi_offset 3, -24
	movq	%rdi, -72(%rbp)
	movq	%rsi, -80(%rbp)
	movq	-72(%rbp), %rax
	movq	48(%rax), %rdx
	movq	-72(%rbp), %rax
	movq	64(%rax), %rax
	subq	$8, %rax
	cmpq	%rax, %rdx
	je	.L299
	movq	-80(%rbp), %rax
	movq	%rax, %rdi
	call	_ZSt7forwardISt4pairIiiEEOT_RNSt16remove_referenceIS2_E4typeE
	movq	-72(%rbp), %rdx
	movq	48(%rdx), %rdx
	movq	-72(%rbp), %rcx
	movq	%rcx, -64(%rbp)
	movq	%rdx, -56(%rbp)
	movq	%rax, -48(%rbp)
	movq	-48(%rbp), %rax
	movq	%rax, %rdi
	call	_ZSt7forwardISt4pairIiiEEOT_RNSt16remove_referenceIS2_E4typeE
	movq	-64(%rbp), %rdx
	movq	%rdx, -40(%rbp)
	movq	-56(%rbp), %rdx
	movq	%rdx, -32(%rbp)
	movq	%rax, -24(%rbp)
	movq	-32(%rbp), %rax
	movq	%rax, %rsi
	movl	$8, %edi
	call	_ZnwmPv
	movq	%rax, %rbx
	movq	-24(%rbp), %rax
	movq	%rax, %rdi
	call	_ZSt7forwardISt4pairIiiEEOT_RNSt16remove_referenceIS2_E4typeE
	movq	(%rax), %rax
	movq	%rax, (%rbx)
	nop
	nop
	movq	-72(%rbp), %rax
	movq	48(%rax), %rax
	leaq	8(%rax), %rdx
	movq	-72(%rbp), %rax
	movq	%rdx, 48(%rax)
	jmp	.L300
.L299:
	movq	-80(%rbp), %rax
	movq	%rax, %rdi
	call	_ZSt7forwardISt4pairIiiEEOT_RNSt16remove_referenceIS2_E4typeE
	movq	%rax, %rdx
	movq	-72(%rbp), %rax
	movq	%rdx, %rsi
	movq	%rax, %rdi
	call	_ZNSt5dequeISt4pairIiiESaIS1_EE16_M_push_back_auxIJS1_EEEvDpOT_
.L300:
	movq	-72(%rbp), %rax
	movq	%rax, %rdi
	call	_ZNSt5dequeISt4pairIiiESaIS1_EE4backEv
	movq	-8(%rbp), %rbx
	leave
	.cfi_def_cfa 7, 8
	ret
	.cfi_endproc
.LFE11576:
	.size	_ZNSt5dequeISt4pairIiiESaIS1_EE12emplace_backIJS1_EEERS1_DpOT_, .-_ZNSt5dequeISt4pairIiiESaIS1_EE12emplace_backIJS1_EEERS1_DpOT_
	.section	.text._ZSteqRKSt15_Deque_iteratorISt4pairIiiERS1_PS1_ES6_,"axG",@progbits,_ZSteqRKSt15_Deque_iteratorISt4pairIiiERS1_PS1_ES6_,comdat
	.weak	_ZSteqRKSt15_Deque_iteratorISt4pairIiiERS1_PS1_ES6_
	.type	_ZSteqRKSt15_Deque_iteratorISt4pairIiiERS1_PS1_ES6_, @function
_ZSteqRKSt15_Deque_iteratorISt4pairIiiERS1_PS1_ES6_:
.LFB11577:
	.cfi_startproc
	endbr64
	pushq	%rbp
	.cfi_def_cfa_offset 16
	.cfi_offset 6, -16
	movq	%rsp, %rbp
	.cfi_def_cfa_register 6
	movq	%rdi, -8(%rbp)
	movq	%rsi, -16(%rbp)
	movq	-8(%rbp), %rax
	movq	(%rax), %rdx
	movq	-16(%rbp), %rax
	movq	(%rax), %rax
	cmpq	%rax, %rdx
	sete	%al
	popq	%rbp
	.cfi_def_cfa 7, 8
	ret
	.cfi_endproc
.LFE11577:
	.size	_ZSteqRKSt15_Deque_iteratorISt4pairIiiERS1_PS1_ES6_, .-_ZSteqRKSt15_Deque_iteratorISt4pairIiiERS1_PS1_ES6_
	.section	.text._ZNKSt15_Deque_iteratorISt4pairIiiERS1_PS1_EdeEv,"axG",@progbits,_ZNKSt15_Deque_iteratorISt4pairIiiERS1_PS1_EdeEv,comdat
	.align 2
	.weak	_ZNKSt15_Deque_iteratorISt4pairIiiERS1_PS1_EdeEv
	.type	_ZNKSt15_Deque_iteratorISt4pairIiiERS1_PS1_EdeEv, @function
_ZNKSt15_Deque_iteratorISt4pairIiiERS1_PS1_EdeEv:
.LFB11578:
	.cfi_startproc
	endbr64
	pushq	%rbp
	.cfi_def_cfa_offset 16
	.cfi_offset 6, -16
	movq	%rsp, %rbp
	.cfi_def_cfa_register 6
	movq	%rdi, -8(%rbp)
	movq	-8(%rbp), %rax
	movq	(%rax), %rax
	popq	%rbp
	.cfi_def_cfa 7, 8
	ret
	.cfi_endproc
.LFE11578:
	.size	_ZNKSt15_Deque_iteratorISt4pairIiiERS1_PS1_EdeEv, .-_ZNKSt15_Deque_iteratorISt4pairIiiERS1_PS1_EdeEv
	.section	.text._ZNSt5dequeISt4pairIiiESaIS1_EE16_M_pop_front_auxEv,"axG",@progbits,_ZNSt5dequeISt4pairIiiESaIS1_EE16_M_pop_front_auxEv,comdat
	.align 2
	.weak	_ZNSt5dequeISt4pairIiiESaIS1_EE16_M_pop_front_auxEv
	.type	_ZNSt5dequeISt4pairIiiESaIS1_EE16_M_pop_front_auxEv, @function
_ZNSt5dequeISt4pairIiiESaIS1_EE16_M_pop_front_auxEv:
.LFB11580:
	.cfi_startproc
	endbr64
	pushq	%rbp
	.cfi_def_cfa_offset 16
	.cfi_offset 6, -16
	movq	%rsp, %rbp
	.cfi_def_cfa_register 6
	pushq	%rbx
	subq	$56, %rsp
	.cfi_offset 3, -24
	movq	%rdi, -56(%rbp)
	movq	-56(%rbp), %rax
	movq	16(%rax), %rbx
	movq	-56(%rbp), %rax
	movq	%rax, %rdi
	call	_ZNSt11_Deque_baseISt4pairIiiESaIS1_EE19_M_get_Tp_allocatorEv
	movq	%rax, -48(%rbp)
	movq	%rbx, -40(%rbp)
	movq	-48(%rbp), %rax
	movq	%rax, -32(%rbp)
	movq	-40(%rbp), %rax
	movq	%rax, -24(%rbp)
	nop
	nop
	movq	-56(%rbp), %rax
	movq	-56(%rbp), %rdx
	movq	24(%rdx), %rdx
	movq	%rdx, %rsi
	movq	%rax, %rdi
	call	_ZNSt11_Deque_baseISt4pairIiiESaIS1_EE18_M_deallocate_nodeEPS1_
	movq	-56(%rbp), %rax
	addq	$16, %rax
	movq	-56(%rbp), %rdx
	movq	40(%rdx), %rdx
	addq	$8, %rdx
	movq	%rdx, %rsi
	movq	%rax, %rdi
	call	_ZNSt15_Deque_iteratorISt4pairIiiERS1_PS1_E11_M_set_nodeEPS3_
	movq	-56(%rbp), %rax
	movq	24(%rax), %rdx
	movq	-56(%rbp), %rax
	movq	%rdx, 16(%rax)
	nop
	movq	-8(%rbp), %rbx
	leave
	.cfi_def_cfa 7, 8
	ret
	.cfi_endproc
.LFE11580:
	.size	_ZNSt5dequeISt4pairIiiESaIS1_EE16_M_pop_front_auxEv, .-_ZNSt5dequeISt4pairIiiESaIS1_EE16_M_pop_front_auxEv
	.section	.text._ZNSt15__new_allocatorISt6vectorIiSaIiEEE8allocateEmPKv,"axG",@progbits,_ZNSt15__new_allocatorISt6vectorIiSaIiEEE8allocateEmPKv,comdat
	.align 2
	.weak	_ZNSt15__new_allocatorISt6vectorIiSaIiEEE8allocateEmPKv
	.type	_ZNSt15__new_allocatorISt6vectorIiSaIiEEE8allocateEmPKv, @function
_ZNSt15__new_allocatorISt6vectorIiSaIiEEE8allocateEmPKv:
.LFB11666:
	.cfi_startproc
	endbr64
	pushq	%rbp
	.cfi_def_cfa_offset 16
	.cfi_offset 6, -16
	movq	%rsp, %rbp
	.cfi_def_cfa_register 6
	subq	$48, %rsp
	movq	%rdi, -24(%rbp)
	movq	%rsi, -32(%rbp)
	movq	%rdx, -40(%rbp)
	movq	-24(%rbp), %rax
	movq	%rax, -8(%rbp)
	movabsq	$384307168202282325, %rax
	cmpq	-32(%rbp), %rax
	setb	%al
	movzbl	%al, %eax
	testq	%rax, %rax
	setne	%al
	testb	%al, %al
	je	.L309
	movabsq	$768614336404564650, %rax
	cmpq	-32(%rbp), %rax
	jnb	.L310
	call	_ZSt28__throw_bad_array_new_lengthv@PLT
.L310:
	call	_ZSt17__throw_bad_allocv@PLT
.L309:
	movq	-32(%rbp), %rdx
	movq	%rdx, %rax
	addq	%rax, %rax
	addq	%rdx, %rax
	salq	$3, %rax
	movq	%rax, %rdi
	call	_Znwm@PLT
	nop
	leave
	.cfi_def_cfa 7, 8
	ret
	.cfi_endproc
.LFE11666:
	.size	_ZNSt15__new_allocatorISt6vectorIiSaIiEEE8allocateEmPKv, .-_ZNSt15__new_allocatorISt6vectorIiSaIiEEE8allocateEmPKv
	.section	.text._ZSt18__do_uninit_fill_nIPSt6vectorIiSaIiEEmS2_ET_S4_T0_RKT1_,"axG",@progbits,_ZSt18__do_uninit_fill_nIPSt6vectorIiSaIiEEmS2_ET_S4_T0_RKT1_,comdat
	.weak	_ZSt18__do_uninit_fill_nIPSt6vectorIiSaIiEEmS2_ET_S4_T0_RKT1_
	.type	_ZSt18__do_uninit_fill_nIPSt6vectorIiSaIiEEmS2_ET_S4_T0_RKT1_, @function
_ZSt18__do_uninit_fill_nIPSt6vectorIiSaIiEEmS2_ET_S4_T0_RKT1_:
.LFB11667:
	.cfi_startproc
	.cfi_personality 0x9b,DW.ref.__gxx_personality_v0
	.cfi_lsda 0x1b,.LLSDA11667
	endbr64
	pushq	%rbp
	.cfi_def_cfa_offset 16
	.cfi_offset 6, -16
	movq	%rsp, %rbp
	.cfi_def_cfa_register 6
	pushq	%rbx
	subq	$56, %rsp
	.cfi_offset 3, -24
	movq	%rdi, -40(%rbp)
	movq	%rsi, -48(%rbp)
	movq	%rdx, -56(%rbp)
	movq	-40(%rbp), %rax
	movq	%rax, -24(%rbp)
	jmp	.L313
.L314:
	movq	-24(%rbp), %rax
	movq	%rax, %rdi
	call	_ZSt11__addressofISt6vectorIiSaIiEEEPT_RS3_
	movq	%rax, %rdx
	movq	-56(%rbp), %rax
	movq	%rax, %rsi
	movq	%rdx, %rdi
.LEHB31:
	call	_ZSt10_ConstructISt6vectorIiSaIiEEJRKS2_EEvPT_DpOT0_
.LEHE31:
	subq	$1, -48(%rbp)
	addq	$24, -24(%rbp)
.L313:
	cmpq	$0, -48(%rbp)
	jne	.L314
	movq	-24(%rbp), %rax
	jmp	.L320
.L318:
	endbr64
	movq	%rax, %rdi
	call	__cxa_begin_catch@PLT
	movq	-24(%rbp), %rdx
	movq	-40(%rbp), %rax
	movq	%rdx, %rsi
	movq	%rax, %rdi
.LEHB32:
	call	_ZSt8_DestroyIPSt6vectorIiSaIiEEEvT_S4_
	call	__cxa_rethrow@PLT
.LEHE32:
.L319:
	endbr64
	movq	%rax, %rbx
	call	__cxa_end_catch@PLT
	movq	%rbx, %rax
	movq	%rax, %rdi
.LEHB33:
	call	_Unwind_Resume@PLT
.LEHE33:
.L320:
	movq	-8(%rbp), %rbx
	leave
	.cfi_def_cfa 7, 8
	ret
	.cfi_endproc
.LFE11667:
	.section	.gcc_except_table
	.align 4
.LLSDA11667:
	.byte	0xff
	.byte	0x9b
	.uleb128 .LLSDATT11667-.LLSDATTD11667
.LLSDATTD11667:
	.byte	0x1
	.uleb128 .LLSDACSE11667-.LLSDACSB11667
.LLSDACSB11667:
	.uleb128 .LEHB31-.LFB11667
	.uleb128 .LEHE31-.LEHB31
	.uleb128 .L318-.LFB11667
	.uleb128 0x1
	.uleb128 .LEHB32-.LFB11667
	.uleb128 .LEHE32-.LEHB32
	.uleb128 .L319-.LFB11667
	.uleb128 0
	.uleb128 .LEHB33-.LFB11667
	.uleb128 .LEHE33-.LEHB33
	.uleb128 0
	.uleb128 0
.LLSDACSE11667:
	.byte	0x1
	.byte	0
	.align 4
	.long	0

.LLSDATT11667:
	.section	.text._ZSt18__do_uninit_fill_nIPSt6vectorIiSaIiEEmS2_ET_S4_T0_RKT1_,"axG",@progbits,_ZSt18__do_uninit_fill_nIPSt6vectorIiSaIiEEmS2_ET_S4_T0_RKT1_,comdat
	.size	_ZSt18__do_uninit_fill_nIPSt6vectorIiSaIiEEmS2_ET_S4_T0_RKT1_, .-_ZSt18__do_uninit_fill_nIPSt6vectorIiSaIiEEmS2_ET_S4_T0_RKT1_
	.section	.text._ZSt6fill_nIPimiET_S1_T0_RKT1_,"axG",@progbits,_ZSt6fill_nIPimiET_S1_T0_RKT1_,comdat
	.weak	_ZSt6fill_nIPimiET_S1_T0_RKT1_
	.type	_ZSt6fill_nIPimiET_S1_T0_RKT1_, @function
_ZSt6fill_nIPimiET_S1_T0_RKT1_:
.LFB11669:
	.cfi_startproc
	endbr64
	pushq	%rbp
	.cfi_def_cfa_offset 16
	.cfi_offset 6, -16
	movq	%rsp, %rbp
	.cfi_def_cfa_register 6
	subq	$32, %rsp
	movq	%rdi, -8(%rbp)
	movq	%rsi, -16(%rbp)
	movq	%rdx, -24(%rbp)
	nop
	movq	-16(%rbp), %rax
	movq	%rax, %rdi
	call	_ZSt17__size_to_integerm
	movq	%rax, %rcx
	movq	-8(%rbp), %rax
	movq	-24(%rbp), %rdx
	movq	%rcx, %rsi
	movq	%rax, %rdi
	call	_ZSt10__fill_n_aIPimiET_S1_T0_RKT1_St26random_access_iterator_tag
	leave
	.cfi_def_cfa 7, 8
	ret
	.cfi_endproc
.LFE11669:
	.size	_ZSt6fill_nIPimiET_S1_T0_RKT1_, .-_ZSt6fill_nIPimiET_S1_T0_RKT1_
	.section	.text._ZNSt27__uninitialized_default_n_1ILb1EE18__uninit_default_nIPimEET_S3_T0_,"axG",@progbits,_ZNSt27__uninitialized_default_n_1ILb1EE18__uninit_default_nIPimEET_S3_T0_,comdat
	.weak	_ZNSt27__uninitialized_default_n_1ILb1EE18__uninit_default_nIPimEET_S3_T0_
	.type	_ZNSt27__uninitialized_default_n_1ILb1EE18__uninit_default_nIPimEET_S3_T0_, @function
_ZNSt27__uninitialized_default_n_1ILb1EE18__uninit_default_nIPimEET_S3_T0_:
.LFB11670:
	.cfi_startproc
	endbr64
	pushq	%rbp
	.cfi_def_cfa_offset 16
	.cfi_offset 6, -16
	movq	%rsp, %rbp
	.cfi_def_cfa_register 6
	subq	$32, %rsp
	movq	%rdi, -24(%rbp)
	movq	%rsi, -32(%rbp)
	cmpq	$0, -32(%rbp)
	je	.L325
	movq	-24(%rbp), %rax
	movq	%rax, %rdi
	call	_ZSt11__addressofIiEPT_RS0_
	movq	%rax, -8(%rbp)
	movq	-8(%rbp), %rax
	movq	%rax, %rdi
	call	_ZSt10_ConstructIiJEEvPT_DpOT0_
	addq	$4, -24(%rbp)
	movq	-32(%rbp), %rax
	leaq	-1(%rax), %rcx
	movq	-8(%rbp), %rdx
	movq	-24(%rbp), %rax
	movq	%rcx, %rsi
	movq	%rax, %rdi
	call	_ZSt6fill_nIPimiET_S1_T0_RKT1_
	movq	%rax, -24(%rbp)
.L325:
	movq	-24(%rbp), %rax
	leave
	.cfi_def_cfa 7, 8
	ret
	.cfi_endproc
.LFE11670:
	.size	_ZNSt27__uninitialized_default_n_1ILb1EE18__uninit_default_nIPimEET_S3_T0_, .-_ZNSt27__uninitialized_default_n_1ILb1EE18__uninit_default_nIPimEET_S3_T0_
	.section	.text._ZNSt11_Deque_baseISt4pairIiiESaIS1_EE16_Deque_impl_dataC2Ev,"axG",@progbits,_ZNSt11_Deque_baseISt4pairIiiESaIS1_EE16_Deque_impl_dataC5Ev,comdat
	.align 2
	.weak	_ZNSt11_Deque_baseISt4pairIiiESaIS1_EE16_Deque_impl_dataC2Ev
	.type	_ZNSt11_Deque_baseISt4pairIiiESaIS1_EE16_Deque_impl_dataC2Ev, @function
_ZNSt11_Deque_baseISt4pairIiiESaIS1_EE16_Deque_impl_dataC2Ev:
.LFB11675:
	.cfi_startproc
	endbr64
	pushq	%rbp
	.cfi_def_cfa_offset 16
	.cfi_offset 6, -16
	movq	%rsp, %rbp
	.cfi_def_cfa_register 6
	subq	$16, %rsp
	movq	%rdi, -8(%rbp)
	movq	-8(%rbp), %rax
	movq	$0, (%rax)
	movq	-8(%rbp), %rax
	movq	$0, 8(%rax)
	movq	-8(%rbp), %rax
	addq	$16, %rax
	movq	%rax, %rdi
	call	_ZNSt15_Deque_iteratorISt4pairIiiERS1_PS1_EC1Ev
	movq	-8(%rbp), %rax
	addq	$48, %rax
	movq	%rax, %rdi
	call	_ZNSt15_Deque_iteratorISt4pairIiiERS1_PS1_EC1Ev
	nop
	leave
	.cfi_def_cfa 7, 8
	ret
	.cfi_endproc
.LFE11675:
	.size	_ZNSt11_Deque_baseISt4pairIiiESaIS1_EE16_Deque_impl_dataC2Ev, .-_ZNSt11_Deque_baseISt4pairIiiESaIS1_EE16_Deque_impl_dataC2Ev
	.weak	_ZNSt11_Deque_baseISt4pairIiiESaIS1_EE16_Deque_impl_dataC1Ev
	.set	_ZNSt11_Deque_baseISt4pairIiiESaIS1_EE16_Deque_impl_dataC1Ev,_ZNSt11_Deque_baseISt4pairIiiESaIS1_EE16_Deque_impl_dataC2Ev
	.section	.text._ZNSt15__new_allocatorISt4pairIiiEED2Ev,"axG",@progbits,_ZNSt15__new_allocatorISt4pairIiiEED5Ev,comdat
	.align 2
	.weak	_ZNSt15__new_allocatorISt4pairIiiEED2Ev
	.type	_ZNSt15__new_allocatorISt4pairIiiEED2Ev, @function
_ZNSt15__new_allocatorISt4pairIiiEED2Ev:
.LFB11678:
	.cfi_startproc
	endbr64
	pushq	%rbp
	.cfi_def_cfa_offset 16
	.cfi_offset 6, -16
	movq	%rsp, %rbp
	.cfi_def_cfa_register 6
	movq	%rdi, -8(%rbp)
	nop
	popq	%rbp
	.cfi_def_cfa 7, 8
	ret
	.cfi_endproc
.LFE11678:
	.size	_ZNSt15__new_allocatorISt4pairIiiEED2Ev, .-_ZNSt15__new_allocatorISt4pairIiiEED2Ev
	.weak	_ZNSt15__new_allocatorISt4pairIiiEED1Ev
	.set	_ZNSt15__new_allocatorISt4pairIiiEED1Ev,_ZNSt15__new_allocatorISt4pairIiiEED2Ev
	.section	.text._ZNSt11_Deque_baseISt4pairIiiESaIS1_EE15_M_allocate_mapEm,"axG",@progbits,_ZNSt11_Deque_baseISt4pairIiiESaIS1_EE15_M_allocate_mapEm,comdat
	.align 2
	.weak	_ZNSt11_Deque_baseISt4pairIiiESaIS1_EE15_M_allocate_mapEm
	.type	_ZNSt11_Deque_baseISt4pairIiiESaIS1_EE15_M_allocate_mapEm, @function
_ZNSt11_Deque_baseISt4pairIiiESaIS1_EE15_M_allocate_mapEm:
.LFB11680:
	.cfi_startproc
	.cfi_personality 0x9b,DW.ref.__gxx_personality_v0
	.cfi_lsda 0x1b,.LLSDA11680
	endbr64
	pushq	%rbp
	.cfi_def_cfa_offset 16
	.cfi_offset 6, -16
	movq	%rsp, %rbp
	.cfi_def_cfa_register 6
	pushq	%rbx
	subq	$56, %rsp
	.cfi_offset 3, -24
	movq	%rdi, -56(%rbp)
	movq	%rsi, -64(%rbp)
	movq	%fs:40, %rax
	movq	%rax, -24(%rbp)
	xorl	%eax, %eax
	leaq	-33(%rbp), %rax
	movq	-56(%rbp), %rdx
	movq	%rdx, %rsi
	movq	%rax, %rdi
	call	_ZNKSt11_Deque_baseISt4pairIiiESaIS1_EE20_M_get_map_allocatorEv
	movq	-64(%rbp), %rax
	movq	%rax, -32(%rbp)
	movq	-32(%rbp), %rcx
	leaq	-33(%rbp), %rax
	movl	$0, %edx
	movq	%rcx, %rsi
	movq	%rax, %rdi
.LEHB34:
	call	_ZNSt15__new_allocatorIPSt4pairIiiEE8allocateEmPKv
.LEHE34:
	movq	%rax, %rbx
	nop
	nop
	leaq	-33(%rbp), %rax
	movq	%rax, %rdi
	call	_ZNSt15__new_allocatorIPSt4pairIiiEED2Ev
	nop
	movq	%rbx, %rax
	movq	-24(%rbp), %rdx
	subq	%fs:40, %rdx
	je	.L334
	jmp	.L336
.L335:
	endbr64
	movq	%rax, %rbx
	leaq	-33(%rbp), %rax
	movq	%rax, %rdi
	call	_ZNSt15__new_allocatorIPSt4pairIiiEED2Ev
	nop
	movq	%rbx, %rax
	movq	-24(%rbp), %rdx
	subq	%fs:40, %rdx
	je	.L333
	call	__stack_chk_fail@PLT
.L333:
	movq	%rax, %rdi
.LEHB35:
	call	_Unwind_Resume@PLT
.LEHE35:
.L336:
	call	__stack_chk_fail@PLT
.L334:
	movq	-8(%rbp), %rbx
	leave
	.cfi_def_cfa 7, 8
	ret
	.cfi_endproc
.LFE11680:
	.section	.gcc_except_table
.LLSDA11680:
	.byte	0xff
	.byte	0xff
	.byte	0x1
	.uleb128 .LLSDACSE11680-.LLSDACSB11680
.LLSDACSB11680:
	.uleb128 .LEHB34-.LFB11680
	.uleb128 .LEHE34-.LEHB34
	.uleb128 .L335-.LFB11680
	.uleb128 0
	.uleb128 .LEHB35-.LFB11680
	.uleb128 .LEHE35-.LEHB35
	.uleb128 0
	.uleb128 0
.LLSDACSE11680:
	.section	.text._ZNSt11_Deque_baseISt4pairIiiESaIS1_EE15_M_allocate_mapEm,"axG",@progbits,_ZNSt11_Deque_baseISt4pairIiiESaIS1_EE15_M_allocate_mapEm,comdat
	.size	_ZNSt11_Deque_baseISt4pairIiiESaIS1_EE15_M_allocate_mapEm, .-_ZNSt11_Deque_baseISt4pairIiiESaIS1_EE15_M_allocate_mapEm
	.section	.text._ZNSt11_Deque_baseISt4pairIiiESaIS1_EE15_M_create_nodesEPPS1_S5_,"axG",@progbits,_ZNSt11_Deque_baseISt4pairIiiESaIS1_EE15_M_create_nodesEPPS1_S5_,comdat
	.align 2
	.weak	_ZNSt11_Deque_baseISt4pairIiiESaIS1_EE15_M_create_nodesEPPS1_S5_
	.type	_ZNSt11_Deque_baseISt4pairIiiESaIS1_EE15_M_create_nodesEPPS1_S5_, @function
_ZNSt11_Deque_baseISt4pairIiiESaIS1_EE15_M_create_nodesEPPS1_S5_:
.LFB11681:
	.cfi_startproc
	.cfi_personality 0x9b,DW.ref.__gxx_personality_v0
	.cfi_lsda 0x1b,.LLSDA11681
	endbr64
	pushq	%rbp
	.cfi_def_cfa_offset 16
	.cfi_offset 6, -16
	movq	%rsp, %rbp
	.cfi_def_cfa_register 6
	pushq	%rbx
	subq	$56, %rsp
	.cfi_offset 3, -24
	movq	%rdi, -40(%rbp)
	movq	%rsi, -48(%rbp)
	movq	%rdx, -56(%rbp)
	movq	-48(%rbp), %rax
	movq	%rax, -24(%rbp)
	jmp	.L338
.L339:
	movq	-40(%rbp), %rax
	movq	%rax, %rdi
.LEHB36:
	call	_ZNSt11_Deque_baseISt4pairIiiESaIS1_EE16_M_allocate_nodeEv
.LEHE36:
	movq	-24(%rbp), %rdx
	movq	%rax, (%rdx)
	addq	$8, -24(%rbp)
.L338:
	movq	-24(%rbp), %rax
	cmpq	-56(%rbp), %rax
	jb	.L339
	jmp	.L344
.L342:
	endbr64
	movq	%rax, %rdi
	call	__cxa_begin_catch@PLT
	movq	-24(%rbp), %rdx
	movq	-48(%rbp), %rcx
	movq	-40(%rbp), %rax
	movq	%rcx, %rsi
	movq	%rax, %rdi
	call	_ZNSt11_Deque_baseISt4pairIiiESaIS1_EE16_M_destroy_nodesEPPS1_S5_
.LEHB37:
	call	__cxa_rethrow@PLT
.LEHE37:
.L343:
	endbr64
	movq	%rax, %rbx
	call	__cxa_end_catch@PLT
	movq	%rbx, %rax
	movq	%rax, %rdi
.LEHB38:
	call	_Unwind_Resume@PLT
.LEHE38:
.L344:
	movq	-8(%rbp), %rbx
	leave
	.cfi_def_cfa 7, 8
	ret
	.cfi_endproc
.LFE11681:
	.section	.gcc_except_table
	.align 4
.LLSDA11681:
	.byte	0xff
	.byte	0x9b
	.uleb128 .LLSDATT11681-.LLSDATTD11681
.LLSDATTD11681:
	.byte	0x1
	.uleb128 .LLSDACSE11681-.LLSDACSB11681
.LLSDACSB11681:
	.uleb128 .LEHB36-.LFB11681
	.uleb128 .LEHE36-.LEHB36
	.uleb128 .L342-.LFB11681
	.uleb128 0x1
	.uleb128 .LEHB37-.LFB11681
	.uleb128 .LEHE37-.LEHB37
	.uleb128 .L343-.LFB11681
	.uleb128 0
	.uleb128 .LEHB38-.LFB11681
	.uleb128 .LEHE38-.LEHB38
	.uleb128 0
	.uleb128 0
.LLSDACSE11681:
	.byte	0x1
	.byte	0
	.align 4
	.long	0

.LLSDATT11681:
	.section	.text._ZNSt11_Deque_baseISt4pairIiiESaIS1_EE15_M_create_nodesEPPS1_S5_,"axG",@progbits,_ZNSt11_Deque_baseISt4pairIiiESaIS1_EE15_M_create_nodesEPPS1_S5_,comdat
	.size	_ZNSt11_Deque_baseISt4pairIiiESaIS1_EE15_M_create_nodesEPPS1_S5_, .-_ZNSt11_Deque_baseISt4pairIiiESaIS1_EE15_M_create_nodesEPPS1_S5_
	.section	.text._ZNSt15_Deque_iteratorISt4pairIiiERS1_PS1_E11_M_set_nodeEPS3_,"axG",@progbits,_ZNSt15_Deque_iteratorISt4pairIiiERS1_PS1_E11_M_set_nodeEPS3_,comdat
	.align 2
	.weak	_ZNSt15_Deque_iteratorISt4pairIiiERS1_PS1_E11_M_set_nodeEPS3_
	.type	_ZNSt15_Deque_iteratorISt4pairIiiERS1_PS1_E11_M_set_nodeEPS3_, @function
_ZNSt15_Deque_iteratorISt4pairIiiERS1_PS1_E11_M_set_nodeEPS3_:
.LFB11682:
	.cfi_startproc
	endbr64
	pushq	%rbp
	.cfi_def_cfa_offset 16
	.cfi_offset 6, -16
	movq	%rsp, %rbp
	.cfi_def_cfa_register 6
	pushq	%rbx
	subq	$24, %rsp
	.cfi_offset 3, -24
	movq	%rdi, -24(%rbp)
	movq	%rsi, -32(%rbp)
	movq	-24(%rbp), %rax
	movq	-32(%rbp), %rdx
	movq	%rdx, 24(%rax)
	movq	-32(%rbp), %rax
	movq	(%rax), %rdx
	movq	-24(%rbp), %rax
	movq	%rdx, 8(%rax)
	movq	-24(%rbp), %rax
	movq	8(%rax), %rbx
	call	_ZNSt15_Deque_iteratorISt4pairIiiERS1_PS1_E14_S_buffer_sizeEv
	salq	$3, %rax
	leaq	(%rbx,%rax), %rdx
	movq	-24(%rbp), %rax
	movq	%rdx, 16(%rax)
	nop
	movq	-8(%rbp), %rbx
	leave
	.cfi_def_cfa 7, 8
	ret
	.cfi_endproc
.LFE11682:
	.size	_ZNSt15_Deque_iteratorISt4pairIiiERS1_PS1_E11_M_set_nodeEPS3_, .-_ZNSt15_Deque_iteratorISt4pairIiiERS1_PS1_E11_M_set_nodeEPS3_
	.section	.text._ZNSt11_Deque_baseISt4pairIiiESaIS1_EE18_M_deallocate_nodeEPS1_,"axG",@progbits,_ZNSt11_Deque_baseISt4pairIiiESaIS1_EE18_M_deallocate_nodeEPS1_,comdat
	.align 2
	.weak	_ZNSt11_Deque_baseISt4pairIiiESaIS1_EE18_M_deallocate_nodeEPS1_
	.type	_ZNSt11_Deque_baseISt4pairIiiESaIS1_EE18_M_deallocate_nodeEPS1_, @function
_ZNSt11_Deque_baseISt4pairIiiESaIS1_EE18_M_deallocate_nodeEPS1_:
.LFB11683:
	.cfi_startproc
	endbr64
	pushq	%rbp
	.cfi_def_cfa_offset 16
	.cfi_offset 6, -16
	movq	%rsp, %rbp
	.cfi_def_cfa_register 6
	subq	$48, %rsp
	movq	%rdi, -40(%rbp)
	movq	%rsi, -48(%rbp)
	movl	$8, %edi
	call	_ZSt16__deque_buf_sizem
	movq	-40(%rbp), %rdx
	movq	%rdx, -24(%rbp)
	movq	-48(%rbp), %rdx
	movq	%rdx, -16(%rbp)
	movq	%rax, -8(%rbp)
	movq	-8(%rbp), %rdx
	movq	-16(%rbp), %rcx
	movq	-24(%rbp), %rax
	movq	%rcx, %rsi
	movq	%rax, %rdi
	call	_ZNSt15__new_allocatorISt4pairIiiEE10deallocateEPS1_m
	nop
	nop
	leave
	.cfi_def_cfa 7, 8
	ret
	.cfi_endproc
.LFE11683:
	.size	_ZNSt11_Deque_baseISt4pairIiiESaIS1_EE18_M_deallocate_nodeEPS1_, .-_ZNSt11_Deque_baseISt4pairIiiESaIS1_EE18_M_deallocate_nodeEPS1_
	.section	.text._ZNKSt11_Deque_baseISt4pairIiiESaIS1_EE20_M_get_map_allocatorEv,"axG",@progbits,_ZNKSt11_Deque_baseISt4pairIiiESaIS1_EE20_M_get_map_allocatorEv,comdat
	.align 2
	.weak	_ZNKSt11_Deque_baseISt4pairIiiESaIS1_EE20_M_get_map_allocatorEv
	.type	_ZNKSt11_Deque_baseISt4pairIiiESaIS1_EE20_M_get_map_allocatorEv, @function
_ZNKSt11_Deque_baseISt4pairIiiESaIS1_EE20_M_get_map_allocatorEv:
.LFB11684:
	.cfi_startproc
	endbr64
	pushq	%rbp
	.cfi_def_cfa_offset 16
	.cfi_offset 6, -16
	movq	%rsp, %rbp
	.cfi_def_cfa_register 6
	subq	$48, %rsp
	movq	%rdi, -40(%rbp)
	movq	%rsi, -48(%rbp)
	movq	-48(%rbp), %rax
	movq	%rax, %rdi
	call	_ZNKSt11_Deque_baseISt4pairIiiESaIS1_EE19_M_get_Tp_allocatorEv
	movq	-40(%rbp), %rdx
	movq	%rdx, -24(%rbp)
	movq	%rax, -16(%rbp)
	movq	-24(%rbp), %rax
	movq	%rax, -8(%rbp)
	nop
	nop
	nop
	movq	-40(%rbp), %rax
	leave
	.cfi_def_cfa 7, 8
	ret
	.cfi_endproc
.LFE11684:
	.size	_ZNKSt11_Deque_baseISt4pairIiiESaIS1_EE20_M_get_map_allocatorEv, .-_ZNKSt11_Deque_baseISt4pairIiiESaIS1_EE20_M_get_map_allocatorEv
	.section	.text._ZSt7forwardISt4pairIiiEEOT_RNSt16remove_referenceIS2_E4typeE,"axG",@progbits,_ZSt7forwardISt4pairIiiEEOT_RNSt16remove_referenceIS2_E4typeE,comdat
	.weak	_ZSt7forwardISt4pairIiiEEOT_RNSt16remove_referenceIS2_E4typeE
	.type	_ZSt7forwardISt4pairIiiEEOT_RNSt16remove_referenceIS2_E4typeE, @function
_ZSt7forwardISt4pairIiiEEOT_RNSt16remove_referenceIS2_E4typeE:
.LFB11691:
	.cfi_startproc
	endbr64
	pushq	%rbp
	.cfi_def_cfa_offset 16
	.cfi_offset 6, -16
	movq	%rsp, %rbp
	.cfi_def_cfa_register 6
	movq	%rdi, -8(%rbp)
	movq	-8(%rbp), %rax
	popq	%rbp
	.cfi_def_cfa 7, 8
	ret
	.cfi_endproc
.LFE11691:
	.size	_ZSt7forwardISt4pairIiiEEOT_RNSt16remove_referenceIS2_E4typeE, .-_ZSt7forwardISt4pairIiiEEOT_RNSt16remove_referenceIS2_E4typeE
	.section	.rodata
	.align 8
.LC3:
	.string	"cannot create std::deque larger than max_size()"
	.section	.text._ZNSt5dequeISt4pairIiiESaIS1_EE16_M_push_back_auxIJS1_EEEvDpOT_,"axG",@progbits,_ZNSt5dequeISt4pairIiiESaIS1_EE16_M_push_back_auxIJS1_EEEvDpOT_,comdat
	.align 2
	.weak	_ZNSt5dequeISt4pairIiiESaIS1_EE16_M_push_back_auxIJS1_EEEvDpOT_
	.type	_ZNSt5dequeISt4pairIiiESaIS1_EE16_M_push_back_auxIJS1_EEEvDpOT_, @function
_ZNSt5dequeISt4pairIiiESaIS1_EE16_M_push_back_auxIJS1_EEEvDpOT_:
.LFB11693:
	.cfi_startproc
	endbr64
	pushq	%rbp
	.cfi_def_cfa_offset 16
	.cfi_offset 6, -16
	movq	%rsp, %rbp
	.cfi_def_cfa_register 6
	pushq	%rbx
	subq	$72, %rsp
	.cfi_offset 3, -24
	movq	%rdi, -72(%rbp)
	movq	%rsi, -80(%rbp)
	movq	-72(%rbp), %rax
	movq	%rax, %rdi
	call	_ZNKSt5dequeISt4pairIiiESaIS1_EE4sizeEv
	movq	%rax, %rbx
	movq	-72(%rbp), %rax
	movq	%rax, %rdi
	call	_ZNKSt5dequeISt4pairIiiESaIS1_EE8max_sizeEv
	cmpq	%rax, %rbx
	sete	%al
	testb	%al, %al
	je	.L352
	leaq	.LC3(%rip), %rax
	movq	%rax, %rdi
	call	_ZSt20__throw_length_errorPKc@PLT
.L352:
	movq	-72(%rbp), %rax
	movl	$1, %esi
	movq	%rax, %rdi
	call	_ZNSt5dequeISt4pairIiiESaIS1_EE22_M_reserve_map_at_backEm
	movq	-72(%rbp), %rax
	movq	-72(%rbp), %rdx
	movq	72(%rdx), %rdx
	leaq	8(%rdx), %rbx
	movq	%rax, %rdi
	call	_ZNSt11_Deque_baseISt4pairIiiESaIS1_EE16_M_allocate_nodeEv
	movq	%rax, (%rbx)
	movq	-80(%rbp), %rax
	movq	%rax, %rdi
	call	_ZSt7forwardISt4pairIiiEEOT_RNSt16remove_referenceIS2_E4typeE
	movq	-72(%rbp), %rdx
	movq	48(%rdx), %rdx
	movq	-72(%rbp), %rcx
	movq	%rcx, -64(%rbp)
	movq	%rdx, -56(%rbp)
	movq	%rax, -48(%rbp)
	movq	-48(%rbp), %rax
	movq	%rax, %rdi
	call	_ZSt7forwardISt4pairIiiEEOT_RNSt16remove_referenceIS2_E4typeE
	movq	-64(%rbp), %rdx
	movq	%rdx, -40(%rbp)
	movq	-56(%rbp), %rdx
	movq	%rdx, -32(%rbp)
	movq	%rax, -24(%rbp)
	movq	-32(%rbp), %rax
	movq	%rax, %rsi
	movl	$8, %edi
	call	_ZnwmPv
	movq	%rax, %rbx
	movq	-24(%rbp), %rax
	movq	%rax, %rdi
	call	_ZSt7forwardISt4pairIiiEEOT_RNSt16remove_referenceIS2_E4typeE
	movq	(%rax), %rax
	movq	%rax, (%rbx)
	nop
	nop
	movq	-72(%rbp), %rax
	addq	$48, %rax
	movq	-72(%rbp), %rdx
	movq	72(%rdx), %rdx
	addq	$8, %rdx
	movq	%rdx, %rsi
	movq	%rax, %rdi
	call	_ZNSt15_Deque_iteratorISt4pairIiiERS1_PS1_E11_M_set_nodeEPS3_
	movq	-72(%rbp), %rax
	movq	56(%rax), %rdx
	movq	-72(%rbp), %rax
	movq	%rdx, 48(%rax)
	nop
	movq	-8(%rbp), %rbx
	leave
	.cfi_def_cfa 7, 8
	ret
	.cfi_endproc
.LFE11693:
	.size	_ZNSt5dequeISt4pairIiiESaIS1_EE16_M_push_back_auxIJS1_EEEvDpOT_, .-_ZNSt5dequeISt4pairIiiESaIS1_EE16_M_push_back_auxIJS1_EEEvDpOT_
	.section	.text._ZNSt5dequeISt4pairIiiESaIS1_EE4backEv,"axG",@progbits,_ZNSt5dequeISt4pairIiiESaIS1_EE4backEv,comdat
	.align 2
	.weak	_ZNSt5dequeISt4pairIiiESaIS1_EE4backEv
	.type	_ZNSt5dequeISt4pairIiiESaIS1_EE4backEv, @function
_ZNSt5dequeISt4pairIiiESaIS1_EE4backEv:
.LFB11694:
	.cfi_startproc
	endbr64
	pushq	%rbp
	.cfi_def_cfa_offset 16
	.cfi_offset 6, -16
	movq	%rsp, %rbp
	.cfi_def_cfa_register 6
	subq	$64, %rsp
	movq	%rdi, -56(%rbp)
	movq	%fs:40, %rax
	movq	%rax, -8(%rbp)
	xorl	%eax, %eax
	leaq	-48(%rbp), %rax
	movq	-56(%rbp), %rdx
	movq	%rdx, %rsi
	movq	%rax, %rdi
	call	_ZNSt5dequeISt4pairIiiESaIS1_EE3endEv
	leaq	-48(%rbp), %rax
	movq	%rax, %rdi
	call	_ZNSt15_Deque_iteratorISt4pairIiiERS1_PS1_EmmEv
	leaq	-48(%rbp), %rax
	movq	%rax, %rdi
	call	_ZNKSt15_Deque_iteratorISt4pairIiiERS1_PS1_EdeEv
	movq	-8(%rbp), %rdx
	subq	%fs:40, %rdx
	je	.L355
	call	__stack_chk_fail@PLT
.L355:
	leave
	.cfi_def_cfa 7, 8
	ret
	.cfi_endproc
.LFE11694:
	.size	_ZNSt5dequeISt4pairIiiESaIS1_EE4backEv, .-_ZNSt5dequeISt4pairIiiESaIS1_EE4backEv
	.section	.text._ZSt10_ConstructISt6vectorIiSaIiEEJRKS2_EEvPT_DpOT0_,"axG",@progbits,_ZSt10_ConstructISt6vectorIiSaIiEEJRKS2_EEvPT_DpOT0_,comdat
	.weak	_ZSt10_ConstructISt6vectorIiSaIiEEJRKS2_EEvPT_DpOT0_
	.type	_ZSt10_ConstructISt6vectorIiSaIiEEJRKS2_EEvPT_DpOT0_, @function
_ZSt10_ConstructISt6vectorIiSaIiEEJRKS2_EEvPT_DpOT0_:
.LFB11734:
	.cfi_startproc
	.cfi_personality 0x9b,DW.ref.__gxx_personality_v0
	.cfi_lsda 0x1b,.LLSDA11734
	endbr64
	pushq	%rbp
	.cfi_def_cfa_offset 16
	.cfi_offset 6, -16
	movq	%rsp, %rbp
	.cfi_def_cfa_register 6
	pushq	%r14
	pushq	%r13
	pushq	%r12
	pushq	%rbx
	subq	$16, %rsp
	.cfi_offset 14, -24
	.cfi_offset 13, -32
	.cfi_offset 12, -40
	.cfi_offset 3, -48
	movq	%rdi, -40(%rbp)
	movq	%rsi, -48(%rbp)
	movq	-40(%rbp), %rbx
	movq	%rbx, %rsi
	movl	$24, %edi
	call	_ZnwmPv
	movq	%rax, %r12
	movl	$1, %r14d
	movq	-48(%rbp), %rax
	movq	%rax, %rdi
	call	_ZSt7forwardIRKSt6vectorIiSaIiEEEOT_RNSt16remove_referenceIS5_E4typeE
	movq	%rax, %rsi
	movq	%r12, %rdi
.LEHB39:
	call	_ZNSt6vectorIiSaIiEEC1ERKS1_
.LEHE39:
	jmp	.L360
.L359:
	endbr64
	movq	%rax, %r13
	testb	%r14b, %r14b
	je	.L358
	movq	%rbx, %rsi
	movq	%r12, %rdi
	call	_ZdlPvS_
.L358:
	movq	%r13, %rax
	movq	%rax, %rdi
.LEHB40:
	call	_Unwind_Resume@PLT
.LEHE40:
.L360:
	addq	$16, %rsp
	popq	%rbx
	popq	%r12
	popq	%r13
	popq	%r14
	popq	%rbp
	.cfi_def_cfa 7, 8
	ret
	.cfi_endproc
.LFE11734:
	.section	.gcc_except_table
.LLSDA11734:
	.byte	0xff
	.byte	0xff
	.byte	0x1
	.uleb128 .LLSDACSE11734-.LLSDACSB11734
.LLSDACSB11734:
	.uleb128 .LEHB39-.LFB11734
	.uleb128 .LEHE39-.LEHB39
	.uleb128 .L359-.LFB11734
	.uleb128 0
	.uleb128 .LEHB40-.LFB11734
	.uleb128 .LEHE40-.LEHB40
	.uleb128 0
	.uleb128 0
.LLSDACSE11734:
	.section	.text._ZSt10_ConstructISt6vectorIiSaIiEEJRKS2_EEvPT_DpOT0_,"axG",@progbits,_ZSt10_ConstructISt6vectorIiSaIiEEJRKS2_EEvPT_DpOT0_,comdat
	.size	_ZSt10_ConstructISt6vectorIiSaIiEEJRKS2_EEvPT_DpOT0_, .-_ZSt10_ConstructISt6vectorIiSaIiEEJRKS2_EEvPT_DpOT0_
	.section	.text._ZSt10__fill_n_aIPimiET_S1_T0_RKT1_St26random_access_iterator_tag,"axG",@progbits,_ZSt10__fill_n_aIPimiET_S1_T0_RKT1_St26random_access_iterator_tag,comdat
	.weak	_ZSt10__fill_n_aIPimiET_S1_T0_RKT1_St26random_access_iterator_tag
	.type	_ZSt10__fill_n_aIPimiET_S1_T0_RKT1_St26random_access_iterator_tag, @function
_ZSt10__fill_n_aIPimiET_S1_T0_RKT1_St26random_access_iterator_tag:
.LFB11736:
	.cfi_startproc
	endbr64
	pushq	%rbp
	.cfi_def_cfa_offset 16
	.cfi_offset 6, -16
	movq	%rsp, %rbp
	.cfi_def_cfa_register 6
	subq	$32, %rsp
	movq	%rdi, -8(%rbp)
	movq	%rsi, -16(%rbp)
	movq	%rdx, -24(%rbp)
	cmpq	$0, -16(%rbp)
	jne	.L362
	movq	-8(%rbp), %rax
	jmp	.L363
.L362:
	movq	-16(%rbp), %rax
	leaq	0(,%rax,4), %rdx
	movq	-8(%rbp), %rax
	leaq	(%rdx,%rax), %rcx
	movq	-24(%rbp), %rdx
	movq	-8(%rbp), %rax
	movq	%rcx, %rsi
	movq	%rax, %rdi
	call	_ZSt8__fill_aIPiiEvT_S1_RKT0_
	movq	-16(%rbp), %rax
	leaq	0(,%rax,4), %rdx
	movq	-8(%rbp), %rax
	addq	%rdx, %rax
.L363:
	leave
	.cfi_def_cfa 7, 8
	ret
	.cfi_endproc
.LFE11736:
	.size	_ZSt10__fill_n_aIPimiET_S1_T0_RKT1_St26random_access_iterator_tag, .-_ZSt10__fill_n_aIPimiET_S1_T0_RKT1_St26random_access_iterator_tag
	.section	.text._ZSt11__addressofIiEPT_RS0_,"axG",@progbits,_ZSt11__addressofIiEPT_RS0_,comdat
	.weak	_ZSt11__addressofIiEPT_RS0_
	.type	_ZSt11__addressofIiEPT_RS0_, @function
_ZSt11__addressofIiEPT_RS0_:
.LFB11737:
	.cfi_startproc
	endbr64
	pushq	%rbp
	.cfi_def_cfa_offset 16
	.cfi_offset 6, -16
	movq	%rsp, %rbp
	.cfi_def_cfa_register 6
	movq	%rdi, -8(%rbp)
	movq	-8(%rbp), %rax
	popq	%rbp
	.cfi_def_cfa 7, 8
	ret
	.cfi_endproc
.LFE11737:
	.size	_ZSt11__addressofIiEPT_RS0_, .-_ZSt11__addressofIiEPT_RS0_
	.section	.text._ZSt10_ConstructIiJEEvPT_DpOT0_,"axG",@progbits,_ZSt10_ConstructIiJEEvPT_DpOT0_,comdat
	.weak	_ZSt10_ConstructIiJEEvPT_DpOT0_
	.type	_ZSt10_ConstructIiJEEvPT_DpOT0_, @function
_ZSt10_ConstructIiJEEvPT_DpOT0_:
.LFB11738:
	.cfi_startproc
	endbr64
	pushq	%rbp
	.cfi_def_cfa_offset 16
	.cfi_offset 6, -16
	movq	%rsp, %rbp
	.cfi_def_cfa_register 6
	subq	$16, %rsp
	movq	%rdi, -8(%rbp)
	movq	-8(%rbp), %rax
	movq	%rax, %rsi
	movl	$4, %edi
	call	_ZnwmPv
	movl	$0, (%rax)
	nop
	leave
	.cfi_def_cfa 7, 8
	ret
	.cfi_endproc
.LFE11738:
	.size	_ZSt10_ConstructIiJEEvPT_DpOT0_, .-_ZSt10_ConstructIiJEEvPT_DpOT0_
	.section	.text._ZNSt15_Deque_iteratorISt4pairIiiERS1_PS1_EC2Ev,"axG",@progbits,_ZNSt15_Deque_iteratorISt4pairIiiERS1_PS1_EC5Ev,comdat
	.align 2
	.weak	_ZNSt15_Deque_iteratorISt4pairIiiERS1_PS1_EC2Ev
	.type	_ZNSt15_Deque_iteratorISt4pairIiiERS1_PS1_EC2Ev, @function
_ZNSt15_Deque_iteratorISt4pairIiiERS1_PS1_EC2Ev:
.LFB11743:
	.cfi_startproc
	endbr64
	pushq	%rbp
	.cfi_def_cfa_offset 16
	.cfi_offset 6, -16
	movq	%rsp, %rbp
	.cfi_def_cfa_register 6
	movq	%rdi, -8(%rbp)
	movq	-8(%rbp), %rax
	movq	$0, (%rax)
	movq	-8(%rbp), %rax
	movq	$0, 8(%rax)
	movq	-8(%rbp), %rax
	movq	$0, 16(%rax)
	movq	-8(%rbp), %rax
	movq	$0, 24(%rax)
	nop
	popq	%rbp
	.cfi_def_cfa 7, 8
	ret
	.cfi_endproc
.LFE11743:
	.size	_ZNSt15_Deque_iteratorISt4pairIiiERS1_PS1_EC2Ev, .-_ZNSt15_Deque_iteratorISt4pairIiiERS1_PS1_EC2Ev
	.weak	_ZNSt15_Deque_iteratorISt4pairIiiERS1_PS1_EC1Ev
	.set	_ZNSt15_Deque_iteratorISt4pairIiiERS1_PS1_EC1Ev,_ZNSt15_Deque_iteratorISt4pairIiiERS1_PS1_EC2Ev
	.section	.text._ZNSt11_Deque_baseISt4pairIiiESaIS1_EE16_M_allocate_nodeEv,"axG",@progbits,_ZNSt11_Deque_baseISt4pairIiiESaIS1_EE16_M_allocate_nodeEv,comdat
	.align 2
	.weak	_ZNSt11_Deque_baseISt4pairIiiESaIS1_EE16_M_allocate_nodeEv
	.type	_ZNSt11_Deque_baseISt4pairIiiESaIS1_EE16_M_allocate_nodeEv, @function
_ZNSt11_Deque_baseISt4pairIiiESaIS1_EE16_M_allocate_nodeEv:
.LFB11746:
	.cfi_startproc
	endbr64
	pushq	%rbp
	.cfi_def_cfa_offset 16
	.cfi_offset 6, -16
	movq	%rsp, %rbp
	.cfi_def_cfa_register 6
	subq	$32, %rsp
	movq	%rdi, -24(%rbp)
	movl	$8, %edi
	call	_ZSt16__deque_buf_sizem
	movq	-24(%rbp), %rdx
	movq	%rdx, -16(%rbp)
	movq	%rax, -8(%rbp)
	movq	-8(%rbp), %rcx
	movq	-16(%rbp), %rax
	movl	$0, %edx
	movq	%rcx, %rsi
	movq	%rax, %rdi
	call	_ZNSt15__new_allocatorISt4pairIiiEE8allocateEmPKv
	nop
	leave
	.cfi_def_cfa 7, 8
	ret
	.cfi_endproc
.LFE11746:
	.size	_ZNSt11_Deque_baseISt4pairIiiESaIS1_EE16_M_allocate_nodeEv, .-_ZNSt11_Deque_baseISt4pairIiiESaIS1_EE16_M_allocate_nodeEv
	.section	.text._ZNSt15_Deque_iteratorISt4pairIiiERS1_PS1_E14_S_buffer_sizeEv,"axG",@progbits,_ZNSt15_Deque_iteratorISt4pairIiiERS1_PS1_E14_S_buffer_sizeEv,comdat
	.weak	_ZNSt15_Deque_iteratorISt4pairIiiERS1_PS1_E14_S_buffer_sizeEv
	.type	_ZNSt15_Deque_iteratorISt4pairIiiERS1_PS1_E14_S_buffer_sizeEv, @function
_ZNSt15_Deque_iteratorISt4pairIiiERS1_PS1_E14_S_buffer_sizeEv:
.LFB11747:
	.cfi_startproc
	endbr64
	pushq	%rbp
	.cfi_def_cfa_offset 16
	.cfi_offset 6, -16
	movq	%rsp, %rbp
	.cfi_def_cfa_register 6
	movl	$8, %edi
	call	_ZSt16__deque_buf_sizem
	popq	%rbp
	.cfi_def_cfa 7, 8
	ret
	.cfi_endproc
.LFE11747:
	.size	_ZNSt15_Deque_iteratorISt4pairIiiERS1_PS1_E14_S_buffer_sizeEv, .-_ZNSt15_Deque_iteratorISt4pairIiiERS1_PS1_E14_S_buffer_sizeEv
	.section	.text._ZNKSt11_Deque_baseISt4pairIiiESaIS1_EE19_M_get_Tp_allocatorEv,"axG",@progbits,_ZNKSt11_Deque_baseISt4pairIiiESaIS1_EE19_M_get_Tp_allocatorEv,comdat
	.align 2
	.weak	_ZNKSt11_Deque_baseISt4pairIiiESaIS1_EE19_M_get_Tp_allocatorEv
	.type	_ZNKSt11_Deque_baseISt4pairIiiESaIS1_EE19_M_get_Tp_allocatorEv, @function
_ZNKSt11_Deque_baseISt4pairIiiESaIS1_EE19_M_get_Tp_allocatorEv:
.LFB11749:
	.cfi_startproc
	endbr64
	pushq	%rbp
	.cfi_def_cfa_offset 16
	.cfi_offset 6, -16
	movq	%rsp, %rbp
	.cfi_def_cfa_register 6
	movq	%rdi, -8(%rbp)
	movq	-8(%rbp), %rax
	popq	%rbp
	.cfi_def_cfa 7, 8
	ret
	.cfi_endproc
.LFE11749:
	.size	_ZNKSt11_Deque_baseISt4pairIiiESaIS1_EE19_M_get_Tp_allocatorEv, .-_ZNKSt11_Deque_baseISt4pairIiiESaIS1_EE19_M_get_Tp_allocatorEv
	.section	.text._ZNSt15__new_allocatorIPSt4pairIiiEED2Ev,"axG",@progbits,_ZNSt15__new_allocatorIPSt4pairIiiEED5Ev,comdat
	.align 2
	.weak	_ZNSt15__new_allocatorIPSt4pairIiiEED2Ev
	.type	_ZNSt15__new_allocatorIPSt4pairIiiEED2Ev, @function
_ZNSt15__new_allocatorIPSt4pairIiiEED2Ev:
.LFB11754:
	.cfi_startproc
	endbr64
	pushq	%rbp
	.cfi_def_cfa_offset 16
	.cfi_offset 6, -16
	movq	%rsp, %rbp
	.cfi_def_cfa_register 6
	movq	%rdi, -8(%rbp)
	nop
	popq	%rbp
	.cfi_def_cfa 7, 8
	ret
	.cfi_endproc
.LFE11754:
	.size	_ZNSt15__new_allocatorIPSt4pairIiiEED2Ev, .-_ZNSt15__new_allocatorIPSt4pairIiiEED2Ev
	.weak	_ZNSt15__new_allocatorIPSt4pairIiiEED1Ev
	.set	_ZNSt15__new_allocatorIPSt4pairIiiEED1Ev,_ZNSt15__new_allocatorIPSt4pairIiiEED2Ev
	.section	.text._ZNSt15__new_allocatorIPSt4pairIiiEE10deallocateEPS2_m,"axG",@progbits,_ZNSt15__new_allocatorIPSt4pairIiiEE10deallocateEPS2_m,comdat
	.align 2
	.weak	_ZNSt15__new_allocatorIPSt4pairIiiEE10deallocateEPS2_m
	.type	_ZNSt15__new_allocatorIPSt4pairIiiEE10deallocateEPS2_m, @function
_ZNSt15__new_allocatorIPSt4pairIiiEE10deallocateEPS2_m:
.LFB11756:
	.cfi_startproc
	endbr64
	pushq	%rbp
	.cfi_def_cfa_offset 16
	.cfi_offset 6, -16
	movq	%rsp, %rbp
	.cfi_def_cfa_register 6
	subq	$32, %rsp
	movq	%rdi, -8(%rbp)
	movq	%rsi, -16(%rbp)
	movq	%rdx, -24(%rbp)
	movq	-24(%rbp), %rax
	leaq	0(,%rax,8), %rdx
	movq	-16(%rbp), %rax
	movq	%rdx, %rsi
	movq	%rax, %rdi
	call	_ZdlPvm@PLT
	leave
	.cfi_def_cfa 7, 8
	ret
	.cfi_endproc
.LFE11756:
	.size	_ZNSt15__new_allocatorIPSt4pairIiiEE10deallocateEPS2_m, .-_ZNSt15__new_allocatorIPSt4pairIiiEE10deallocateEPS2_m
	.section	.text._ZNKSt5dequeISt4pairIiiESaIS1_EE4sizeEv,"axG",@progbits,_ZNKSt5dequeISt4pairIiiESaIS1_EE4sizeEv,comdat
	.align 2
	.weak	_ZNKSt5dequeISt4pairIiiESaIS1_EE4sizeEv
	.type	_ZNKSt5dequeISt4pairIiiESaIS1_EE4sizeEv, @function
_ZNKSt5dequeISt4pairIiiESaIS1_EE4sizeEv:
.LFB11759:
	.cfi_startproc
	endbr64
	pushq	%rbp
	.cfi_def_cfa_offset 16
	.cfi_offset 6, -16
	movq	%rsp, %rbp
	.cfi_def_cfa_register 6
	subq	$16, %rsp
	movq	%rdi, -8(%rbp)
	movq	-8(%rbp), %rax
	leaq	16(%rax), %rdx
	movq	-8(%rbp), %rax
	addq	$48, %rax
	movq	%rdx, %rsi
	movq	%rax, %rdi
	call	_ZStmiRKSt15_Deque_iteratorISt4pairIiiERS1_PS1_ES6_
	leave
	.cfi_def_cfa 7, 8
	ret
	.cfi_endproc
.LFE11759:
	.size	_ZNKSt5dequeISt4pairIiiESaIS1_EE4sizeEv, .-_ZNKSt5dequeISt4pairIiiESaIS1_EE4sizeEv
	.section	.text._ZNKSt5dequeISt4pairIiiESaIS1_EE8max_sizeEv,"axG",@progbits,_ZNKSt5dequeISt4pairIiiESaIS1_EE8max_sizeEv,comdat
	.align 2
	.weak	_ZNKSt5dequeISt4pairIiiESaIS1_EE8max_sizeEv
	.type	_ZNKSt5dequeISt4pairIiiESaIS1_EE8max_sizeEv, @function
_ZNKSt5dequeISt4pairIiiESaIS1_EE8max_sizeEv:
.LFB11760:
	.cfi_startproc
	endbr64
	pushq	%rbp
	.cfi_def_cfa_offset 16
	.cfi_offset 6, -16
	movq	%rsp, %rbp
	.cfi_def_cfa_register 6
	subq	$16, %rsp
	movq	%rdi, -8(%rbp)
	movq	-8(%rbp), %rax
	movq	%rax, %rdi
	call	_ZNKSt11_Deque_baseISt4pairIiiESaIS1_EE19_M_get_Tp_allocatorEv
	movq	%rax, %rdi
	call	_ZNSt5dequeISt4pairIiiESaIS1_EE11_S_max_sizeERKS2_
	leave
	.cfi_def_cfa 7, 8
	ret
	.cfi_endproc
.LFE11760:
	.size	_ZNKSt5dequeISt4pairIiiESaIS1_EE8max_sizeEv, .-_ZNKSt5dequeISt4pairIiiESaIS1_EE8max_sizeEv
	.section	.text._ZNSt5dequeISt4pairIiiESaIS1_EE22_M_reserve_map_at_backEm,"axG",@progbits,_ZNSt5dequeISt4pairIiiESaIS1_EE22_M_reserve_map_at_backEm,comdat
	.align 2
	.weak	_ZNSt5dequeISt4pairIiiESaIS1_EE22_M_reserve_map_at_backEm
	.type	_ZNSt5dequeISt4pairIiiESaIS1_EE22_M_reserve_map_at_backEm, @function
_ZNSt5dequeISt4pairIiiESaIS1_EE22_M_reserve_map_at_backEm:
.LFB11761:
	.cfi_startproc
	endbr64
	pushq	%rbp
	.cfi_def_cfa_offset 16
	.cfi_offset 6, -16
	movq	%rsp, %rbp
	.cfi_def_cfa_register 6
	subq	$16, %rsp
	movq	%rdi, -8(%rbp)
	movq	%rsi, -16(%rbp)
	movq	-16(%rbp), %rax
	leaq	1(%rax), %rdx
	movq	-8(%rbp), %rax
	movq	8(%rax), %rcx
	movq	-8(%rbp), %rax
	movq	72(%rax), %rsi
	movq	-8(%rbp), %rax
	movq	(%rax), %rax
	subq	%rax, %rsi
	movq	%rsi, %rax
	sarq	$3, %rax
	movq	%rax, %rsi
	movq	%rcx, %rax
	subq	%rsi, %rax
	cmpq	%rdx, %rax
	jnb	.L384
	movq	-16(%rbp), %rcx
	movq	-8(%rbp), %rax
	movl	$0, %edx
	movq	%rcx, %rsi
	movq	%rax, %rdi
	call	_ZNSt5dequeISt4pairIiiESaIS1_EE17_M_reallocate_mapEmb
.L384:
	nop
	leave
	.cfi_def_cfa 7, 8
	ret
	.cfi_endproc
.LFE11761:
	.size	_ZNSt5dequeISt4pairIiiESaIS1_EE22_M_reserve_map_at_backEm, .-_ZNSt5dequeISt4pairIiiESaIS1_EE22_M_reserve_map_at_backEm
	.section	.text._ZNSt15_Deque_iteratorISt4pairIiiERS1_PS1_EmmEv,"axG",@progbits,_ZNSt15_Deque_iteratorISt4pairIiiERS1_PS1_EmmEv,comdat
	.align 2
	.weak	_ZNSt15_Deque_iteratorISt4pairIiiERS1_PS1_EmmEv
	.type	_ZNSt15_Deque_iteratorISt4pairIiiERS1_PS1_EmmEv, @function
_ZNSt15_Deque_iteratorISt4pairIiiERS1_PS1_EmmEv:
.LFB11762:
	.cfi_startproc
	endbr64
	pushq	%rbp
	.cfi_def_cfa_offset 16
	.cfi_offset 6, -16
	movq	%rsp, %rbp
	.cfi_def_cfa_register 6
	subq	$16, %rsp
	movq	%rdi, -8(%rbp)
	movq	-8(%rbp), %rax
	movq	(%rax), %rdx
	movq	-8(%rbp), %rax
	movq	8(%rax), %rax
	cmpq	%rax, %rdx
	jne	.L386
	movq	-8(%rbp), %rax
	movq	24(%rax), %rax
	leaq	-8(%rax), %rdx
	movq	-8(%rbp), %rax
	movq	%rdx, %rsi
	movq	%rax, %rdi
	call	_ZNSt15_Deque_iteratorISt4pairIiiERS1_PS1_E11_M_set_nodeEPS3_
	movq	-8(%rbp), %rax
	movq	16(%rax), %rdx
	movq	-8(%rbp), %rax
	movq	%rdx, (%rax)
.L386:
	movq	-8(%rbp), %rax
	movq	(%rax), %rax
	leaq	-8(%rax), %rdx
	movq	-8(%rbp), %rax
	movq	%rdx, (%rax)
	movq	-8(%rbp), %rax
	leave
	.cfi_def_cfa 7, 8
	ret
	.cfi_endproc
.LFE11762:
	.size	_ZNSt15_Deque_iteratorISt4pairIiiERS1_PS1_EmmEv, .-_ZNSt15_Deque_iteratorISt4pairIiiERS1_PS1_EmmEv
	.section	.text._ZSt7forwardIRKSt6vectorIiSaIiEEEOT_RNSt16remove_referenceIS5_E4typeE,"axG",@progbits,_ZSt7forwardIRKSt6vectorIiSaIiEEEOT_RNSt16remove_referenceIS5_E4typeE,comdat
	.weak	_ZSt7forwardIRKSt6vectorIiSaIiEEEOT_RNSt16remove_referenceIS5_E4typeE
	.type	_ZSt7forwardIRKSt6vectorIiSaIiEEEOT_RNSt16remove_referenceIS5_E4typeE, @function
_ZSt7forwardIRKSt6vectorIiSaIiEEEOT_RNSt16remove_referenceIS5_E4typeE:
.LFB11769:
	.cfi_startproc
	endbr64
	pushq	%rbp
	.cfi_def_cfa_offset 16
	.cfi_offset 6, -16
	movq	%rsp, %rbp
	.cfi_def_cfa_register 6
	movq	%rdi, -8(%rbp)
	movq	-8(%rbp), %rax
	popq	%rbp
	.cfi_def_cfa 7, 8
	ret
	.cfi_endproc
.LFE11769:
	.size	_ZSt7forwardIRKSt6vectorIiSaIiEEEOT_RNSt16remove_referenceIS5_E4typeE, .-_ZSt7forwardIRKSt6vectorIiSaIiEEEOT_RNSt16remove_referenceIS5_E4typeE
	.section	.text._ZNSt6vectorIiSaIiEEC2ERKS1_,"axG",@progbits,_ZNSt6vectorIiSaIiEEC5ERKS1_,comdat
	.align 2
	.weak	_ZNSt6vectorIiSaIiEEC2ERKS1_
	.type	_ZNSt6vectorIiSaIiEEC2ERKS1_, @function
_ZNSt6vectorIiSaIiEEC2ERKS1_:
.LFB11771:
	.cfi_startproc
	.cfi_personality 0x9b,DW.ref.__gxx_personality_v0
	.cfi_lsda 0x1b,.LLSDA11771
	endbr64
	pushq	%rbp
	.cfi_def_cfa_offset 16
	.cfi_offset 6, -16
	movq	%rsp, %rbp
	.cfi_def_cfa_register 6
	pushq	%r13
	pushq	%r12
	pushq	%rbx
	subq	$88, %rsp
	.cfi_offset 13, -24
	.cfi_offset 12, -32
	.cfi_offset 3, -40
	movq	%rdi, -104(%rbp)
	movq	%rsi, -112(%rbp)
	movq	%fs:40, %rax
	movq	%rax, -40(%rbp)
	xorl	%eax, %eax
	movq	-104(%rbp), %rbx
	movq	-112(%rbp), %rax
	movq	%rax, %rdi
	call	_ZNKSt12_Vector_baseIiSaIiEE19_M_get_Tp_allocatorEv
	movq	%rax, -88(%rbp)
	leaq	-89(%rbp), %rax
	movq	-88(%rbp), %rdx
	movq	%rdx, -80(%rbp)
	movq	%rax, -72(%rbp)
	movq	-80(%rbp), %rax
	movq	%rax, -64(%rbp)
	movq	-72(%rbp), %rax
	movq	%rax, -56(%rbp)
	movq	-64(%rbp), %rax
	movq	%rax, -48(%rbp)
	nop
	nop
	nop
	nop
	movq	-112(%rbp), %rax
	movq	%rax, %rdi
	call	_ZNKSt6vectorIiSaIiEE4sizeEv
	movq	%rax, %rcx
	leaq	-89(%rbp), %rax
	movq	%rax, %rdx
	movq	%rcx, %rsi
	movq	%rbx, %rdi
.LEHB41:
	call	_ZNSt12_Vector_baseIiSaIiEEC2EmRKS0_
.LEHE41:
	leaq	-89(%rbp), %rax
	movq	%rax, %rdi
	call	_ZNSt15__new_allocatorIiED2Ev
	nop
	movq	-104(%rbp), %rax
	movq	%rax, %rdi
	call	_ZNSt12_Vector_baseIiSaIiEE19_M_get_Tp_allocatorEv
	movq	%rax, %r13
	movq	-104(%rbp), %rax
	movq	(%rax), %rbx
	movq	-112(%rbp), %rax
	movq	%rax, %rdi
	call	_ZNKSt6vectorIiSaIiEE3endEv
	movq	%rax, %r12
	movq	-112(%rbp), %rax
	movq	%rax, %rdi
	call	_ZNKSt6vectorIiSaIiEE5beginEv
	movq	%r13, %rcx
	movq	%rbx, %rdx
	movq	%r12, %rsi
	movq	%rax, %rdi
.LEHB42:
	call	_ZSt22__uninitialized_copy_aIN9__gnu_cxx17__normal_iteratorIPKiSt6vectorIiSaIiEEEEPiiET0_T_SA_S9_RSaIT1_E
.LEHE42:
	movq	-104(%rbp), %rdx
	movq	%rax, 8(%rdx)
	nop
	movq	-40(%rbp), %rax
	subq	%fs:40, %rax
	je	.L397
	jmp	.L400
.L398:
	endbr64
	movq	%rax, %rbx
	leaq	-89(%rbp), %rax
	movq	%rax, %rdi
	call	_ZNSt15__new_allocatorIiED2Ev
	nop
	movq	%rbx, %rax
	movq	-40(%rbp), %rdx
	subq	%fs:40, %rdx
	je	.L394
	call	__stack_chk_fail@PLT
.L394:
	movq	%rax, %rdi
.LEHB43:
	call	_Unwind_Resume@PLT
.L399:
	endbr64
	movq	%rax, %rbx
	movq	-104(%rbp), %rax
	movq	%rax, %rdi
	call	_ZNSt12_Vector_baseIiSaIiEED2Ev
	movq	%rbx, %rax
	movq	-40(%rbp), %rdx
	subq	%fs:40, %rdx
	je	.L396
	call	__stack_chk_fail@PLT
.L396:
	movq	%rax, %rdi
	call	_Unwind_Resume@PLT
.LEHE43:
.L400:
	call	__stack_chk_fail@PLT
.L397:
	addq	$88, %rsp
	popq	%rbx
	popq	%r12
	popq	%r13
	popq	%rbp
	.cfi_def_cfa 7, 8
	ret
	.cfi_endproc
.LFE11771:
	.section	.gcc_except_table
.LLSDA11771:
	.byte	0xff
	.byte	0xff
	.byte	0x1
	.uleb128 .LLSDACSE11771-.LLSDACSB11771
.LLSDACSB11771:
	.uleb128 .LEHB41-.LFB11771
	.uleb128 .LEHE41-.LEHB41
	.uleb128 .L398-.LFB11771
	.uleb128 0
	.uleb128 .LEHB42-.LFB11771
	.uleb128 .LEHE42-.LEHB42
	.uleb128 .L399-.LFB11771
	.uleb128 0
	.uleb128 .LEHB43-.LFB11771
	.uleb128 .LEHE43-.LEHB43
	.uleb128 0
	.uleb128 0
.LLSDACSE11771:
	.section	.text._ZNSt6vectorIiSaIiEEC2ERKS1_,"axG",@progbits,_ZNSt6vectorIiSaIiEEC5ERKS1_,comdat
	.size	_ZNSt6vectorIiSaIiEEC2ERKS1_, .-_ZNSt6vectorIiSaIiEEC2ERKS1_
	.weak	_ZNSt6vectorIiSaIiEEC1ERKS1_
	.set	_ZNSt6vectorIiSaIiEEC1ERKS1_,_ZNSt6vectorIiSaIiEEC2ERKS1_
	.section	.text._ZSt8__fill_aIPiiEvT_S1_RKT0_,"axG",@progbits,_ZSt8__fill_aIPiiEvT_S1_RKT0_,comdat
	.weak	_ZSt8__fill_aIPiiEvT_S1_RKT0_
	.type	_ZSt8__fill_aIPiiEvT_S1_RKT0_, @function
_ZSt8__fill_aIPiiEvT_S1_RKT0_:
.LFB11773:
	.cfi_startproc
	endbr64
	pushq	%rbp
	.cfi_def_cfa_offset 16
	.cfi_offset 6, -16
	movq	%rsp, %rbp
	.cfi_def_cfa_register 6
	subq	$32, %rsp
	movq	%rdi, -8(%rbp)
	movq	%rsi, -16(%rbp)
	movq	%rdx, -24(%rbp)
	movq	-24(%rbp), %rdx
	movq	-16(%rbp), %rcx
	movq	-8(%rbp), %rax
	movq	%rcx, %rsi
	movq	%rax, %rdi
	call	_ZSt9__fill_a1IPiiEN9__gnu_cxx11__enable_ifIXsrSt11__is_scalarIT0_E7__valueEvE6__typeET_S8_RKS4_
	nop
	leave
	.cfi_def_cfa 7, 8
	ret
	.cfi_endproc
.LFE11773:
	.size	_ZSt8__fill_aIPiiEvT_S1_RKT0_, .-_ZSt8__fill_aIPiiEvT_S1_RKT0_
	.section	.text._ZNSt15__new_allocatorIPSt4pairIiiEE8allocateEmPKv,"axG",@progbits,_ZNSt15__new_allocatorIPSt4pairIiiEE8allocateEmPKv,comdat
	.align 2
	.weak	_ZNSt15__new_allocatorIPSt4pairIiiEE8allocateEmPKv
	.type	_ZNSt15__new_allocatorIPSt4pairIiiEE8allocateEmPKv, @function
_ZNSt15__new_allocatorIPSt4pairIiiEE8allocateEmPKv:
.LFB11774:
	.cfi_startproc
	endbr64
	pushq	%rbp
	.cfi_def_cfa_offset 16
	.cfi_offset 6, -16
	movq	%rsp, %rbp
	.cfi_def_cfa_register 6
	subq	$48, %rsp
	movq	%rdi, -24(%rbp)
	movq	%rsi, -32(%rbp)
	movq	%rdx, -40(%rbp)
	movq	-24(%rbp), %rax
	movq	%rax, -8(%rbp)
	movabsq	$1152921504606846975, %rax
	cmpq	-32(%rbp), %rax
	setb	%al
	movzbl	%al, %eax
	testq	%rax, %rax
	setne	%al
	testb	%al, %al
	je	.L404
	movabsq	$2305843009213693951, %rax
	cmpq	-32(%rbp), %rax
	jnb	.L405
	call	_ZSt28__throw_bad_array_new_lengthv@PLT
.L405:
	call	_ZSt17__throw_bad_allocv@PLT
.L404:
	movq	-32(%rbp), %rax
	salq	$3, %rax
	movq	%rax, %rdi
	call	_Znwm@PLT
	nop
	leave
	.cfi_def_cfa 7, 8
	ret
	.cfi_endproc
.LFE11774:
	.size	_ZNSt15__new_allocatorIPSt4pairIiiEE8allocateEmPKv, .-_ZNSt15__new_allocatorIPSt4pairIiiEE8allocateEmPKv
	.section	.text._ZNSt15__new_allocatorISt4pairIiiEE10deallocateEPS1_m,"axG",@progbits,_ZNSt15__new_allocatorISt4pairIiiEE10deallocateEPS1_m,comdat
	.align 2
	.weak	_ZNSt15__new_allocatorISt4pairIiiEE10deallocateEPS1_m
	.type	_ZNSt15__new_allocatorISt4pairIiiEE10deallocateEPS1_m, @function
_ZNSt15__new_allocatorISt4pairIiiEE10deallocateEPS1_m:
.LFB11776:
	.cfi_startproc
	endbr64
	pushq	%rbp
	.cfi_def_cfa_offset 16
	.cfi_offset 6, -16
	movq	%rsp, %rbp
	.cfi_def_cfa_register 6
	subq	$32, %rsp
	movq	%rdi, -8(%rbp)
	movq	%rsi, -16(%rbp)
	movq	%rdx, -24(%rbp)
	movq	-24(%rbp), %rax
	leaq	0(,%rax,8), %rdx
	movq	-16(%rbp), %rax
	movq	%rdx, %rsi
	movq	%rax, %rdi
	call	_ZdlPvm@PLT
	leave
	.cfi_def_cfa 7, 8
	ret
	.cfi_endproc
.LFE11776:
	.size	_ZNSt15__new_allocatorISt4pairIiiEE10deallocateEPS1_m, .-_ZNSt15__new_allocatorISt4pairIiiEE10deallocateEPS1_m
	.section	.text._ZStmiRKSt15_Deque_iteratorISt4pairIiiERS1_PS1_ES6_,"axG",@progbits,_ZStmiRKSt15_Deque_iteratorISt4pairIiiERS1_PS1_ES6_,comdat
	.weak	_ZStmiRKSt15_Deque_iteratorISt4pairIiiERS1_PS1_ES6_
	.type	_ZStmiRKSt15_Deque_iteratorISt4pairIiiERS1_PS1_ES6_, @function
_ZStmiRKSt15_Deque_iteratorISt4pairIiiERS1_PS1_ES6_:
.LFB11781:
	.cfi_startproc
	endbr64
	pushq	%rbp
	.cfi_def_cfa_offset 16
	.cfi_offset 6, -16
	movq	%rsp, %rbp
	.cfi_def_cfa_register 6
	subq	$16, %rsp
	movq	%rdi, -8(%rbp)
	movq	%rsi, -16(%rbp)
	call	_ZNSt15_Deque_iteratorISt4pairIiiERS1_PS1_E14_S_buffer_sizeEv
	movq	%rax, %rcx
	movq	-8(%rbp), %rax
	movq	24(%rax), %rdx
	movq	-16(%rbp), %rax
	movq	24(%rax), %rax
	subq	%rax, %rdx
	movq	%rdx, %rax
	sarq	$3, %rax
	movq	%rax, %rdx
	movq	-8(%rbp), %rax
	movq	24(%rax), %rax
	testq	%rax, %rax
	setne	%al
	movzbl	%al, %eax
	subq	%rax, %rdx
	imulq	%rcx, %rdx
	movq	-8(%rbp), %rax
	movq	(%rax), %rcx
	movq	-8(%rbp), %rax
	movq	8(%rax), %rax
	subq	%rax, %rcx
	movq	%rcx, %rax
	sarq	$3, %rax
	leaq	(%rdx,%rax), %rcx
	movq	-16(%rbp), %rax
	movq	16(%rax), %rdx
	movq	-16(%rbp), %rax
	movq	(%rax), %rax
	subq	%rax, %rdx
	movq	%rdx, %rax
	sarq	$3, %rax
	addq	%rcx, %rax
	leave
	.cfi_def_cfa 7, 8
	ret
	.cfi_endproc
.LFE11781:
	.size	_ZStmiRKSt15_Deque_iteratorISt4pairIiiERS1_PS1_ES6_, .-_ZStmiRKSt15_Deque_iteratorISt4pairIiiERS1_PS1_ES6_
	.section	.text._ZNSt5dequeISt4pairIiiESaIS1_EE11_S_max_sizeERKS2_,"axG",@progbits,_ZNSt5dequeISt4pairIiiESaIS1_EE11_S_max_sizeERKS2_,comdat
	.weak	_ZNSt5dequeISt4pairIiiESaIS1_EE11_S_max_sizeERKS2_
	.type	_ZNSt5dequeISt4pairIiiESaIS1_EE11_S_max_sizeERKS2_, @function
_ZNSt5dequeISt4pairIiiESaIS1_EE11_S_max_sizeERKS2_:
.LFB11782:
	.cfi_startproc
	endbr64
	pushq	%rbp
	.cfi_def_cfa_offset 16
	.cfi_offset 6, -16
	movq	%rsp, %rbp
	.cfi_def_cfa_register 6
	subq	$64, %rsp
	movq	%rdi, -56(%rbp)
	movq	%fs:40, %rax
	movq	%rax, -8(%rbp)
	xorl	%eax, %eax
	movabsq	$9223372036854775807, %rax
	movq	%rax, -48(%rbp)
	movq	-56(%rbp), %rax
	movq	%rax, -32(%rbp)
	movq	-32(%rbp), %rax
	movq	%rax, -24(%rbp)
	movq	-24(%rbp), %rax
	movq	%rax, -16(%rbp)
	movabsq	$1152921504606846975, %rax
	nop
	nop
	movq	%rax, -40(%rbp)
	leaq	-40(%rbp), %rdx
	leaq	-48(%rbp), %rax
	movq	%rdx, %rsi
	movq	%rax, %rdi
	call	_ZSt3minImERKT_S2_S2_
	movq	(%rax), %rax
	movq	-8(%rbp), %rdx
	subq	%fs:40, %rdx
	je	.L416
	call	__stack_chk_fail@PLT
.L416:
	leave
	.cfi_def_cfa 7, 8
	ret
	.cfi_endproc
.LFE11782:
	.size	_ZNSt5dequeISt4pairIiiESaIS1_EE11_S_max_sizeERKS2_, .-_ZNSt5dequeISt4pairIiiESaIS1_EE11_S_max_sizeERKS2_
	.section	.text._ZNSt5dequeISt4pairIiiESaIS1_EE17_M_reallocate_mapEmb,"axG",@progbits,_ZNSt5dequeISt4pairIiiESaIS1_EE17_M_reallocate_mapEmb,comdat
	.align 2
	.weak	_ZNSt5dequeISt4pairIiiESaIS1_EE17_M_reallocate_mapEmb
	.type	_ZNSt5dequeISt4pairIiiESaIS1_EE17_M_reallocate_mapEmb, @function
_ZNSt5dequeISt4pairIiiESaIS1_EE17_M_reallocate_mapEmb:
.LFB11783:
	.cfi_startproc
	endbr64
	pushq	%rbp
	.cfi_def_cfa_offset 16
	.cfi_offset 6, -16
	movq	%rsp, %rbp
	.cfi_def_cfa_register 6
	pushq	%rbx
	subq	$88, %rsp
	.cfi_offset 3, -24
	movq	%rdi, -72(%rbp)
	movq	%rsi, -80(%rbp)
	movl	%edx, %eax
	movb	%al, -84(%rbp)
	movq	-72(%rbp), %rax
	movq	72(%rax), %rdx
	movq	-72(%rbp), %rax
	movq	40(%rax), %rax
	subq	%rax, %rdx
	movq	%rdx, %rax
	sarq	$3, %rax
	addq	$1, %rax
	movq	%rax, -48(%rbp)
	movq	-80(%rbp), %rdx
	movq	-48(%rbp), %rax
	addq	%rdx, %rax
	movq	%rax, -40(%rbp)
	movq	-72(%rbp), %rax
	movq	8(%rax), %rax
	movq	-40(%rbp), %rdx
	addq	%rdx, %rdx
	cmpq	%rax, %rdx
	jnb	.L418
	movq	-72(%rbp), %rax
	movq	(%rax), %rdx
	movq	-72(%rbp), %rax
	movq	8(%rax), %rax
	subq	-40(%rbp), %rax
	shrq	%rax
	leaq	0(,%rax,8), %rcx
	cmpb	$0, -84(%rbp)
	je	.L419
	movq	-80(%rbp), %rax
	salq	$3, %rax
	jmp	.L420
.L419:
	movl	$0, %eax
.L420:
	addq	%rcx, %rax
	addq	%rdx, %rax
	movq	%rax, -56(%rbp)
	movq	-72(%rbp), %rax
	movq	40(%rax), %rax
	cmpq	%rax, -56(%rbp)
	jnb	.L421
	movq	-72(%rbp), %rax
	movq	72(%rax), %rax
	leaq	8(%rax), %rcx
	movq	-72(%rbp), %rax
	movq	40(%rax), %rax
	movq	-56(%rbp), %rdx
	movq	%rcx, %rsi
	movq	%rax, %rdi
	call	_ZSt4copyIPPSt4pairIiiES3_ET0_T_S5_S4_
	jmp	.L422
.L421:
	movq	-48(%rbp), %rax
	leaq	0(,%rax,8), %rdx
	movq	-56(%rbp), %rax
	addq	%rax, %rdx
	movq	-72(%rbp), %rax
	movq	72(%rax), %rax
	leaq	8(%rax), %rcx
	movq	-72(%rbp), %rax
	movq	40(%rax), %rax
	movq	%rcx, %rsi
	movq	%rax, %rdi
	call	_ZSt13copy_backwardIPPSt4pairIiiES3_ET0_T_S5_S4_
	jmp	.L422
.L418:
	movq	-72(%rbp), %rax
	movq	8(%rax), %rbx
	movq	-72(%rbp), %rax
	leaq	8(%rax), %rdx
	leaq	-80(%rbp), %rax
	movq	%rax, %rsi
	movq	%rdx, %rdi
	call	_ZSt3maxImERKT_S2_S2_
	movq	(%rax), %rax
	addq	%rbx, %rax
	addq	$2, %rax
	movq	%rax, -32(%rbp)
	movq	-72(%rbp), %rax
	movq	-32(%rbp), %rdx
	movq	%rdx, %rsi
	movq	%rax, %rdi
	call	_ZNSt11_Deque_baseISt4pairIiiESaIS1_EE15_M_allocate_mapEm
	movq	%rax, -24(%rbp)
	movq	-32(%rbp), %rax
	subq	-40(%rbp), %rax
	shrq	%rax
	leaq	0(,%rax,8), %rdx
	cmpb	$0, -84(%rbp)
	je	.L423
	movq	-80(%rbp), %rax
	salq	$3, %rax
	jmp	.L424
.L423:
	movl	$0, %eax
.L424:
	addq	%rax, %rdx
	movq	-24(%rbp), %rax
	addq	%rdx, %rax
	movq	%rax, -56(%rbp)
	movq	-72(%rbp), %rax
	movq	72(%rax), %rax
	leaq	8(%rax), %rcx
	movq	-72(%rbp), %rax
	movq	40(%rax), %rax
	movq	-56(%rbp), %rdx
	movq	%rcx, %rsi
	movq	%rax, %rdi
	call	_ZSt4copyIPPSt4pairIiiES3_ET0_T_S5_S4_
	movq	-72(%rbp), %rax
	movq	-72(%rbp), %rdx
	movq	8(%rdx), %rdx
	movq	-72(%rbp), %rcx
	movq	(%rcx), %rcx
	movq	%rcx, %rsi
	movq	%rax, %rdi
	call	_ZNSt11_Deque_baseISt4pairIiiESaIS1_EE17_M_deallocate_mapEPPS1_m
	movq	-72(%rbp), %rax
	movq	-24(%rbp), %rdx
	movq	%rdx, (%rax)
	movq	-72(%rbp), %rax
	movq	-32(%rbp), %rdx
	movq	%rdx, 8(%rax)
.L422:
	movq	-72(%rbp), %rax
	leaq	16(%rax), %rdx
	movq	-56(%rbp), %rax
	movq	%rax, %rsi
	movq	%rdx, %rdi
	call	_ZNSt15_Deque_iteratorISt4pairIiiERS1_PS1_E11_M_set_nodeEPS3_
	movq	-72(%rbp), %rax
	addq	$48, %rax
	movq	-48(%rbp), %rdx
	salq	$3, %rdx
	leaq	-8(%rdx), %rcx
	movq	-56(%rbp), %rdx
	addq	%rcx, %rdx
	movq	%rdx, %rsi
	movq	%rax, %rdi
	call	_ZNSt15_Deque_iteratorISt4pairIiiERS1_PS1_E11_M_set_nodeEPS3_
	nop
	movq	-8(%rbp), %rbx
	leave
	.cfi_def_cfa 7, 8
	ret
	.cfi_endproc
.LFE11783:
	.size	_ZNSt5dequeISt4pairIiiESaIS1_EE17_M_reallocate_mapEmb, .-_ZNSt5dequeISt4pairIiiESaIS1_EE17_M_reallocate_mapEmb
	.section	.text._ZNKSt6vectorIiSaIiEE5beginEv,"axG",@progbits,_ZNKSt6vectorIiSaIiEE5beginEv,comdat
	.align 2
	.weak	_ZNKSt6vectorIiSaIiEE5beginEv
	.type	_ZNKSt6vectorIiSaIiEE5beginEv, @function
_ZNKSt6vectorIiSaIiEE5beginEv:
.LFB11788:
	.cfi_startproc
	endbr64
	pushq	%rbp
	.cfi_def_cfa_offset 16
	.cfi_offset 6, -16
	movq	%rsp, %rbp
	.cfi_def_cfa_register 6
	subq	$32, %rsp
	movq	%rdi, -24(%rbp)
	movq	%fs:40, %rax
	movq	%rax, -8(%rbp)
	xorl	%eax, %eax
	movq	-24(%rbp), %rdx
	leaq	-16(%rbp), %rax
	movq	%rdx, %rsi
	movq	%rax, %rdi
	call	_ZN9__gnu_cxx17__normal_iteratorIPKiSt6vectorIiSaIiEEEC1ERKS2_
	movq	-16(%rbp), %rax
	movq	-8(%rbp), %rdx
	subq	%fs:40, %rdx
	je	.L427
	call	__stack_chk_fail@PLT
.L427:
	leave
	.cfi_def_cfa 7, 8
	ret
	.cfi_endproc
.LFE11788:
	.size	_ZNKSt6vectorIiSaIiEE5beginEv, .-_ZNKSt6vectorIiSaIiEE5beginEv
	.section	.text._ZNKSt6vectorIiSaIiEE3endEv,"axG",@progbits,_ZNKSt6vectorIiSaIiEE3endEv,comdat
	.align 2
	.weak	_ZNKSt6vectorIiSaIiEE3endEv
	.type	_ZNKSt6vectorIiSaIiEE3endEv, @function
_ZNKSt6vectorIiSaIiEE3endEv:
.LFB11789:
	.cfi_startproc
	endbr64
	pushq	%rbp
	.cfi_def_cfa_offset 16
	.cfi_offset 6, -16
	movq	%rsp, %rbp
	.cfi_def_cfa_register 6
	subq	$32, %rsp
	movq	%rdi, -24(%rbp)
	movq	%fs:40, %rax
	movq	%rax, -8(%rbp)
	xorl	%eax, %eax
	movq	-24(%rbp), %rax
	leaq	8(%rax), %rdx
	leaq	-16(%rbp), %rax
	movq	%rdx, %rsi
	movq	%rax, %rdi
	call	_ZN9__gnu_cxx17__normal_iteratorIPKiSt6vectorIiSaIiEEEC1ERKS2_
	movq	-16(%rbp), %rax
	movq	-8(%rbp), %rdx
	subq	%fs:40, %rdx
	je	.L430
	call	__stack_chk_fail@PLT
.L430:
	leave
	.cfi_def_cfa 7, 8
	ret
	.cfi_endproc
.LFE11789:
	.size	_ZNKSt6vectorIiSaIiEE3endEv, .-_ZNKSt6vectorIiSaIiEE3endEv
	.section	.text._ZSt22__uninitialized_copy_aIN9__gnu_cxx17__normal_iteratorIPKiSt6vectorIiSaIiEEEEPiiET0_T_SA_S9_RSaIT1_E,"axG",@progbits,_ZSt22__uninitialized_copy_aIN9__gnu_cxx17__normal_iteratorIPKiSt6vectorIiSaIiEEEEPiiET0_T_SA_S9_RSaIT1_E,comdat
	.weak	_ZSt22__uninitialized_copy_aIN9__gnu_cxx17__normal_iteratorIPKiSt6vectorIiSaIiEEEEPiiET0_T_SA_S9_RSaIT1_E
	.type	_ZSt22__uninitialized_copy_aIN9__gnu_cxx17__normal_iteratorIPKiSt6vectorIiSaIiEEEEPiiET0_T_SA_S9_RSaIT1_E, @function
_ZSt22__uninitialized_copy_aIN9__gnu_cxx17__normal_iteratorIPKiSt6vectorIiSaIiEEEEPiiET0_T_SA_S9_RSaIT1_E:
.LFB11790:
	.cfi_startproc
	endbr64
	pushq	%rbp
	.cfi_def_cfa_offset 16
	.cfi_offset 6, -16
	movq	%rsp, %rbp
	.cfi_def_cfa_register 6
	subq	$32, %rsp
	movq	%rdi, -8(%rbp)
	movq	%rsi, -16(%rbp)
	movq	%rdx, -24(%rbp)
	movq	%rcx, -32(%rbp)
	movq	-24(%rbp), %rdx
	movq	-16(%rbp), %rcx
	movq	-8(%rbp), %rax
	movq	%rcx, %rsi
	movq	%rax, %rdi
	call	_ZSt18uninitialized_copyIN9__gnu_cxx17__normal_iteratorIPKiSt6vectorIiSaIiEEEEPiET0_T_SA_S9_
	leave
	.cfi_def_cfa 7, 8
	ret
	.cfi_endproc
.LFE11790:
	.size	_ZSt22__uninitialized_copy_aIN9__gnu_cxx17__normal_iteratorIPKiSt6vectorIiSaIiEEEEPiiET0_T_SA_S9_RSaIT1_E, .-_ZSt22__uninitialized_copy_aIN9__gnu_cxx17__normal_iteratorIPKiSt6vectorIiSaIiEEEEPiiET0_T_SA_S9_RSaIT1_E
	.section	.text._ZSt9__fill_a1IPiiEN9__gnu_cxx11__enable_ifIXsrSt11__is_scalarIT0_E7__valueEvE6__typeET_S8_RKS4_,"axG",@progbits,_ZSt9__fill_a1IPiiEN9__gnu_cxx11__enable_ifIXsrSt11__is_scalarIT0_E7__valueEvE6__typeET_S8_RKS4_,comdat
	.weak	_ZSt9__fill_a1IPiiEN9__gnu_cxx11__enable_ifIXsrSt11__is_scalarIT0_E7__valueEvE6__typeET_S8_RKS4_
	.type	_ZSt9__fill_a1IPiiEN9__gnu_cxx11__enable_ifIXsrSt11__is_scalarIT0_E7__valueEvE6__typeET_S8_RKS4_, @function
_ZSt9__fill_a1IPiiEN9__gnu_cxx11__enable_ifIXsrSt11__is_scalarIT0_E7__valueEvE6__typeET_S8_RKS4_:
.LFB11791:
	.cfi_startproc
	endbr64
	pushq	%rbp
	.cfi_def_cfa_offset 16
	.cfi_offset 6, -16
	movq	%rsp, %rbp
	.cfi_def_cfa_register 6
	movq	%rdi, -24(%rbp)
	movq	%rsi, -32(%rbp)
	movq	%rdx, -40(%rbp)
	movq	-40(%rbp), %rax
	movl	(%rax), %eax
	movl	%eax, -4(%rbp)
	jmp	.L434
.L435:
	movq	-24(%rbp), %rax
	movl	-4(%rbp), %edx
	movl	%edx, (%rax)
	addq	$4, -24(%rbp)
.L434:
	movq	-24(%rbp), %rax
	cmpq	-32(%rbp), %rax
	jne	.L435
	nop
	nop
	popq	%rbp
	.cfi_def_cfa 7, 8
	ret
	.cfi_endproc
.LFE11791:
	.size	_ZSt9__fill_a1IPiiEN9__gnu_cxx11__enable_ifIXsrSt11__is_scalarIT0_E7__valueEvE6__typeET_S8_RKS4_, .-_ZSt9__fill_a1IPiiEN9__gnu_cxx11__enable_ifIXsrSt11__is_scalarIT0_E7__valueEvE6__typeET_S8_RKS4_
	.section	.text._ZNSt15__new_allocatorISt4pairIiiEE8allocateEmPKv,"axG",@progbits,_ZNSt15__new_allocatorISt4pairIiiEE8allocateEmPKv,comdat
	.align 2
	.weak	_ZNSt15__new_allocatorISt4pairIiiEE8allocateEmPKv
	.type	_ZNSt15__new_allocatorISt4pairIiiEE8allocateEmPKv, @function
_ZNSt15__new_allocatorISt4pairIiiEE8allocateEmPKv:
.LFB11793:
	.cfi_startproc
	endbr64
	pushq	%rbp
	.cfi_def_cfa_offset 16
	.cfi_offset 6, -16
	movq	%rsp, %rbp
	.cfi_def_cfa_register 6
	subq	$48, %rsp
	movq	%rdi, -24(%rbp)
	movq	%rsi, -32(%rbp)
	movq	%rdx, -40(%rbp)
	movq	-24(%rbp), %rax
	movq	%rax, -8(%rbp)
	movabsq	$1152921504606846975, %rax
	cmpq	-32(%rbp), %rax
	setb	%al
	movzbl	%al, %eax
	testq	%rax, %rax
	setne	%al
	testb	%al, %al
	je	.L438
	movabsq	$2305843009213693951, %rax
	cmpq	-32(%rbp), %rax
	jnb	.L439
	call	_ZSt28__throw_bad_array_new_lengthv@PLT
.L439:
	call	_ZSt17__throw_bad_allocv@PLT
.L438:
	movq	-32(%rbp), %rax
	salq	$3, %rax
	movq	%rax, %rdi
	call	_Znwm@PLT
	nop
	leave
	.cfi_def_cfa 7, 8
	ret
	.cfi_endproc
.LFE11793:
	.size	_ZNSt15__new_allocatorISt4pairIiiEE8allocateEmPKv, .-_ZNSt15__new_allocatorISt4pairIiiEE8allocateEmPKv
	.section	.text._ZSt4copyIPPSt4pairIiiES3_ET0_T_S5_S4_,"axG",@progbits,_ZSt4copyIPPSt4pairIiiES3_ET0_T_S5_S4_,comdat
	.weak	_ZSt4copyIPPSt4pairIiiES3_ET0_T_S5_S4_
	.type	_ZSt4copyIPPSt4pairIiiES3_ET0_T_S5_S4_, @function
_ZSt4copyIPPSt4pairIiiES3_ET0_T_S5_S4_:
.LFB11795:
	.cfi_startproc
	endbr64
	pushq	%rbp
	.cfi_def_cfa_offset 16
	.cfi_offset 6, -16
	movq	%rsp, %rbp
	.cfi_def_cfa_register 6
	pushq	%rbx
	subq	$40, %rsp
	.cfi_offset 3, -24
	movq	%rdi, -24(%rbp)
	movq	%rsi, -32(%rbp)
	movq	%rdx, -40(%rbp)
	movq	-32(%rbp), %rax
	movq	%rax, %rdi
	call	_ZSt12__miter_baseIPPSt4pairIiiEET_S4_
	movq	%rax, %rbx
	movq	-24(%rbp), %rax
	movq	%rax, %rdi
	call	_ZSt12__miter_baseIPPSt4pairIiiEET_S4_
	movq	%rax, %rcx
	movq	-40(%rbp), %rax
	movq	%rax, %rdx
	movq	%rbx, %rsi
	movq	%rcx, %rdi
	call	_ZSt13__copy_move_aILb0EPPSt4pairIiiES3_ET1_T0_S5_S4_
	movq	-8(%rbp), %rbx
	leave
	.cfi_def_cfa 7, 8
	ret
	.cfi_endproc
.LFE11795:
	.size	_ZSt4copyIPPSt4pairIiiES3_ET0_T_S5_S4_, .-_ZSt4copyIPPSt4pairIiiES3_ET0_T_S5_S4_
	.section	.text._ZSt13copy_backwardIPPSt4pairIiiES3_ET0_T_S5_S4_,"axG",@progbits,_ZSt13copy_backwardIPPSt4pairIiiES3_ET0_T_S5_S4_,comdat
	.weak	_ZSt13copy_backwardIPPSt4pairIiiES3_ET0_T_S5_S4_
	.type	_ZSt13copy_backwardIPPSt4pairIiiES3_ET0_T_S5_S4_, @function
_ZSt13copy_backwardIPPSt4pairIiiES3_ET0_T_S5_S4_:
.LFB11796:
	.cfi_startproc
	endbr64
	pushq	%rbp
	.cfi_def_cfa_offset 16
	.cfi_offset 6, -16
	movq	%rsp, %rbp
	.cfi_def_cfa_register 6
	pushq	%rbx
	subq	$40, %rsp
	.cfi_offset 3, -24
	movq	%rdi, -24(%rbp)
	movq	%rsi, -32(%rbp)
	movq	%rdx, -40(%rbp)
	movq	-32(%rbp), %rax
	movq	%rax, %rdi
	call	_ZSt12__miter_baseIPPSt4pairIiiEET_S4_
	movq	%rax, %rbx
	movq	-24(%rbp), %rax
	movq	%rax, %rdi
	call	_ZSt12__miter_baseIPPSt4pairIiiEET_S4_
	movq	%rax, %rcx
	movq	-40(%rbp), %rax
	movq	%rax, %rdx
	movq	%rbx, %rsi
	movq	%rcx, %rdi
	call	_ZSt22__copy_move_backward_aILb0EPPSt4pairIiiES3_ET1_T0_S5_S4_
	movq	-8(%rbp), %rbx
	leave
	.cfi_def_cfa 7, 8
	ret
	.cfi_endproc
.LFE11796:
	.size	_ZSt13copy_backwardIPPSt4pairIiiES3_ET0_T_S5_S4_, .-_ZSt13copy_backwardIPPSt4pairIiiES3_ET0_T_S5_S4_
	.section	.text._ZN9__gnu_cxx17__normal_iteratorIPKiSt6vectorIiSaIiEEEC2ERKS2_,"axG",@progbits,_ZN9__gnu_cxx17__normal_iteratorIPKiSt6vectorIiSaIiEEEC5ERKS2_,comdat
	.align 2
	.weak	_ZN9__gnu_cxx17__normal_iteratorIPKiSt6vectorIiSaIiEEEC2ERKS2_
	.type	_ZN9__gnu_cxx17__normal_iteratorIPKiSt6vectorIiSaIiEEEC2ERKS2_, @function
_ZN9__gnu_cxx17__normal_iteratorIPKiSt6vectorIiSaIiEEEC2ERKS2_:
.LFB11810:
	.cfi_startproc
	endbr64
	pushq	%rbp
	.cfi_def_cfa_offset 16
	.cfi_offset 6, -16
	movq	%rsp, %rbp
	.cfi_def_cfa_register 6
	movq	%rdi, -8(%rbp)
	movq	%rsi, -16(%rbp)
	movq	-16(%rbp), %rax
	movq	(%rax), %rdx
	movq	-8(%rbp), %rax
	movq	%rdx, (%rax)
	nop
	popq	%rbp
	.cfi_def_cfa 7, 8
	ret
	.cfi_endproc
.LFE11810:
	.size	_ZN9__gnu_cxx17__normal_iteratorIPKiSt6vectorIiSaIiEEEC2ERKS2_, .-_ZN9__gnu_cxx17__normal_iteratorIPKiSt6vectorIiSaIiEEEC2ERKS2_
	.weak	_ZN9__gnu_cxx17__normal_iteratorIPKiSt6vectorIiSaIiEEEC1ERKS2_
	.set	_ZN9__gnu_cxx17__normal_iteratorIPKiSt6vectorIiSaIiEEEC1ERKS2_,_ZN9__gnu_cxx17__normal_iteratorIPKiSt6vectorIiSaIiEEEC2ERKS2_
	.section	.text._ZSt18uninitialized_copyIN9__gnu_cxx17__normal_iteratorIPKiSt6vectorIiSaIiEEEEPiET0_T_SA_S9_,"axG",@progbits,_ZSt18uninitialized_copyIN9__gnu_cxx17__normal_iteratorIPKiSt6vectorIiSaIiEEEEPiET0_T_SA_S9_,comdat
	.weak	_ZSt18uninitialized_copyIN9__gnu_cxx17__normal_iteratorIPKiSt6vectorIiSaIiEEEEPiET0_T_SA_S9_
	.type	_ZSt18uninitialized_copyIN9__gnu_cxx17__normal_iteratorIPKiSt6vectorIiSaIiEEEEPiET0_T_SA_S9_, @function
_ZSt18uninitialized_copyIN9__gnu_cxx17__normal_iteratorIPKiSt6vectorIiSaIiEEEEPiET0_T_SA_S9_:
.LFB11812:
	.cfi_startproc
	endbr64
	pushq	%rbp
	.cfi_def_cfa_offset 16
	.cfi_offset 6, -16
	movq	%rsp, %rbp
	.cfi_def_cfa_register 6
	subq	$48, %rsp
	movq	%rdi, -24(%rbp)
	movq	%rsi, -32(%rbp)
	movq	%rdx, -40(%rbp)
	movb	$1, -2(%rbp)
	movb	$1, -1(%rbp)
	movq	-40(%rbp), %rdx
	movq	-32(%rbp), %rcx
	movq	-24(%rbp), %rax
	movq	%rcx, %rsi
	movq	%rax, %rdi
	call	_ZNSt20__uninitialized_copyILb1EE13__uninit_copyIN9__gnu_cxx17__normal_iteratorIPKiSt6vectorIiSaIiEEEEPiEET0_T_SC_SB_
	leave
	.cfi_def_cfa 7, 8
	ret
	.cfi_endproc
.LFE11812:
	.size	_ZSt18uninitialized_copyIN9__gnu_cxx17__normal_iteratorIPKiSt6vectorIiSaIiEEEEPiET0_T_SA_S9_, .-_ZSt18uninitialized_copyIN9__gnu_cxx17__normal_iteratorIPKiSt6vectorIiSaIiEEEEPiET0_T_SA_S9_
	.section	.text._ZSt12__miter_baseIPPSt4pairIiiEET_S4_,"axG",@progbits,_ZSt12__miter_baseIPPSt4pairIiiEET_S4_,comdat
	.weak	_ZSt12__miter_baseIPPSt4pairIiiEET_S4_
	.type	_ZSt12__miter_baseIPPSt4pairIiiEET_S4_, @function
_ZSt12__miter_baseIPPSt4pairIiiEET_S4_:
.LFB11815:
	.cfi_startproc
	endbr64
	pushq	%rbp
	.cfi_def_cfa_offset 16
	.cfi_offset 6, -16
	movq	%rsp, %rbp
	.cfi_def_cfa_register 6
	movq	%rdi, -8(%rbp)
	movq	-8(%rbp), %rax
	popq	%rbp
	.cfi_def_cfa 7, 8
	ret
	.cfi_endproc
.LFE11815:
	.size	_ZSt12__miter_baseIPPSt4pairIiiEET_S4_, .-_ZSt12__miter_baseIPPSt4pairIiiEET_S4_
	.section	.text._ZSt13__copy_move_aILb0EPPSt4pairIiiES3_ET1_T0_S5_S4_,"axG",@progbits,_ZSt13__copy_move_aILb0EPPSt4pairIiiES3_ET1_T0_S5_S4_,comdat
	.weak	_ZSt13__copy_move_aILb0EPPSt4pairIiiES3_ET1_T0_S5_S4_
	.type	_ZSt13__copy_move_aILb0EPPSt4pairIiiES3_ET1_T0_S5_S4_, @function
_ZSt13__copy_move_aILb0EPPSt4pairIiiES3_ET1_T0_S5_S4_:
.LFB11816:
	.cfi_startproc
	endbr64
	pushq	%rbp
	.cfi_def_cfa_offset 16
	.cfi_offset 6, -16
	movq	%rsp, %rbp
	.cfi_def_cfa_register 6
	pushq	%r12
	pushq	%rbx
	subq	$32, %rsp
	.cfi_offset 12, -24
	.cfi_offset 3, -32
	movq	%rdi, -24(%rbp)
	movq	%rsi, -32(%rbp)
	movq	%rdx, -40(%rbp)
	movq	-40(%rbp), %rax
	movq	%rax, %rdi
	call	_ZSt12__niter_baseIPPSt4pairIiiEET_S4_
	movq	%rax, %r12
	movq	-32(%rbp), %rax
	movq	%rax, %rdi
	call	_ZSt12__niter_baseIPPSt4pairIiiEET_S4_
	movq	%rax, %rbx
	movq	-24(%rbp), %rax
	movq	%rax, %rdi
	call	_ZSt12__niter_baseIPPSt4pairIiiEET_S4_
	movq	%r12, %rdx
	movq	%rbx, %rsi
	movq	%rax, %rdi
	call	_ZSt14__copy_move_a1ILb0EPPSt4pairIiiES3_ET1_T0_S5_S4_
	movq	%rax, %rdx
	leaq	-40(%rbp), %rax
	movq	%rdx, %rsi
	movq	%rax, %rdi
	call	_ZSt12__niter_wrapIPPSt4pairIiiEET_RKS4_S4_
	addq	$32, %rsp
	popq	%rbx
	popq	%r12
	popq	%rbp
	.cfi_def_cfa 7, 8
	ret
	.cfi_endproc
.LFE11816:
	.size	_ZSt13__copy_move_aILb0EPPSt4pairIiiES3_ET1_T0_S5_S4_, .-_ZSt13__copy_move_aILb0EPPSt4pairIiiES3_ET1_T0_S5_S4_
	.section	.text._ZSt22__copy_move_backward_aILb0EPPSt4pairIiiES3_ET1_T0_S5_S4_,"axG",@progbits,_ZSt22__copy_move_backward_aILb0EPPSt4pairIiiES3_ET1_T0_S5_S4_,comdat
	.weak	_ZSt22__copy_move_backward_aILb0EPPSt4pairIiiES3_ET1_T0_S5_S4_
	.type	_ZSt22__copy_move_backward_aILb0EPPSt4pairIiiES3_ET1_T0_S5_S4_, @function
_ZSt22__copy_move_backward_aILb0EPPSt4pairIiiES3_ET1_T0_S5_S4_:
.LFB11818:
	.cfi_startproc
	endbr64
	pushq	%rbp
	.cfi_def_cfa_offset 16
	.cfi_offset 6, -16
	movq	%rsp, %rbp
	.cfi_def_cfa_register 6
	pushq	%r12
	pushq	%rbx
	subq	$32, %rsp
	.cfi_offset 12, -24
	.cfi_offset 3, -32
	movq	%rdi, -24(%rbp)
	movq	%rsi, -32(%rbp)
	movq	%rdx, -40(%rbp)
	movq	-40(%rbp), %rax
	movq	%rax, %rdi
	call	_ZSt12__niter_baseIPPSt4pairIiiEET_S4_
	movq	%rax, %r12
	movq	-32(%rbp), %rax
	movq	%rax, %rdi
	call	_ZSt12__niter_baseIPPSt4pairIiiEET_S4_
	movq	%rax, %rbx
	movq	-24(%rbp), %rax
	movq	%rax, %rdi
	call	_ZSt12__niter_baseIPPSt4pairIiiEET_S4_
	movq	%r12, %rdx
	movq	%rbx, %rsi
	movq	%rax, %rdi
	call	_ZSt23__copy_move_backward_a1ILb0EPPSt4pairIiiES3_ET1_T0_S5_S4_
	movq	%rax, %rdx
	leaq	-40(%rbp), %rax
	movq	%rdx, %rsi
	movq	%rax, %rdi
	call	_ZSt12__niter_wrapIPPSt4pairIiiEET_RKS4_S4_
	addq	$32, %rsp
	popq	%rbx
	popq	%r12
	popq	%rbp
	.cfi_def_cfa 7, 8
	ret
	.cfi_endproc
.LFE11818:
	.size	_ZSt22__copy_move_backward_aILb0EPPSt4pairIiiES3_ET1_T0_S5_S4_, .-_ZSt22__copy_move_backward_aILb0EPPSt4pairIiiES3_ET1_T0_S5_S4_
	.section	.text._ZNSt20__uninitialized_copyILb1EE13__uninit_copyIN9__gnu_cxx17__normal_iteratorIPKiSt6vectorIiSaIiEEEEPiEET0_T_SC_SB_,"axG",@progbits,_ZNSt20__uninitialized_copyILb1EE13__uninit_copyIN9__gnu_cxx17__normal_iteratorIPKiSt6vectorIiSaIiEEEEPiEET0_T_SC_SB_,comdat
	.weak	_ZNSt20__uninitialized_copyILb1EE13__uninit_copyIN9__gnu_cxx17__normal_iteratorIPKiSt6vectorIiSaIiEEEEPiEET0_T_SC_SB_
	.type	_ZNSt20__uninitialized_copyILb1EE13__uninit_copyIN9__gnu_cxx17__normal_iteratorIPKiSt6vectorIiSaIiEEEEPiEET0_T_SC_SB_, @function
_ZNSt20__uninitialized_copyILb1EE13__uninit_copyIN9__gnu_cxx17__normal_iteratorIPKiSt6vectorIiSaIiEEEEPiEET0_T_SC_SB_:
.LFB11820:
	.cfi_startproc
	endbr64
	pushq	%rbp
	.cfi_def_cfa_offset 16
	.cfi_offset 6, -16
	movq	%rsp, %rbp
	.cfi_def_cfa_register 6
	subq	$32, %rsp
	movq	%rdi, -8(%rbp)
	movq	%rsi, -16(%rbp)
	movq	%rdx, -24(%rbp)
	movq	-24(%rbp), %rdx
	movq	-16(%rbp), %rcx
	movq	-8(%rbp), %rax
	movq	%rcx, %rsi
	movq	%rax, %rdi
	call	_ZSt4copyIN9__gnu_cxx17__normal_iteratorIPKiSt6vectorIiSaIiEEEEPiET0_T_SA_S9_
	leave
	.cfi_def_cfa 7, 8
	ret
	.cfi_endproc
.LFE11820:
	.size	_ZNSt20__uninitialized_copyILb1EE13__uninit_copyIN9__gnu_cxx17__normal_iteratorIPKiSt6vectorIiSaIiEEEEPiEET0_T_SC_SB_, .-_ZNSt20__uninitialized_copyILb1EE13__uninit_copyIN9__gnu_cxx17__normal_iteratorIPKiSt6vectorIiSaIiEEEEPiEET0_T_SC_SB_
	.section	.text._ZSt12__niter_baseIPPSt4pairIiiEET_S4_,"axG",@progbits,_ZSt12__niter_baseIPPSt4pairIiiEET_S4_,comdat
	.weak	_ZSt12__niter_baseIPPSt4pairIiiEET_S4_
	.type	_ZSt12__niter_baseIPPSt4pairIiiEET_S4_, @function
_ZSt12__niter_baseIPPSt4pairIiiEET_S4_:
.LFB11821:
	.cfi_startproc
	endbr64
	pushq	%rbp
	.cfi_def_cfa_offset 16
	.cfi_offset 6, -16
	movq	%rsp, %rbp
	.cfi_def_cfa_register 6
	movq	%rdi, -8(%rbp)
	movq	-8(%rbp), %rax
	popq	%rbp
	.cfi_def_cfa 7, 8
	ret
	.cfi_endproc
.LFE11821:
	.size	_ZSt12__niter_baseIPPSt4pairIiiEET_S4_, .-_ZSt12__niter_baseIPPSt4pairIiiEET_S4_
	.section	.text._ZSt14__copy_move_a1ILb0EPPSt4pairIiiES3_ET1_T0_S5_S4_,"axG",@progbits,_ZSt14__copy_move_a1ILb0EPPSt4pairIiiES3_ET1_T0_S5_S4_,comdat
	.weak	_ZSt14__copy_move_a1ILb0EPPSt4pairIiiES3_ET1_T0_S5_S4_
	.type	_ZSt14__copy_move_a1ILb0EPPSt4pairIiiES3_ET1_T0_S5_S4_, @function
_ZSt14__copy_move_a1ILb0EPPSt4pairIiiES3_ET1_T0_S5_S4_:
.LFB11822:
	.cfi_startproc
	endbr64
	pushq	%rbp
	.cfi_def_cfa_offset 16
	.cfi_offset 6, -16
	movq	%rsp, %rbp
	.cfi_def_cfa_register 6
	subq	$32, %rsp
	movq	%rdi, -8(%rbp)
	movq	%rsi, -16(%rbp)
	movq	%rdx, -24(%rbp)
	movq	-24(%rbp), %rdx
	movq	-16(%rbp), %rcx
	movq	-8(%rbp), %rax
	movq	%rcx, %rsi
	movq	%rax, %rdi
	call	_ZSt14__copy_move_a2ILb0EPPSt4pairIiiES3_ET1_T0_S5_S4_
	leave
	.cfi_def_cfa 7, 8
	ret
	.cfi_endproc
.LFE11822:
	.size	_ZSt14__copy_move_a1ILb0EPPSt4pairIiiES3_ET1_T0_S5_S4_, .-_ZSt14__copy_move_a1ILb0EPPSt4pairIiiES3_ET1_T0_S5_S4_
	.section	.text._ZSt12__niter_wrapIPPSt4pairIiiEET_RKS4_S4_,"axG",@progbits,_ZSt12__niter_wrapIPPSt4pairIiiEET_RKS4_S4_,comdat
	.weak	_ZSt12__niter_wrapIPPSt4pairIiiEET_RKS4_S4_
	.type	_ZSt12__niter_wrapIPPSt4pairIiiEET_RKS4_S4_, @function
_ZSt12__niter_wrapIPPSt4pairIiiEET_RKS4_S4_:
.LFB11823:
	.cfi_startproc
	endbr64
	pushq	%rbp
	.cfi_def_cfa_offset 16
	.cfi_offset 6, -16
	movq	%rsp, %rbp
	.cfi_def_cfa_register 6
	movq	%rdi, -8(%rbp)
	movq	%rsi, -16(%rbp)
	movq	-16(%rbp), %rax
	popq	%rbp
	.cfi_def_cfa 7, 8
	ret
	.cfi_endproc
.LFE11823:
	.size	_ZSt12__niter_wrapIPPSt4pairIiiEET_RKS4_S4_, .-_ZSt12__niter_wrapIPPSt4pairIiiEET_RKS4_S4_
	.section	.text._ZSt23__copy_move_backward_a1ILb0EPPSt4pairIiiES3_ET1_T0_S5_S4_,"axG",@progbits,_ZSt23__copy_move_backward_a1ILb0EPPSt4pairIiiES3_ET1_T0_S5_S4_,comdat
	.weak	_ZSt23__copy_move_backward_a1ILb0EPPSt4pairIiiES3_ET1_T0_S5_S4_
	.type	_ZSt23__copy_move_backward_a1ILb0EPPSt4pairIiiES3_ET1_T0_S5_S4_, @function
_ZSt23__copy_move_backward_a1ILb0EPPSt4pairIiiES3_ET1_T0_S5_S4_:
.LFB11824:
	.cfi_startproc
	endbr64
	pushq	%rbp
	.cfi_def_cfa_offset 16
	.cfi_offset 6, -16
	movq	%rsp, %rbp
	.cfi_def_cfa_register 6
	subq	$32, %rsp
	movq	%rdi, -8(%rbp)
	movq	%rsi, -16(%rbp)
	movq	%rdx, -24(%rbp)
	movq	-24(%rbp), %rdx
	movq	-16(%rbp), %rcx
	movq	-8(%rbp), %rax
	movq	%rcx, %rsi
	movq	%rax, %rdi
	call	_ZSt23__copy_move_backward_a2ILb0EPPSt4pairIiiES3_ET1_T0_S5_S4_
	leave
	.cfi_def_cfa 7, 8
	ret
	.cfi_endproc
.LFE11824:
	.size	_ZSt23__copy_move_backward_a1ILb0EPPSt4pairIiiES3_ET1_T0_S5_S4_, .-_ZSt23__copy_move_backward_a1ILb0EPPSt4pairIiiES3_ET1_T0_S5_S4_
	.section	.text._ZSt4copyIN9__gnu_cxx17__normal_iteratorIPKiSt6vectorIiSaIiEEEEPiET0_T_SA_S9_,"axG",@progbits,_ZSt4copyIN9__gnu_cxx17__normal_iteratorIPKiSt6vectorIiSaIiEEEEPiET0_T_SA_S9_,comdat
	.weak	_ZSt4copyIN9__gnu_cxx17__normal_iteratorIPKiSt6vectorIiSaIiEEEEPiET0_T_SA_S9_
	.type	_ZSt4copyIN9__gnu_cxx17__normal_iteratorIPKiSt6vectorIiSaIiEEEEPiET0_T_SA_S9_, @function
_ZSt4copyIN9__gnu_cxx17__normal_iteratorIPKiSt6vectorIiSaIiEEEEPiET0_T_SA_S9_:
.LFB11826:
	.cfi_startproc
	endbr64
	pushq	%rbp
	.cfi_def_cfa_offset 16
	.cfi_offset 6, -16
	movq	%rsp, %rbp
	.cfi_def_cfa_register 6
	pushq	%rbx
	subq	$40, %rsp
	.cfi_offset 3, -24
	movq	%rdi, -24(%rbp)
	movq	%rsi, -32(%rbp)
	movq	%rdx, -40(%rbp)
	movq	-32(%rbp), %rax
	movq	%rax, %rdi
	call	_ZSt12__miter_baseIN9__gnu_cxx17__normal_iteratorIPKiSt6vectorIiSaIiEEEEET_S8_
	movq	%rax, %rbx
	movq	-24(%rbp), %rax
	movq	%rax, %rdi
	call	_ZSt12__miter_baseIN9__gnu_cxx17__normal_iteratorIPKiSt6vectorIiSaIiEEEEET_S8_
	movq	%rax, %rcx
	movq	-40(%rbp), %rax
	movq	%rax, %rdx
	movq	%rbx, %rsi
	movq	%rcx, %rdi
	call	_ZSt13__copy_move_aILb0EN9__gnu_cxx17__normal_iteratorIPKiSt6vectorIiSaIiEEEEPiET1_T0_SA_S9_
	movq	-8(%rbp), %rbx
	leave
	.cfi_def_cfa 7, 8
	ret
	.cfi_endproc
.LFE11826:
	.size	_ZSt4copyIN9__gnu_cxx17__normal_iteratorIPKiSt6vectorIiSaIiEEEEPiET0_T_SA_S9_, .-_ZSt4copyIN9__gnu_cxx17__normal_iteratorIPKiSt6vectorIiSaIiEEEEPiET0_T_SA_S9_
	.section	.text._ZSt14__copy_move_a2ILb0EPPSt4pairIiiES3_ET1_T0_S5_S4_,"axG",@progbits,_ZSt14__copy_move_a2ILb0EPPSt4pairIiiES3_ET1_T0_S5_S4_,comdat
	.weak	_ZSt14__copy_move_a2ILb0EPPSt4pairIiiES3_ET1_T0_S5_S4_
	.type	_ZSt14__copy_move_a2ILb0EPPSt4pairIiiES3_ET1_T0_S5_S4_, @function
_ZSt14__copy_move_a2ILb0EPPSt4pairIiiES3_ET1_T0_S5_S4_:
.LFB11827:
	.cfi_startproc
	endbr64
	pushq	%rbp
	.cfi_def_cfa_offset 16
	.cfi_offset 6, -16
	movq	%rsp, %rbp
	.cfi_def_cfa_register 6
	subq	$32, %rsp
	movq	%rdi, -8(%rbp)
	movq	%rsi, -16(%rbp)
	movq	%rdx, -24(%rbp)
	movq	-24(%rbp), %rdx
	movq	-16(%rbp), %rcx
	movq	-8(%rbp), %rax
	movq	%rcx, %rsi
	movq	%rax, %rdi
	call	_ZNSt11__copy_moveILb0ELb1ESt26random_access_iterator_tagE8__copy_mIPSt4pairIiiES5_EEPT0_PT_S9_S7_
	leave
	.cfi_def_cfa 7, 8
	ret
	.cfi_endproc
.LFE11827:
	.size	_ZSt14__copy_move_a2ILb0EPPSt4pairIiiES3_ET1_T0_S5_S4_, .-_ZSt14__copy_move_a2ILb0EPPSt4pairIiiES3_ET1_T0_S5_S4_
	.section	.text._ZSt23__copy_move_backward_a2ILb0EPPSt4pairIiiES3_ET1_T0_S5_S4_,"axG",@progbits,_ZSt23__copy_move_backward_a2ILb0EPPSt4pairIiiES3_ET1_T0_S5_S4_,comdat
	.weak	_ZSt23__copy_move_backward_a2ILb0EPPSt4pairIiiES3_ET1_T0_S5_S4_
	.type	_ZSt23__copy_move_backward_a2ILb0EPPSt4pairIiiES3_ET1_T0_S5_S4_, @function
_ZSt23__copy_move_backward_a2ILb0EPPSt4pairIiiES3_ET1_T0_S5_S4_:
.LFB11828:
	.cfi_startproc
	endbr64
	pushq	%rbp
	.cfi_def_cfa_offset 16
	.cfi_offset 6, -16
	movq	%rsp, %rbp
	.cfi_def_cfa_register 6
	subq	$32, %rsp
	movq	%rdi, -8(%rbp)
	movq	%rsi, -16(%rbp)
	movq	%rdx, -24(%rbp)
	movq	-24(%rbp), %rdx
	movq	-16(%rbp), %rcx
	movq	-8(%rbp), %rax
	movq	%rcx, %rsi
	movq	%rax, %rdi
	call	_ZNSt20__copy_move_backwardILb0ELb1ESt26random_access_iterator_tagE13__copy_move_bIPSt4pairIiiES5_EEPT0_PT_S9_S7_
	leave
	.cfi_def_cfa 7, 8
	ret
	.cfi_endproc
.LFE11828:
	.size	_ZSt23__copy_move_backward_a2ILb0EPPSt4pairIiiES3_ET1_T0_S5_S4_, .-_ZSt23__copy_move_backward_a2ILb0EPPSt4pairIiiES3_ET1_T0_S5_S4_
	.section	.text._ZSt12__miter_baseIN9__gnu_cxx17__normal_iteratorIPKiSt6vectorIiSaIiEEEEET_S8_,"axG",@progbits,_ZSt12__miter_baseIN9__gnu_cxx17__normal_iteratorIPKiSt6vectorIiSaIiEEEEET_S8_,comdat
	.weak	_ZSt12__miter_baseIN9__gnu_cxx17__normal_iteratorIPKiSt6vectorIiSaIiEEEEET_S8_
	.type	_ZSt12__miter_baseIN9__gnu_cxx17__normal_iteratorIPKiSt6vectorIiSaIiEEEEET_S8_, @function
_ZSt12__miter_baseIN9__gnu_cxx17__normal_iteratorIPKiSt6vectorIiSaIiEEEEET_S8_:
.LFB11829:
	.cfi_startproc
	endbr64
	pushq	%rbp
	.cfi_def_cfa_offset 16
	.cfi_offset 6, -16
	movq	%rsp, %rbp
	.cfi_def_cfa_register 6
	movq	%rdi, -8(%rbp)
	movq	-8(%rbp), %rax
	popq	%rbp
	.cfi_def_cfa 7, 8
	ret
	.cfi_endproc
.LFE11829:
	.size	_ZSt12__miter_baseIN9__gnu_cxx17__normal_iteratorIPKiSt6vectorIiSaIiEEEEET_S8_, .-_ZSt12__miter_baseIN9__gnu_cxx17__normal_iteratorIPKiSt6vectorIiSaIiEEEEET_S8_
	.section	.text._ZSt13__copy_move_aILb0EN9__gnu_cxx17__normal_iteratorIPKiSt6vectorIiSaIiEEEEPiET1_T0_SA_S9_,"axG",@progbits,_ZSt13__copy_move_aILb0EN9__gnu_cxx17__normal_iteratorIPKiSt6vectorIiSaIiEEEEPiET1_T0_SA_S9_,comdat
	.weak	_ZSt13__copy_move_aILb0EN9__gnu_cxx17__normal_iteratorIPKiSt6vectorIiSaIiEEEEPiET1_T0_SA_S9_
	.type	_ZSt13__copy_move_aILb0EN9__gnu_cxx17__normal_iteratorIPKiSt6vectorIiSaIiEEEEPiET1_T0_SA_S9_, @function
_ZSt13__copy_move_aILb0EN9__gnu_cxx17__normal_iteratorIPKiSt6vectorIiSaIiEEEEPiET1_T0_SA_S9_:
.LFB11830:
	.cfi_startproc
	endbr64
	pushq	%rbp
	.cfi_def_cfa_offset 16
	.cfi_offset 6, -16
	movq	%rsp, %rbp
	.cfi_def_cfa_register 6
	pushq	%r12
	pushq	%rbx
	subq	$32, %rsp
	.cfi_offset 12, -24
	.cfi_offset 3, -32
	movq	%rdi, -24(%rbp)
	movq	%rsi, -32(%rbp)
	movq	%rdx, -40(%rbp)
	movq	-40(%rbp), %rax
	movq	%rax, %rdi
	call	_ZSt12__niter_baseIPiET_S1_
	movq	%rax, %r12
	movq	-32(%rbp), %rax
	movq	%rax, %rdi
	call	_ZSt12__niter_baseIPKiSt6vectorIiSaIiEEET_N9__gnu_cxx17__normal_iteratorIS5_T0_EE
	movq	%rax, %rbx
	movq	-24(%rbp), %rax
	movq	%rax, %rdi
	call	_ZSt12__niter_baseIPKiSt6vectorIiSaIiEEET_N9__gnu_cxx17__normal_iteratorIS5_T0_EE
	movq	%r12, %rdx
	movq	%rbx, %rsi
	movq	%rax, %rdi
	call	_ZSt14__copy_move_a1ILb0EPKiPiET1_T0_S4_S3_
	movq	%rax, %rdx
	leaq	-40(%rbp), %rax
	movq	%rdx, %rsi
	movq	%rax, %rdi
	call	_ZSt12__niter_wrapIPiET_RKS1_S1_
	addq	$32, %rsp
	popq	%rbx
	popq	%r12
	popq	%rbp
	.cfi_def_cfa 7, 8
	ret
	.cfi_endproc
.LFE11830:
	.size	_ZSt13__copy_move_aILb0EN9__gnu_cxx17__normal_iteratorIPKiSt6vectorIiSaIiEEEEPiET1_T0_SA_S9_, .-_ZSt13__copy_move_aILb0EN9__gnu_cxx17__normal_iteratorIPKiSt6vectorIiSaIiEEEEPiET1_T0_SA_S9_
	.section	.text._ZNSt11__copy_moveILb0ELb1ESt26random_access_iterator_tagE8__copy_mIPSt4pairIiiES5_EEPT0_PT_S9_S7_,"axG",@progbits,_ZNSt11__copy_moveILb0ELb1ESt26random_access_iterator_tagE8__copy_mIPSt4pairIiiES5_EEPT0_PT_S9_S7_,comdat
	.weak	_ZNSt11__copy_moveILb0ELb1ESt26random_access_iterator_tagE8__copy_mIPSt4pairIiiES5_EEPT0_PT_S9_S7_
	.type	_ZNSt11__copy_moveILb0ELb1ESt26random_access_iterator_tagE8__copy_mIPSt4pairIiiES5_EEPT0_PT_S9_S7_, @function
_ZNSt11__copy_moveILb0ELb1ESt26random_access_iterator_tagE8__copy_mIPSt4pairIiiES5_EEPT0_PT_S9_S7_:
.LFB11832:
	.cfi_startproc
	endbr64
	pushq	%rbp
	.cfi_def_cfa_offset 16
	.cfi_offset 6, -16
	movq	%rsp, %rbp
	.cfi_def_cfa_register 6
	subq	$48, %rsp
	movq	%rdi, -24(%rbp)
	movq	%rsi, -32(%rbp)
	movq	%rdx, -40(%rbp)
	movq	-32(%rbp), %rax
	subq	-24(%rbp), %rax
	sarq	$3, %rax
	movq	%rax, -8(%rbp)
	cmpq	$1, -8(%rbp)
	setg	%al
	movzbl	%al, %eax
	testq	%rax, %rax
	je	.L475
	movq	-8(%rbp), %rax
	leaq	0(,%rax,8), %rdx
	movq	-24(%rbp), %rcx
	movq	-40(%rbp), %rax
	movq	%rcx, %rsi
	movq	%rax, %rdi
	call	memmove@PLT
	jmp	.L476
.L475:
	cmpq	$1, -8(%rbp)
	jne	.L476
	movq	-24(%rbp), %rdx
	movq	-40(%rbp), %rax
	movq	%rdx, %rsi
	movq	%rax, %rdi
	call	_ZNSt11__copy_moveILb0ELb0ESt26random_access_iterator_tagE12__assign_oneIPSt4pairIiiES5_EEvPT_PT0_
.L476:
	movq	-8(%rbp), %rax
	leaq	0(,%rax,8), %rdx
	movq	-40(%rbp), %rax
	addq	%rdx, %rax
	leave
	.cfi_def_cfa 7, 8
	ret
	.cfi_endproc
.LFE11832:
	.size	_ZNSt11__copy_moveILb0ELb1ESt26random_access_iterator_tagE8__copy_mIPSt4pairIiiES5_EEPT0_PT_S9_S7_, .-_ZNSt11__copy_moveILb0ELb1ESt26random_access_iterator_tagE8__copy_mIPSt4pairIiiES5_EEPT0_PT_S9_S7_
	.section	.text._ZNSt20__copy_move_backwardILb0ELb1ESt26random_access_iterator_tagE13__copy_move_bIPSt4pairIiiES5_EEPT0_PT_S9_S7_,"axG",@progbits,_ZNSt20__copy_move_backwardILb0ELb1ESt26random_access_iterator_tagE13__copy_move_bIPSt4pairIiiES5_EEPT0_PT_S9_S7_,comdat
	.weak	_ZNSt20__copy_move_backwardILb0ELb1ESt26random_access_iterator_tagE13__copy_move_bIPSt4pairIiiES5_EEPT0_PT_S9_S7_
	.type	_ZNSt20__copy_move_backwardILb0ELb1ESt26random_access_iterator_tagE13__copy_move_bIPSt4pairIiiES5_EEPT0_PT_S9_S7_, @function
_ZNSt20__copy_move_backwardILb0ELb1ESt26random_access_iterator_tagE13__copy_move_bIPSt4pairIiiES5_EEPT0_PT_S9_S7_:
.LFB11833:
	.cfi_startproc
	endbr64
	pushq	%rbp
	.cfi_def_cfa_offset 16
	.cfi_offset 6, -16
	movq	%rsp, %rbp
	.cfi_def_cfa_register 6
	subq	$48, %rsp
	movq	%rdi, -24(%rbp)
	movq	%rsi, -32(%rbp)
	movq	%rdx, -40(%rbp)
	movq	-32(%rbp), %rax
	subq	-24(%rbp), %rax
	sarq	$3, %rax
	movq	%rax, -8(%rbp)
	cmpq	$1, -8(%rbp)
	setg	%al
	movzbl	%al, %eax
	testq	%rax, %rax
	je	.L479
	movq	-8(%rbp), %rax
	leaq	0(,%rax,8), %rdx
	movq	-8(%rbp), %rax
	salq	$3, %rax
	negq	%rax
	movq	%rax, %rcx
	movq	-40(%rbp), %rax
	addq	%rax, %rcx
	movq	-24(%rbp), %rax
	movq	%rax, %rsi
	movq	%rcx, %rdi
	call	memmove@PLT
	jmp	.L480
.L479:
	cmpq	$1, -8(%rbp)
	jne	.L480
	movq	-40(%rbp), %rax
	leaq	-8(%rax), %rdx
	movq	-24(%rbp), %rax
	movq	%rax, %rsi
	movq	%rdx, %rdi
	call	_ZNSt11__copy_moveILb0ELb0ESt26random_access_iterator_tagE12__assign_oneIPSt4pairIiiES5_EEvPT_PT0_
.L480:
	movq	-8(%rbp), %rax
	salq	$3, %rax
	negq	%rax
	movq	%rax, %rdx
	movq	-40(%rbp), %rax
	addq	%rdx, %rax
	leave
	.cfi_def_cfa 7, 8
	ret
	.cfi_endproc
.LFE11833:
	.size	_ZNSt20__copy_move_backwardILb0ELb1ESt26random_access_iterator_tagE13__copy_move_bIPSt4pairIiiES5_EEPT0_PT_S9_S7_, .-_ZNSt20__copy_move_backwardILb0ELb1ESt26random_access_iterator_tagE13__copy_move_bIPSt4pairIiiES5_EEPT0_PT_S9_S7_
	.section	.text._ZSt12__niter_baseIPKiSt6vectorIiSaIiEEET_N9__gnu_cxx17__normal_iteratorIS5_T0_EE,"axG",@progbits,_ZSt12__niter_baseIPKiSt6vectorIiSaIiEEET_N9__gnu_cxx17__normal_iteratorIS5_T0_EE,comdat
	.weak	_ZSt12__niter_baseIPKiSt6vectorIiSaIiEEET_N9__gnu_cxx17__normal_iteratorIS5_T0_EE
	.type	_ZSt12__niter_baseIPKiSt6vectorIiSaIiEEET_N9__gnu_cxx17__normal_iteratorIS5_T0_EE, @function
_ZSt12__niter_baseIPKiSt6vectorIiSaIiEEET_N9__gnu_cxx17__normal_iteratorIS5_T0_EE:
.LFB11834:
	.cfi_startproc
	endbr64
	pushq	%rbp
	.cfi_def_cfa_offset 16
	.cfi_offset 6, -16
	movq	%rsp, %rbp
	.cfi_def_cfa_register 6
	subq	$16, %rsp
	movq	%rdi, -8(%rbp)
	leaq	-8(%rbp), %rax
	movq	%rax, %rdi
	call	_ZNK9__gnu_cxx17__normal_iteratorIPKiSt6vectorIiSaIiEEE4baseEv
	movq	(%rax), %rax
	leave
	.cfi_def_cfa 7, 8
	ret
	.cfi_endproc
.LFE11834:
	.size	_ZSt12__niter_baseIPKiSt6vectorIiSaIiEEET_N9__gnu_cxx17__normal_iteratorIS5_T0_EE, .-_ZSt12__niter_baseIPKiSt6vectorIiSaIiEEET_N9__gnu_cxx17__normal_iteratorIS5_T0_EE
	.section	.text._ZSt14__copy_move_a1ILb0EPKiPiET1_T0_S4_S3_,"axG",@progbits,_ZSt14__copy_move_a1ILb0EPKiPiET1_T0_S4_S3_,comdat
	.weak	_ZSt14__copy_move_a1ILb0EPKiPiET1_T0_S4_S3_
	.type	_ZSt14__copy_move_a1ILb0EPKiPiET1_T0_S4_S3_, @function
_ZSt14__copy_move_a1ILb0EPKiPiET1_T0_S4_S3_:
.LFB11835:
	.cfi_startproc
	endbr64
	pushq	%rbp
	.cfi_def_cfa_offset 16
	.cfi_offset 6, -16
	movq	%rsp, %rbp
	.cfi_def_cfa_register 6
	subq	$32, %rsp
	movq	%rdi, -8(%rbp)
	movq	%rsi, -16(%rbp)
	movq	%rdx, -24(%rbp)
	movq	-24(%rbp), %rdx
	movq	-16(%rbp), %rcx
	movq	-8(%rbp), %rax
	movq	%rcx, %rsi
	movq	%rax, %rdi
	call	_ZSt14__copy_move_a2ILb0EPKiPiET1_T0_S4_S3_
	leave
	.cfi_def_cfa 7, 8
	ret
	.cfi_endproc
.LFE11835:
	.size	_ZSt14__copy_move_a1ILb0EPKiPiET1_T0_S4_S3_, .-_ZSt14__copy_move_a1ILb0EPKiPiET1_T0_S4_S3_
	.section	.text._ZSt12__niter_wrapIPiET_RKS1_S1_,"axG",@progbits,_ZSt12__niter_wrapIPiET_RKS1_S1_,comdat
	.weak	_ZSt12__niter_wrapIPiET_RKS1_S1_
	.type	_ZSt12__niter_wrapIPiET_RKS1_S1_, @function
_ZSt12__niter_wrapIPiET_RKS1_S1_:
.LFB11836:
	.cfi_startproc
	endbr64
	pushq	%rbp
	.cfi_def_cfa_offset 16
	.cfi_offset 6, -16
	movq	%rsp, %rbp
	.cfi_def_cfa_register 6
	movq	%rdi, -8(%rbp)
	movq	%rsi, -16(%rbp)
	movq	-16(%rbp), %rax
	popq	%rbp
	.cfi_def_cfa 7, 8
	ret
	.cfi_endproc
.LFE11836:
	.size	_ZSt12__niter_wrapIPiET_RKS1_S1_, .-_ZSt12__niter_wrapIPiET_RKS1_S1_
	.section	.text._ZNSt11__copy_moveILb0ELb0ESt26random_access_iterator_tagE12__assign_oneIPSt4pairIiiES5_EEvPT_PT0_,"axG",@progbits,_ZNSt11__copy_moveILb0ELb0ESt26random_access_iterator_tagE12__assign_oneIPSt4pairIiiES5_EEvPT_PT0_,comdat
	.weak	_ZNSt11__copy_moveILb0ELb0ESt26random_access_iterator_tagE12__assign_oneIPSt4pairIiiES5_EEvPT_PT0_
	.type	_ZNSt11__copy_moveILb0ELb0ESt26random_access_iterator_tagE12__assign_oneIPSt4pairIiiES5_EEvPT_PT0_, @function
_ZNSt11__copy_moveILb0ELb0ESt26random_access_iterator_tagE12__assign_oneIPSt4pairIiiES5_EEvPT_PT0_:
.LFB11837:
	.cfi_startproc
	endbr64
	pushq	%rbp
	.cfi_def_cfa_offset 16
	.cfi_offset 6, -16
	movq	%rsp, %rbp
	.cfi_def_cfa_register 6
	movq	%rdi, -8(%rbp)
	movq	%rsi, -16(%rbp)
	movq	-16(%rbp), %rax
	movq	(%rax), %rdx
	movq	-8(%rbp), %rax
	movq	%rdx, (%rax)
	nop
	popq	%rbp
	.cfi_def_cfa 7, 8
	ret
	.cfi_endproc
.LFE11837:
	.size	_ZNSt11__copy_moveILb0ELb0ESt26random_access_iterator_tagE12__assign_oneIPSt4pairIiiES5_EEvPT_PT0_, .-_ZNSt11__copy_moveILb0ELb0ESt26random_access_iterator_tagE12__assign_oneIPSt4pairIiiES5_EEvPT_PT0_
	.section	.text._ZNK9__gnu_cxx17__normal_iteratorIPKiSt6vectorIiSaIiEEE4baseEv,"axG",@progbits,_ZNK9__gnu_cxx17__normal_iteratorIPKiSt6vectorIiSaIiEEE4baseEv,comdat
	.align 2
	.weak	_ZNK9__gnu_cxx17__normal_iteratorIPKiSt6vectorIiSaIiEEE4baseEv
	.type	_ZNK9__gnu_cxx17__normal_iteratorIPKiSt6vectorIiSaIiEEE4baseEv, @function
_ZNK9__gnu_cxx17__normal_iteratorIPKiSt6vectorIiSaIiEEE4baseEv:
.LFB11838:
	.cfi_startproc
	endbr64
	pushq	%rbp
	.cfi_def_cfa_offset 16
	.cfi_offset 6, -16
	movq	%rsp, %rbp
	.cfi_def_cfa_register 6
	movq	%rdi, -8(%rbp)
	movq	-8(%rbp), %rax
	popq	%rbp
	.cfi_def_cfa 7, 8
	ret
	.cfi_endproc
.LFE11838:
	.size	_ZNK9__gnu_cxx17__normal_iteratorIPKiSt6vectorIiSaIiEEE4baseEv, .-_ZNK9__gnu_cxx17__normal_iteratorIPKiSt6vectorIiSaIiEEE4baseEv
	.section	.text._ZSt14__copy_move_a2ILb0EPKiPiET1_T0_S4_S3_,"axG",@progbits,_ZSt14__copy_move_a2ILb0EPKiPiET1_T0_S4_S3_,comdat
	.weak	_ZSt14__copy_move_a2ILb0EPKiPiET1_T0_S4_S3_
	.type	_ZSt14__copy_move_a2ILb0EPKiPiET1_T0_S4_S3_, @function
_ZSt14__copy_move_a2ILb0EPKiPiET1_T0_S4_S3_:
.LFB11839:
	.cfi_startproc
	endbr64
	pushq	%rbp
	.cfi_def_cfa_offset 16
	.cfi_offset 6, -16
	movq	%rsp, %rbp
	.cfi_def_cfa_register 6
	subq	$32, %rsp
	movq	%rdi, -8(%rbp)
	movq	%rsi, -16(%rbp)
	movq	%rdx, -24(%rbp)
	movq	-24(%rbp), %rdx
	movq	-16(%rbp), %rcx
	movq	-8(%rbp), %rax
	movq	%rcx, %rsi
	movq	%rax, %rdi
	call	_ZNSt11__copy_moveILb0ELb1ESt26random_access_iterator_tagE8__copy_mIKiiEEPT0_PT_S7_S5_
	leave
	.cfi_def_cfa 7, 8
	ret
	.cfi_endproc
.LFE11839:
	.size	_ZSt14__copy_move_a2ILb0EPKiPiET1_T0_S4_S3_, .-_ZSt14__copy_move_a2ILb0EPKiPiET1_T0_S4_S3_
	.section	.text._ZNSt11__copy_moveILb0ELb1ESt26random_access_iterator_tagE8__copy_mIKiiEEPT0_PT_S7_S5_,"axG",@progbits,_ZNSt11__copy_moveILb0ELb1ESt26random_access_iterator_tagE8__copy_mIKiiEEPT0_PT_S7_S5_,comdat
	.weak	_ZNSt11__copy_moveILb0ELb1ESt26random_access_iterator_tagE8__copy_mIKiiEEPT0_PT_S7_S5_
	.type	_ZNSt11__copy_moveILb0ELb1ESt26random_access_iterator_tagE8__copy_mIKiiEEPT0_PT_S7_S5_, @function
_ZNSt11__copy_moveILb0ELb1ESt26random_access_iterator_tagE8__copy_mIKiiEEPT0_PT_S7_S5_:
.LFB11840:
	.cfi_startproc
	endbr64
	pushq	%rbp
	.cfi_def_cfa_offset 16
	.cfi_offset 6, -16
	movq	%rsp, %rbp
	.cfi_def_cfa_register 6
	subq	$48, %rsp
	movq	%rdi, -24(%rbp)
	movq	%rsi, -32(%rbp)
	movq	%rdx, -40(%rbp)
	movq	-32(%rbp), %rax
	subq	-24(%rbp), %rax
	sarq	$2, %rax
	movq	%rax, -8(%rbp)
	cmpq	$1, -8(%rbp)
	setg	%al
	movzbl	%al, %eax
	testq	%rax, %rax
	je	.L494
	movq	-8(%rbp), %rax
	leaq	0(,%rax,4), %rdx
	movq	-24(%rbp), %rcx
	movq	-40(%rbp), %rax
	movq	%rcx, %rsi
	movq	%rax, %rdi
	call	memmove@PLT
	jmp	.L495
.L494:
	cmpq	$1, -8(%rbp)
	jne	.L495
	movq	-24(%rbp), %rdx
	movq	-40(%rbp), %rax
	movq	%rdx, %rsi
	movq	%rax, %rdi
	call	_ZNSt11__copy_moveILb0ELb0ESt26random_access_iterator_tagE12__assign_oneIiKiEEvPT_PT0_
.L495:
	movq	-8(%rbp), %rax
	leaq	0(,%rax,4), %rdx
	movq	-40(%rbp), %rax
	addq	%rdx, %rax
	leave
	.cfi_def_cfa 7, 8
	ret
	.cfi_endproc
.LFE11840:
	.size	_ZNSt11__copy_moveILb0ELb1ESt26random_access_iterator_tagE8__copy_mIKiiEEPT0_PT_S7_S5_, .-_ZNSt11__copy_moveILb0ELb1ESt26random_access_iterator_tagE8__copy_mIKiiEEPT0_PT_S7_S5_
	.section	.text._ZNSt11__copy_moveILb0ELb0ESt26random_access_iterator_tagE12__assign_oneIiKiEEvPT_PT0_,"axG",@progbits,_ZNSt11__copy_moveILb0ELb0ESt26random_access_iterator_tagE12__assign_oneIiKiEEvPT_PT0_,comdat
	.weak	_ZNSt11__copy_moveILb0ELb0ESt26random_access_iterator_tagE12__assign_oneIiKiEEvPT_PT0_
	.type	_ZNSt11__copy_moveILb0ELb0ESt26random_access_iterator_tagE12__assign_oneIiKiEEvPT_PT0_, @function
_ZNSt11__copy_moveILb0ELb0ESt26random_access_iterator_tagE12__assign_oneIiKiEEvPT_PT0_:
.LFB11841:
	.cfi_startproc
	endbr64
	pushq	%rbp
	.cfi_def_cfa_offset 16
	.cfi_offset 6, -16
	movq	%rsp, %rbp
	.cfi_def_cfa_register 6
	movq	%rdi, -8(%rbp)
	movq	%rsi, -16(%rbp)
	movq	-16(%rbp), %rax
	movl	(%rax), %edx
	movq	-8(%rbp), %rax
	movl	%edx, (%rax)
	nop
	popq	%rbp
	.cfi_def_cfa 7, 8
	ret
	.cfi_endproc
.LFE11841:
	.size	_ZNSt11__copy_moveILb0ELb0ESt26random_access_iterator_tagE12__assign_oneIiKiEEvPT_PT0_, .-_ZNSt11__copy_moveILb0ELb0ESt26random_access_iterator_tagE12__assign_oneIiKiEEvPT_PT0_
	.section	.rodata
	.type	_ZNSt8__detail30__integer_to_chars_is_unsignedIjEE, @object
	.size	_ZNSt8__detail30__integer_to_chars_is_unsignedIjEE, 1
_ZNSt8__detail30__integer_to_chars_is_unsignedIjEE:
	.byte	1
	.type	_ZNSt8__detail30__integer_to_chars_is_unsignedImEE, @object
	.size	_ZNSt8__detail30__integer_to_chars_is_unsignedImEE, 1
_ZNSt8__detail30__integer_to_chars_is_unsignedImEE:
	.byte	1
	.type	_ZNSt8__detail30__integer_to_chars_is_unsignedIyEE, @object
	.size	_ZNSt8__detail30__integer_to_chars_is_unsignedIyEE, 1
_ZNSt8__detail30__integer_to_chars_is_unsignedIyEE:
	.byte	1
	.type	_ZSt12__is_ratio_vISt5ratioILl1ELl1000000000EEE, @object
	.size	_ZSt12__is_ratio_vISt5ratioILl1ELl1000000000EEE, 1
_ZSt12__is_ratio_vISt5ratioILl1ELl1000000000EEE:
	.byte	1
	.type	_ZSt12__is_ratio_vISt5ratioILl1ELl1EEE, @object
	.size	_ZSt12__is_ratio_vISt5ratioILl1ELl1EEE, 1
_ZSt12__is_ratio_vISt5ratioILl1ELl1EEE:
	.byte	1
	.type	_ZSt12__is_ratio_vISt5ratioILl1000000000ELl1EEE, @object
	.size	_ZSt12__is_ratio_vISt5ratioILl1000000000ELl1EEE, 1
_ZSt12__is_ratio_vISt5ratioILl1000000000ELl1EEE:
	.byte	1
	.type	_ZNSt8__detail30__integer_to_chars_is_unsignedIoEE, @object
	.size	_ZNSt8__detail30__integer_to_chars_is_unsignedIoEE, 1
_ZNSt8__detail30__integer_to_chars_is_unsignedIoEE:
	.byte	1
	.hidden	DW.ref.__gxx_personality_v0
	.weak	DW.ref.__gxx_personality_v0
	.section	.data.rel.local.DW.ref.__gxx_personality_v0,"awG",@progbits,DW.ref.__gxx_personality_v0,comdat
	.align 8
	.type	DW.ref.__gxx_personality_v0, @object
	.size	DW.ref.__gxx_personality_v0, 8
DW.ref.__gxx_personality_v0:
	.quad	__gxx_personality_v0
	.ident	"GCC: (Ubuntu 13.2.0-23ubuntu4) 13.2.0"
	.section	.note.GNU-stack,"",@progbits
	.section	.note.gnu.property,"a"
	.align 8
	.long	1f - 0f
	.long	4f - 1f
	.long	5
0:
	.string	"GNU"
1:
	.align 8
	.long	0xc0000002
	.long	3f - 2f
2:
	.long	0x3
3:
	.align 8
4:
