	.file	"Factorize.cpp"
	.intel_syntax noprefix
# GNU C++17 (Ubuntu 13.2.0-23ubuntu4) version 13.2.0 (x86_64-linux-gnu)
#	compiled by GNU C version 13.2.0, GMP version 6.3.0, MPFR version 4.2.1, MPC version 1.3.1, isl version isl-0.26-GMP

# GGC heuristics: --param ggc-min-expand=100 --param ggc-min-heapsize=131072
# options passed: -masm=intel -mtune=generic -march=x86-64 -O0 -fasynchronous-unwind-tables -fstack-protector-strong -fstack-clash-protection -fcf-protection
	.text
	.section	.text._ZnwmPv,"axG",@progbits,_ZnwmPv,comdat
	.weak	_ZnwmPv
	.type	_ZnwmPv, @function
_ZnwmPv:
.LFB471:
	.cfi_startproc
	endbr64	
	push	rbp	#
	.cfi_def_cfa_offset 16
	.cfi_offset 6, -16
	mov	rbp, rsp	#,
	.cfi_def_cfa_register 6
	mov	QWORD PTR -8[rbp], rdi	# D.15836, D.15836
	mov	QWORD PTR -16[rbp], rsi	# __p, __p
# /usr/include/c++/13/new:175: { return __p; }
	mov	rax, QWORD PTR -16[rbp]	# _2, __p
# /usr/include/c++/13/new:175: { return __p; }
	pop	rbp	#
	.cfi_def_cfa 7, 8
	ret	
	.cfi_endproc
.LFE471:
	.size	_ZnwmPv, .-_ZnwmPv
	.section	.text._ZSt3minImERKT_S2_S2_,"axG",@progbits,_ZSt3minImERKT_S2_S2_,comdat
	.weak	_ZSt3minImERKT_S2_S2_
	.type	_ZSt3minImERKT_S2_S2_, @function
_ZSt3minImERKT_S2_S2_:
.LFB1923:
	.cfi_startproc
	endbr64	
	push	rbp	#
	.cfi_def_cfa_offset 16
	.cfi_offset 6, -16
	mov	rbp, rsp	#,
	.cfi_def_cfa_register 6
	mov	QWORD PTR -8[rbp], rdi	# __a, __a
	mov	QWORD PTR -16[rbp], rsi	# __b, __b
# /usr/include/c++/13/bits/stl_algobase.h:238:       if (__b < __a)
	mov	rax, QWORD PTR -16[rbp]	# tmp86, __b
	mov	rdx, QWORD PTR [rax]	# _1, *__b_5(D)
	mov	rax, QWORD PTR -8[rbp]	# tmp87, __a
	mov	rax, QWORD PTR [rax]	# _2, *__a_6(D)
# /usr/include/c++/13/bits/stl_algobase.h:238:       if (__b < __a)
	cmp	rdx, rax	# _1, _2
	jnb	.L4	#,
# /usr/include/c++/13/bits/stl_algobase.h:239: 	return __b;
	mov	rax, QWORD PTR -16[rbp]	# _3, __b
	jmp	.L5	#
.L4:
# /usr/include/c++/13/bits/stl_algobase.h:240:       return __a;
	mov	rax, QWORD PTR -8[rbp]	# _3, __a
.L5:
# /usr/include/c++/13/bits/stl_algobase.h:241:     }
	pop	rbp	#
	.cfi_def_cfa 7, 8
	ret	
	.cfi_endproc
.LFE1923:
	.size	_ZSt3minImERKT_S2_S2_, .-_ZSt3minImERKT_S2_S2_
#APP
	.globl _ZSt21ios_base_library_initv
#NO_APP
	.section	.text._ZNSt12_Vector_baseIiSaIiEE12_Vector_implD2Ev,"axG",@progbits,_ZNSt12_Vector_baseIiSaIiEE12_Vector_implD5Ev,comdat
	.align 2
	.weak	_ZNSt12_Vector_baseIiSaIiEE12_Vector_implD2Ev
	.type	_ZNSt12_Vector_baseIiSaIiEE12_Vector_implD2Ev, @function
_ZNSt12_Vector_baseIiSaIiEE12_Vector_implD2Ev:
.LFB9775:
	.cfi_startproc
	endbr64	
	push	rbp	#
	.cfi_def_cfa_offset 16
	.cfi_offset 6, -16
	mov	rbp, rsp	#,
	.cfi_def_cfa_register 6
	sub	rsp, 32	#,
	mov	QWORD PTR -24[rbp], rdi	# this, this
	mov	rax, QWORD PTR -24[rbp]	# tmp82, this
	mov	QWORD PTR -8[rbp], rax	# this, tmp82
# /usr/include/c++/13/bits/allocator.h:184:       ~allocator() _GLIBCXX_NOTHROW { }
	mov	rax, QWORD PTR -8[rbp]	# tmp83, this
	mov	rdi, rax	#, tmp83
	call	_ZNSt15__new_allocatorIiED2Ev	#
	nop	
# /usr/include/c++/13/bits/stl_vector.h:133:       struct _Vector_impl
	nop	
	leave	
	.cfi_def_cfa 7, 8
	ret	
	.cfi_endproc
.LFE9775:
	.size	_ZNSt12_Vector_baseIiSaIiEE12_Vector_implD2Ev, .-_ZNSt12_Vector_baseIiSaIiEE12_Vector_implD2Ev
	.weak	_ZNSt12_Vector_baseIiSaIiEE12_Vector_implD1Ev
	.set	_ZNSt12_Vector_baseIiSaIiEE12_Vector_implD1Ev,_ZNSt12_Vector_baseIiSaIiEE12_Vector_implD2Ev
	.section	.text._ZNSt12_Vector_baseIiSaIiEEC2Ev,"axG",@progbits,_ZNSt12_Vector_baseIiSaIiEEC5Ev,comdat
	.align 2
	.weak	_ZNSt12_Vector_baseIiSaIiEEC2Ev
	.type	_ZNSt12_Vector_baseIiSaIiEEC2Ev, @function
_ZNSt12_Vector_baseIiSaIiEEC2Ev:
.LFB9777:
	.cfi_startproc
	endbr64	
	push	rbp	#
	.cfi_def_cfa_offset 16
	.cfi_offset 6, -16
	mov	rbp, rsp	#,
	.cfi_def_cfa_register 6
	sub	rsp, 16	#,
	mov	QWORD PTR -8[rbp], rdi	# this, this
# /usr/include/c++/13/bits/stl_vector.h:315:       _Vector_base() = default;
	mov	rax, QWORD PTR -8[rbp]	# _1, this
	mov	rdi, rax	#, _1
	call	_ZNSt12_Vector_baseIiSaIiEE12_Vector_implC1Ev	#
	nop	
	leave	
	.cfi_def_cfa 7, 8
	ret	
	.cfi_endproc
.LFE9777:
	.size	_ZNSt12_Vector_baseIiSaIiEEC2Ev, .-_ZNSt12_Vector_baseIiSaIiEEC2Ev
	.weak	_ZNSt12_Vector_baseIiSaIiEEC1Ev
	.set	_ZNSt12_Vector_baseIiSaIiEEC1Ev,_ZNSt12_Vector_baseIiSaIiEEC2Ev
	.section	.text._ZNSt6vectorIiSaIiEEC2Ev,"axG",@progbits,_ZNSt6vectorIiSaIiEEC5Ev,comdat
	.align 2
	.weak	_ZNSt6vectorIiSaIiEEC2Ev
	.type	_ZNSt6vectorIiSaIiEEC2Ev, @function
_ZNSt6vectorIiSaIiEEC2Ev:
.LFB9779:
	.cfi_startproc
	endbr64	
	push	rbp	#
	.cfi_def_cfa_offset 16
	.cfi_offset 6, -16
	mov	rbp, rsp	#,
	.cfi_def_cfa_register 6
	sub	rsp, 16	#,
	mov	QWORD PTR -8[rbp], rdi	# this, this
# /usr/include/c++/13/bits/stl_vector.h:531:       vector() = default;
	mov	rax, QWORD PTR -8[rbp]	# _1, this
	mov	rdi, rax	#, _1
	call	_ZNSt12_Vector_baseIiSaIiEEC2Ev	#
	nop	
	leave	
	.cfi_def_cfa 7, 8
	ret	
	.cfi_endproc
.LFE9779:
	.size	_ZNSt6vectorIiSaIiEEC2Ev, .-_ZNSt6vectorIiSaIiEEC2Ev
	.weak	_ZNSt6vectorIiSaIiEEC1Ev
	.set	_ZNSt6vectorIiSaIiEEC1Ev,_ZNSt6vectorIiSaIiEEC2Ev
	.text
	.globl	_Z9factorizei
	.type	_Z9factorizei, @function
_Z9factorizei:
.LFB9771:
	.cfi_startproc
	.cfi_personality 0x9b,DW.ref.__gxx_personality_v0
	.cfi_lsda 0x1b,.LLSDA9771
	endbr64	
	push	rbp	#
	.cfi_def_cfa_offset 16
	.cfi_offset 6, -16
	mov	rbp, rsp	#,
	.cfi_def_cfa_register 6
	push	rbx	#
	sub	rsp, 40	#,
	.cfi_offset 3, -24
	mov	QWORD PTR -40[rbp], rdi	# .result_ptr, .result_ptr
	mov	DWORD PTR -44[rbp], esi	# n, n
# Factorize.cpp:18: vector<int> factorize(int n) {
	mov	rax, QWORD PTR fs:40	# tmp107, MEM[(<address-space-1> long unsigned int *)40B]
	mov	QWORD PTR -24[rbp], rax	# D.225343, tmp107
	xor	eax, eax	# tmp107
# Factorize.cpp:19:     vector<int> factor;
	mov	rax, QWORD PTR -40[rbp]	# tmp96, <retval>
	mov	rdi, rax	#, tmp96
	call	_ZNSt6vectorIiSaIiEEC1Ev	#
# Factorize.cpp:20:     for (int i = 2; i * i <= n; i++) {
	mov	DWORD PTR -28[rbp], 2	# i,
# Factorize.cpp:20:     for (int i = 2; i * i <= n; i++) {
	jmp	.L10	#
.L12:
# Factorize.cpp:22: 	    factor.push_back(i);
	lea	rdx, -28[rbp]	# tmp97,
	mov	rax, QWORD PTR -40[rbp]	# tmp98, <retval>
	mov	rsi, rdx	#, tmp97
	mov	rdi, rax	#, tmp98
.LEHB0:
	call	_ZNSt6vectorIiSaIiEE9push_backERKi	#
# Factorize.cpp:23: 	    n /= i;
	mov	eax, DWORD PTR -44[rbp]	# n.0_1, n
	mov	ecx, DWORD PTR -28[rbp]	# i.1_2, i
	cdq
	idiv	ecx	# i.1_2
	mov	DWORD PTR -44[rbp], eax	# n, _3
.L11:
# Factorize.cpp:21: 	while (n % i == 0) {
	mov	eax, DWORD PTR -44[rbp]	# n.2_4, n
	mov	ebx, DWORD PTR -28[rbp]	# i.3_5, i
	cdq
	idiv	ebx	# i.3_5
	mov	ecx, edx	# tmp101, tmp101
	mov	eax, ecx	# _6, tmp101
# Factorize.cpp:21: 	while (n % i == 0) {
	test	eax, eax	# _6
	je	.L12	#,
# Factorize.cpp:20:     for (int i = 2; i * i <= n; i++) {
	mov	eax, DWORD PTR -28[rbp]	# i.4_7, i
	add	eax, 1	# _8,
	mov	DWORD PTR -28[rbp], eax	# i, _8
.L10:
# Factorize.cpp:20:     for (int i = 2; i * i <= n; i++) {
	mov	edx, DWORD PTR -28[rbp]	# i.5_9, i
	mov	eax, DWORD PTR -28[rbp]	# i.6_10, i
	imul	edx, eax	# _11, i.6_10
# Factorize.cpp:20:     for (int i = 2; i * i <= n; i++) {
	mov	eax, DWORD PTR -44[rbp]	# n.7_12, n
	cmp	edx, eax	# _11, n.7_12
	jle	.L11	#,
# Factorize.cpp:26:     if (n > 1) {
	mov	eax, DWORD PTR -44[rbp]	# n.8_13, n
# Factorize.cpp:26:     if (n > 1) {
	cmp	eax, 1	# n.8_13,
	jle	.L20	#,
# Factorize.cpp:27: 	factor.push_back(n);
	lea	rdx, -44[rbp]	# tmp103,
	mov	rax, QWORD PTR -40[rbp]	# tmp104, <retval>
	mov	rsi, rdx	#, tmp103
	mov	rdi, rax	#, tmp104
	call	_ZNSt6vectorIiSaIiEE9push_backERKi	#
.LEHE0:
# Factorize.cpp:29:     return factor;
	jmp	.L20	#
.L19:
	endbr64	
# Factorize.cpp:30: }
	mov	rbx, rax	# tmp106,
	mov	rax, QWORD PTR -40[rbp]	# tmp105, <retval>
	mov	rdi, rax	#, tmp105
	call	_ZNSt6vectorIiSaIiEED1Ev	#
	mov	rax, rbx	# D.225342, tmp106
	mov	rdx, QWORD PTR -24[rbp]	# tmp108, D.225343
	sub	rdx, QWORD PTR fs:40	# tmp108, MEM[(<address-space-1> long unsigned int *)40B]
	je	.L17	#,
	call	__stack_chk_fail@PLT	#
.L17:
	mov	rdi, rax	#, D.225342
.LEHB1:
	call	_Unwind_Resume@PLT	#
.LEHE1:
.L20:
# Factorize.cpp:29:     return factor;
	nop	
# Factorize.cpp:30: }
	mov	rax, QWORD PTR -24[rbp]	# tmp109, D.225343
	sub	rax, QWORD PTR fs:40	# tmp109, MEM[(<address-space-1> long unsigned int *)40B]
	je	.L18	#,
	call	__stack_chk_fail@PLT	#
.L18:
	mov	rax, QWORD PTR -40[rbp]	#, <retval>
	mov	rbx, QWORD PTR -8[rbp]	#,
	leave	
	.cfi_def_cfa 7, 8
	ret	
	.cfi_endproc
.LFE9771:
	.globl	__gxx_personality_v0
	.section	.gcc_except_table,"a",@progbits
.LLSDA9771:
	.byte	0xff
	.byte	0xff
	.byte	0x1
	.uleb128 .LLSDACSE9771-.LLSDACSB9771
.LLSDACSB9771:
	.uleb128 .LEHB0-.LFB9771
	.uleb128 .LEHE0-.LEHB0
	.uleb128 .L19-.LFB9771
	.uleb128 0
	.uleb128 .LEHB1-.LFB9771
	.uleb128 .LEHE1-.LEHB1
	.uleb128 0
	.uleb128 0
.LLSDACSE9771:
	.text
	.size	_Z9factorizei, .-_Z9factorizei
	.section	.rodata
.LC0:
	.string	": "
	.text
	.globl	main
	.type	main, @function
main:
.LFB9787:
	.cfi_startproc
	.cfi_personality 0x9b,DW.ref.__gxx_personality_v0
	.cfi_lsda 0x1b,.LLSDA9787
	endbr64	
	push	rbp	#
	.cfi_def_cfa_offset 16
	.cfi_offset 6, -16
	mov	rbp, rsp	#,
	.cfi_def_cfa_register 6
	push	rbx	#
	sub	rsp, 56	#,
	.cfi_offset 3, -24
# Factorize.cpp:32: int main() {
	mov	rax, QWORD PTR fs:40	# tmp99, MEM[(<address-space-1> long unsigned int *)40B]
	mov	QWORD PTR -24[rbp], rax	# D.225347, tmp99
	xor	eax, eax	# tmp99
# Factorize.cpp:33:     std::ios::sync_with_stdio(false);
	mov	edi, 0	#,
.LEHB2:
	call	_ZNSt8ios_base15sync_with_stdioEb@PLT	#
# Factorize.cpp:34:     std::cin.tie(0);
	mov	esi, 0	#,
	lea	rax, _ZSt3cin[rip+16]	# tmp88,
	mov	rdi, rax	#, tmp88
	call	_ZNSt9basic_iosIcSt11char_traitsIcEE3tieEPSo@PLT	#
# Factorize.cpp:37:     cin >> n;
	lea	rax, -52[rbp]	# tmp89,
	mov	rsi, rax	#, tmp89
	lea	rax, _ZSt3cin[rip]	# tmp90,
	mov	rdi, rax	#, tmp90
	call	_ZNSirsERi@PLT	#
# Factorize.cpp:38:     cout << n << ": ";
	mov	eax, DWORD PTR -52[rbp]	# n.16_1, n
	mov	esi, eax	#, n.16_1
	lea	rax, _ZSt4cout[rip]	# tmp91,
	mov	rdi, rax	#, tmp91
	call	_ZNSolsEi@PLT	#
	mov	rdx, rax	# _2,
# Factorize.cpp:38:     cout << n << ": ";
	lea	rax, .LC0[rip]	# tmp92,
	mov	rsi, rax	#, tmp92
	mov	rdi, rdx	#, _2
	call	_ZStlsISt11char_traitsIcEERSt13basic_ostreamIcT_ES5_PKc@PLT	#
# Factorize.cpp:39:     printarr(factorize(n));
	mov	edx, DWORD PTR -52[rbp]	# n.17_3, n
	lea	rax, -48[rbp]	# tmp93,
	mov	esi, edx	#, n.17_3
	mov	rdi, rax	#, tmp93
	call	_Z9factorizei	#
.LEHE2:
# Factorize.cpp:39:     printarr(factorize(n));
	lea	rax, -48[rbp]	# tmp94,
	mov	ecx, -1	#,
	mov	edx, -1	#,
	mov	esi, 0	#,
	mov	rdi, rax	#, tmp94
.LEHB3:
	call	_Z8printarrISt6vectorIiSaIiEEEvRKT_bii	#
.LEHE3:
# Factorize.cpp:39:     printarr(factorize(n));
	lea	rax, -48[rbp]	# tmp95,
	mov	rdi, rax	#, tmp95
	call	_ZNSt6vectorIiSaIiEED1Ev	#
# Factorize.cpp:41:     return 0;
	mov	eax, 0	# _17,
# Factorize.cpp:42: }
	mov	rdx, QWORD PTR -24[rbp]	# tmp100, D.225347
	sub	rdx, QWORD PTR fs:40	# tmp100, MEM[(<address-space-1> long unsigned int *)40B]
	je	.L25	#,
	jmp	.L27	#
.L26:
	endbr64	
# Factorize.cpp:39:     printarr(factorize(n));
	mov	rbx, rax	# tmp98,
	lea	rax, -48[rbp]	# tmp97,
	mov	rdi, rax	#, tmp97
	call	_ZNSt6vectorIiSaIiEED1Ev	#
	mov	rax, rbx	# D.225346, tmp98
	mov	rdx, QWORD PTR -24[rbp]	# tmp101, D.225347
	sub	rdx, QWORD PTR fs:40	# tmp101, MEM[(<address-space-1> long unsigned int *)40B]
	je	.L24	#,
	call	__stack_chk_fail@PLT	#
.L24:
	mov	rdi, rax	#, D.225346
.LEHB4:
	call	_Unwind_Resume@PLT	#
.LEHE4:
.L27:
# Factorize.cpp:42: }
	call	__stack_chk_fail@PLT	#
.L25:
	mov	rbx, QWORD PTR -8[rbp]	#,
	leave	
	.cfi_def_cfa 7, 8
	ret	
	.cfi_endproc
.LFE9787:
	.section	.gcc_except_table
.LLSDA9787:
	.byte	0xff
	.byte	0xff
	.byte	0x1
	.uleb128 .LLSDACSE9787-.LLSDACSB9787
.LLSDACSB9787:
	.uleb128 .LEHB2-.LFB9787
	.uleb128 .LEHE2-.LEHB2
	.uleb128 0
	.uleb128 0
	.uleb128 .LEHB3-.LFB9787
	.uleb128 .LEHE3-.LEHB3
	.uleb128 .L26-.LFB9787
	.uleb128 0
	.uleb128 .LEHB4-.LFB9787
	.uleb128 .LEHE4-.LEHB4
	.uleb128 0
	.uleb128 0
.LLSDACSE9787:
	.text
	.size	main, .-main
	.section	.text._ZSt3maxImERKT_S2_S2_,"axG",@progbits,_ZSt3maxImERKT_S2_S2_,comdat
	.weak	_ZSt3maxImERKT_S2_S2_
	.type	_ZSt3maxImERKT_S2_S2_, @function
_ZSt3maxImERKT_S2_S2_:
.LFB10037:
	.cfi_startproc
	endbr64	
	push	rbp	#
	.cfi_def_cfa_offset 16
	.cfi_offset 6, -16
	mov	rbp, rsp	#,
	.cfi_def_cfa_register 6
	mov	QWORD PTR -8[rbp], rdi	# __a, __a
	mov	QWORD PTR -16[rbp], rsi	# __b, __b
# /usr/include/c++/13/bits/stl_algobase.h:262:       if (__a < __b)
	mov	rax, QWORD PTR -8[rbp]	# tmp86, __a
	mov	rdx, QWORD PTR [rax]	# _1, *__a_5(D)
	mov	rax, QWORD PTR -16[rbp]	# tmp87, __b
	mov	rax, QWORD PTR [rax]	# _2, *__b_6(D)
# /usr/include/c++/13/bits/stl_algobase.h:262:       if (__a < __b)
	cmp	rdx, rax	# _1, _2
	jnb	.L29	#,
# /usr/include/c++/13/bits/stl_algobase.h:263: 	return __b;
	mov	rax, QWORD PTR -16[rbp]	# _3, __b
	jmp	.L30	#
.L29:
# /usr/include/c++/13/bits/stl_algobase.h:264:       return __a;
	mov	rax, QWORD PTR -8[rbp]	# _3, __a
.L30:
# /usr/include/c++/13/bits/stl_algobase.h:265:     }
	pop	rbp	#
	.cfi_def_cfa 7, 8
	ret	
	.cfi_endproc
.LFE10037:
	.size	_ZSt3maxImERKT_S2_S2_, .-_ZSt3maxImERKT_S2_S2_
	.section	.text._ZNSt12_Vector_baseIiSaIiEE12_Vector_implC2Ev,"axG",@progbits,_ZNSt12_Vector_baseIiSaIiEE12_Vector_implC5Ev,comdat
	.align 2
	.weak	_ZNSt12_Vector_baseIiSaIiEE12_Vector_implC2Ev
	.type	_ZNSt12_Vector_baseIiSaIiEE12_Vector_implC2Ev, @function
_ZNSt12_Vector_baseIiSaIiEE12_Vector_implC2Ev:
.LFB10474:
	.cfi_startproc
	endbr64	
	push	rbp	#
	.cfi_def_cfa_offset 16
	.cfi_offset 6, -16
	mov	rbp, rsp	#,
	.cfi_def_cfa_register 6
	sub	rsp, 32	#,
	mov	QWORD PTR -24[rbp], rdi	# this, this
	mov	rax, QWORD PTR -24[rbp]	# tmp83, this
	mov	QWORD PTR -16[rbp], rax	# this, tmp83
	mov	rax, QWORD PTR -16[rbp]	# tmp84, this
	mov	QWORD PTR -8[rbp], rax	# this, tmp84
# /usr/include/c++/13/bits/new_allocator.h:88:       __new_allocator() _GLIBCXX_USE_NOEXCEPT { }
	nop	
# /usr/include/c++/13/bits/allocator.h:163:       allocator() _GLIBCXX_NOTHROW { }
	nop	
# /usr/include/c++/13/bits/stl_vector.h:142: 	: _Tp_alloc_type()
	mov	rax, QWORD PTR -24[rbp]	# _1, this
	mov	rdi, rax	#, _1
	call	_ZNSt12_Vector_baseIiSaIiEE17_Vector_impl_dataC2Ev	#
# /usr/include/c++/13/bits/stl_vector.h:143: 	{ }
	nop	
	leave	
	.cfi_def_cfa 7, 8
	ret	
	.cfi_endproc
.LFE10474:
	.size	_ZNSt12_Vector_baseIiSaIiEE12_Vector_implC2Ev, .-_ZNSt12_Vector_baseIiSaIiEE12_Vector_implC2Ev
	.weak	_ZNSt12_Vector_baseIiSaIiEE12_Vector_implC1Ev
	.set	_ZNSt12_Vector_baseIiSaIiEE12_Vector_implC1Ev,_ZNSt12_Vector_baseIiSaIiEE12_Vector_implC2Ev
	.section	.text._ZNSt12_Vector_baseIiSaIiEED2Ev,"axG",@progbits,_ZNSt12_Vector_baseIiSaIiEED5Ev,comdat
	.align 2
	.weak	_ZNSt12_Vector_baseIiSaIiEED2Ev
	.type	_ZNSt12_Vector_baseIiSaIiEED2Ev, @function
_ZNSt12_Vector_baseIiSaIiEED2Ev:
.LFB10480:
	.cfi_startproc
	.cfi_personality 0x9b,DW.ref.__gxx_personality_v0
	.cfi_lsda 0x1b,.LLSDA10480
	endbr64	
	push	rbp	#
	.cfi_def_cfa_offset 16
	.cfi_offset 6, -16
	mov	rbp, rsp	#,
	.cfi_def_cfa_register 6
	sub	rsp, 16	#,
	mov	QWORD PTR -8[rbp], rdi	# this, this
# /usr/include/c++/13/bits/stl_vector.h:370: 		      _M_impl._M_end_of_storage - _M_impl._M_start);
	mov	rax, QWORD PTR -8[rbp]	# tmp89, this
	mov	rdx, QWORD PTR 16[rax]	# _1, this_9(D)->_M_impl.D.187644._M_end_of_storage
# /usr/include/c++/13/bits/stl_vector.h:370: 		      _M_impl._M_end_of_storage - _M_impl._M_start);
	mov	rax, QWORD PTR -8[rbp]	# tmp90, this
	mov	rax, QWORD PTR [rax]	# _2, this_9(D)->_M_impl.D.187644._M_start
# /usr/include/c++/13/bits/stl_vector.h:370: 		      _M_impl._M_end_of_storage - _M_impl._M_start);
	sub	rdx, rax	# _3, _2
	mov	rax, rdx	# _3, _3
	sar	rax, 2	# _3,
# /usr/include/c++/13/bits/stl_vector.h:369: 	_M_deallocate(_M_impl._M_start,
	mov	rdx, rax	# _5, _4
	mov	rax, QWORD PTR -8[rbp]	# tmp92, this
	mov	rcx, QWORD PTR [rax]	# _6, this_9(D)->_M_impl.D.187644._M_start
	mov	rax, QWORD PTR -8[rbp]	# tmp93, this
	mov	rsi, rcx	#, _6
	mov	rdi, rax	#, tmp93
	call	_ZNSt12_Vector_baseIiSaIiEE13_M_deallocateEPim	#
# /usr/include/c++/13/bits/stl_vector.h:371:       }
	mov	rax, QWORD PTR -8[rbp]	# _7, this
	mov	rdi, rax	#, _7
	call	_ZNSt12_Vector_baseIiSaIiEE12_Vector_implD1Ev	#
	nop	
	leave	
	.cfi_def_cfa 7, 8
	ret	
	.cfi_endproc
.LFE10480:
	.section	.gcc_except_table
.LLSDA10480:
	.byte	0xff
	.byte	0xff
	.byte	0x1
	.uleb128 .LLSDACSE10480-.LLSDACSB10480
.LLSDACSB10480:
.LLSDACSE10480:
	.section	.text._ZNSt12_Vector_baseIiSaIiEED2Ev,"axG",@progbits,_ZNSt12_Vector_baseIiSaIiEED5Ev,comdat
	.size	_ZNSt12_Vector_baseIiSaIiEED2Ev, .-_ZNSt12_Vector_baseIiSaIiEED2Ev
	.weak	_ZNSt12_Vector_baseIiSaIiEED1Ev
	.set	_ZNSt12_Vector_baseIiSaIiEED1Ev,_ZNSt12_Vector_baseIiSaIiEED2Ev
	.section	.text._ZNSt6vectorIiSaIiEED2Ev,"axG",@progbits,_ZNSt6vectorIiSaIiEED5Ev,comdat
	.align 2
	.weak	_ZNSt6vectorIiSaIiEED2Ev
	.type	_ZNSt6vectorIiSaIiEED2Ev, @function
_ZNSt6vectorIiSaIiEED2Ev:
.LFB10483:
	.cfi_startproc
	.cfi_personality 0x9b,DW.ref.__gxx_personality_v0
	.cfi_lsda 0x1b,.LLSDA10483
	endbr64	
	push	rbp	#
	.cfi_def_cfa_offset 16
	.cfi_offset 6, -16
	mov	rbp, rsp	#,
	.cfi_def_cfa_register 6
	sub	rsp, 48	#,
	mov	QWORD PTR -40[rbp], rdi	# this, this
# /usr/include/c++/13/bits/stl_vector.h:736: 		      _M_get_Tp_allocator());
	mov	rax, QWORD PTR -40[rbp]	# _1, this
	mov	rdi, rax	#, _1
	call	_ZNSt12_Vector_baseIiSaIiEE19_M_get_Tp_allocatorEv	#
# /usr/include/c++/13/bits/stl_vector.h:735: 	std::_Destroy(this->_M_impl._M_start, this->_M_impl._M_finish,
	mov	rdx, QWORD PTR -40[rbp]	# tmp87, this
	mov	rdx, QWORD PTR 8[rdx]	# _3, this_6(D)->D.188304._M_impl.D.187644._M_finish
	mov	rcx, QWORD PTR -40[rbp]	# tmp88, this
	mov	rcx, QWORD PTR [rcx]	# _4, this_6(D)->D.188304._M_impl.D.187644._M_start
	mov	QWORD PTR -24[rbp], rcx	# __first, _4
	mov	QWORD PTR -16[rbp], rdx	# __last, _3
	mov	QWORD PTR -8[rbp], rax	# D.225283, _2
# /usr/include/c++/13/bits/alloc_traits.h:948:       std::_Destroy(__first, __last);
	mov	rdx, QWORD PTR -16[rbp]	# tmp89, __last
	mov	rax, QWORD PTR -24[rbp]	# tmp90, __first
	mov	rsi, rdx	#, tmp89
	mov	rdi, rax	#, tmp90
	call	_ZSt8_DestroyIPiEvT_S1_	#
# /usr/include/c++/13/bits/alloc_traits.h:949:     }
	nop	
# /usr/include/c++/13/bits/stl_vector.h:738:       }
	mov	rax, QWORD PTR -40[rbp]	# _5, this
	mov	rdi, rax	#, _5
	call	_ZNSt12_Vector_baseIiSaIiEED2Ev	#
	nop	
	leave	
	.cfi_def_cfa 7, 8
	ret	
	.cfi_endproc
.LFE10483:
	.section	.gcc_except_table
.LLSDA10483:
	.byte	0xff
	.byte	0xff
	.byte	0x1
	.uleb128 .LLSDACSE10483-.LLSDACSB10483
.LLSDACSB10483:
.LLSDACSE10483:
	.section	.text._ZNSt6vectorIiSaIiEED2Ev,"axG",@progbits,_ZNSt6vectorIiSaIiEED5Ev,comdat
	.size	_ZNSt6vectorIiSaIiEED2Ev, .-_ZNSt6vectorIiSaIiEED2Ev
	.weak	_ZNSt6vectorIiSaIiEED1Ev
	.set	_ZNSt6vectorIiSaIiEED1Ev,_ZNSt6vectorIiSaIiEED2Ev
	.section	.text._ZNSt6vectorIiSaIiEE9push_backERKi,"axG",@progbits,_ZNSt6vectorIiSaIiEE9push_backERKi,comdat
	.align 2
	.weak	_ZNSt6vectorIiSaIiEE9push_backERKi
	.type	_ZNSt6vectorIiSaIiEE9push_backERKi, @function
_ZNSt6vectorIiSaIiEE9push_backERKi:
.LFB10485:
	.cfi_startproc
	endbr64	
	push	rbp	#
	.cfi_def_cfa_offset 16
	.cfi_offset 6, -16
	mov	rbp, rsp	#,
	.cfi_def_cfa_register 6
	push	rbx	#
	sub	rsp, 72	#,
	.cfi_offset 3, -24
	mov	QWORD PTR -72[rbp], rdi	# this, this
	mov	QWORD PTR -80[rbp], rsi	# __x, __x
# /usr/include/c++/13/bits/stl_vector.h:1283: 	if (this->_M_impl._M_finish != this->_M_impl._M_end_of_storage)
	mov	rax, QWORD PTR -72[rbp]	# tmp96, this
	mov	rdx, QWORD PTR 8[rax]	# _1, this_9(D)->D.188304._M_impl.D.187644._M_finish
# /usr/include/c++/13/bits/stl_vector.h:1283: 	if (this->_M_impl._M_finish != this->_M_impl._M_end_of_storage)
	mov	rax, QWORD PTR -72[rbp]	# tmp97, this
	mov	rax, QWORD PTR 16[rax]	# _2, this_9(D)->D.188304._M_impl.D.187644._M_end_of_storage
# /usr/include/c++/13/bits/stl_vector.h:1283: 	if (this->_M_impl._M_finish != this->_M_impl._M_end_of_storage)
	cmp	rdx, rax	# _1, _2
	je	.L35	#,
# /usr/include/c++/13/bits/stl_vector.h:1286: 	    _Alloc_traits::construct(this->_M_impl, this->_M_impl._M_finish,
	mov	rax, QWORD PTR -72[rbp]	# tmp98, this
	mov	rax, QWORD PTR 8[rax]	# _3, this_9(D)->D.188304._M_impl.D.187644._M_finish
# /usr/include/c++/13/bits/stl_vector.h:1286: 	    _Alloc_traits::construct(this->_M_impl, this->_M_impl._M_finish,
	mov	rdx, QWORD PTR -72[rbp]	# _4, this
	mov	QWORD PTR -64[rbp], rdx	# __a, _4
	mov	QWORD PTR -56[rbp], rax	# __p, _3
	mov	rax, QWORD PTR -80[rbp]	# tmp99, __x
	mov	QWORD PTR -48[rbp], rax	# __args#0, tmp99
# /usr/include/c++/13/bits/alloc_traits.h:538: 	  __a.construct(__p, std::forward<_Args>(__args)...);
	mov	rax, QWORD PTR -48[rbp]	# tmp100, __args#0
	mov	rdi, rax	#, tmp100
	call	_ZSt7forwardIRKiEOT_RNSt16remove_referenceIS2_E4typeE	#
	mov	rdx, QWORD PTR -64[rbp]	# tmp101, __a
	mov	QWORD PTR -40[rbp], rdx	# this, tmp101
	mov	rdx, QWORD PTR -56[rbp]	# tmp102, __p
	mov	QWORD PTR -32[rbp], rdx	# __p, tmp102
	mov	QWORD PTR -24[rbp], rax	# __args#0, _17
# /usr/include/c++/13/bits/new_allocator.h:191: 	{ ::new((void *)__p) _Up(std::forward<_Args>(__args)...); }
	mov	rax, QWORD PTR -32[rbp]	# _21, __p
# /usr/include/c++/13/bits/new_allocator.h:191: 	{ ::new((void *)__p) _Up(std::forward<_Args>(__args)...); }
	mov	rsi, rax	#, _21
	mov	edi, 4	#,
	call	_ZnwmPv	#
	mov	rbx, rax	# _22,
# /usr/include/c++/13/bits/new_allocator.h:191: 	{ ::new((void *)__p) _Up(std::forward<_Args>(__args)...); }
	mov	rax, QWORD PTR -24[rbp]	# tmp103, __args#0
	mov	rdi, rax	#, tmp103
	call	_ZSt7forwardIRKiEOT_RNSt16remove_referenceIS2_E4typeE	#
# /usr/include/c++/13/bits/new_allocator.h:191: 	{ ::new((void *)__p) _Up(std::forward<_Args>(__args)...); }
	mov	eax, DWORD PTR [rax]	# _25, *_24
	mov	DWORD PTR [rbx], eax	# MEM[(int *)_22], _25
# /usr/include/c++/13/bits/new_allocator.h:191: 	{ ::new((void *)__p) _Up(std::forward<_Args>(__args)...); }
	nop	
# /usr/include/c++/13/bits/alloc_traits.h:542: 	}
	nop	
# /usr/include/c++/13/bits/stl_vector.h:1288: 	    ++this->_M_impl._M_finish;
	mov	rax, QWORD PTR -72[rbp]	# tmp104, this
	mov	rax, QWORD PTR 8[rax]	# _5, this_9(D)->D.188304._M_impl.D.187644._M_finish
# /usr/include/c++/13/bits/stl_vector.h:1288: 	    ++this->_M_impl._M_finish;
	lea	rdx, 4[rax]	# _6,
	mov	rax, QWORD PTR -72[rbp]	# tmp105, this
	mov	QWORD PTR 8[rax], rdx	# this_9(D)->D.188304._M_impl.D.187644._M_finish, _6
# /usr/include/c++/13/bits/stl_vector.h:1293:       }
	jmp	.L37	#
.L35:
# /usr/include/c++/13/bits/stl_vector.h:1292: 	  _M_realloc_insert(end(), __x);
	mov	rax, QWORD PTR -72[rbp]	# tmp106, this
	mov	rdi, rax	#, tmp106
	call	_ZNSt6vectorIiSaIiEE3endEv	#
	mov	rcx, rax	# D.225104,
# /usr/include/c++/13/bits/stl_vector.h:1292: 	  _M_realloc_insert(end(), __x);
	mov	rdx, QWORD PTR -80[rbp]	# tmp107, __x
	mov	rax, QWORD PTR -72[rbp]	# tmp108, this
	mov	rsi, rcx	#, D.225104
	mov	rdi, rax	#, tmp108
	call	_ZNSt6vectorIiSaIiEE17_M_realloc_insertIJRKiEEEvN9__gnu_cxx17__normal_iteratorIPiS1_EEDpOT_	#
.L37:
# /usr/include/c++/13/bits/stl_vector.h:1293:       }
	nop	
	mov	rbx, QWORD PTR -8[rbp]	#,
	leave	
	.cfi_def_cfa 7, 8
	ret	
	.cfi_endproc
.LFE10485:
	.size	_ZNSt6vectorIiSaIiEE9push_backERKi, .-_ZNSt6vectorIiSaIiEE9push_backERKi
	.section	.text._Z8printarrISt6vectorIiSaIiEEEvRKT_bii,"axG",@progbits,_Z8printarrISt6vectorIiSaIiEEEvRKT_bii,comdat
	.weak	_Z8printarrISt6vectorIiSaIiEEEvRKT_bii
	.type	_Z8printarrISt6vectorIiSaIiEEEvRKT_bii, @function
_Z8printarrISt6vectorIiSaIiEEEvRKT_bii:
.LFB10492:
	.cfi_startproc
	endbr64	
	push	rbp	#
	.cfi_def_cfa_offset 16
	.cfi_offset 6, -16
	mov	rbp, rsp	#,
	.cfi_def_cfa_register 6
	sub	rsp, 48	#,
	mov	QWORD PTR -24[rbp], rdi	# v, v
	mov	eax, esi	# tmp91, inc
	mov	DWORD PTR -32[rbp], edx	# begin, begin
	mov	DWORD PTR -36[rbp], ecx	# end, end
	mov	BYTE PTR -28[rbp], al	# inc, tmp92
# Factorize.cpp:7:     if (begin < 0) {
	cmp	DWORD PTR -32[rbp], 0	# begin,
	jns	.L39	#,
# Factorize.cpp:8: 	begin ^= begin;
	mov	DWORD PTR -32[rbp], 0	# begin,
.L39:
# Factorize.cpp:10:     if (end < 0) {
	cmp	DWORD PTR -36[rbp], 0	# end,
	jns	.L40	#,
# Factorize.cpp:11: 	end = (int) (v.size());
	mov	rax, QWORD PTR -24[rbp]	# tmp93, v
	mov	rdi, rax	#, tmp93
	call	_ZNKSt6vectorIiSaIiEE4sizeEv	#
# Factorize.cpp:11: 	end = (int) (v.size());
	mov	DWORD PTR -36[rbp], eax	# end, _1
.L40:
# Factorize.cpp:13:     for (int i = begin; i < end; i++) {
	mov	eax, DWORD PTR -32[rbp]	# tmp94, begin
	mov	DWORD PTR -4[rbp], eax	# i, tmp94
# Factorize.cpp:13:     for (int i = begin; i < end; i++) {
	jmp	.L41	#
.L46:
# Factorize.cpp:14: 	std::cout << v[i] + (inc ? 1 : 0) << (i < end - 1 ? ' ' : '\n');
	mov	eax, DWORD PTR -4[rbp]	# tmp95, i
	movsx	rdx, eax	# _2, tmp95
	mov	rax, QWORD PTR -24[rbp]	# tmp96, v
	mov	rsi, rdx	#, _2
	mov	rdi, rax	#, tmp96
	call	_ZNKSt6vectorIiSaIiEEixEm	#
# Factorize.cpp:14: 	std::cout << v[i] + (inc ? 1 : 0) << (i < end - 1 ? ' ' : '\n');
	mov	eax, DWORD PTR [rax]	# _4, *_3
# Factorize.cpp:14: 	std::cout << v[i] + (inc ? 1 : 0) << (i < end - 1 ? ' ' : '\n');
	cmp	BYTE PTR -28[rbp], 0	# inc,
	je	.L42	#,
	mov	edx, 1	# iftmp.18_11,
	jmp	.L43	#
.L42:
# Factorize.cpp:14: 	std::cout << v[i] + (inc ? 1 : 0) << (i < end - 1 ? ' ' : '\n');
	mov	edx, 0	# iftmp.18_11,
.L43:
# Factorize.cpp:14: 	std::cout << v[i] + (inc ? 1 : 0) << (i < end - 1 ? ' ' : '\n');
	add	eax, edx	# _5, iftmp.18_11
	mov	esi, eax	#, _5
	lea	rax, _ZSt4cout[rip]	# tmp97,
	mov	rdi, rax	#, tmp97
	call	_ZNSolsEi@PLT	#
# Factorize.cpp:14: 	std::cout << v[i] + (inc ? 1 : 0) << (i < end - 1 ? ' ' : '\n');
	mov	edx, DWORD PTR -36[rbp]	# tmp98, end
	sub	edx, 1	# _7,
# Factorize.cpp:14: 	std::cout << v[i] + (inc ? 1 : 0) << (i < end - 1 ? ' ' : '\n');
	cmp	DWORD PTR -4[rbp], edx	# i, _7
	jge	.L44	#,
# Factorize.cpp:14: 	std::cout << v[i] + (inc ? 1 : 0) << (i < end - 1 ? ' ' : '\n');
	mov	edx, 32	# iftmp.19_12,
	jmp	.L45	#
.L44:
# Factorize.cpp:14: 	std::cout << v[i] + (inc ? 1 : 0) << (i < end - 1 ? ' ' : '\n');
	mov	edx, 10	# iftmp.19_12,
.L45:
# Factorize.cpp:14: 	std::cout << v[i] + (inc ? 1 : 0) << (i < end - 1 ? ' ' : '\n');
	mov	esi, edx	#, iftmp.19_12
	mov	rdi, rax	#, _6
	call	_ZStlsISt11char_traitsIcEERSt13basic_ostreamIcT_ES5_c@PLT	#
# Factorize.cpp:13:     for (int i = begin; i < end; i++) {
	add	DWORD PTR -4[rbp], 1	# i,
.L41:
# Factorize.cpp:13:     for (int i = begin; i < end; i++) {
	mov	eax, DWORD PTR -4[rbp]	# tmp99, i
	cmp	eax, DWORD PTR -36[rbp]	# tmp99, end
	jl	.L46	#,
# Factorize.cpp:16: }
	nop	
	nop	
	leave	
	.cfi_def_cfa 7, 8
	ret	
	.cfi_endproc
.LFE10492:
	.size	_Z8printarrISt6vectorIiSaIiEEEvRKT_bii, .-_Z8printarrISt6vectorIiSaIiEEEvRKT_bii
	.section	.text._ZNSt12_Vector_baseIiSaIiEE17_Vector_impl_dataC2Ev,"axG",@progbits,_ZNSt12_Vector_baseIiSaIiEE17_Vector_impl_dataC5Ev,comdat
	.align 2
	.weak	_ZNSt12_Vector_baseIiSaIiEE17_Vector_impl_dataC2Ev
	.type	_ZNSt12_Vector_baseIiSaIiEE17_Vector_impl_dataC2Ev, @function
_ZNSt12_Vector_baseIiSaIiEE17_Vector_impl_dataC2Ev:
.LFB10920:
	.cfi_startproc
	endbr64	
	push	rbp	#
	.cfi_def_cfa_offset 16
	.cfi_offset 6, -16
	mov	rbp, rsp	#,
	.cfi_def_cfa_register 6
	mov	QWORD PTR -8[rbp], rdi	# this, this
# /usr/include/c++/13/bits/stl_vector.h:100: 	: _M_start(), _M_finish(), _M_end_of_storage()
	mov	rax, QWORD PTR -8[rbp]	# tmp82, this
	mov	QWORD PTR [rax], 0	# this_2(D)->_M_start,
# /usr/include/c++/13/bits/stl_vector.h:100: 	: _M_start(), _M_finish(), _M_end_of_storage()
	mov	rax, QWORD PTR -8[rbp]	# tmp83, this
	mov	QWORD PTR 8[rax], 0	# this_2(D)->_M_finish,
# /usr/include/c++/13/bits/stl_vector.h:100: 	: _M_start(), _M_finish(), _M_end_of_storage()
	mov	rax, QWORD PTR -8[rbp]	# tmp84, this
	mov	QWORD PTR 16[rax], 0	# this_2(D)->_M_end_of_storage,
# /usr/include/c++/13/bits/stl_vector.h:101: 	{ }
	nop	
	pop	rbp	#
	.cfi_def_cfa 7, 8
	ret	
	.cfi_endproc
.LFE10920:
	.size	_ZNSt12_Vector_baseIiSaIiEE17_Vector_impl_dataC2Ev, .-_ZNSt12_Vector_baseIiSaIiEE17_Vector_impl_dataC2Ev
	.weak	_ZNSt12_Vector_baseIiSaIiEE17_Vector_impl_dataC1Ev
	.set	_ZNSt12_Vector_baseIiSaIiEE17_Vector_impl_dataC1Ev,_ZNSt12_Vector_baseIiSaIiEE17_Vector_impl_dataC2Ev
	.section	.text._ZNSt15__new_allocatorIiED2Ev,"axG",@progbits,_ZNSt15__new_allocatorIiED5Ev,comdat
	.align 2
	.weak	_ZNSt15__new_allocatorIiED2Ev
	.type	_ZNSt15__new_allocatorIiED2Ev, @function
_ZNSt15__new_allocatorIiED2Ev:
.LFB10923:
	.cfi_startproc
	endbr64	
	push	rbp	#
	.cfi_def_cfa_offset 16
	.cfi_offset 6, -16
	mov	rbp, rsp	#,
	.cfi_def_cfa_register 6
	mov	QWORD PTR -8[rbp], rdi	# this, this
# /usr/include/c++/13/bits/new_allocator.h:104:       ~__new_allocator() _GLIBCXX_USE_NOEXCEPT { }
	nop	
	pop	rbp	#
	.cfi_def_cfa 7, 8
	ret	
	.cfi_endproc
.LFE10923:
	.size	_ZNSt15__new_allocatorIiED2Ev, .-_ZNSt15__new_allocatorIiED2Ev
	.weak	_ZNSt15__new_allocatorIiED1Ev
	.set	_ZNSt15__new_allocatorIiED1Ev,_ZNSt15__new_allocatorIiED2Ev
	.section	.text._ZNSt12_Vector_baseIiSaIiEE13_M_deallocateEPim,"axG",@progbits,_ZNSt12_Vector_baseIiSaIiEE13_M_deallocateEPim,comdat
	.align 2
	.weak	_ZNSt12_Vector_baseIiSaIiEE13_M_deallocateEPim
	.type	_ZNSt12_Vector_baseIiSaIiEE13_M_deallocateEPim, @function
_ZNSt12_Vector_baseIiSaIiEE13_M_deallocateEPim:
.LFB10925:
	.cfi_startproc
	endbr64	
	push	rbp	#
	.cfi_def_cfa_offset 16
	.cfi_offset 6, -16
	mov	rbp, rsp	#,
	.cfi_def_cfa_register 6
	sub	rsp, 64	#,
	mov	QWORD PTR -40[rbp], rdi	# this, this
	mov	QWORD PTR -48[rbp], rsi	# __p, __p
	mov	QWORD PTR -56[rbp], rdx	# __n, __n
# /usr/include/c++/13/bits/stl_vector.h:389: 	if (__p)
	cmp	QWORD PTR -48[rbp], 0	# __p,
	je	.L51	#,
# /usr/include/c++/13/bits/stl_vector.h:390: 	  _Tr::deallocate(_M_impl, __p, __n);
	mov	rax, QWORD PTR -40[rbp]	# _1, this
	mov	QWORD PTR -24[rbp], rax	# __a, _1
	mov	rax, QWORD PTR -48[rbp]	# tmp83, __p
	mov	QWORD PTR -16[rbp], rax	# __p, tmp83
	mov	rax, QWORD PTR -56[rbp]	# tmp84, __n
	mov	QWORD PTR -8[rbp], rax	# __n, tmp84
# /usr/include/c++/13/bits/alloc_traits.h:517:       { __a.deallocate(__p, __n); }
	mov	rdx, QWORD PTR -8[rbp]	# tmp85, __n
	mov	rcx, QWORD PTR -16[rbp]	# tmp86, __p
	mov	rax, QWORD PTR -24[rbp]	# tmp87, __a
	mov	rsi, rcx	#, tmp86
	mov	rdi, rax	#, tmp87
	call	_ZNSt15__new_allocatorIiE10deallocateEPim	#
# /usr/include/c++/13/bits/alloc_traits.h:517:       { __a.deallocate(__p, __n); }
	nop	
.L51:
# /usr/include/c++/13/bits/stl_vector.h:391:       }
	nop	
	leave	
	.cfi_def_cfa 7, 8
	ret	
	.cfi_endproc
.LFE10925:
	.size	_ZNSt12_Vector_baseIiSaIiEE13_M_deallocateEPim, .-_ZNSt12_Vector_baseIiSaIiEE13_M_deallocateEPim
	.section	.text._ZNSt12_Vector_baseIiSaIiEE19_M_get_Tp_allocatorEv,"axG",@progbits,_ZNSt12_Vector_baseIiSaIiEE19_M_get_Tp_allocatorEv,comdat
	.align 2
	.weak	_ZNSt12_Vector_baseIiSaIiEE19_M_get_Tp_allocatorEv
	.type	_ZNSt12_Vector_baseIiSaIiEE19_M_get_Tp_allocatorEv, @function
_ZNSt12_Vector_baseIiSaIiEE19_M_get_Tp_allocatorEv:
.LFB10926:
	.cfi_startproc
	endbr64	
	push	rbp	#
	.cfi_def_cfa_offset 16
	.cfi_offset 6, -16
	mov	rbp, rsp	#,
	.cfi_def_cfa_register 6
	mov	QWORD PTR -8[rbp], rdi	# this, this
# /usr/include/c++/13/bits/stl_vector.h:302:       { return this->_M_impl; }
	mov	rax, QWORD PTR -8[rbp]	# _2, this
# /usr/include/c++/13/bits/stl_vector.h:302:       { return this->_M_impl; }
	pop	rbp	#
	.cfi_def_cfa 7, 8
	ret	
	.cfi_endproc
.LFE10926:
	.size	_ZNSt12_Vector_baseIiSaIiEE19_M_get_Tp_allocatorEv, .-_ZNSt12_Vector_baseIiSaIiEE19_M_get_Tp_allocatorEv
	.section	.text._ZNSt6vectorIiSaIiEE3endEv,"axG",@progbits,_ZNSt6vectorIiSaIiEE3endEv,comdat
	.align 2
	.weak	_ZNSt6vectorIiSaIiEE3endEv
	.type	_ZNSt6vectorIiSaIiEE3endEv, @function
_ZNSt6vectorIiSaIiEE3endEv:
.LFB10929:
	.cfi_startproc
	endbr64	
	push	rbp	#
	.cfi_def_cfa_offset 16
	.cfi_offset 6, -16
	mov	rbp, rsp	#,
	.cfi_def_cfa_register 6
	sub	rsp, 32	#,
	mov	QWORD PTR -24[rbp], rdi	# this, this
# /usr/include/c++/13/bits/stl_vector.h:893:       end() _GLIBCXX_NOEXCEPT
	mov	rax, QWORD PTR fs:40	# tmp88, MEM[(<address-space-1> long unsigned int *)40B]
	mov	QWORD PTR -8[rbp], rax	# D.225350, tmp88
	xor	eax, eax	# tmp88
# /usr/include/c++/13/bits/stl_vector.h:894:       { return iterator(this->_M_impl._M_finish); }
	mov	rax, QWORD PTR -24[rbp]	# tmp85, this
	lea	rdx, 8[rax]	# _1,
# /usr/include/c++/13/bits/stl_vector.h:894:       { return iterator(this->_M_impl._M_finish); }
	lea	rax, -16[rbp]	# tmp86,
	mov	rsi, rdx	#, _1
	mov	rdi, rax	#, tmp86
	call	_ZN9__gnu_cxx17__normal_iteratorIPiSt6vectorIiSaIiEEEC1ERKS1_	#
# /usr/include/c++/13/bits/stl_vector.h:894:       { return iterator(this->_M_impl._M_finish); }
	mov	rax, QWORD PTR -16[rbp]	# D.225112, D.219575
# /usr/include/c++/13/bits/stl_vector.h:894:       { return iterator(this->_M_impl._M_finish); }
	mov	rdx, QWORD PTR -8[rbp]	# tmp89, D.225350
	sub	rdx, QWORD PTR fs:40	# tmp89, MEM[(<address-space-1> long unsigned int *)40B]
	je	.L56	#,
	call	__stack_chk_fail@PLT	#
.L56:
	leave	
	.cfi_def_cfa 7, 8
	ret	
	.cfi_endproc
.LFE10929:
	.size	_ZNSt6vectorIiSaIiEE3endEv, .-_ZNSt6vectorIiSaIiEE3endEv
	.section	.rodata
.LC1:
	.string	"vector::_M_realloc_insert"
	.section	.text._ZNSt6vectorIiSaIiEE17_M_realloc_insertIJRKiEEEvN9__gnu_cxx17__normal_iteratorIPiS1_EEDpOT_,"axG",@progbits,_ZNSt6vectorIiSaIiEE17_M_realloc_insertIJRKiEEEvN9__gnu_cxx17__normal_iteratorIPiS1_EEDpOT_,comdat
	.align 2
	.weak	_ZNSt6vectorIiSaIiEE17_M_realloc_insertIJRKiEEEvN9__gnu_cxx17__normal_iteratorIPiS1_EEDpOT_
	.type	_ZNSt6vectorIiSaIiEE17_M_realloc_insertIJRKiEEEvN9__gnu_cxx17__normal_iteratorIPiS1_EEDpOT_, @function
_ZNSt6vectorIiSaIiEE17_M_realloc_insertIJRKiEEEvN9__gnu_cxx17__normal_iteratorIPiS1_EEDpOT_:
.LFB10930:
	.cfi_startproc
	endbr64	
	push	rbp	#
	.cfi_def_cfa_offset 16
	.cfi_offset 6, -16
	mov	rbp, rsp	#,
	.cfi_def_cfa_register 6
	push	rbx	#
	sub	rsp, 152	#,
	.cfi_offset 3, -24
	mov	QWORD PTR -136[rbp], rdi	# this, this
	mov	QWORD PTR -144[rbp], rsi	# __position, __position
	mov	QWORD PTR -152[rbp], rdx	# __args#0, __args#0
# /usr/include/c++/13/bits/vector.tcc:445:       vector<_Tp, _Alloc>::
	mov	rax, QWORD PTR fs:40	# tmp157, MEM[(<address-space-1> long unsigned int *)40B]
	mov	QWORD PTR -24[rbp], rax	# D.225351, tmp157
	xor	eax, eax	# tmp157
# /usr/include/c++/13/bits/vector.tcc:455: 	_M_check_len(size_type(1), "vector::_M_realloc_insert");
	mov	rax, QWORD PTR -136[rbp]	# tmp119, this
	lea	rdx, .LC1[rip]	# tmp120,
	mov	esi, 1	#,
	mov	rdi, rax	#, tmp119
	call	_ZNKSt6vectorIiSaIiEE12_M_check_lenEmPKc	#
# /usr/include/c++/13/bits/vector.tcc:455: 	_M_check_len(size_type(1), "vector::_M_realloc_insert");
	mov	QWORD PTR -120[rbp], rax	# __len, _32
# /usr/include/c++/13/bits/vector.tcc:456:       pointer __old_start = this->_M_impl._M_start;
	mov	rax, QWORD PTR -136[rbp]	# tmp121, this
	mov	rax, QWORD PTR [rax]	# tmp122, this_30(D)->D.188304._M_impl.D.187644._M_start
	mov	QWORD PTR -112[rbp], rax	# __old_start, tmp122
# /usr/include/c++/13/bits/vector.tcc:457:       pointer __old_finish = this->_M_impl._M_finish;
	mov	rax, QWORD PTR -136[rbp]	# tmp123, this
	mov	rax, QWORD PTR 8[rax]	# tmp124, this_30(D)->D.188304._M_impl.D.187644._M_finish
	mov	QWORD PTR -104[rbp], rax	# __old_finish, tmp124
# /usr/include/c++/13/bits/vector.tcc:458:       const size_type __elems_before = __position - begin();
	mov	rax, QWORD PTR -136[rbp]	# tmp125, this
	mov	rdi, rax	#, tmp125
	call	_ZNSt6vectorIiSaIiEE5beginEv	#
	mov	QWORD PTR -128[rbp], rax	# D.219583, tmp127
# /usr/include/c++/13/bits/vector.tcc:458:       const size_type __elems_before = __position - begin();
	lea	rdx, -128[rbp]	# tmp128,
	lea	rax, -144[rbp]	# tmp129,
	mov	rsi, rdx	#, tmp128
	mov	rdi, rax	#, tmp129
	call	_ZN9__gnu_cxxmiIPiSt6vectorIiSaIiEEEENS_17__normal_iteratorIT_T0_E15difference_typeERKS8_SB_	#
# /usr/include/c++/13/bits/vector.tcc:458:       const size_type __elems_before = __position - begin();
	mov	QWORD PTR -96[rbp], rax	# __elems_before, _1
# /usr/include/c++/13/bits/vector.tcc:459:       pointer __new_start(this->_M_allocate(__len));
	mov	rax, QWORD PTR -136[rbp]	# _2, this
	mov	rdx, QWORD PTR -120[rbp]	# tmp130, __len
	mov	rsi, rdx	#, tmp130
	mov	rdi, rax	#, _2
	call	_ZNSt12_Vector_baseIiSaIiEE11_M_allocateEm	#
# /usr/include/c++/13/bits/vector.tcc:459:       pointer __new_start(this->_M_allocate(__len));
	mov	QWORD PTR -88[rbp], rax	# __new_start, _41
# /usr/include/c++/13/bits/vector.tcc:460:       pointer __new_finish(__new_start);
	mov	rax, QWORD PTR -88[rbp]	# tmp131, __new_start
	mov	QWORD PTR -80[rbp], rax	# __new_finish, tmp131
# /usr/include/c++/13/bits/vector.tcc:468: 	  _Alloc_traits::construct(this->_M_impl,
	mov	rax, QWORD PTR -152[rbp]	# tmp132, __args#0
	mov	rdi, rax	#, tmp132
	call	_ZSt7forwardIRKiEOT_RNSt16remove_referenceIS2_E4typeE	#
# /usr/include/c++/13/bits/vector.tcc:469: 				   __new_start + __elems_before,
	mov	rdx, QWORD PTR -96[rbp]	# tmp133, __elems_before
	lea	rcx, 0[0+rdx*4]	# _4,
# /usr/include/c++/13/bits/vector.tcc:468: 	  _Alloc_traits::construct(this->_M_impl,
	mov	rdx, QWORD PTR -88[rbp]	# tmp134, __new_start
	add	rcx, rdx	# _5, tmp134
# /usr/include/c++/13/bits/vector.tcc:468: 	  _Alloc_traits::construct(this->_M_impl,
	mov	rdx, QWORD PTR -136[rbp]	# _6, this
	mov	QWORD PTR -72[rbp], rdx	# __a, _6
	mov	QWORD PTR -64[rbp], rcx	# __p, _5
	mov	QWORD PTR -56[rbp], rax	# __args#0, _3
# /usr/include/c++/13/bits/alloc_traits.h:538: 	  __a.construct(__p, std::forward<_Args>(__args)...);
	mov	rax, QWORD PTR -56[rbp]	# tmp135, __args#0
	mov	rdi, rax	#, tmp135
	call	_ZSt7forwardIRKiEOT_RNSt16remove_referenceIS2_E4typeE	#
	mov	rdx, QWORD PTR -72[rbp]	# tmp136, __a
	mov	QWORD PTR -48[rbp], rdx	# this, tmp136
	mov	rdx, QWORD PTR -64[rbp]	# tmp137, __p
	mov	QWORD PTR -40[rbp], rdx	# __p, tmp137
	mov	QWORD PTR -32[rbp], rax	# __args#0, _63
# /usr/include/c++/13/bits/new_allocator.h:191: 	{ ::new((void *)__p) _Up(std::forward<_Args>(__args)...); }
	mov	rax, QWORD PTR -40[rbp]	# _67, __p
# /usr/include/c++/13/bits/new_allocator.h:191: 	{ ::new((void *)__p) _Up(std::forward<_Args>(__args)...); }
	mov	rsi, rax	#, _67
	mov	edi, 4	#,
	call	_ZnwmPv	#
	mov	rbx, rax	# _68,
# /usr/include/c++/13/bits/new_allocator.h:191: 	{ ::new((void *)__p) _Up(std::forward<_Args>(__args)...); }
	mov	rax, QWORD PTR -32[rbp]	# tmp138, __args#0
	mov	rdi, rax	#, tmp138
	call	_ZSt7forwardIRKiEOT_RNSt16remove_referenceIS2_E4typeE	#
# /usr/include/c++/13/bits/new_allocator.h:191: 	{ ::new((void *)__p) _Up(std::forward<_Args>(__args)...); }
	mov	eax, DWORD PTR [rax]	# _71, *_70
	mov	DWORD PTR [rbx], eax	# MEM[(int *)_68], _71
# /usr/include/c++/13/bits/new_allocator.h:191: 	{ ::new((void *)__p) _Up(std::forward<_Args>(__args)...); }
	nop	
# /usr/include/c++/13/bits/alloc_traits.h:542: 	}
	nop	
# /usr/include/c++/13/bits/vector.tcc:475: 	  __new_finish = pointer();
	mov	QWORD PTR -80[rbp], 0	# __new_finish,
# /usr/include/c++/13/bits/vector.tcc:481: 					 __new_start, _M_get_Tp_allocator());
	mov	rax, QWORD PTR -136[rbp]	# _7, this
	mov	rdi, rax	#, _7
	call	_ZNSt12_Vector_baseIiSaIiEE19_M_get_Tp_allocatorEv	#
	mov	rbx, rax	# _8,
# /usr/include/c++/13/bits/vector.tcc:480: 	      __new_finish = _S_relocate(__old_start, __position.base(),
	lea	rax, -144[rbp]	# tmp139,
	mov	rdi, rax	#, tmp139
	call	_ZNK9__gnu_cxx17__normal_iteratorIPiSt6vectorIiSaIiEEE4baseEv	#
# /usr/include/c++/13/bits/vector.tcc:480: 	      __new_finish = _S_relocate(__old_start, __position.base(),
	mov	rsi, QWORD PTR [rax]	# _10, *_9
	mov	rdx, QWORD PTR -88[rbp]	# tmp140, __new_start
	mov	rax, QWORD PTR -112[rbp]	# tmp141, __old_start
	mov	rcx, rbx	#, _8
	mov	rdi, rax	#, tmp141
	call	_ZNSt6vectorIiSaIiEE11_S_relocateEPiS2_S2_RS0_	#
	mov	QWORD PTR -80[rbp], rax	# __new_finish, tmp142
# /usr/include/c++/13/bits/vector.tcc:483: 	      ++__new_finish;
	add	QWORD PTR -80[rbp], 4	# __new_finish,
# /usr/include/c++/13/bits/vector.tcc:486: 					 __new_finish, _M_get_Tp_allocator());
	mov	rax, QWORD PTR -136[rbp]	# _11, this
	mov	rdi, rax	#, _11
	call	_ZNSt12_Vector_baseIiSaIiEE19_M_get_Tp_allocatorEv	#
	mov	rbx, rax	# _12,
# /usr/include/c++/13/bits/vector.tcc:485: 	      __new_finish = _S_relocate(__position.base(), __old_finish,
	lea	rax, -144[rbp]	# tmp143,
	mov	rdi, rax	#, tmp143
	call	_ZNK9__gnu_cxx17__normal_iteratorIPiSt6vectorIiSaIiEEE4baseEv	#
# /usr/include/c++/13/bits/vector.tcc:485: 	      __new_finish = _S_relocate(__position.base(), __old_finish,
	mov	rax, QWORD PTR [rax]	# _14, *_13
	mov	rdx, QWORD PTR -80[rbp]	# tmp144, __new_finish
	mov	rsi, QWORD PTR -104[rbp]	# tmp145, __old_finish
	mov	rcx, rbx	#, _12
	mov	rdi, rax	#, _14
	call	_ZNSt6vectorIiSaIiEE11_S_relocateEPiS2_S2_RS0_	#
	mov	QWORD PTR -80[rbp], rax	# __new_finish, tmp146
# /usr/include/c++/13/bits/vector.tcc:519:       _M_deallocate(__old_start,
	mov	rax, QWORD PTR -136[rbp]	# _22, this
# /usr/include/c++/13/bits/vector.tcc:520: 		    this->_M_impl._M_end_of_storage - __old_start);
	mov	rdx, QWORD PTR -136[rbp]	# tmp147, this
	mov	rdx, QWORD PTR 16[rdx]	# _23, this_30(D)->D.188304._M_impl.D.187644._M_end_of_storage
# /usr/include/c++/13/bits/vector.tcc:520: 		    this->_M_impl._M_end_of_storage - __old_start);
	sub	rdx, QWORD PTR -112[rbp]	# _24, __old_start
	sar	rdx, 2	# tmp148,
# /usr/include/c++/13/bits/vector.tcc:519:       _M_deallocate(__old_start,
	mov	rcx, QWORD PTR -112[rbp]	# tmp149, __old_start
	mov	rsi, rcx	#, tmp149
	mov	rdi, rax	#, _22
	call	_ZNSt12_Vector_baseIiSaIiEE13_M_deallocateEPim	#
# /usr/include/c++/13/bits/vector.tcc:521:       this->_M_impl._M_start = __new_start;
	mov	rax, QWORD PTR -136[rbp]	# tmp150, this
	mov	rdx, QWORD PTR -88[rbp]	# tmp151, __new_start
	mov	QWORD PTR [rax], rdx	# this_30(D)->D.188304._M_impl.D.187644._M_start, tmp151
# /usr/include/c++/13/bits/vector.tcc:522:       this->_M_impl._M_finish = __new_finish;
	mov	rax, QWORD PTR -136[rbp]	# tmp152, this
	mov	rdx, QWORD PTR -80[rbp]	# tmp153, __new_finish
	mov	QWORD PTR 8[rax], rdx	# this_30(D)->D.188304._M_impl.D.187644._M_finish, tmp153
# /usr/include/c++/13/bits/vector.tcc:523:       this->_M_impl._M_end_of_storage = __new_start + __len;
	mov	rax, QWORD PTR -120[rbp]	# tmp154, __len
	lea	rdx, 0[0+rax*4]	# _27,
	mov	rax, QWORD PTR -88[rbp]	# tmp155, __new_start
	add	rdx, rax	# _28, tmp155
# /usr/include/c++/13/bits/vector.tcc:523:       this->_M_impl._M_end_of_storage = __new_start + __len;
	mov	rax, QWORD PTR -136[rbp]	# tmp156, this
	mov	QWORD PTR 16[rax], rdx	# this_30(D)->D.188304._M_impl.D.187644._M_end_of_storage, _28
# /usr/include/c++/13/bits/vector.tcc:524:     }
	nop	
	mov	rax, QWORD PTR -24[rbp]	# tmp158, D.225351
	sub	rax, QWORD PTR fs:40	# tmp158, MEM[(<address-space-1> long unsigned int *)40B]
	je	.L58	#,
	call	__stack_chk_fail@PLT	#
.L58:
	mov	rbx, QWORD PTR -8[rbp]	#,
	leave	
	.cfi_def_cfa 7, 8
	ret	
	.cfi_endproc
.LFE10930:
	.size	_ZNSt6vectorIiSaIiEE17_M_realloc_insertIJRKiEEEvN9__gnu_cxx17__normal_iteratorIPiS1_EEDpOT_, .-_ZNSt6vectorIiSaIiEE17_M_realloc_insertIJRKiEEEvN9__gnu_cxx17__normal_iteratorIPiS1_EEDpOT_
	.section	.text._ZNKSt6vectorIiSaIiEE4sizeEv,"axG",@progbits,_ZNKSt6vectorIiSaIiEE4sizeEv,comdat
	.align 2
	.weak	_ZNKSt6vectorIiSaIiEE4sizeEv
	.type	_ZNKSt6vectorIiSaIiEE4sizeEv, @function
_ZNKSt6vectorIiSaIiEE4sizeEv:
.LFB10942:
	.cfi_startproc
	endbr64	
	push	rbp	#
	.cfi_def_cfa_offset 16
	.cfi_offset 6, -16
	mov	rbp, rsp	#,
	.cfi_def_cfa_register 6
	mov	QWORD PTR -8[rbp], rdi	# this, this
# /usr/include/c++/13/bits/stl_vector.h:993:       { return size_type(this->_M_impl._M_finish - this->_M_impl._M_start); }
	mov	rax, QWORD PTR -8[rbp]	# tmp88, this
	mov	rdx, QWORD PTR 8[rax]	# _1, this_6(D)->D.188304._M_impl.D.187644._M_finish
# /usr/include/c++/13/bits/stl_vector.h:993:       { return size_type(this->_M_impl._M_finish - this->_M_impl._M_start); }
	mov	rax, QWORD PTR -8[rbp]	# tmp89, this
	mov	rax, QWORD PTR [rax]	# _2, this_6(D)->D.188304._M_impl.D.187644._M_start
# /usr/include/c++/13/bits/stl_vector.h:993:       { return size_type(this->_M_impl._M_finish - this->_M_impl._M_start); }
	sub	rdx, rax	# _3, _2
	mov	rax, rdx	# _3, _3
	sar	rax, 2	# _3,
# /usr/include/c++/13/bits/stl_vector.h:993:       { return size_type(this->_M_impl._M_finish - this->_M_impl._M_start); }
	pop	rbp	#
	.cfi_def_cfa 7, 8
	ret	
	.cfi_endproc
.LFE10942:
	.size	_ZNKSt6vectorIiSaIiEE4sizeEv, .-_ZNKSt6vectorIiSaIiEE4sizeEv
	.section	.text._ZNKSt6vectorIiSaIiEEixEm,"axG",@progbits,_ZNKSt6vectorIiSaIiEEixEm,comdat
	.align 2
	.weak	_ZNKSt6vectorIiSaIiEEixEm
	.type	_ZNKSt6vectorIiSaIiEEixEm, @function
_ZNKSt6vectorIiSaIiEEixEm:
.LFB10943:
	.cfi_startproc
	endbr64	
	push	rbp	#
	.cfi_def_cfa_offset 16
	.cfi_offset 6, -16
	mov	rbp, rsp	#,
	.cfi_def_cfa_register 6
	mov	QWORD PTR -8[rbp], rdi	# this, this
	mov	QWORD PTR -16[rbp], rsi	# __n, __n
# /usr/include/c++/13/bits/stl_vector.h:1148: 	return *(this->_M_impl._M_start + __n);
	mov	rax, QWORD PTR -8[rbp]	# tmp86, this
	mov	rax, QWORD PTR [rax]	# _1, this_4(D)->D.188304._M_impl.D.187644._M_start
# /usr/include/c++/13/bits/stl_vector.h:1148: 	return *(this->_M_impl._M_start + __n);
	mov	rdx, QWORD PTR -16[rbp]	# tmp87, __n
	sal	rdx, 2	# _2,
# /usr/include/c++/13/bits/stl_vector.h:1148: 	return *(this->_M_impl._M_start + __n);
	add	rax, rdx	# _6, _2
# /usr/include/c++/13/bits/stl_vector.h:1149:       }
	pop	rbp	#
	.cfi_def_cfa 7, 8
	ret	
	.cfi_endproc
.LFE10943:
	.size	_ZNKSt6vectorIiSaIiEEixEm, .-_ZNKSt6vectorIiSaIiEEixEm
	.section	.text._ZSt8_DestroyIPiEvT_S1_,"axG",@progbits,_ZSt8_DestroyIPiEvT_S1_,comdat
	.weak	_ZSt8_DestroyIPiEvT_S1_
	.type	_ZSt8_DestroyIPiEvT_S1_, @function
_ZSt8_DestroyIPiEvT_S1_:
.LFB11160:
	.cfi_startproc
	endbr64	
	push	rbp	#
	.cfi_def_cfa_offset 16
	.cfi_offset 6, -16
	mov	rbp, rsp	#,
	.cfi_def_cfa_register 6
	sub	rsp, 16	#,
	mov	QWORD PTR -8[rbp], rdi	# __first, __first
	mov	QWORD PTR -16[rbp], rsi	# __last, __last
# /usr/include/c++/13/bits/stl_construct.h:196: 	__destroy(__first, __last);
	mov	rdx, QWORD PTR -16[rbp]	# tmp82, __last
	mov	rax, QWORD PTR -8[rbp]	# tmp83, __first
	mov	rsi, rdx	#, tmp82
	mov	rdi, rax	#, tmp83
	call	_ZNSt12_Destroy_auxILb1EE9__destroyIPiEEvT_S3_	#
# /usr/include/c++/13/bits/stl_construct.h:197:     }
	nop	
	leave	
	.cfi_def_cfa 7, 8
	ret	
	.cfi_endproc
.LFE11160:
	.size	_ZSt8_DestroyIPiEvT_S1_, .-_ZSt8_DestroyIPiEvT_S1_
	.section	.text._ZSt7forwardIRKiEOT_RNSt16remove_referenceIS2_E4typeE,"axG",@progbits,_ZSt7forwardIRKiEOT_RNSt16remove_referenceIS2_E4typeE,comdat
	.weak	_ZSt7forwardIRKiEOT_RNSt16remove_referenceIS2_E4typeE
	.type	_ZSt7forwardIRKiEOT_RNSt16remove_referenceIS2_E4typeE, @function
_ZSt7forwardIRKiEOT_RNSt16remove_referenceIS2_E4typeE:
.LFB11161:
	.cfi_startproc
	endbr64	
	push	rbp	#
	.cfi_def_cfa_offset 16
	.cfi_offset 6, -16
	mov	rbp, rsp	#,
	.cfi_def_cfa_register 6
	mov	QWORD PTR -8[rbp], rdi	# __t, __t
# /usr/include/c++/13/bits/move.h:71:     { return static_cast<_Tp&&>(__t); }
	mov	rax, QWORD PTR -8[rbp]	# _2, __t
# /usr/include/c++/13/bits/move.h:71:     { return static_cast<_Tp&&>(__t); }
	pop	rbp	#
	.cfi_def_cfa 7, 8
	ret	
	.cfi_endproc
.LFE11161:
	.size	_ZSt7forwardIRKiEOT_RNSt16remove_referenceIS2_E4typeE, .-_ZSt7forwardIRKiEOT_RNSt16remove_referenceIS2_E4typeE
	.section	.text._ZN9__gnu_cxx17__normal_iteratorIPiSt6vectorIiSaIiEEEC2ERKS1_,"axG",@progbits,_ZN9__gnu_cxx17__normal_iteratorIPiSt6vectorIiSaIiEEEC5ERKS1_,comdat
	.align 2
	.weak	_ZN9__gnu_cxx17__normal_iteratorIPiSt6vectorIiSaIiEEEC2ERKS1_
	.type	_ZN9__gnu_cxx17__normal_iteratorIPiSt6vectorIiSaIiEEEC2ERKS1_, @function
_ZN9__gnu_cxx17__normal_iteratorIPiSt6vectorIiSaIiEEEC2ERKS1_:
.LFB11164:
	.cfi_startproc
	endbr64	
	push	rbp	#
	.cfi_def_cfa_offset 16
	.cfi_offset 6, -16
	mov	rbp, rsp	#,
	.cfi_def_cfa_register 6
	mov	QWORD PTR -8[rbp], rdi	# this, this
	mov	QWORD PTR -16[rbp], rsi	# __i, __i
# /usr/include/c++/13/bits/stl_iterator.h:1077:       : _M_current(__i) { }
	mov	rax, QWORD PTR -16[rbp]	# tmp83, __i
	mov	rdx, QWORD PTR [rax]	# _1, *__i_5(D)
	mov	rax, QWORD PTR -8[rbp]	# tmp84, this
	mov	QWORD PTR [rax], rdx	# this_3(D)->_M_current, _1
# /usr/include/c++/13/bits/stl_iterator.h:1077:       : _M_current(__i) { }
	nop	
	pop	rbp	#
	.cfi_def_cfa 7, 8
	ret	
	.cfi_endproc
.LFE11164:
	.size	_ZN9__gnu_cxx17__normal_iteratorIPiSt6vectorIiSaIiEEEC2ERKS1_, .-_ZN9__gnu_cxx17__normal_iteratorIPiSt6vectorIiSaIiEEEC2ERKS1_
	.weak	_ZN9__gnu_cxx17__normal_iteratorIPiSt6vectorIiSaIiEEEC1ERKS1_
	.set	_ZN9__gnu_cxx17__normal_iteratorIPiSt6vectorIiSaIiEEEC1ERKS1_,_ZN9__gnu_cxx17__normal_iteratorIPiSt6vectorIiSaIiEEEC2ERKS1_
	.section	.text._ZNKSt6vectorIiSaIiEE12_M_check_lenEmPKc,"axG",@progbits,_ZNKSt6vectorIiSaIiEE12_M_check_lenEmPKc,comdat
	.align 2
	.weak	_ZNKSt6vectorIiSaIiEE12_M_check_lenEmPKc
	.type	_ZNKSt6vectorIiSaIiEE12_M_check_lenEmPKc, @function
_ZNKSt6vectorIiSaIiEE12_M_check_lenEmPKc:
.LFB11166:
	.cfi_startproc
	endbr64	
	push	rbp	#
	.cfi_def_cfa_offset 16
	.cfi_offset 6, -16
	mov	rbp, rsp	#,
	.cfi_def_cfa_register 6
	push	rbx	#
	sub	rsp, 72	#,
	.cfi_offset 3, -24
	mov	QWORD PTR -56[rbp], rdi	# this, this
	mov	QWORD PTR -64[rbp], rsi	# __n, __n
	mov	QWORD PTR -72[rbp], rdx	# __s, __s
# /usr/include/c++/13/bits/stl_vector.h:1896:       _M_check_len(size_type __n, const char* __s) const
	mov	rax, QWORD PTR fs:40	# tmp107, MEM[(<address-space-1> long unsigned int *)40B]
	mov	QWORD PTR -24[rbp], rax	# D.225353, tmp107
	xor	eax, eax	# tmp107
# /usr/include/c++/13/bits/stl_vector.h:1898: 	if (max_size() - size() < __n)
	mov	rax, QWORD PTR -56[rbp]	# tmp95, this
	mov	rdi, rax	#, tmp95
	call	_ZNKSt6vectorIiSaIiEE8max_sizeEv	#
	mov	rbx, rax	# _1,
# /usr/include/c++/13/bits/stl_vector.h:1898: 	if (max_size() - size() < __n)
	mov	rax, QWORD PTR -56[rbp]	# tmp96, this
	mov	rdi, rax	#, tmp96
	call	_ZNKSt6vectorIiSaIiEE4sizeEv	#
# /usr/include/c++/13/bits/stl_vector.h:1898: 	if (max_size() - size() < __n)
	sub	rbx, rax	# _1, _2
	mov	rdx, rbx	# _3, _1
# /usr/include/c++/13/bits/stl_vector.h:1898: 	if (max_size() - size() < __n)
	mov	rax, QWORD PTR -64[rbp]	# __n.10_4, __n
	cmp	rdx, rax	# _3, __n.10_4
	setb	al	#, retval.9_18
# /usr/include/c++/13/bits/stl_vector.h:1898: 	if (max_size() - size() < __n)
	test	al, al	# retval.9_18
	je	.L68	#,
# /usr/include/c++/13/bits/stl_vector.h:1899: 	  __throw_length_error(__N(__s));
	mov	rax, QWORD PTR -24[rbp]	# tmp108, D.225353
	sub	rax, QWORD PTR fs:40	# tmp108, MEM[(<address-space-1> long unsigned int *)40B]
	je	.L69	#,
	call	__stack_chk_fail@PLT	#
.L69:
	mov	rax, QWORD PTR -72[rbp]	# tmp97, __s
	mov	rdi, rax	#, tmp97
	call	_ZSt20__throw_length_errorPKc@PLT	#
.L68:
# /usr/include/c++/13/bits/stl_vector.h:1901: 	const size_type __len = size() + (std::max)(size(), __n);
	mov	rax, QWORD PTR -56[rbp]	# tmp98, this
	mov	rdi, rax	#, tmp98
	call	_ZNKSt6vectorIiSaIiEE4sizeEv	#
	mov	rbx, rax	# _5,
# /usr/include/c++/13/bits/stl_vector.h:1901: 	const size_type __len = size() + (std::max)(size(), __n);
	mov	rax, QWORD PTR -56[rbp]	# tmp99, this
	mov	rdi, rax	#, tmp99
	call	_ZNKSt6vectorIiSaIiEE4sizeEv	#
# /usr/include/c++/13/bits/stl_vector.h:1901: 	const size_type __len = size() + (std::max)(size(), __n);
	mov	QWORD PTR -40[rbp], rax	# D.221399, _6
# /usr/include/c++/13/bits/stl_vector.h:1901: 	const size_type __len = size() + (std::max)(size(), __n);
	lea	rdx, -64[rbp]	# tmp100,
	lea	rax, -40[rbp]	# tmp101,
	mov	rsi, rdx	#, tmp100
	mov	rdi, rax	#, tmp101
	call	_ZSt3maxImERKT_S2_S2_	#
# /usr/include/c++/13/bits/stl_vector.h:1901: 	const size_type __len = size() + (std::max)(size(), __n);
	mov	rax, QWORD PTR [rax]	# _8, *_7
# /usr/include/c++/13/bits/stl_vector.h:1901: 	const size_type __len = size() + (std::max)(size(), __n);
	add	rax, rbx	# tmp102, _5
	mov	QWORD PTR -32[rbp], rax	# __len, tmp102
# /usr/include/c++/13/bits/stl_vector.h:1902: 	return (__len < size() || __len > max_size()) ? max_size() : __len;
	mov	rax, QWORD PTR -56[rbp]	# tmp103, this
	mov	rdi, rax	#, tmp103
	call	_ZNKSt6vectorIiSaIiEE4sizeEv	#
# /usr/include/c++/13/bits/stl_vector.h:1902: 	return (__len < size() || __len > max_size()) ? max_size() : __len;
	cmp	QWORD PTR -32[rbp], rax	# __len, _9
	jb	.L70	#,
# /usr/include/c++/13/bits/stl_vector.h:1902: 	return (__len < size() || __len > max_size()) ? max_size() : __len;
	mov	rax, QWORD PTR -56[rbp]	# tmp104, this
	mov	rdi, rax	#, tmp104
	call	_ZNKSt6vectorIiSaIiEE8max_sizeEv	#
# /usr/include/c++/13/bits/stl_vector.h:1902: 	return (__len < size() || __len > max_size()) ? max_size() : __len;
	cmp	rax, QWORD PTR -32[rbp]	# _10, __len
	jnb	.L71	#,
.L70:
# /usr/include/c++/13/bits/stl_vector.h:1902: 	return (__len < size() || __len > max_size()) ? max_size() : __len;
	mov	rax, QWORD PTR -56[rbp]	# tmp105, this
	mov	rdi, rax	#, tmp105
	call	_ZNKSt6vectorIiSaIiEE8max_sizeEv	#
# /usr/include/c++/13/bits/stl_vector.h:1902: 	return (__len < size() || __len > max_size()) ? max_size() : __len;
	jmp	.L72	#
.L71:
# /usr/include/c++/13/bits/stl_vector.h:1902: 	return (__len < size() || __len > max_size()) ? max_size() : __len;
	mov	rax, QWORD PTR -32[rbp]	# iftmp.11_11, __len
.L72:
# /usr/include/c++/13/bits/stl_vector.h:1903:       }
	mov	rdx, QWORD PTR -24[rbp]	# tmp109, D.225353
	sub	rdx, QWORD PTR fs:40	# tmp109, MEM[(<address-space-1> long unsigned int *)40B]
	je	.L74	#,
	call	__stack_chk_fail@PLT	#
.L74:
	mov	rbx, QWORD PTR -8[rbp]	#,
	leave	
	.cfi_def_cfa 7, 8
	ret	
	.cfi_endproc
.LFE11166:
	.size	_ZNKSt6vectorIiSaIiEE12_M_check_lenEmPKc, .-_ZNKSt6vectorIiSaIiEE12_M_check_lenEmPKc
	.section	.text._ZNSt6vectorIiSaIiEE5beginEv,"axG",@progbits,_ZNSt6vectorIiSaIiEE5beginEv,comdat
	.align 2
	.weak	_ZNSt6vectorIiSaIiEE5beginEv
	.type	_ZNSt6vectorIiSaIiEE5beginEv, @function
_ZNSt6vectorIiSaIiEE5beginEv:
.LFB11167:
	.cfi_startproc
	endbr64	
	push	rbp	#
	.cfi_def_cfa_offset 16
	.cfi_offset 6, -16
	mov	rbp, rsp	#,
	.cfi_def_cfa_register 6
	sub	rsp, 32	#,
	mov	QWORD PTR -24[rbp], rdi	# this, this
# /usr/include/c++/13/bits/stl_vector.h:873:       begin() _GLIBCXX_NOEXCEPT
	mov	rax, QWORD PTR fs:40	# tmp87, MEM[(<address-space-1> long unsigned int *)40B]
	mov	QWORD PTR -8[rbp], rax	# D.225354, tmp87
	xor	eax, eax	# tmp87
# /usr/include/c++/13/bits/stl_vector.h:874:       { return iterator(this->_M_impl._M_start); }
	mov	rdx, QWORD PTR -24[rbp]	# _1, this
# /usr/include/c++/13/bits/stl_vector.h:874:       { return iterator(this->_M_impl._M_start); }
	lea	rax, -16[rbp]	# tmp85,
	mov	rsi, rdx	#, _1
	mov	rdi, rax	#, tmp85
	call	_ZN9__gnu_cxx17__normal_iteratorIPiSt6vectorIiSaIiEEEC1ERKS1_	#
# /usr/include/c++/13/bits/stl_vector.h:874:       { return iterator(this->_M_impl._M_start); }
	mov	rax, QWORD PTR -16[rbp]	# D.225153, D.221401
# /usr/include/c++/13/bits/stl_vector.h:874:       { return iterator(this->_M_impl._M_start); }
	mov	rdx, QWORD PTR -8[rbp]	# tmp88, D.225354
	sub	rdx, QWORD PTR fs:40	# tmp88, MEM[(<address-space-1> long unsigned int *)40B]
	je	.L77	#,
	call	__stack_chk_fail@PLT	#
.L77:
	leave	
	.cfi_def_cfa 7, 8
	ret	
	.cfi_endproc
.LFE11167:
	.size	_ZNSt6vectorIiSaIiEE5beginEv, .-_ZNSt6vectorIiSaIiEE5beginEv
	.section	.text._ZN9__gnu_cxxmiIPiSt6vectorIiSaIiEEEENS_17__normal_iteratorIT_T0_E15difference_typeERKS8_SB_,"axG",@progbits,_ZN9__gnu_cxxmiIPiSt6vectorIiSaIiEEEENS_17__normal_iteratorIT_T0_E15difference_typeERKS8_SB_,comdat
	.weak	_ZN9__gnu_cxxmiIPiSt6vectorIiSaIiEEEENS_17__normal_iteratorIT_T0_E15difference_typeERKS8_SB_
	.type	_ZN9__gnu_cxxmiIPiSt6vectorIiSaIiEEEENS_17__normal_iteratorIT_T0_E15difference_typeERKS8_SB_, @function
_ZN9__gnu_cxxmiIPiSt6vectorIiSaIiEEEENS_17__normal_iteratorIT_T0_E15difference_typeERKS8_SB_:
.LFB11168:
	.cfi_startproc
	endbr64	
	push	rbp	#
	.cfi_def_cfa_offset 16
	.cfi_offset 6, -16
	mov	rbp, rsp	#,
	.cfi_def_cfa_register 6
	push	rbx	#
	sub	rsp, 24	#,
	.cfi_offset 3, -24
	mov	QWORD PTR -24[rbp], rdi	# __lhs, __lhs
	mov	QWORD PTR -32[rbp], rsi	# __rhs, __rhs
# /usr/include/c++/13/bits/stl_iterator.h:1337:     { return __lhs.base() - __rhs.base(); }
	mov	rax, QWORD PTR -24[rbp]	# tmp89, __lhs
	mov	rdi, rax	#, tmp89
	call	_ZNK9__gnu_cxx17__normal_iteratorIPiSt6vectorIiSaIiEEE4baseEv	#
# /usr/include/c++/13/bits/stl_iterator.h:1337:     { return __lhs.base() - __rhs.base(); }
	mov	rbx, QWORD PTR [rax]	# _2, *_1
# /usr/include/c++/13/bits/stl_iterator.h:1337:     { return __lhs.base() - __rhs.base(); }
	mov	rax, QWORD PTR -32[rbp]	# tmp90, __rhs
	mov	rdi, rax	#, tmp90
	call	_ZNK9__gnu_cxx17__normal_iteratorIPiSt6vectorIiSaIiEEE4baseEv	#
# /usr/include/c++/13/bits/stl_iterator.h:1337:     { return __lhs.base() - __rhs.base(); }
	mov	rax, QWORD PTR [rax]	# _4, *_3
	mov	rdx, rbx	# _2, _2
	sub	rdx, rax	# _2, _4
# /usr/include/c++/13/bits/stl_iterator.h:1337:     { return __lhs.base() - __rhs.base(); }
	mov	rax, rdx	# _5, _5
	sar	rax, 2	# _5,
# /usr/include/c++/13/bits/stl_iterator.h:1337:     { return __lhs.base() - __rhs.base(); }
	mov	rbx, QWORD PTR -8[rbp]	#,
	leave	
	.cfi_def_cfa 7, 8
	ret	
	.cfi_endproc
.LFE11168:
	.size	_ZN9__gnu_cxxmiIPiSt6vectorIiSaIiEEEENS_17__normal_iteratorIT_T0_E15difference_typeERKS8_SB_, .-_ZN9__gnu_cxxmiIPiSt6vectorIiSaIiEEEENS_17__normal_iteratorIT_T0_E15difference_typeERKS8_SB_
	.section	.text._ZNSt12_Vector_baseIiSaIiEE11_M_allocateEm,"axG",@progbits,_ZNSt12_Vector_baseIiSaIiEE11_M_allocateEm,comdat
	.align 2
	.weak	_ZNSt12_Vector_baseIiSaIiEE11_M_allocateEm
	.type	_ZNSt12_Vector_baseIiSaIiEE11_M_allocateEm, @function
_ZNSt12_Vector_baseIiSaIiEE11_M_allocateEm:
.LFB11169:
	.cfi_startproc
	endbr64	
	push	rbp	#
	.cfi_def_cfa_offset 16
	.cfi_offset 6, -16
	mov	rbp, rsp	#,
	.cfi_def_cfa_register 6
	sub	rsp, 32	#,
	mov	QWORD PTR -24[rbp], rdi	# this, this
	mov	QWORD PTR -32[rbp], rsi	# __n, __n
# /usr/include/c++/13/bits/stl_vector.h:381: 	return __n != 0 ? _Tr::allocate(_M_impl, __n) : pointer();
	cmp	QWORD PTR -32[rbp], 0	# __n,
	je	.L81	#,
# /usr/include/c++/13/bits/stl_vector.h:381: 	return __n != 0 ? _Tr::allocate(_M_impl, __n) : pointer();
	mov	rax, QWORD PTR -24[rbp]	# _1, this
	mov	QWORD PTR -16[rbp], rax	# __a, _1
	mov	rax, QWORD PTR -32[rbp]	# tmp85, __n
	mov	QWORD PTR -8[rbp], rax	# __n, tmp85
# /usr/include/c++/13/bits/alloc_traits.h:482:       { return __a.allocate(__n); }
	mov	rcx, QWORD PTR -8[rbp]	# tmp86, __n
	mov	rax, QWORD PTR -16[rbp]	# tmp87, __a
	mov	edx, 0	#,
	mov	rsi, rcx	#, tmp86
	mov	rdi, rax	#, tmp87
	call	_ZNSt15__new_allocatorIiE8allocateEmPKv	#
# /usr/include/c++/13/bits/alloc_traits.h:482:       { return __a.allocate(__n); }
	nop	
	jmp	.L83	#
.L81:
# /usr/include/c++/13/bits/stl_vector.h:381: 	return __n != 0 ? _Tr::allocate(_M_impl, __n) : pointer();
	mov	eax, 0	# D.225292,
.L83:
# /usr/include/c++/13/bits/stl_vector.h:382:       }
	leave	
	.cfi_def_cfa 7, 8
	ret	
	.cfi_endproc
.LFE11169:
	.size	_ZNSt12_Vector_baseIiSaIiEE11_M_allocateEm, .-_ZNSt12_Vector_baseIiSaIiEE11_M_allocateEm
	.section	.text._ZNSt6vectorIiSaIiEE11_S_relocateEPiS2_S2_RS0_,"axG",@progbits,_ZNSt6vectorIiSaIiEE11_S_relocateEPiS2_S2_RS0_,comdat
	.weak	_ZNSt6vectorIiSaIiEE11_S_relocateEPiS2_S2_RS0_
	.type	_ZNSt6vectorIiSaIiEE11_S_relocateEPiS2_S2_RS0_, @function
_ZNSt6vectorIiSaIiEE11_S_relocateEPiS2_S2_RS0_:
.LFB11170:
	.cfi_startproc
	endbr64	
	push	rbp	#
	.cfi_def_cfa_offset 16
	.cfi_offset 6, -16
	mov	rbp, rsp	#,
	.cfi_def_cfa_register 6
	sub	rsp, 32	#,
	mov	QWORD PTR -8[rbp], rdi	# __first, __first
	mov	QWORD PTR -16[rbp], rsi	# __last, __last
	mov	QWORD PTR -24[rbp], rdx	# __result, __result
	mov	QWORD PTR -32[rbp], rcx	# __alloc, __alloc
# /usr/include/c++/13/bits/stl_vector.h:509: 	return std::__relocate_a(__first, __last, __result, __alloc);
	mov	rcx, QWORD PTR -32[rbp]	# tmp84, __alloc
	mov	rdx, QWORD PTR -24[rbp]	# tmp85, __result
	mov	rsi, QWORD PTR -16[rbp]	# tmp86, __last
	mov	rax, QWORD PTR -8[rbp]	# tmp87, __first
	mov	rdi, rax	#, tmp87
	call	_ZSt12__relocate_aIPiS0_SaIiEET0_T_S3_S2_RT1_	#
# /usr/include/c++/13/bits/stl_vector.h:514:       }
	leave	
	.cfi_def_cfa 7, 8
	ret	
	.cfi_endproc
.LFE11170:
	.size	_ZNSt6vectorIiSaIiEE11_S_relocateEPiS2_S2_RS0_, .-_ZNSt6vectorIiSaIiEE11_S_relocateEPiS2_S2_RS0_
	.section	.text._ZNK9__gnu_cxx17__normal_iteratorIPiSt6vectorIiSaIiEEE4baseEv,"axG",@progbits,_ZNK9__gnu_cxx17__normal_iteratorIPiSt6vectorIiSaIiEEE4baseEv,comdat
	.align 2
	.weak	_ZNK9__gnu_cxx17__normal_iteratorIPiSt6vectorIiSaIiEEE4baseEv
	.type	_ZNK9__gnu_cxx17__normal_iteratorIPiSt6vectorIiSaIiEEE4baseEv, @function
_ZNK9__gnu_cxx17__normal_iteratorIPiSt6vectorIiSaIiEEE4baseEv:
.LFB11171:
	.cfi_startproc
	endbr64	
	push	rbp	#
	.cfi_def_cfa_offset 16
	.cfi_offset 6, -16
	mov	rbp, rsp	#,
	.cfi_def_cfa_register 6
	mov	QWORD PTR -8[rbp], rdi	# this, this
# /usr/include/c++/13/bits/stl_iterator.h:1163:       { return _M_current; }
	mov	rax, QWORD PTR -8[rbp]	# _2, this
# /usr/include/c++/13/bits/stl_iterator.h:1163:       { return _M_current; }
	pop	rbp	#
	.cfi_def_cfa 7, 8
	ret	
	.cfi_endproc
.LFE11171:
	.size	_ZNK9__gnu_cxx17__normal_iteratorIPiSt6vectorIiSaIiEEE4baseEv, .-_ZNK9__gnu_cxx17__normal_iteratorIPiSt6vectorIiSaIiEEE4baseEv
	.section	.text._ZNSt15__new_allocatorIiE10deallocateEPim,"axG",@progbits,_ZNSt15__new_allocatorIiE10deallocateEPim,comdat
	.align 2
	.weak	_ZNSt15__new_allocatorIiE10deallocateEPim
	.type	_ZNSt15__new_allocatorIiE10deallocateEPim, @function
_ZNSt15__new_allocatorIiE10deallocateEPim:
.LFB11323:
	.cfi_startproc
	endbr64	
	push	rbp	#
	.cfi_def_cfa_offset 16
	.cfi_offset 6, -16
	mov	rbp, rsp	#,
	.cfi_def_cfa_register 6
	sub	rsp, 32	#,
	mov	QWORD PTR -8[rbp], rdi	# this, this
	mov	QWORD PTR -16[rbp], rsi	# __p, __p
	mov	QWORD PTR -24[rbp], rdx	# __n, __n
# /usr/include/c++/13/bits/new_allocator.h:172: 	_GLIBCXX_OPERATOR_DELETE(_GLIBCXX_SIZED_DEALLOC(__p, __n));
	mov	rax, QWORD PTR -24[rbp]	# tmp83, __n
	lea	rdx, 0[0+rax*4]	# _2,
	mov	rax, QWORD PTR -16[rbp]	# tmp84, __p
	mov	rsi, rdx	#, _2
	mov	rdi, rax	#, tmp84
	call	_ZdlPvm@PLT	#
# /usr/include/c++/13/bits/new_allocator.h:173:       }
	leave	
	.cfi_def_cfa 7, 8
	ret	
	.cfi_endproc
.LFE11323:
	.size	_ZNSt15__new_allocatorIiE10deallocateEPim, .-_ZNSt15__new_allocatorIiE10deallocateEPim
	.section	.text._ZNSt12_Destroy_auxILb1EE9__destroyIPiEEvT_S3_,"axG",@progbits,_ZNSt12_Destroy_auxILb1EE9__destroyIPiEEvT_S3_,comdat
	.weak	_ZNSt12_Destroy_auxILb1EE9__destroyIPiEEvT_S3_
	.type	_ZNSt12_Destroy_auxILb1EE9__destroyIPiEEvT_S3_, @function
_ZNSt12_Destroy_auxILb1EE9__destroyIPiEEvT_S3_:
.LFB11324:
	.cfi_startproc
	endbr64	
	push	rbp	#
	.cfi_def_cfa_offset 16
	.cfi_offset 6, -16
	mov	rbp, rsp	#,
	.cfi_def_cfa_register 6
	mov	QWORD PTR -8[rbp], rdi	# D.223573, D.223573
	mov	QWORD PTR -16[rbp], rsi	# D.223574, D.223574
# /usr/include/c++/13/bits/stl_construct.h:172:         __destroy(_ForwardIterator, _ForwardIterator) { }
	nop	
	pop	rbp	#
	.cfi_def_cfa 7, 8
	ret	
	.cfi_endproc
.LFE11324:
	.size	_ZNSt12_Destroy_auxILb1EE9__destroyIPiEEvT_S3_, .-_ZNSt12_Destroy_auxILb1EE9__destroyIPiEEvT_S3_
	.section	.text._ZNKSt6vectorIiSaIiEE8max_sizeEv,"axG",@progbits,_ZNKSt6vectorIiSaIiEE8max_sizeEv,comdat
	.align 2
	.weak	_ZNKSt6vectorIiSaIiEE8max_sizeEv
	.type	_ZNKSt6vectorIiSaIiEE8max_sizeEv, @function
_ZNKSt6vectorIiSaIiEE8max_sizeEv:
.LFB11325:
	.cfi_startproc
	endbr64	
	push	rbp	#
	.cfi_def_cfa_offset 16
	.cfi_offset 6, -16
	mov	rbp, rsp	#,
	.cfi_def_cfa_register 6
	sub	rsp, 16	#,
	mov	QWORD PTR -8[rbp], rdi	# this, this
# /usr/include/c++/13/bits/stl_vector.h:999:       { return _S_max_size(_M_get_Tp_allocator()); }
	mov	rax, QWORD PTR -8[rbp]	# _1, this
	mov	rdi, rax	#, _1
	call	_ZNKSt12_Vector_baseIiSaIiEE19_M_get_Tp_allocatorEv	#
# /usr/include/c++/13/bits/stl_vector.h:999:       { return _S_max_size(_M_get_Tp_allocator()); }
	mov	rdi, rax	#, _2
	call	_ZNSt6vectorIiSaIiEE11_S_max_sizeERKS0_	#
# /usr/include/c++/13/bits/stl_vector.h:999:       { return _S_max_size(_M_get_Tp_allocator()); }
	leave	
	.cfi_def_cfa 7, 8
	ret	
	.cfi_endproc
.LFE11325:
	.size	_ZNKSt6vectorIiSaIiEE8max_sizeEv, .-_ZNKSt6vectorIiSaIiEE8max_sizeEv
	.section	.text._ZSt12__relocate_aIPiS0_SaIiEET0_T_S3_S2_RT1_,"axG",@progbits,_ZSt12__relocate_aIPiS0_SaIiEET0_T_S3_S2_RT1_,comdat
	.weak	_ZSt12__relocate_aIPiS0_SaIiEET0_T_S3_S2_RT1_
	.type	_ZSt12__relocate_aIPiS0_SaIiEET0_T_S3_S2_RT1_, @function
_ZSt12__relocate_aIPiS0_SaIiEET0_T_S3_S2_RT1_:
.LFB11327:
	.cfi_startproc
	endbr64	
	push	rbp	#
	.cfi_def_cfa_offset 16
	.cfi_offset 6, -16
	mov	rbp, rsp	#,
	.cfi_def_cfa_register 6
	push	r12	#
	push	rbx	#
	sub	rsp, 32	#,
	.cfi_offset 12, -24
	.cfi_offset 3, -32
	mov	QWORD PTR -24[rbp], rdi	# __first, __first
	mov	QWORD PTR -32[rbp], rsi	# __last, __last
	mov	QWORD PTR -40[rbp], rdx	# __result, __result
	mov	QWORD PTR -48[rbp], rcx	# __alloc, __alloc
# /usr/include/c++/13/bits/stl_uninitialized.h:1147:       return std::__relocate_a_1(std::__niter_base(__first),
	mov	rax, QWORD PTR -40[rbp]	# tmp87, __result
	mov	rdi, rax	#, tmp87
	call	_ZSt12__niter_baseIPiET_S1_	#
	mov	r12, rax	# _1,
# /usr/include/c++/13/bits/stl_uninitialized.h:1147:       return std::__relocate_a_1(std::__niter_base(__first),
	mov	rax, QWORD PTR -32[rbp]	# tmp88, __last
	mov	rdi, rax	#, tmp88
	call	_ZSt12__niter_baseIPiET_S1_	#
	mov	rbx, rax	# _2,
# /usr/include/c++/13/bits/stl_uninitialized.h:1147:       return std::__relocate_a_1(std::__niter_base(__first),
	mov	rax, QWORD PTR -24[rbp]	# tmp89, __first
	mov	rdi, rax	#, tmp89
	call	_ZSt12__niter_baseIPiET_S1_	#
	mov	rdi, rax	# _3,
# /usr/include/c++/13/bits/stl_uninitialized.h:1147:       return std::__relocate_a_1(std::__niter_base(__first),
	mov	rax, QWORD PTR -48[rbp]	# tmp90, __alloc
	mov	rcx, rax	#, tmp90
	mov	rdx, r12	#, _1
	mov	rsi, rbx	#, _2
	call	_ZSt14__relocate_a_1IiiENSt9enable_ifIXsrSt24__is_bitwise_relocatableIT_vE5valueEPS2_E4typeES4_S4_S4_RSaIT0_E	#
# /usr/include/c++/13/bits/stl_uninitialized.h:1150:     }
	add	rsp, 32	#,
	pop	rbx	#
	pop	r12	#
	pop	rbp	#
	.cfi_def_cfa 7, 8
	ret	
	.cfi_endproc
.LFE11327:
	.size	_ZSt12__relocate_aIPiS0_SaIiEET0_T_S3_S2_RT1_, .-_ZSt12__relocate_aIPiS0_SaIiEET0_T_S3_S2_RT1_
	.section	.text._ZNSt6vectorIiSaIiEE11_S_max_sizeERKS0_,"axG",@progbits,_ZNSt6vectorIiSaIiEE11_S_max_sizeERKS0_,comdat
	.weak	_ZNSt6vectorIiSaIiEE11_S_max_sizeERKS0_
	.type	_ZNSt6vectorIiSaIiEE11_S_max_sizeERKS0_, @function
_ZNSt6vectorIiSaIiEE11_S_max_sizeERKS0_:
.LFB11430:
	.cfi_startproc
	endbr64	
	push	rbp	#
	.cfi_def_cfa_offset 16
	.cfi_offset 6, -16
	mov	rbp, rsp	#,
	.cfi_def_cfa_register 6
	sub	rsp, 64	#,
	mov	QWORD PTR -56[rbp], rdi	# __a, __a
# /usr/include/c++/13/bits/stl_vector.h:1916:       _S_max_size(const _Tp_alloc_type& __a) _GLIBCXX_NOEXCEPT
	mov	rax, QWORD PTR fs:40	# tmp92, MEM[(<address-space-1> long unsigned int *)40B]
	mov	QWORD PTR -8[rbp], rax	# D.225355, tmp92
	xor	eax, eax	# tmp92
# /usr/include/c++/13/bits/stl_vector.h:1921: 	const size_t __diffmax
	movabs	rax, 2305843009213693951	# tmp95,
	mov	QWORD PTR -48[rbp], rax	# __diffmax, tmp95
	mov	rax, QWORD PTR -56[rbp]	# tmp86, __a
	mov	QWORD PTR -32[rbp], rax	# __a, tmp86
	mov	rax, QWORD PTR -32[rbp]	# tmp87, __a
	mov	QWORD PTR -24[rbp], rax	# this, tmp87
	mov	rax, QWORD PTR -24[rbp]	# tmp88, this
	mov	QWORD PTR -16[rbp], rax	# this, tmp88
# /usr/include/c++/13/bits/new_allocator.h:233: 	return std::size_t(__PTRDIFF_MAX__) / sizeof(_Tp);
	movabs	rax, 2305843009213693951	# D.225317,
# /usr/include/c++/13/bits/new_allocator.h:183:       { return _M_max_size(); }
	nop	
# /usr/include/c++/13/bits/alloc_traits.h:574: 	return __a.max_size();
	nop	
# /usr/include/c++/13/bits/stl_vector.h:1923: 	const size_t __allocmax = _Alloc_traits::max_size(__a);
	mov	QWORD PTR -40[rbp], rax	# __allocmax, D.225317
# /usr/include/c++/13/bits/stl_vector.h:1924: 	return (std::min)(__diffmax, __allocmax);
	lea	rdx, -40[rbp]	# tmp89,
	lea	rax, -48[rbp]	# tmp90,
	mov	rsi, rdx	#, tmp89
	mov	rdi, rax	#, tmp90
	call	_ZSt3minImERKT_S2_S2_	#
# /usr/include/c++/13/bits/stl_vector.h:1924: 	return (std::min)(__diffmax, __allocmax);
	mov	rax, QWORD PTR [rax]	# _8, *_2
# /usr/include/c++/13/bits/stl_vector.h:1925:       }
	mov	rdx, QWORD PTR -8[rbp]	# tmp93, D.225355
	sub	rdx, QWORD PTR fs:40	# tmp93, MEM[(<address-space-1> long unsigned int *)40B]
	je	.L101	#,
	call	__stack_chk_fail@PLT	#
.L101:
	leave	
	.cfi_def_cfa 7, 8
	ret	
	.cfi_endproc
.LFE11430:
	.size	_ZNSt6vectorIiSaIiEE11_S_max_sizeERKS0_, .-_ZNSt6vectorIiSaIiEE11_S_max_sizeERKS0_
	.section	.text._ZNKSt12_Vector_baseIiSaIiEE19_M_get_Tp_allocatorEv,"axG",@progbits,_ZNKSt12_Vector_baseIiSaIiEE19_M_get_Tp_allocatorEv,comdat
	.align 2
	.weak	_ZNKSt12_Vector_baseIiSaIiEE19_M_get_Tp_allocatorEv
	.type	_ZNKSt12_Vector_baseIiSaIiEE19_M_get_Tp_allocatorEv, @function
_ZNKSt12_Vector_baseIiSaIiEE19_M_get_Tp_allocatorEv:
.LFB11431:
	.cfi_startproc
	endbr64	
	push	rbp	#
	.cfi_def_cfa_offset 16
	.cfi_offset 6, -16
	mov	rbp, rsp	#,
	.cfi_def_cfa_register 6
	mov	QWORD PTR -8[rbp], rdi	# this, this
# /usr/include/c++/13/bits/stl_vector.h:307:       { return this->_M_impl; }
	mov	rax, QWORD PTR -8[rbp]	# _2, this
# /usr/include/c++/13/bits/stl_vector.h:307:       { return this->_M_impl; }
	pop	rbp	#
	.cfi_def_cfa 7, 8
	ret	
	.cfi_endproc
.LFE11431:
	.size	_ZNKSt12_Vector_baseIiSaIiEE19_M_get_Tp_allocatorEv, .-_ZNKSt12_Vector_baseIiSaIiEE19_M_get_Tp_allocatorEv
	.section	.text._ZNSt15__new_allocatorIiE8allocateEmPKv,"axG",@progbits,_ZNSt15__new_allocatorIiE8allocateEmPKv,comdat
	.align 2
	.weak	_ZNSt15__new_allocatorIiE8allocateEmPKv
	.type	_ZNSt15__new_allocatorIiE8allocateEmPKv, @function
_ZNSt15__new_allocatorIiE8allocateEmPKv:
.LFB11432:
	.cfi_startproc
	endbr64	
	push	rbp	#
	.cfi_def_cfa_offset 16
	.cfi_offset 6, -16
	mov	rbp, rsp	#,
	.cfi_def_cfa_register 6
	sub	rsp, 48	#,
	mov	QWORD PTR -24[rbp], rdi	# this, this
	mov	QWORD PTR -32[rbp], rsi	# __n, __n
	mov	QWORD PTR -40[rbp], rdx	# D.224258, D.224258
	mov	rax, QWORD PTR -24[rbp]	# tmp90, this
	mov	QWORD PTR -8[rbp], rax	# this, tmp90
# /usr/include/c++/13/bits/new_allocator.h:233: 	return std::size_t(__PTRDIFF_MAX__) / sizeof(_Tp);
	movabs	rax, 2305843009213693951	# D.225297,
# /usr/include/c++/13/bits/new_allocator.h:134: 	if (__builtin_expect(__n > this->_M_max_size(), false))
	cmp	rax, QWORD PTR -32[rbp]	# D.225297, __n
	setb	al	#, _2
# /usr/include/c++/13/bits/new_allocator.h:134: 	if (__builtin_expect(__n > this->_M_max_size(), false))
	movzx	eax, al	# _3, _2
# /usr/include/c++/13/bits/new_allocator.h:134: 	if (__builtin_expect(__n > this->_M_max_size(), false))
	test	rax, rax	# _4
	setne	al	#, retval.13_9
# /usr/include/c++/13/bits/new_allocator.h:134: 	if (__builtin_expect(__n > this->_M_max_size(), false))
	test	al, al	# retval.13_9
	je	.L106	#,
# /usr/include/c++/13/bits/new_allocator.h:138: 	    if (__n > (std::size_t(-1) / sizeof(_Tp)))
	movabs	rax, 4611686018427387903	# tmp91,
	cmp	rax, QWORD PTR -32[rbp]	# tmp91, __n
	jnb	.L107	#,
# /usr/include/c++/13/bits/new_allocator.h:139: 	      std::__throw_bad_array_new_length();
	call	_ZSt28__throw_bad_array_new_lengthv@PLT	#
.L107:
# /usr/include/c++/13/bits/new_allocator.h:140: 	    std::__throw_bad_alloc();
	call	_ZSt17__throw_bad_allocv@PLT	#
.L106:
# /usr/include/c++/13/bits/new_allocator.h:151: 	return static_cast<_Tp*>(_GLIBCXX_OPERATOR_NEW(__n * sizeof(_Tp)));
	mov	rax, QWORD PTR -32[rbp]	# tmp92, __n
	sal	rax, 2	# _6,
	mov	rdi, rax	#, _6
	call	_Znwm@PLT	#
# /usr/include/c++/13/bits/new_allocator.h:151: 	return static_cast<_Tp*>(_GLIBCXX_OPERATOR_NEW(__n * sizeof(_Tp)));
	nop	
# /usr/include/c++/13/bits/new_allocator.h:152:       }
	leave	
	.cfi_def_cfa 7, 8
	ret	
	.cfi_endproc
.LFE11432:
	.size	_ZNSt15__new_allocatorIiE8allocateEmPKv, .-_ZNSt15__new_allocatorIiE8allocateEmPKv
	.section	.text._ZSt12__niter_baseIPiET_S1_,"axG",@progbits,_ZSt12__niter_baseIPiET_S1_,comdat
	.weak	_ZSt12__niter_baseIPiET_S1_
	.type	_ZSt12__niter_baseIPiET_S1_, @function
_ZSt12__niter_baseIPiET_S1_:
.LFB11433:
	.cfi_startproc
	endbr64	
	push	rbp	#
	.cfi_def_cfa_offset 16
	.cfi_offset 6, -16
	mov	rbp, rsp	#,
	.cfi_def_cfa_register 6
	mov	QWORD PTR -8[rbp], rdi	# __it, __it
# /usr/include/c++/13/bits/stl_algobase.h:318:     { return __it; }
	mov	rax, QWORD PTR -8[rbp]	# _2, __it
# /usr/include/c++/13/bits/stl_algobase.h:318:     { return __it; }
	pop	rbp	#
	.cfi_def_cfa 7, 8
	ret	
	.cfi_endproc
.LFE11433:
	.size	_ZSt12__niter_baseIPiET_S1_, .-_ZSt12__niter_baseIPiET_S1_
	.section	.text._ZSt14__relocate_a_1IiiENSt9enable_ifIXsrSt24__is_bitwise_relocatableIT_vE5valueEPS2_E4typeES4_S4_S4_RSaIT0_E,"axG",@progbits,_ZSt14__relocate_a_1IiiENSt9enable_ifIXsrSt24__is_bitwise_relocatableIT_vE5valueEPS2_E4typeES4_S4_S4_RSaIT0_E,comdat
	.weak	_ZSt14__relocate_a_1IiiENSt9enable_ifIXsrSt24__is_bitwise_relocatableIT_vE5valueEPS2_E4typeES4_S4_S4_RSaIT0_E
	.type	_ZSt14__relocate_a_1IiiENSt9enable_ifIXsrSt24__is_bitwise_relocatableIT_vE5valueEPS2_E4typeES4_S4_S4_RSaIT0_E, @function
_ZSt14__relocate_a_1IiiENSt9enable_ifIXsrSt24__is_bitwise_relocatableIT_vE5valueEPS2_E4typeES4_S4_S4_RSaIT0_E:
.LFB11434:
	.cfi_startproc
	endbr64	
	push	rbp	#
	.cfi_def_cfa_offset 16
	.cfi_offset 6, -16
	mov	rbp, rsp	#,
	.cfi_def_cfa_register 6
	sub	rsp, 48	#,
	mov	QWORD PTR -24[rbp], rdi	# __first, __first
	mov	QWORD PTR -32[rbp], rsi	# __last, __last
	mov	QWORD PTR -40[rbp], rdx	# __result, __result
	mov	QWORD PTR -48[rbp], rcx	# __alloc, __alloc
# /usr/include/c++/13/bits/stl_uninitialized.h:1118:       ptrdiff_t __count = __last - __first;
	mov	rax, QWORD PTR -32[rbp]	# tmp89, __last
	sub	rax, QWORD PTR -24[rbp]	# _1, __first
# /usr/include/c++/13/bits/stl_uninitialized.h:1118:       ptrdiff_t __count = __last - __first;
	sar	rax, 2	# tmp90,
	mov	QWORD PTR -8[rbp], rax	# __count, tmp90
# /usr/include/c++/13/bits/stl_uninitialized.h:1119:       if (__count > 0)
	cmp	QWORD PTR -8[rbp], 0	# __count,
	jle	.L112	#,
# /usr/include/c++/13/bits/stl_uninitialized.h:1131: 	  __builtin_memmove(__result, __first, __count * sizeof(_Tp));
	mov	rax, QWORD PTR -8[rbp]	# __count.14_2, __count
# /usr/include/c++/13/bits/stl_uninitialized.h:1131: 	  __builtin_memmove(__result, __first, __count * sizeof(_Tp));
	lea	rdx, 0[0+rax*4]	# _3,
	mov	rcx, QWORD PTR -24[rbp]	# tmp93, __first
	mov	rax, QWORD PTR -40[rbp]	# tmp94, __result
	mov	rsi, rcx	#, tmp93
	mov	rdi, rax	#, tmp94
	call	memmove@PLT	#
.L112:
# /usr/include/c++/13/bits/stl_uninitialized.h:1133:       return __result + __count;
	mov	rax, QWORD PTR -8[rbp]	# __count.15_4, __count
# /usr/include/c++/13/bits/stl_uninitialized.h:1133:       return __result + __count;
	lea	rdx, 0[0+rax*4]	# _5,
# /usr/include/c++/13/bits/stl_uninitialized.h:1133:       return __result + __count;
	mov	rax, QWORD PTR -40[rbp]	# tmp95, __result
	add	rax, rdx	# _13, _5
# /usr/include/c++/13/bits/stl_uninitialized.h:1134:     }
	leave	
	.cfi_def_cfa 7, 8
	ret	
	.cfi_endproc
.LFE11434:
	.size	_ZSt14__relocate_a_1IiiENSt9enable_ifIXsrSt24__is_bitwise_relocatableIT_vE5valueEPS2_E4typeES4_S4_S4_RSaIT0_E, .-_ZSt14__relocate_a_1IiiENSt9enable_ifIXsrSt24__is_bitwise_relocatableIT_vE5valueEPS2_E4typeES4_S4_S4_RSaIT0_E
	.section	.rodata
	.type	_ZNSt8__detail30__integer_to_chars_is_unsignedIjEE, @object
	.size	_ZNSt8__detail30__integer_to_chars_is_unsignedIjEE, 1
_ZNSt8__detail30__integer_to_chars_is_unsignedIjEE:
	.byte	1
	.type	_ZNSt8__detail30__integer_to_chars_is_unsignedImEE, @object
	.size	_ZNSt8__detail30__integer_to_chars_is_unsignedImEE, 1
_ZNSt8__detail30__integer_to_chars_is_unsignedImEE:
	.byte	1
	.type	_ZNSt8__detail30__integer_to_chars_is_unsignedIyEE, @object
	.size	_ZNSt8__detail30__integer_to_chars_is_unsignedIyEE, 1
_ZNSt8__detail30__integer_to_chars_is_unsignedIyEE:
	.byte	1
	.type	_ZSt12__is_ratio_vISt5ratioILl1ELl1000000000EEE, @object
	.size	_ZSt12__is_ratio_vISt5ratioILl1ELl1000000000EEE, 1
_ZSt12__is_ratio_vISt5ratioILl1ELl1000000000EEE:
	.byte	1
	.type	_ZSt12__is_ratio_vISt5ratioILl1ELl1EEE, @object
	.size	_ZSt12__is_ratio_vISt5ratioILl1ELl1EEE, 1
_ZSt12__is_ratio_vISt5ratioILl1ELl1EEE:
	.byte	1
	.type	_ZSt12__is_ratio_vISt5ratioILl1000000000ELl1EEE, @object
	.size	_ZSt12__is_ratio_vISt5ratioILl1000000000ELl1EEE, 1
_ZSt12__is_ratio_vISt5ratioILl1000000000ELl1EEE:
	.byte	1
	.type	_ZNSt8__detail30__integer_to_chars_is_unsignedIoEE, @object
	.size	_ZNSt8__detail30__integer_to_chars_is_unsignedIoEE, 1
_ZNSt8__detail30__integer_to_chars_is_unsignedIoEE:
	.byte	1
	.hidden	DW.ref.__gxx_personality_v0
	.weak	DW.ref.__gxx_personality_v0
	.section	.data.rel.local.DW.ref.__gxx_personality_v0,"awG",@progbits,DW.ref.__gxx_personality_v0,comdat
	.align 8
	.type	DW.ref.__gxx_personality_v0, @object
	.size	DW.ref.__gxx_personality_v0, 8
DW.ref.__gxx_personality_v0:
	.quad	__gxx_personality_v0
	.ident	"GCC: (Ubuntu 13.2.0-23ubuntu4) 13.2.0"
	.section	.note.GNU-stack,"",@progbits
	.section	.note.gnu.property,"a"
	.align 8
	.long	1f - 0f
	.long	4f - 1f
	.long	5
0:
	.string	"GNU"
1:
	.align 8
	.long	0xc0000002
	.long	3f - 2f
2:
	.long	0x3
3:
	.align 8
4:
