	.file	"Flood_fill.cpp"
	.intel_syntax noprefix
# GNU C++17 (Ubuntu 13.2.0-23ubuntu4) version 13.2.0 (x86_64-linux-gnu)
#	compiled by GNU C version 13.2.0, GMP version 6.3.0, MPFR version 4.2.1, MPC version 1.3.1, isl version isl-0.26-GMP

# GGC heuristics: --param ggc-min-expand=100 --param ggc-min-heapsize=131072
# options passed: -masm=intel -mtune=generic -march=x86-64 -O0 -fasynchronous-unwind-tables -fstack-protector-strong -fstack-clash-protection -fcf-protection
	.text
	.section	.text._ZSt17__size_to_integerm,"axG",@progbits,_ZSt17__size_to_integerm,comdat
	.weak	_ZSt17__size_to_integerm
	.type	_ZSt17__size_to_integerm, @function
_ZSt17__size_to_integerm:
.LFB354:
	.cfi_startproc
	endbr64	
	push	rbp	#
	.cfi_def_cfa_offset 16
	.cfi_offset 6, -16
	mov	rbp, rsp	#,
	.cfi_def_cfa_register 6
	mov	QWORD PTR -8[rbp], rdi	# __n, __n
# /usr/include/c++/13/bits/stl_algobase.h:1018:   __size_to_integer(unsigned long __n) { return __n; }
	mov	rax, QWORD PTR -8[rbp]	# _2, __n
# /usr/include/c++/13/bits/stl_algobase.h:1018:   __size_to_integer(unsigned long __n) { return __n; }
	pop	rbp	#
	.cfi_def_cfa 7, 8
	ret	
	.cfi_endproc
.LFE354:
	.size	_ZSt17__size_to_integerm, .-_ZSt17__size_to_integerm
	.section	.text._ZnwmPv,"axG",@progbits,_ZnwmPv,comdat
	.weak	_ZnwmPv
	.type	_ZnwmPv, @function
_ZnwmPv:
.LFB471:
	.cfi_startproc
	endbr64	
	push	rbp	#
	.cfi_def_cfa_offset 16
	.cfi_offset 6, -16
	mov	rbp, rsp	#,
	.cfi_def_cfa_register 6
	mov	QWORD PTR -8[rbp], rdi	# D.15836, D.15836
	mov	QWORD PTR -16[rbp], rsi	# __p, __p
# /usr/include/c++/13/new:175: { return __p; }
	mov	rax, QWORD PTR -16[rbp]	# _2, __p
# /usr/include/c++/13/new:175: { return __p; }
	pop	rbp	#
	.cfi_def_cfa 7, 8
	ret	
	.cfi_endproc
.LFE471:
	.size	_ZnwmPv, .-_ZnwmPv
	.section	.text._ZdlPvS_,"axG",@progbits,_ZdlPvS_,comdat
	.weak	_ZdlPvS_
	.type	_ZdlPvS_, @function
_ZdlPvS_:
.LFB473:
	.cfi_startproc
	endbr64	
	push	rbp	#
	.cfi_def_cfa_offset 16
	.cfi_offset 6, -16
	mov	rbp, rsp	#,
	.cfi_def_cfa_register 6
	mov	QWORD PTR -8[rbp], rdi	# D.15844, D.15844
	mov	QWORD PTR -16[rbp], rsi	# D.15845, D.15845
# /usr/include/c++/13/new:180: inline void operator delete  (void*, void*) _GLIBCXX_USE_NOEXCEPT { }
	nop	
	pop	rbp	#
	.cfi_def_cfa 7, 8
	ret	
	.cfi_endproc
.LFE473:
	.size	_ZdlPvS_, .-_ZdlPvS_
	.section	.text._ZSt3minImERKT_S2_S2_,"axG",@progbits,_ZSt3minImERKT_S2_S2_,comdat
	.weak	_ZSt3minImERKT_S2_S2_
	.type	_ZSt3minImERKT_S2_S2_, @function
_ZSt3minImERKT_S2_S2_:
.LFB1923:
	.cfi_startproc
	endbr64	
	push	rbp	#
	.cfi_def_cfa_offset 16
	.cfi_offset 6, -16
	mov	rbp, rsp	#,
	.cfi_def_cfa_register 6
	mov	QWORD PTR -8[rbp], rdi	# __a, __a
	mov	QWORD PTR -16[rbp], rsi	# __b, __b
# /usr/include/c++/13/bits/stl_algobase.h:238:       if (__b < __a)
	mov	rax, QWORD PTR -16[rbp]	# tmp86, __b
	mov	rdx, QWORD PTR [rax]	# _1, *__b_5(D)
	mov	rax, QWORD PTR -8[rbp]	# tmp87, __a
	mov	rax, QWORD PTR [rax]	# _2, *__a_6(D)
# /usr/include/c++/13/bits/stl_algobase.h:238:       if (__b < __a)
	cmp	rdx, rax	# _1, _2
	jnb	.L7	#,
# /usr/include/c++/13/bits/stl_algobase.h:239: 	return __b;
	mov	rax, QWORD PTR -16[rbp]	# _3, __b
	jmp	.L8	#
.L7:
# /usr/include/c++/13/bits/stl_algobase.h:240:       return __a;
	mov	rax, QWORD PTR -8[rbp]	# _3, __a
.L8:
# /usr/include/c++/13/bits/stl_algobase.h:241:     }
	pop	rbp	#
	.cfi_def_cfa 7, 8
	ret	
	.cfi_endproc
.LFE1923:
	.size	_ZSt3minImERKT_S2_S2_, .-_ZSt3minImERKT_S2_S2_
	.section	.text._ZNSt14_Bit_referenceC2EPmm,"axG",@progbits,_ZNSt14_Bit_referenceC5EPmm,comdat
	.align 2
	.weak	_ZNSt14_Bit_referenceC2EPmm
	.type	_ZNSt14_Bit_referenceC2EPmm, @function
_ZNSt14_Bit_referenceC2EPmm:
.LFB2519:
	.cfi_startproc
	endbr64	
	push	rbp	#
	.cfi_def_cfa_offset 16
	.cfi_offset 6, -16
	mov	rbp, rsp	#,
	.cfi_def_cfa_register 6
	mov	QWORD PTR -8[rbp], rdi	# this, this
	mov	QWORD PTR -16[rbp], rsi	# __x, __x
	mov	QWORD PTR -24[rbp], rdx	# __y, __y
# /usr/include/c++/13/bits/stl_bvector.h:89:     : _M_p(__x), _M_mask(__y) { }
	mov	rax, QWORD PTR -8[rbp]	# tmp82, this
	mov	rdx, QWORD PTR -16[rbp]	# tmp83, __x
	mov	QWORD PTR [rax], rdx	# this_2(D)->_M_p, tmp83
# /usr/include/c++/13/bits/stl_bvector.h:89:     : _M_p(__x), _M_mask(__y) { }
	mov	rax, QWORD PTR -8[rbp]	# tmp84, this
	mov	rdx, QWORD PTR -24[rbp]	# tmp85, __y
	mov	QWORD PTR 8[rax], rdx	# this_2(D)->_M_mask, tmp85
# /usr/include/c++/13/bits/stl_bvector.h:89:     : _M_p(__x), _M_mask(__y) { }
	nop	
	pop	rbp	#
	.cfi_def_cfa 7, 8
	ret	
	.cfi_endproc
.LFE2519:
	.size	_ZNSt14_Bit_referenceC2EPmm, .-_ZNSt14_Bit_referenceC2EPmm
	.weak	_ZNSt14_Bit_referenceC1EPmm
	.set	_ZNSt14_Bit_referenceC1EPmm,_ZNSt14_Bit_referenceC2EPmm
	.section	.text._ZNKSt14_Bit_referencecvbEv,"axG",@progbits,_ZNKSt14_Bit_referencecvbEv,comdat
	.align 2
	.weak	_ZNKSt14_Bit_referencecvbEv
	.type	_ZNKSt14_Bit_referencecvbEv, @function
_ZNKSt14_Bit_referencecvbEv:
.LFB2524:
	.cfi_startproc
	endbr64	
	push	rbp	#
	.cfi_def_cfa_offset 16
	.cfi_offset 6, -16
	mov	rbp, rsp	#,
	.cfi_def_cfa_register 6
	mov	QWORD PTR -8[rbp], rdi	# this, this
# /usr/include/c++/13/bits/stl_bvector.h:100:     { return !!(*_M_p & _M_mask); }
	mov	rax, QWORD PTR -8[rbp]	# tmp88, this
	mov	rax, QWORD PTR [rax]	# _1, this_6(D)->_M_p
# /usr/include/c++/13/bits/stl_bvector.h:100:     { return !!(*_M_p & _M_mask); }
	mov	rdx, QWORD PTR [rax]	# _2, *_1
# /usr/include/c++/13/bits/stl_bvector.h:100:     { return !!(*_M_p & _M_mask); }
	mov	rax, QWORD PTR -8[rbp]	# tmp89, this
	mov	rax, QWORD PTR 8[rax]	# _3, this_6(D)->_M_mask
# /usr/include/c++/13/bits/stl_bvector.h:100:     { return !!(*_M_p & _M_mask); }
	and	rax, rdx	# _4, _2
# /usr/include/c++/13/bits/stl_bvector.h:100:     { return !!(*_M_p & _M_mask); }
	test	rax, rax	# _4
	setne	al	#, _7
# /usr/include/c++/13/bits/stl_bvector.h:100:     { return !!(*_M_p & _M_mask); }
	pop	rbp	#
	.cfi_def_cfa 7, 8
	ret	
	.cfi_endproc
.LFE2524:
	.size	_ZNKSt14_Bit_referencecvbEv, .-_ZNKSt14_Bit_referencecvbEv
	.section	.text._ZNSt14_Bit_referenceaSEb,"axG",@progbits,_ZNSt14_Bit_referenceaSEb,comdat
	.align 2
	.weak	_ZNSt14_Bit_referenceaSEb
	.type	_ZNSt14_Bit_referenceaSEb, @function
_ZNSt14_Bit_referenceaSEb:
.LFB2525:
	.cfi_startproc
	endbr64	
	push	rbp	#
	.cfi_def_cfa_offset 16
	.cfi_offset 6, -16
	mov	rbp, rsp	#,
	.cfi_def_cfa_register 6
	mov	QWORD PTR -8[rbp], rdi	# this, this
	mov	eax, esi	# tmp95, __x
	mov	BYTE PTR -12[rbp], al	# __x, tmp96
# /usr/include/c++/13/bits/stl_bvector.h:106:       if (__x)
	cmp	BYTE PTR -12[rbp], 0	# __x,
	je	.L13	#,
# /usr/include/c++/13/bits/stl_bvector.h:107: 	*_M_p |= _M_mask;
	mov	rax, QWORD PTR -8[rbp]	# tmp97, this
	mov	rax, QWORD PTR [rax]	# _1, this_15(D)->_M_p
# /usr/include/c++/13/bits/stl_bvector.h:107: 	*_M_p |= _M_mask;
	mov	rcx, QWORD PTR [rax]	# _2, *_1
# /usr/include/c++/13/bits/stl_bvector.h:107: 	*_M_p |= _M_mask;
	mov	rax, QWORD PTR -8[rbp]	# tmp98, this
	mov	rdx, QWORD PTR 8[rax]	# _3, this_15(D)->_M_mask
# /usr/include/c++/13/bits/stl_bvector.h:107: 	*_M_p |= _M_mask;
	mov	rax, QWORD PTR -8[rbp]	# tmp99, this
	mov	rax, QWORD PTR [rax]	# _4, this_15(D)->_M_p
# /usr/include/c++/13/bits/stl_bvector.h:107: 	*_M_p |= _M_mask;
	or	rdx, rcx	# _5, _2
	mov	QWORD PTR [rax], rdx	# *_4, _5
	jmp	.L14	#
.L13:
# /usr/include/c++/13/bits/stl_bvector.h:109: 	*_M_p &= ~_M_mask;
	mov	rax, QWORD PTR -8[rbp]	# tmp100, this
	mov	rax, QWORD PTR [rax]	# _6, this_15(D)->_M_p
# /usr/include/c++/13/bits/stl_bvector.h:109: 	*_M_p &= ~_M_mask;
	mov	rdx, QWORD PTR [rax]	# _7, *_6
# /usr/include/c++/13/bits/stl_bvector.h:109: 	*_M_p &= ~_M_mask;
	mov	rax, QWORD PTR -8[rbp]	# tmp101, this
	mov	rax, QWORD PTR 8[rax]	# _8, this_15(D)->_M_mask
# /usr/include/c++/13/bits/stl_bvector.h:109: 	*_M_p &= ~_M_mask;
	not	rax	# _8
	mov	rcx, rax	# _9, _8
# /usr/include/c++/13/bits/stl_bvector.h:109: 	*_M_p &= ~_M_mask;
	mov	rax, QWORD PTR -8[rbp]	# tmp102, this
	mov	rax, QWORD PTR [rax]	# _10, this_15(D)->_M_p
# /usr/include/c++/13/bits/stl_bvector.h:109: 	*_M_p &= ~_M_mask;
	and	rdx, rcx	# _11, _9
	mov	QWORD PTR [rax], rdx	# *_10, _11
.L14:
# /usr/include/c++/13/bits/stl_bvector.h:110:       return *this;
	mov	rax, QWORD PTR -8[rbp]	# _18, this
# /usr/include/c++/13/bits/stl_bvector.h:111:     }
	pop	rbp	#
	.cfi_def_cfa 7, 8
	ret	
	.cfi_endproc
.LFE2525:
	.size	_ZNSt14_Bit_referenceaSEb, .-_ZNSt14_Bit_referenceaSEb
	.section	.text._ZNSt18_Bit_iterator_baseC2EPmj,"axG",@progbits,_ZNSt18_Bit_iterator_baseC5EPmj,comdat
	.align 2
	.weak	_ZNSt18_Bit_iterator_baseC2EPmj
	.type	_ZNSt18_Bit_iterator_baseC2EPmj, @function
_ZNSt18_Bit_iterator_baseC2EPmj:
.LFB2535:
	.cfi_startproc
	endbr64	
	push	rbp	#
	.cfi_def_cfa_offset 16
	.cfi_offset 6, -16
	mov	rbp, rsp	#,
	.cfi_def_cfa_register 6
	mov	QWORD PTR -8[rbp], rdi	# this, this
	mov	QWORD PTR -16[rbp], rsi	# __x, __x
	mov	DWORD PTR -20[rbp], edx	# __y, __y
# /usr/include/c++/13/bits/stl_bvector.h:196:     : _M_p(__x), _M_offset(__y) { }
	mov	rax, QWORD PTR -8[rbp]	# tmp82, this
	mov	rdx, QWORD PTR -16[rbp]	# tmp83, __x
	mov	QWORD PTR [rax], rdx	# this_2(D)->_M_p, tmp83
# /usr/include/c++/13/bits/stl_bvector.h:196:     : _M_p(__x), _M_offset(__y) { }
	mov	rax, QWORD PTR -8[rbp]	# tmp84, this
	mov	edx, DWORD PTR -20[rbp]	# tmp85, __y
	mov	DWORD PTR 8[rax], edx	# this_2(D)->_M_offset, tmp85
# /usr/include/c++/13/bits/stl_bvector.h:196:     : _M_p(__x), _M_offset(__y) { }
	nop	
	pop	rbp	#
	.cfi_def_cfa 7, 8
	ret	
	.cfi_endproc
.LFE2535:
	.size	_ZNSt18_Bit_iterator_baseC2EPmj, .-_ZNSt18_Bit_iterator_baseC2EPmj
	.weak	_ZNSt18_Bit_iterator_baseC1EPmj
	.set	_ZNSt18_Bit_iterator_baseC1EPmj,_ZNSt18_Bit_iterator_baseC2EPmj
	.section	.text._ZNSt18_Bit_iterator_base10_M_bump_upEv,"axG",@progbits,_ZNSt18_Bit_iterator_base10_M_bump_upEv,comdat
	.align 2
	.weak	_ZNSt18_Bit_iterator_base10_M_bump_upEv
	.type	_ZNSt18_Bit_iterator_base10_M_bump_upEv, @function
_ZNSt18_Bit_iterator_base10_M_bump_upEv:
.LFB2537:
	.cfi_startproc
	endbr64	
	push	rbp	#
	.cfi_def_cfa_offset 16
	.cfi_offset 6, -16
	mov	rbp, rsp	#,
	.cfi_def_cfa_register 6
	mov	QWORD PTR -24[rbp], rdi	# this, this
	mov	rax, QWORD PTR -24[rbp]	# tmp87, this
	mov	QWORD PTR -8[rbp], rax	# this, tmp87
# /usr/include/c++/13/bits/stl_bvector.h:189:       unsigned int __ofst = _M_offset;
	mov	rax, QWORD PTR -8[rbp]	# tmp88, this
	mov	eax, DWORD PTR 8[rax]	# tmp89, this_13->_M_offset
	mov	DWORD PTR -12[rbp], eax	# __ofst, tmp89
# /usr/include/c++/13/bits/stl_bvector.h:190:       __attribute__ ((__assume__ (__ofst < unsigned(_S_word_bit))));
	cmp	DWORD PTR -12[rbp], 63	# __ofst,
# /usr/include/c++/13/bits/stl_bvector.h:192:     }
	nop	
# /usr/include/c++/13/bits/stl_bvector.h:203:       if (_M_offset++ == int(_S_word_bit) - 1)
	mov	rax, QWORD PTR -24[rbp]	# tmp90, this
	mov	eax, DWORD PTR 8[rax]	# _1, this_8(D)->_M_offset
# /usr/include/c++/13/bits/stl_bvector.h:203:       if (_M_offset++ == int(_S_word_bit) - 1)
	lea	ecx, 1[rax]	# _3,
	mov	rdx, QWORD PTR -24[rbp]	# tmp91, this
	mov	DWORD PTR 8[rdx], ecx	# this_8(D)->_M_offset, _3
# /usr/include/c++/13/bits/stl_bvector.h:203:       if (_M_offset++ == int(_S_word_bit) - 1)
	cmp	eax, 63	# _1,
	sete	al	#, retval.39_10
# /usr/include/c++/13/bits/stl_bvector.h:203:       if (_M_offset++ == int(_S_word_bit) - 1)
	test	al, al	# retval.39_10
	je	.L21	#,
# /usr/include/c++/13/bits/stl_bvector.h:205: 	  _M_offset = 0;
	mov	rax, QWORD PTR -24[rbp]	# tmp92, this
	mov	DWORD PTR 8[rax], 0	# this_8(D)->_M_offset,
# /usr/include/c++/13/bits/stl_bvector.h:206: 	  ++_M_p;
	mov	rax, QWORD PTR -24[rbp]	# tmp93, this
	mov	rax, QWORD PTR [rax]	# _4, this_8(D)->_M_p
# /usr/include/c++/13/bits/stl_bvector.h:206: 	  ++_M_p;
	lea	rdx, 8[rax]	# _5,
	mov	rax, QWORD PTR -24[rbp]	# tmp94, this
	mov	QWORD PTR [rax], rdx	# this_8(D)->_M_p, _5
.L21:
# /usr/include/c++/13/bits/stl_bvector.h:208:     }
	nop	
	pop	rbp	#
	.cfi_def_cfa 7, 8
	ret	
	.cfi_endproc
.LFE2537:
	.size	_ZNSt18_Bit_iterator_base10_M_bump_upEv, .-_ZNSt18_Bit_iterator_base10_M_bump_upEv
	.section	.text._ZNSt18_Bit_iterator_base7_M_incrEl,"axG",@progbits,_ZNSt18_Bit_iterator_base7_M_incrEl,comdat
	.align 2
	.weak	_ZNSt18_Bit_iterator_base7_M_incrEl
	.type	_ZNSt18_Bit_iterator_base7_M_incrEl, @function
_ZNSt18_Bit_iterator_base7_M_incrEl:
.LFB2539:
	.cfi_startproc
	endbr64	
	push	rbp	#
	.cfi_def_cfa_offset 16
	.cfi_offset 6, -16
	mov	rbp, rsp	#,
	.cfi_def_cfa_register 6
	mov	QWORD PTR -40[rbp], rdi	# this, this
	mov	QWORD PTR -48[rbp], rsi	# __i, __i
	mov	rax, QWORD PTR -40[rbp]	# tmp92, this
	mov	QWORD PTR -8[rbp], rax	# this, tmp92
# /usr/include/c++/13/bits/stl_bvector.h:189:       unsigned int __ofst = _M_offset;
	mov	rax, QWORD PTR -8[rbp]	# tmp93, this
	mov	eax, DWORD PTR 8[rax]	# tmp94, this_22->_M_offset
	mov	DWORD PTR -20[rbp], eax	# __ofst, tmp94
# /usr/include/c++/13/bits/stl_bvector.h:190:       __attribute__ ((__assume__ (__ofst < unsigned(_S_word_bit))));
	cmp	DWORD PTR -20[rbp], 63	# __ofst,
# /usr/include/c++/13/bits/stl_bvector.h:192:     }
	nop	
# /usr/include/c++/13/bits/stl_bvector.h:227:       difference_type __n = __i + _M_offset;
	mov	rax, QWORD PTR -40[rbp]	# tmp95, this
	mov	eax, DWORD PTR 8[rax]	# _1, this_14(D)->_M_offset
	mov	edx, eax	# _2, _1
# /usr/include/c++/13/bits/stl_bvector.h:227:       difference_type __n = __i + _M_offset;
	mov	rax, QWORD PTR -48[rbp]	# tmp99, __i
	add	rax, rdx	# tmp98, _2
	mov	QWORD PTR -16[rbp], rax	# __n, tmp98
# /usr/include/c++/13/bits/stl_bvector.h:228:       _M_p += __n / int(_S_word_bit);
	mov	rax, QWORD PTR -40[rbp]	# tmp100, this
	mov	rdx, QWORD PTR [rax]	# _3, this_14(D)->_M_p
# /usr/include/c++/13/bits/stl_bvector.h:228:       _M_p += __n / int(_S_word_bit);
	mov	rax, QWORD PTR -16[rbp]	# tmp101, __n
	lea	rcx, 63[rax]	# tmp103,
	test	rax, rax	# tmp102
	cmovs	rax, rcx	# tmp103,, tmp102
	sar	rax, 6	# tmp104,
# /usr/include/c++/13/bits/stl_bvector.h:228:       _M_p += __n / int(_S_word_bit);
	sal	rax, 3	# _6,
	add	rdx, rax	# _7, _6
	mov	rax, QWORD PTR -40[rbp]	# tmp105, this
	mov	QWORD PTR [rax], rdx	# this_14(D)->_M_p, _7
# /usr/include/c++/13/bits/stl_bvector.h:229:       __n = __n % int(_S_word_bit);
	mov	rdx, QWORD PTR -16[rbp]	# tmp107, __n
	mov	rax, rdx	# tmp108, tmp107
	sar	rax, 63	# tmp108,
	shr	rax, 58	# tmp109,
	add	rdx, rax	# tmp110, tmp109
	and	edx, 63	# tmp111,
	sub	rdx, rax	# tmp112, tmp109
	mov	QWORD PTR -16[rbp], rdx	# __n, tmp112
# /usr/include/c++/13/bits/stl_bvector.h:230:       if (__n < 0)
	cmp	QWORD PTR -16[rbp], 0	# __n,
	jns	.L24	#,
# /usr/include/c++/13/bits/stl_bvector.h:232: 	  __n += int(_S_word_bit);
	add	QWORD PTR -16[rbp], 64	# __n,
# /usr/include/c++/13/bits/stl_bvector.h:233: 	  --_M_p;
	mov	rax, QWORD PTR -40[rbp]	# tmp113, this
	mov	rax, QWORD PTR [rax]	# _8, this_14(D)->_M_p
# /usr/include/c++/13/bits/stl_bvector.h:233: 	  --_M_p;
	lea	rdx, -8[rax]	# _9,
	mov	rax, QWORD PTR -40[rbp]	# tmp114, this
	mov	QWORD PTR [rax], rdx	# this_14(D)->_M_p, _9
.L24:
# /usr/include/c++/13/bits/stl_bvector.h:235:       _M_offset = static_cast<unsigned int>(__n);
	mov	rax, QWORD PTR -16[rbp]	# tmp115, __n
	mov	edx, eax	# _10, tmp115
	mov	rax, QWORD PTR -40[rbp]	# tmp116, this
	mov	DWORD PTR 8[rax], edx	# this_14(D)->_M_offset, _10
# /usr/include/c++/13/bits/stl_bvector.h:236:     }
	nop	
	pop	rbp	#
	.cfi_def_cfa 7, 8
	ret	
	.cfi_endproc
.LFE2539:
	.size	_ZNSt18_Bit_iterator_base7_M_incrEl, .-_ZNSt18_Bit_iterator_base7_M_incrEl
	.section	.text._ZStmiRKSt18_Bit_iterator_baseS1_,"axG",@progbits,_ZStmiRKSt18_Bit_iterator_baseS1_,comdat
	.weak	_ZStmiRKSt18_Bit_iterator_baseS1_
	.type	_ZStmiRKSt18_Bit_iterator_baseS1_, @function
_ZStmiRKSt18_Bit_iterator_baseS1_:
.LFB2546:
	.cfi_startproc
	endbr64	
	push	rbp	#
	.cfi_def_cfa_offset 16
	.cfi_offset 6, -16
	mov	rbp, rsp	#,
	.cfi_def_cfa_register 6
	mov	QWORD PTR -40[rbp], rdi	# __x, __x
	mov	QWORD PTR -48[rbp], rsi	# __y, __y
	mov	rax, QWORD PTR -40[rbp]	# tmp93, __x
	mov	QWORD PTR -8[rbp], rax	# this, tmp93
# /usr/include/c++/13/bits/stl_bvector.h:189:       unsigned int __ofst = _M_offset;
	mov	rax, QWORD PTR -8[rbp]	# tmp94, this
	mov	eax, DWORD PTR 8[rax]	# tmp95, this_16->_M_offset
	mov	DWORD PTR -20[rbp], eax	# __ofst, tmp95
# /usr/include/c++/13/bits/stl_bvector.h:190:       __attribute__ ((__assume__ (__ofst < unsigned(_S_word_bit))));
	cmp	DWORD PTR -20[rbp], 63	# __ofst,
# /usr/include/c++/13/bits/stl_bvector.h:192:     }
	nop	
	mov	rax, QWORD PTR -48[rbp]	# tmp96, __y
	mov	QWORD PTR -16[rbp], rax	# this, tmp96
# /usr/include/c++/13/bits/stl_bvector.h:189:       unsigned int __ofst = _M_offset;
	mov	rax, QWORD PTR -16[rbp]	# tmp97, this
	mov	eax, DWORD PTR 8[rax]	# tmp98, this_14->_M_offset
	mov	DWORD PTR -24[rbp], eax	# __ofst, tmp98
# /usr/include/c++/13/bits/stl_bvector.h:190:       __attribute__ ((__assume__ (__ofst < unsigned(_S_word_bit))));
	cmp	DWORD PTR -24[rbp], 63	# __ofst,
# /usr/include/c++/13/bits/stl_bvector.h:192:     }
	nop	
# /usr/include/c++/13/bits/stl_bvector.h:296:       return (int(_S_word_bit) * (__x._M_p - __y._M_p)
	mov	rax, QWORD PTR -40[rbp]	# tmp99, __x
	mov	rdx, QWORD PTR [rax]	# _1, __x_11(D)->_M_p
# /usr/include/c++/13/bits/stl_bvector.h:296:       return (int(_S_word_bit) * (__x._M_p - __y._M_p)
	mov	rax, QWORD PTR -48[rbp]	# tmp100, __y
	mov	rax, QWORD PTR [rax]	# _2, __y_12(D)->_M_p
# /usr/include/c++/13/bits/stl_bvector.h:296:       return (int(_S_word_bit) * (__x._M_p - __y._M_p)
	sub	rdx, rax	# _3, _2
# /usr/include/c++/13/bits/stl_bvector.h:297: 	      + __x._M_offset - __y._M_offset);
	sal	rdx, 3	# _4,
# /usr/include/c++/13/bits/stl_bvector.h:297: 	      + __x._M_offset - __y._M_offset);
	mov	rax, QWORD PTR -40[rbp]	# tmp101, __x
	mov	eax, DWORD PTR 8[rax]	# _5, __x_11(D)->_M_offset
	mov	eax, eax	# _6, _5
# /usr/include/c++/13/bits/stl_bvector.h:297: 	      + __x._M_offset - __y._M_offset);
	add	rdx, rax	# _7, _6
# /usr/include/c++/13/bits/stl_bvector.h:297: 	      + __x._M_offset - __y._M_offset);
	mov	rax, QWORD PTR -48[rbp]	# tmp102, __y
	mov	eax, DWORD PTR 8[rax]	# _8, __y_12(D)->_M_offset
	mov	ecx, eax	# _9, _8
# /usr/include/c++/13/bits/stl_bvector.h:297: 	      + __x._M_offset - __y._M_offset);
	mov	rax, rdx	# _7, _7
	sub	rax, rcx	# _7, _9
# /usr/include/c++/13/bits/stl_bvector.h:298:     }
	pop	rbp	#
	.cfi_def_cfa 7, 8
	ret	
	.cfi_endproc
.LFE2546:
	.size	_ZStmiRKSt18_Bit_iterator_baseS1_, .-_ZStmiRKSt18_Bit_iterator_baseS1_
	.section	.text._ZNSt13_Bit_iteratorC2Ev,"axG",@progbits,_ZNSt13_Bit_iteratorC5Ev,comdat
	.align 2
	.weak	_ZNSt13_Bit_iteratorC2Ev
	.type	_ZNSt13_Bit_iteratorC2Ev, @function
_ZNSt13_Bit_iteratorC2Ev:
.LFB2548:
	.cfi_startproc
	endbr64	
	push	rbp	#
	.cfi_def_cfa_offset 16
	.cfi_offset 6, -16
	mov	rbp, rsp	#,
	.cfi_def_cfa_register 6
	sub	rsp, 16	#,
	mov	QWORD PTR -8[rbp], rdi	# this, this
# /usr/include/c++/13/bits/stl_bvector.h:313:     _Bit_iterator() : _Bit_iterator_base(0, 0) { }
	mov	rax, QWORD PTR -8[rbp]	# _1, this
	mov	edx, 0	#,
	mov	esi, 0	#,
	mov	rdi, rax	#, _1
	call	_ZNSt18_Bit_iterator_baseC2EPmj	#
# /usr/include/c++/13/bits/stl_bvector.h:313:     _Bit_iterator() : _Bit_iterator_base(0, 0) { }
	nop	
	leave	
	.cfi_def_cfa 7, 8
	ret	
	.cfi_endproc
.LFE2548:
	.size	_ZNSt13_Bit_iteratorC2Ev, .-_ZNSt13_Bit_iteratorC2Ev
	.weak	_ZNSt13_Bit_iteratorC1Ev
	.set	_ZNSt13_Bit_iteratorC1Ev,_ZNSt13_Bit_iteratorC2Ev
	.section	.text._ZNSt13_Bit_iteratorC2EPmj,"axG",@progbits,_ZNSt13_Bit_iteratorC5EPmj,comdat
	.align 2
	.weak	_ZNSt13_Bit_iteratorC2EPmj
	.type	_ZNSt13_Bit_iteratorC2EPmj, @function
_ZNSt13_Bit_iteratorC2EPmj:
.LFB2551:
	.cfi_startproc
	endbr64	
	push	rbp	#
	.cfi_def_cfa_offset 16
	.cfi_offset 6, -16
	mov	rbp, rsp	#,
	.cfi_def_cfa_register 6
	sub	rsp, 32	#,
	mov	QWORD PTR -8[rbp], rdi	# this, this
	mov	QWORD PTR -16[rbp], rsi	# __x, __x
	mov	DWORD PTR -20[rbp], edx	# __y, __y
# /usr/include/c++/13/bits/stl_bvector.h:317:     : _Bit_iterator_base(__x, __y) { }
	mov	rax, QWORD PTR -8[rbp]	# _1, this
	mov	edx, DWORD PTR -20[rbp]	# tmp83, __y
	mov	rcx, QWORD PTR -16[rbp]	# tmp84, __x
	mov	rsi, rcx	#, tmp84
	mov	rdi, rax	#, _1
	call	_ZNSt18_Bit_iterator_baseC2EPmj	#
# /usr/include/c++/13/bits/stl_bvector.h:317:     : _Bit_iterator_base(__x, __y) { }
	nop	
	leave	
	.cfi_def_cfa 7, 8
	ret	
	.cfi_endproc
.LFE2551:
	.size	_ZNSt13_Bit_iteratorC2EPmj, .-_ZNSt13_Bit_iteratorC2EPmj
	.weak	_ZNSt13_Bit_iteratorC1EPmj
	.set	_ZNSt13_Bit_iteratorC1EPmj,_ZNSt13_Bit_iteratorC2EPmj
	.section	.text._ZNKSt13_Bit_iteratordeEv,"axG",@progbits,_ZNKSt13_Bit_iteratordeEv,comdat
	.align 2
	.weak	_ZNKSt13_Bit_iteratordeEv
	.type	_ZNKSt13_Bit_iteratordeEv, @function
_ZNKSt13_Bit_iteratordeEv:
.LFB2554:
	.cfi_startproc
	endbr64	
	push	rbp	#
	.cfi_def_cfa_offset 16
	.cfi_offset 6, -16
	mov	rbp, rsp	#,
	.cfi_def_cfa_register 6
	sub	rsp, 64	#,
	mov	QWORD PTR -56[rbp], rdi	# this, this
# /usr/include/c++/13/bits/stl_bvector.h:326:     operator*() const
	mov	rax, QWORD PTR fs:40	# tmp95, MEM[(<address-space-1> long unsigned int *)40B]
	mov	QWORD PTR -8[rbp], rax	# D.230922, tmp95
	xor	eax, eax	# tmp95
# /usr/include/c++/13/bits/stl_bvector.h:328:       _M_assume_normalized();
	mov	rax, QWORD PTR -56[rbp]	# _1, this
	mov	QWORD PTR -40[rbp], rax	# this, _1
# /usr/include/c++/13/bits/stl_bvector.h:189:       unsigned int __ofst = _M_offset;
	mov	rax, QWORD PTR -40[rbp]	# tmp88, this
	mov	eax, DWORD PTR 8[rax]	# tmp89, this_10->_M_offset
	mov	DWORD PTR -44[rbp], eax	# __ofst, tmp89
# /usr/include/c++/13/bits/stl_bvector.h:190:       __attribute__ ((__assume__ (__ofst < unsigned(_S_word_bit))));
	cmp	DWORD PTR -44[rbp], 63	# __ofst,
# /usr/include/c++/13/bits/stl_bvector.h:192:     }
	nop	
# /usr/include/c++/13/bits/stl_bvector.h:329:       return reference(_M_p, 1UL << _M_offset);
	mov	rax, QWORD PTR -56[rbp]	# tmp90, this
	mov	eax, DWORD PTR 8[rax]	# _2, this_5(D)->D.58751._M_offset
# /usr/include/c++/13/bits/stl_bvector.h:329:       return reference(_M_p, 1UL << _M_offset);
	mov	edx, 1	# tmp91,
	mov	ecx, eax	# tmp98, _2
	sal	rdx, cl	# _3, tmp98
# /usr/include/c++/13/bits/stl_bvector.h:329:       return reference(_M_p, 1UL << _M_offset);
	mov	rax, QWORD PTR -56[rbp]	# tmp92, this
	mov	rcx, QWORD PTR [rax]	# _4, this_5(D)->D.58751._M_p
# /usr/include/c++/13/bits/stl_bvector.h:329:       return reference(_M_p, 1UL << _M_offset);
	lea	rax, -32[rbp]	# tmp93,
	mov	rsi, rcx	#, _4
	mov	rdi, rax	#, tmp93
	call	_ZNSt14_Bit_referenceC1EPmm	#
# /usr/include/c++/13/bits/stl_bvector.h:329:       return reference(_M_p, 1UL << _M_offset);
	mov	rax, QWORD PTR -32[rbp]	# D.229961, D.58815
	mov	rdx, QWORD PTR -24[rbp]	# D.229961, D.58815
# /usr/include/c++/13/bits/stl_bvector.h:330:     }
	mov	rcx, QWORD PTR -8[rbp]	# tmp96, D.230922
	sub	rcx, QWORD PTR fs:40	# tmp96, MEM[(<address-space-1> long unsigned int *)40B]
	je	.L37	#,
	call	__stack_chk_fail@PLT	#
.L37:
	leave	
	.cfi_def_cfa 7, 8
	ret	
	.cfi_endproc
.LFE2554:
	.size	_ZNKSt13_Bit_iteratordeEv, .-_ZNKSt13_Bit_iteratordeEv
	.section	.text._ZNSt13_Bit_iteratorppEv,"axG",@progbits,_ZNSt13_Bit_iteratorppEv,comdat
	.align 2
	.weak	_ZNSt13_Bit_iteratorppEv
	.type	_ZNSt13_Bit_iteratorppEv, @function
_ZNSt13_Bit_iteratorppEv:
.LFB2555:
	.cfi_startproc
	endbr64	
	push	rbp	#
	.cfi_def_cfa_offset 16
	.cfi_offset 6, -16
	mov	rbp, rsp	#,
	.cfi_def_cfa_register 6
	sub	rsp, 16	#,
	mov	QWORD PTR -8[rbp], rdi	# this, this
# /usr/include/c++/13/bits/stl_bvector.h:336:       _M_bump_up();
	mov	rax, QWORD PTR -8[rbp]	# _1, this
	mov	rdi, rax	#, _1
	call	_ZNSt18_Bit_iterator_base10_M_bump_upEv	#
# /usr/include/c++/13/bits/stl_bvector.h:337:       return *this;
	mov	rax, QWORD PTR -8[rbp]	# _5, this
# /usr/include/c++/13/bits/stl_bvector.h:338:     }
	leave	
	.cfi_def_cfa 7, 8
	ret	
	.cfi_endproc
.LFE2555:
	.size	_ZNSt13_Bit_iteratorppEv, .-_ZNSt13_Bit_iteratorppEv
	.section	.text._ZNSt13_Bit_iteratorpLEl,"axG",@progbits,_ZNSt13_Bit_iteratorpLEl,comdat
	.align 2
	.weak	_ZNSt13_Bit_iteratorpLEl
	.type	_ZNSt13_Bit_iteratorpLEl, @function
_ZNSt13_Bit_iteratorpLEl:
.LFB2559:
	.cfi_startproc
	endbr64	
	push	rbp	#
	.cfi_def_cfa_offset 16
	.cfi_offset 6, -16
	mov	rbp, rsp	#,
	.cfi_def_cfa_register 6
	sub	rsp, 16	#,
	mov	QWORD PTR -8[rbp], rdi	# this, this
	mov	QWORD PTR -16[rbp], rsi	# __i, __i
# /usr/include/c++/13/bits/stl_bvector.h:370:       _M_incr(__i);
	mov	rax, QWORD PTR -8[rbp]	# _1, this
	mov	rdx, QWORD PTR -16[rbp]	# tmp85, __i
	mov	rsi, rdx	#, tmp85
	mov	rdi, rax	#, _1
	call	_ZNSt18_Bit_iterator_base7_M_incrEl	#
# /usr/include/c++/13/bits/stl_bvector.h:371:       return *this;
	mov	rax, QWORD PTR -8[rbp]	# _6, this
# /usr/include/c++/13/bits/stl_bvector.h:372:     }
	leave	
	.cfi_def_cfa 7, 8
	ret	
	.cfi_endproc
.LFE2559:
	.size	_ZNSt13_Bit_iteratorpLEl, .-_ZNSt13_Bit_iteratorpLEl
	.section	.text._ZNKSt13_Bit_iteratorixEl,"axG",@progbits,_ZNKSt13_Bit_iteratorixEl,comdat
	.align 2
	.weak	_ZNKSt13_Bit_iteratorixEl
	.type	_ZNKSt13_Bit_iteratorixEl, @function
_ZNKSt13_Bit_iteratorixEl:
.LFB2561:
	.cfi_startproc
	endbr64	
	push	rbp	#
	.cfi_def_cfa_offset 16
	.cfi_offset 6, -16
	mov	rbp, rsp	#,
	.cfi_def_cfa_register 6
	sub	rsp, 48	#,
	mov	QWORD PTR -40[rbp], rdi	# this, this
	mov	QWORD PTR -48[rbp], rsi	# __i, __i
# /usr/include/c++/13/bits/stl_bvector.h:384:     operator[](difference_type __i) const
	mov	rax, QWORD PTR fs:40	# tmp89, MEM[(<address-space-1> long unsigned int *)40B]
	mov	QWORD PTR -8[rbp], rax	# D.230924, tmp89
	xor	eax, eax	# tmp89
# /usr/include/c++/13/bits/stl_bvector.h:385:     { return *(*this + __i); }
	mov	rdx, QWORD PTR -48[rbp]	# tmp84, __i
	mov	rax, QWORD PTR -40[rbp]	# tmp85, this
	mov	rsi, rdx	#, tmp84
	mov	rdi, rax	#, tmp85
	call	_ZStplRKSt13_Bit_iteratorl	#
	mov	QWORD PTR -32[rbp], rax	# D.58831, tmp86
	mov	QWORD PTR -24[rbp], rdx	# D.58831,
# /usr/include/c++/13/bits/stl_bvector.h:385:     { return *(*this + __i); }
	lea	rax, -32[rbp]	# tmp87,
	mov	rdi, rax	#, tmp87
	call	_ZNKSt13_Bit_iteratordeEv	#
# /usr/include/c++/13/bits/stl_bvector.h:385:     { return *(*this + __i); }
	mov	rcx, QWORD PTR -8[rbp]	# tmp90, D.230924
	sub	rcx, QWORD PTR fs:40	# tmp90, MEM[(<address-space-1> long unsigned int *)40B]
	je	.L45	#,
	call	__stack_chk_fail@PLT	#
.L45:
	leave	
	.cfi_def_cfa 7, 8
	ret	
	.cfi_endproc
.LFE2561:
	.size	_ZNKSt13_Bit_iteratorixEl, .-_ZNKSt13_Bit_iteratorixEl
	.section	.text._ZStplRKSt13_Bit_iteratorl,"axG",@progbits,_ZStplRKSt13_Bit_iteratorl,comdat
	.weak	_ZStplRKSt13_Bit_iteratorl
	.type	_ZStplRKSt13_Bit_iteratorl, @function
_ZStplRKSt13_Bit_iteratorl:
.LFB2562:
	.cfi_startproc
	endbr64	
	push	rbp	#
	.cfi_def_cfa_offset 16
	.cfi_offset 6, -16
	mov	rbp, rsp	#,
	.cfi_def_cfa_register 6
	sub	rsp, 80	#,
	mov	QWORD PTR -56[rbp], rdi	# __x, __x
	mov	QWORD PTR -64[rbp], rsi	# __n, __n
# /usr/include/c++/13/bits/stl_bvector.h:389:     operator+(const iterator& __x, difference_type __n)
	mov	rax, QWORD PTR fs:40	# tmp89, MEM[(<address-space-1> long unsigned int *)40B]
	mov	QWORD PTR -8[rbp], rax	# D.230925, tmp89
	xor	eax, eax	# tmp89
# /usr/include/c++/13/bits/stl_bvector.h:391:       iterator __tmp = __x;
	mov	rax, QWORD PTR -56[rbp]	# tmp83, __x
	mov	rdx, QWORD PTR 8[rax]	#, MEM[(const struct _Bit_iterator &)__x_2(D)]
	mov	rax, QWORD PTR [rax]	# tmp84, MEM[(const struct _Bit_iterator &)__x_2(D)]
	mov	QWORD PTR -48[rbp], rax	# __tmp, tmp84
	mov	QWORD PTR -40[rbp], rdx	# __tmp,
# /usr/include/c++/13/bits/stl_bvector.h:392:       __tmp += __n;
	mov	rdx, QWORD PTR -64[rbp]	# tmp85, __n
	lea	rax, -48[rbp]	# tmp86,
	mov	rsi, rdx	#, tmp85
	mov	rdi, rax	#, tmp86
	call	_ZNSt13_Bit_iteratorpLEl	#
# /usr/include/c++/13/bits/stl_bvector.h:393:       return __tmp;
	mov	rax, QWORD PTR -48[rbp]	# tmp87, __tmp
	mov	rdx, QWORD PTR -40[rbp]	#, __tmp
	mov	QWORD PTR -32[rbp], rax	# D.229950, tmp87
	mov	QWORD PTR -24[rbp], rdx	# D.229950,
	mov	rax, QWORD PTR -32[rbp]	# tmp88, D.229950
	mov	rdx, QWORD PTR -24[rbp]	#, D.229950
# /usr/include/c++/13/bits/stl_bvector.h:394:     }
	mov	rcx, QWORD PTR -8[rbp]	# tmp90, D.230925
	sub	rcx, QWORD PTR fs:40	# tmp90, MEM[(<address-space-1> long unsigned int *)40B]
	je	.L48	#,
	call	__stack_chk_fail@PLT	#
.L48:
	leave	
	.cfi_def_cfa 7, 8
	ret	
	.cfi_endproc
.LFE2562:
	.size	_ZStplRKSt13_Bit_iteratorl, .-_ZStplRKSt13_Bit_iteratorl
	.section	.text._ZNSt19_Bit_const_iteratorC2EPmj,"axG",@progbits,_ZNSt19_Bit_const_iteratorC5EPmj,comdat
	.align 2
	.weak	_ZNSt19_Bit_const_iteratorC2EPmj
	.type	_ZNSt19_Bit_const_iteratorC2EPmj, @function
_ZNSt19_Bit_const_iteratorC2EPmj:
.LFB2569:
	.cfi_startproc
	endbr64	
	push	rbp	#
	.cfi_def_cfa_offset 16
	.cfi_offset 6, -16
	mov	rbp, rsp	#,
	.cfi_def_cfa_register 6
	sub	rsp, 32	#,
	mov	QWORD PTR -8[rbp], rdi	# this, this
	mov	QWORD PTR -16[rbp], rsi	# __x, __x
	mov	DWORD PTR -20[rbp], edx	# __y, __y
# /usr/include/c++/13/bits/stl_bvector.h:427:     : _Bit_iterator_base(__x, __y) { }
	mov	rax, QWORD PTR -8[rbp]	# _1, this
	mov	edx, DWORD PTR -20[rbp]	# tmp83, __y
	mov	rcx, QWORD PTR -16[rbp]	# tmp84, __x
	mov	rsi, rcx	#, tmp84
	mov	rdi, rax	#, _1
	call	_ZNSt18_Bit_iterator_baseC2EPmj	#
# /usr/include/c++/13/bits/stl_bvector.h:427:     : _Bit_iterator_base(__x, __y) { }
	nop	
	leave	
	.cfi_def_cfa 7, 8
	ret	
	.cfi_endproc
.LFE2569:
	.size	_ZNSt19_Bit_const_iteratorC2EPmj, .-_ZNSt19_Bit_const_iteratorC2EPmj
	.weak	_ZNSt19_Bit_const_iteratorC1EPmj
	.set	_ZNSt19_Bit_const_iteratorC1EPmj,_ZNSt19_Bit_const_iteratorC2EPmj
	.section	.text._ZNSt19_Bit_const_iteratorC2ERKSt13_Bit_iterator,"axG",@progbits,_ZNSt19_Bit_const_iteratorC5ERKSt13_Bit_iterator,comdat
	.align 2
	.weak	_ZNSt19_Bit_const_iteratorC2ERKSt13_Bit_iterator
	.type	_ZNSt19_Bit_const_iteratorC2ERKSt13_Bit_iterator, @function
_ZNSt19_Bit_const_iteratorC2ERKSt13_Bit_iterator:
.LFB2572:
	.cfi_startproc
	endbr64	
	push	rbp	#
	.cfi_def_cfa_offset 16
	.cfi_offset 6, -16
	mov	rbp, rsp	#,
	.cfi_def_cfa_register 6
	sub	rsp, 16	#,
	mov	QWORD PTR -8[rbp], rdi	# this, this
	mov	QWORD PTR -16[rbp], rsi	# __x, __x
# /usr/include/c++/13/bits/stl_bvector.h:431:     : _Bit_iterator_base(__x._M_p, __x._M_offset) { }
	mov	rax, QWORD PTR -8[rbp]	# _1, this
# /usr/include/c++/13/bits/stl_bvector.h:431:     : _Bit_iterator_base(__x._M_p, __x._M_offset) { }
	mov	rdx, QWORD PTR -16[rbp]	# tmp85, __x
	mov	edx, DWORD PTR 8[rdx]	# _2, __x_7(D)->D.58751._M_offset
# /usr/include/c++/13/bits/stl_bvector.h:431:     : _Bit_iterator_base(__x._M_p, __x._M_offset) { }
	mov	rcx, QWORD PTR -16[rbp]	# tmp86, __x
	mov	rcx, QWORD PTR [rcx]	# _3, __x_7(D)->D.58751._M_p
# /usr/include/c++/13/bits/stl_bvector.h:431:     : _Bit_iterator_base(__x._M_p, __x._M_offset) { }
	mov	rsi, rcx	#, _3
	mov	rdi, rax	#, _1
	call	_ZNSt18_Bit_iterator_baseC2EPmj	#
# /usr/include/c++/13/bits/stl_bvector.h:431:     : _Bit_iterator_base(__x._M_p, __x._M_offset) { }
	nop	
	leave	
	.cfi_def_cfa 7, 8
	ret	
	.cfi_endproc
.LFE2572:
	.size	_ZNSt19_Bit_const_iteratorC2ERKSt13_Bit_iterator, .-_ZNSt19_Bit_const_iteratorC2ERKSt13_Bit_iterator
	.weak	_ZNSt19_Bit_const_iteratorC1ERKSt13_Bit_iterator
	.set	_ZNSt19_Bit_const_iteratorC1ERKSt13_Bit_iterator,_ZNSt19_Bit_const_iteratorC2ERKSt13_Bit_iterator
	.section	.text._ZNKSt19_Bit_const_iteratordeEv,"axG",@progbits,_ZNKSt19_Bit_const_iteratordeEv,comdat
	.align 2
	.weak	_ZNKSt19_Bit_const_iteratordeEv
	.type	_ZNKSt19_Bit_const_iteratordeEv, @function
_ZNKSt19_Bit_const_iteratordeEv:
.LFB2575:
	.cfi_startproc
	endbr64	
	push	rbp	#
	.cfi_def_cfa_offset 16
	.cfi_offset 6, -16
	mov	rbp, rsp	#,
	.cfi_def_cfa_register 6
	sub	rsp, 64	#,
	mov	QWORD PTR -56[rbp], rdi	# this, this
# /usr/include/c++/13/bits/stl_bvector.h:440:     operator*() const
	mov	rax, QWORD PTR fs:40	# tmp96, MEM[(<address-space-1> long unsigned int *)40B]
	mov	QWORD PTR -8[rbp], rax	# D.230926, tmp96
	xor	eax, eax	# tmp96
# /usr/include/c++/13/bits/stl_bvector.h:442:       _M_assume_normalized();
	mov	rax, QWORD PTR -56[rbp]	# _1, this
	mov	QWORD PTR -40[rbp], rax	# this, _1
# /usr/include/c++/13/bits/stl_bvector.h:189:       unsigned int __ofst = _M_offset;
	mov	rax, QWORD PTR -40[rbp]	# tmp88, this
	mov	eax, DWORD PTR 8[rax]	# tmp89, this_11->_M_offset
	mov	DWORD PTR -44[rbp], eax	# __ofst, tmp89
# /usr/include/c++/13/bits/stl_bvector.h:190:       __attribute__ ((__assume__ (__ofst < unsigned(_S_word_bit))));
	cmp	DWORD PTR -44[rbp], 63	# __ofst,
# /usr/include/c++/13/bits/stl_bvector.h:192:     }
	nop	
# /usr/include/c++/13/bits/stl_bvector.h:443:       return _Bit_reference(_M_p, 1UL << _M_offset);
	mov	rax, QWORD PTR -56[rbp]	# tmp90, this
	mov	eax, DWORD PTR 8[rax]	# _2, this_5(D)->D.58929._M_offset
# /usr/include/c++/13/bits/stl_bvector.h:443:       return _Bit_reference(_M_p, 1UL << _M_offset);
	mov	edx, 1	# tmp91,
	mov	ecx, eax	# tmp99, _2
	sal	rdx, cl	# _3, tmp99
# /usr/include/c++/13/bits/stl_bvector.h:443:       return _Bit_reference(_M_p, 1UL << _M_offset);
	mov	rax, QWORD PTR -56[rbp]	# tmp92, this
	mov	rcx, QWORD PTR [rax]	# _4, this_5(D)->D.58929._M_p
# /usr/include/c++/13/bits/stl_bvector.h:443:       return _Bit_reference(_M_p, 1UL << _M_offset);
	lea	rax, -32[rbp]	# tmp93,
	mov	rsi, rcx	#, _4
	mov	rdi, rax	#, tmp93
	call	_ZNSt14_Bit_referenceC1EPmm	#
# /usr/include/c++/13/bits/stl_bvector.h:443:       return _Bit_reference(_M_p, 1UL << _M_offset);
	lea	rax, -32[rbp]	# tmp94,
	mov	rdi, rax	#, tmp94
	call	_ZNKSt14_Bit_referencecvbEv	#
# /usr/include/c++/13/bits/stl_bvector.h:444:     }
	mov	rdx, QWORD PTR -8[rbp]	# tmp97, D.230926
	sub	rdx, QWORD PTR fs:40	# tmp97, MEM[(<address-space-1> long unsigned int *)40B]
	je	.L54	#,
	call	__stack_chk_fail@PLT	#
.L54:
	leave	
	.cfi_def_cfa 7, 8
	ret	
	.cfi_endproc
.LFE2575:
	.size	_ZNKSt19_Bit_const_iteratordeEv, .-_ZNKSt19_Bit_const_iteratordeEv
	.section	.text._ZNSt19_Bit_const_iteratorppEv,"axG",@progbits,_ZNSt19_Bit_const_iteratorppEv,comdat
	.align 2
	.weak	_ZNSt19_Bit_const_iteratorppEv
	.type	_ZNSt19_Bit_const_iteratorppEv, @function
_ZNSt19_Bit_const_iteratorppEv:
.LFB2576:
	.cfi_startproc
	endbr64	
	push	rbp	#
	.cfi_def_cfa_offset 16
	.cfi_offset 6, -16
	mov	rbp, rsp	#,
	.cfi_def_cfa_register 6
	sub	rsp, 16	#,
	mov	QWORD PTR -8[rbp], rdi	# this, this
# /usr/include/c++/13/bits/stl_bvector.h:450:       _M_bump_up();
	mov	rax, QWORD PTR -8[rbp]	# _1, this
	mov	rdi, rax	#, _1
	call	_ZNSt18_Bit_iterator_base10_M_bump_upEv	#
# /usr/include/c++/13/bits/stl_bvector.h:451:       return *this;
	mov	rax, QWORD PTR -8[rbp]	# _5, this
# /usr/include/c++/13/bits/stl_bvector.h:452:     }
	leave	
	.cfi_def_cfa 7, 8
	ret	
	.cfi_endproc
.LFE2576:
	.size	_ZNSt19_Bit_const_iteratorppEv, .-_ZNSt19_Bit_const_iteratorppEv
	.section	.text._ZSt16__fill_bvector_nPmmb,"axG",@progbits,_ZSt16__fill_bvector_nPmmb,comdat
	.weak	_ZSt16__fill_bvector_nPmmb
	.type	_ZSt16__fill_bvector_nPmmb, @function
_ZSt16__fill_bvector_nPmmb:
.LFB2679:
	.cfi_startproc
	endbr64	
	push	rbp	#
	.cfi_def_cfa_offset 16
	.cfi_offset 6, -16
	mov	rbp, rsp	#,
	.cfi_def_cfa_register 6
	sub	rsp, 32	#,
	mov	QWORD PTR -8[rbp], rdi	# __p, __p
	mov	QWORD PTR -16[rbp], rsi	# __n, __n
	mov	eax, edx	# tmp84, __x
	mov	BYTE PTR -20[rbp], al	# __x, tmp85
# /usr/include/c++/13/bits/stl_bvector.h:1597:     __builtin_memset(__p, __x ? ~0 : 0, __n * sizeof(_Bit_type));
	mov	rax, QWORD PTR -16[rbp]	# tmp86, __n
	lea	rdx, 0[0+rax*8]	# _1,
	cmp	BYTE PTR -20[rbp], 0	# __x,
	je	.L59	#,
# /usr/include/c++/13/bits/stl_bvector.h:1597:     __builtin_memset(__p, __x ? ~0 : 0, __n * sizeof(_Bit_type));
	mov	ecx, -1	# iftmp.32_2,
	jmp	.L60	#
.L59:
# /usr/include/c++/13/bits/stl_bvector.h:1597:     __builtin_memset(__p, __x ? ~0 : 0, __n * sizeof(_Bit_type));
	mov	ecx, 0	# iftmp.32_2,
.L60:
# /usr/include/c++/13/bits/stl_bvector.h:1597:     __builtin_memset(__p, __x ? ~0 : 0, __n * sizeof(_Bit_type));
	mov	rax, QWORD PTR -8[rbp]	# tmp88, __p
	mov	esi, ecx	#, iftmp.32_2
	mov	rdi, rax	#, tmp88
	call	memset@PLT	#
# /usr/include/c++/13/bits/stl_bvector.h:1598:   }
	nop	
	leave	
	.cfi_def_cfa 7, 8
	ret	
	.cfi_endproc
.LFE2679:
	.size	_ZSt16__fill_bvector_nPmmb, .-_ZSt16__fill_bvector_nPmmb
#APP
	.globl _ZSt21ios_base_library_initv
#NO_APP
	.globl	n
	.bss
	.align 4
	.type	n, @object
	.size	n, 4
n:
	.zero	4
	.globl	m
	.align 4
	.type	m, @object
	.size	m, 4
m:
	.zero	4
	.globl	sum
	.align 8
	.type	sum, @object
	.size	sum, 8
sum:
	.zero	8
	.text
	.globl	_Z9floodfillRSt6vectorIS_IiSaIiEESaIS1_EERS_IS_IbSaIbEESaIS6_EEii
	.type	_Z9floodfillRSt6vectorIS_IiSaIiEESaIS1_EERS_IS_IbSaIbEESaIS6_EEii, @function
_Z9floodfillRSt6vectorIS_IiSaIiEESaIS1_EERS_IS_IbSaIbEESaIS6_EEii:
.LFB9770:
	.cfi_startproc
	endbr64	
	push	rbp	#
	.cfi_def_cfa_offset 16
	.cfi_offset 6, -16
	mov	rbp, rsp	#,
	.cfi_def_cfa_register 6
	sub	rsp, 64	#,
	mov	QWORD PTR -40[rbp], rdi	# vec, vec
	mov	QWORD PTR -48[rbp], rsi	# visited, visited
	mov	DWORD PTR -52[rbp], edx	# i, i
	mov	DWORD PTR -56[rbp], ecx	# j, j
# Flood_fill.cpp:9: 	       int j) {
	mov	rax, QWORD PTR fs:40	# tmp143, MEM[(<address-space-1> long unsigned int *)40B]
	mov	QWORD PTR -8[rbp], rax	# D.230928, tmp143
	xor	eax, eax	# tmp143
# Flood_fill.cpp:10:     if ((i < 0 || i >= n || j < 0 || j >= m) || vec[i][j] == 0 ||
	cmp	DWORD PTR -52[rbp], 0	# i,
	js	.L62	#,
# Flood_fill.cpp:10:     if ((i < 0 || i >= n || j < 0 || j >= m) || vec[i][j] == 0 ||
	mov	eax, DWORD PTR n[rip]	# n.2_1, n
# Flood_fill.cpp:10:     if ((i < 0 || i >= n || j < 0 || j >= m) || vec[i][j] == 0 ||
	cmp	DWORD PTR -52[rbp], eax	# i, n.2_1
	jge	.L62	#,
# Flood_fill.cpp:10:     if ((i < 0 || i >= n || j < 0 || j >= m) || vec[i][j] == 0 ||
	cmp	DWORD PTR -56[rbp], 0	# j,
	js	.L62	#,
# Flood_fill.cpp:10:     if ((i < 0 || i >= n || j < 0 || j >= m) || vec[i][j] == 0 ||
	mov	eax, DWORD PTR m[rip]	# m.3_2, m
# Flood_fill.cpp:10:     if ((i < 0 || i >= n || j < 0 || j >= m) || vec[i][j] == 0 ||
	cmp	DWORD PTR -56[rbp], eax	# j, m.3_2
	jge	.L62	#,
# Flood_fill.cpp:10:     if ((i < 0 || i >= n || j < 0 || j >= m) || vec[i][j] == 0 ||
	mov	eax, DWORD PTR -52[rbp]	# tmp109, i
	movsx	rdx, eax	# _3, tmp109
	mov	rax, QWORD PTR -40[rbp]	# tmp110, vec
	mov	rsi, rdx	#, _3
	mov	rdi, rax	#, tmp110
	call	_ZNSt6vectorIS_IiSaIiEESaIS1_EEixEm	#
	mov	rdx, rax	# _4,
# Flood_fill.cpp:10:     if ((i < 0 || i >= n || j < 0 || j >= m) || vec[i][j] == 0 ||
	mov	eax, DWORD PTR -56[rbp]	# tmp111, j
	cdqe
	mov	rsi, rax	#, _5
	mov	rdi, rdx	#, _4
	call	_ZNSt6vectorIiSaIiEEixEm	#
# Flood_fill.cpp:10:     if ((i < 0 || i >= n || j < 0 || j >= m) || vec[i][j] == 0 ||
	mov	eax, DWORD PTR [rax]	# _7, *_6
# Flood_fill.cpp:10:     if ((i < 0 || i >= n || j < 0 || j >= m) || vec[i][j] == 0 ||
	test	eax, eax	# _7
	je	.L62	#,
# Flood_fill.cpp:11: 	visited[i][j]) {
	mov	eax, DWORD PTR -52[rbp]	# tmp112, i
	movsx	rdx, eax	# _8, tmp112
	mov	rax, QWORD PTR -48[rbp]	# tmp113, visited
	mov	rsi, rdx	#, _8
	mov	rdi, rax	#, tmp113
	call	_ZNSt6vectorIS_IbSaIbEESaIS1_EEixEm	#
	mov	rdx, rax	# _9,
# Flood_fill.cpp:11: 	visited[i][j]) {
	mov	eax, DWORD PTR -56[rbp]	# tmp114, j
	cdqe
	mov	rsi, rax	#, _10
	mov	rdi, rdx	#, _9
	call	_ZNSt6vectorIbSaIbEEixEm	#
	mov	QWORD PTR -32[rbp], rax	# MEM[(struct _Bit_reference *)_57], tmp116
	mov	QWORD PTR -24[rbp], rdx	# MEM[(struct _Bit_reference *)_57],
# Flood_fill.cpp:11: 	visited[i][j]) {
	lea	rax, -32[rbp]	# tmp117,
	mov	rdi, rax	#, tmp117
	call	_ZNKSt14_Bit_referencecvbEv	#
# Flood_fill.cpp:10:     if ((i < 0 || i >= n || j < 0 || j >= m) || vec[i][j] == 0 ||
	test	al, al	# _11
	je	.L63	#,
.L62:
# Flood_fill.cpp:10:     if ((i < 0 || i >= n || j < 0 || j >= m) || vec[i][j] == 0 ||
	mov	eax, 1	# iftmp.1_26,
# Flood_fill.cpp:10:     if ((i < 0 || i >= n || j < 0 || j >= m) || vec[i][j] == 0 ||
	jmp	.L64	#
.L63:
# Flood_fill.cpp:10:     if ((i < 0 || i >= n || j < 0 || j >= m) || vec[i][j] == 0 ||
	mov	eax, 0	# iftmp.1_26,
.L64:
# Flood_fill.cpp:10:     if ((i < 0 || i >= n || j < 0 || j >= m) || vec[i][j] == 0 ||
	test	al, al	# iftmp.1_26
	jne	.L68	#,
# Flood_fill.cpp:15:     visited[i][j] = true;
	mov	eax, DWORD PTR -52[rbp]	# tmp118, i
	movsx	rdx, eax	# _12, tmp118
	mov	rax, QWORD PTR -48[rbp]	# tmp119, visited
	mov	rsi, rdx	#, _12
	mov	rdi, rax	#, tmp119
	call	_ZNSt6vectorIS_IbSaIbEESaIS1_EEixEm	#
	mov	rdx, rax	# _13,
# Flood_fill.cpp:15:     visited[i][j] = true;
	mov	eax, DWORD PTR -56[rbp]	# tmp120, j
	cdqe
	mov	rsi, rax	#, _14
	mov	rdi, rdx	#, _13
	call	_ZNSt6vectorIbSaIbEEixEm	#
	mov	QWORD PTR -32[rbp], rax	# MEM[(struct _Bit_reference *)_57], tmp122
	mov	QWORD PTR -24[rbp], rdx	# MEM[(struct _Bit_reference *)_57],
# Flood_fill.cpp:15:     visited[i][j] = true;
	lea	rax, -32[rbp]	# tmp123,
	mov	esi, 1	#,
	mov	rdi, rax	#, tmp123
	call	_ZNSt14_Bit_referenceaSEb	#
# Flood_fill.cpp:16:     sum += vec[i][j];
	mov	eax, DWORD PTR -52[rbp]	# tmp124, i
	movsx	rdx, eax	# _15, tmp124
	mov	rax, QWORD PTR -40[rbp]	# tmp125, vec
	mov	rsi, rdx	#, _15
	mov	rdi, rax	#, tmp125
	call	_ZNSt6vectorIS_IiSaIiEESaIS1_EEixEm	#
	mov	rdx, rax	# _16,
# Flood_fill.cpp:16:     sum += vec[i][j];
	mov	eax, DWORD PTR -56[rbp]	# tmp126, j
	cdqe
	mov	rsi, rax	#, _17
	mov	rdi, rdx	#, _16
	call	_ZNSt6vectorIiSaIiEEixEm	#
# Flood_fill.cpp:16:     sum += vec[i][j];
	mov	eax, DWORD PTR [rax]	# _51, *_18
	movsx	rdx, eax	# _19, _51
	mov	rax, QWORD PTR sum[rip]	# sum.4_20, sum
	add	rax, rdx	# _21, _19
	mov	QWORD PTR sum[rip], rax	# sum, _21
# Flood_fill.cpp:17:     floodfill(vec, visited, i, j + 1);
	mov	eax, DWORD PTR -56[rbp]	# tmp127, j
	lea	ecx, 1[rax]	# _22,
	mov	edx, DWORD PTR -52[rbp]	# tmp128, i
	mov	rsi, QWORD PTR -48[rbp]	# tmp129, visited
	mov	rax, QWORD PTR -40[rbp]	# tmp130, vec
	mov	rdi, rax	#, tmp130
	call	_Z9floodfillRSt6vectorIS_IiSaIiEESaIS1_EERS_IS_IbSaIbEESaIS6_EEii	#
# Flood_fill.cpp:18:     floodfill(vec, visited, i, j - 1);
	mov	eax, DWORD PTR -56[rbp]	# tmp131, j
	lea	ecx, -1[rax]	# _23,
	mov	edx, DWORD PTR -52[rbp]	# tmp132, i
	mov	rsi, QWORD PTR -48[rbp]	# tmp133, visited
	mov	rax, QWORD PTR -40[rbp]	# tmp134, vec
	mov	rdi, rax	#, tmp134
	call	_Z9floodfillRSt6vectorIS_IiSaIiEESaIS1_EERS_IS_IbSaIbEESaIS6_EEii	#
# Flood_fill.cpp:19:     floodfill(vec, visited, i - 1, j);
	mov	eax, DWORD PTR -52[rbp]	# tmp135, i
	lea	edi, -1[rax]	# _24,
	mov	edx, DWORD PTR -56[rbp]	# tmp136, j
	mov	rsi, QWORD PTR -48[rbp]	# tmp137, visited
	mov	rax, QWORD PTR -40[rbp]	# tmp138, vec
	mov	ecx, edx	#, tmp136
	mov	edx, edi	#, _24
	mov	rdi, rax	#, tmp138
	call	_Z9floodfillRSt6vectorIS_IiSaIiEESaIS1_EERS_IS_IbSaIbEESaIS6_EEii	#
# Flood_fill.cpp:20:     floodfill(vec, visited, i + 1, j);
	mov	eax, DWORD PTR -52[rbp]	# tmp139, i
	lea	edi, 1[rax]	# _25,
	mov	edx, DWORD PTR -56[rbp]	# tmp140, j
	mov	rsi, QWORD PTR -48[rbp]	# tmp141, visited
	mov	rax, QWORD PTR -40[rbp]	# tmp142, vec
	mov	ecx, edx	#, tmp140
	mov	edx, edi	#, _25
	mov	rdi, rax	#, tmp142
	call	_Z9floodfillRSt6vectorIS_IiSaIiEESaIS1_EERS_IS_IbSaIbEESaIS6_EEii	#
	jmp	.L61	#
.L68:
# Flood_fill.cpp:12: 	return;
	nop	
.L61:
# Flood_fill.cpp:21: }
	mov	rax, QWORD PTR -8[rbp]	# tmp144, D.230928
	sub	rax, QWORD PTR fs:40	# tmp144, MEM[(<address-space-1> long unsigned int *)40B]
	je	.L67	#,
	call	__stack_chk_fail@PLT	#
.L67:
	leave	
	.cfi_def_cfa 7, 8
	ret	
	.cfi_endproc
.LFE9770:
	.size	_Z9floodfillRSt6vectorIS_IiSaIiEESaIS1_EERS_IS_IbSaIbEESaIS6_EEii, .-_Z9floodfillRSt6vectorIS_IiSaIiEESaIS1_EERS_IS_IbSaIbEESaIS6_EEii
	.section	.rodata
.LC0:
	.string	"\n"
	.text
	.globl	main
	.type	main, @function
main:
.LFB9771:
	.cfi_startproc
	.cfi_personality 0x9b,DW.ref.__gxx_personality_v0
	.cfi_lsda 0x1b,.LLSDA9771
	endbr64	
	push	rbp	#
	.cfi_def_cfa_offset 16
	.cfi_offset 6, -16
	mov	rbp, rsp	#,
	.cfi_def_cfa_register 6
	push	rbx	#
	sub	rsp, 184	#,
	.cfi_offset 3, -24
# Flood_fill.cpp:23: int main() {
	mov	rax, QWORD PTR fs:40	# tmp188, MEM[(<address-space-1> long unsigned int *)40B]
	mov	QWORD PTR -24[rbp], rax	# D.230932, tmp188
	xor	eax, eax	# tmp188
# Flood_fill.cpp:24:     std::ios::sync_with_stdio(false);
	mov	edi, 0	#,
.LEHB0:
	call	_ZNSt8ios_base15sync_with_stdioEb@PLT	#
# Flood_fill.cpp:25:     std::cin.tie(0);
	mov	esi, 0	#,
	lea	rax, _ZSt3cin[rip+16]	# tmp116,
	mov	rdi, rax	#, tmp116
	call	_ZNSt9basic_iosIcSt11char_traitsIcEE3tieEPSo@PLT	#
# Flood_fill.cpp:28:     std::cin >> T;
	lea	rax, -188[rbp]	# tmp117,
	mov	rsi, rax	#, tmp117
	lea	rax, _ZSt3cin[rip]	# tmp118,
	mov	rdi, rax	#, tmp118
	call	_ZNSirsERi@PLT	#
# Flood_fill.cpp:29:     while (T--) {
	jmp	.L70	#
.L80:
# Flood_fill.cpp:30: 	cin >> n >> m;
	lea	rax, n[rip]	# tmp119,
	mov	rsi, rax	#, tmp119
	lea	rax, _ZSt3cin[rip]	# tmp120,
	mov	rdi, rax	#, tmp120
	call	_ZNSirsERi@PLT	#
	mov	rdx, rax	# _1,
# Flood_fill.cpp:30: 	cin >> n >> m;
	lea	rax, m[rip]	# tmp121,
	mov	rsi, rax	#, tmp121
	mov	rdi, rdx	#, _1
	call	_ZNSirsERi@PLT	#
.LEHE0:
	lea	rax, -96[rbp]	# tmp122,
	mov	QWORD PTR -152[rbp], rax	# this, tmp122
# /usr/include/c++/13/bits/new_allocator.h:88:       __new_allocator() _GLIBCXX_USE_NOEXCEPT { }
	nop	
# /usr/include/c++/13/bits/allocator.h:163:       allocator() _GLIBCXX_NOTHROW { }
	nop	
	lea	rax, -168[rbp]	# tmp123,
	mov	QWORD PTR -160[rbp], rax	# this, tmp123
# /usr/include/c++/13/bits/new_allocator.h:88:       __new_allocator() _GLIBCXX_USE_NOEXCEPT { }
	nop	
# /usr/include/c++/13/bits/allocator.h:163:       allocator() _GLIBCXX_NOTHROW { }
	nop	
# Flood_fill.cpp:31: 	vector<vector<int>> vec(n, vector<int>(m));
	mov	eax, DWORD PTR m[rip]	# m.6_2, m
	movsx	rcx, eax	# _3, m.6_2
	lea	rdx, -168[rbp]	# tmp124,
	lea	rax, -64[rbp]	# tmp125,
	mov	rsi, rcx	#, _3
	mov	rdi, rax	#, tmp125
.LEHB1:
	call	_ZNSt6vectorIiSaIiEEC1EmRKS0_	#
.LEHE1:
# Flood_fill.cpp:31: 	vector<vector<int>> vec(n, vector<int>(m));
	mov	eax, DWORD PTR n[rip]	# n.7_4, n
	movsx	rsi, eax	# _5, n.7_4
	lea	rcx, -96[rbp]	# tmp126,
	lea	rdx, -64[rbp]	# tmp127,
	lea	rax, -128[rbp]	# tmp128,
	mov	rdi, rax	#, tmp128
.LEHB2:
	call	_ZNSt6vectorIS_IiSaIiEESaIS1_EEC1EmRKS1_RKS2_	#
.LEHE2:
# Flood_fill.cpp:31: 	vector<vector<int>> vec(n, vector<int>(m));
	lea	rax, -64[rbp]	# tmp129,
	mov	rdi, rax	#, tmp129
	call	_ZNSt6vectorIiSaIiEED1Ev	#
# /usr/include/c++/13/bits/allocator.h:184:       ~allocator() _GLIBCXX_NOTHROW { }
	lea	rax, -168[rbp]	# tmp130,
	mov	rdi, rax	#, tmp130
	call	_ZNSt15__new_allocatorIiED2Ev	#
	nop	
	lea	rax, -96[rbp]	# tmp131,
	mov	rdi, rax	#, tmp131
	call	_ZNSt15__new_allocatorISt6vectorIiSaIiEEED2Ev	#
	nop	
	lea	rax, -168[rbp]	# tmp132,
	mov	QWORD PTR -136[rbp], rax	# this, tmp132
# /usr/include/c++/13/bits/new_allocator.h:88:       __new_allocator() _GLIBCXX_USE_NOEXCEPT { }
	nop	
# /usr/include/c++/13/bits/allocator.h:163:       allocator() _GLIBCXX_NOTHROW { }
	nop	
	lea	rax, -189[rbp]	# tmp133,
	mov	QWORD PTR -144[rbp], rax	# this, tmp133
# /usr/include/c++/13/bits/new_allocator.h:88:       __new_allocator() _GLIBCXX_USE_NOEXCEPT { }
	nop	
# /usr/include/c++/13/bits/allocator.h:163:       allocator() _GLIBCXX_NOTHROW { }
	nop	
# Flood_fill.cpp:32: 	vector<vector<bool>> visited(n, vector<bool>(m));
	mov	eax, DWORD PTR m[rip]	# m.8_6, m
	movsx	rcx, eax	# _7, m.8_6
	lea	rdx, -189[rbp]	# tmp134,
	lea	rax, -64[rbp]	# tmp135,
	mov	rsi, rcx	#, _7
	mov	rdi, rax	#, tmp135
.LEHB3:
	call	_ZNSt6vectorIbSaIbEEC1EmRKS0_	#
.LEHE3:
# Flood_fill.cpp:32: 	vector<vector<bool>> visited(n, vector<bool>(m));
	mov	eax, DWORD PTR n[rip]	# n.9_8, n
	movsx	rsi, eax	# _9, n.9_8
	lea	rcx, -168[rbp]	# tmp136,
	lea	rdx, -64[rbp]	# tmp137,
	lea	rax, -96[rbp]	# tmp138,
	mov	rdi, rax	#, tmp138
.LEHB4:
	call	_ZNSt6vectorIS_IbSaIbEESaIS1_EEC1EmRKS1_RKS2_	#
.LEHE4:
# Flood_fill.cpp:32: 	vector<vector<bool>> visited(n, vector<bool>(m));
	lea	rax, -64[rbp]	# tmp139,
	mov	rdi, rax	#, tmp139
	call	_ZNSt6vectorIbSaIbEED1Ev	#
# /usr/include/c++/13/bits/allocator.h:184:       ~allocator() _GLIBCXX_NOTHROW { }
	lea	rax, -189[rbp]	# tmp140,
	mov	rdi, rax	#, tmp140
	call	_ZNSt15__new_allocatorIbED2Ev	#
	nop	
	lea	rax, -168[rbp]	# tmp141,
	mov	rdi, rax	#, tmp141
	call	_ZNSt15__new_allocatorISt6vectorIbSaIbEEED2Ev	#
	nop	
# Flood_fill.cpp:33: 	for (int i = 0; i < n; i++) {
	mov	DWORD PTR -184[rbp], 0	# i,
# Flood_fill.cpp:33: 	for (int i = 0; i < n; i++) {
	jmp	.L71	#
.L74:
# Flood_fill.cpp:34: 	    for (int j = 0; j < m; j++) {
	mov	DWORD PTR -180[rbp], 0	# j,
# Flood_fill.cpp:34: 	    for (int j = 0; j < m; j++) {
	jmp	.L72	#
.L73:
# Flood_fill.cpp:36: 		cin >> aa;
	lea	rax, -64[rbp]	# tmp142,
	mov	rsi, rax	#, tmp142
	lea	rax, _ZSt3cin[rip]	# tmp143,
	mov	rdi, rax	#, tmp143
.LEHB5:
	call	_ZNSirsERi@PLT	#
# Flood_fill.cpp:37: 		vec[i][j] = aa;
	mov	ebx, DWORD PTR -64[rbp]	# aa.10_10, MEM[(int *)_132]
# Flood_fill.cpp:37: 		vec[i][j] = aa;
	mov	eax, DWORD PTR -184[rbp]	# tmp144, i
	movsx	rdx, eax	# _11, tmp144
	lea	rax, -128[rbp]	# tmp145,
	mov	rsi, rdx	#, _11
	mov	rdi, rax	#, tmp145
	call	_ZNSt6vectorIS_IiSaIiEESaIS1_EEixEm	#
	mov	rdx, rax	# _12,
# Flood_fill.cpp:37: 		vec[i][j] = aa;
	mov	eax, DWORD PTR -180[rbp]	# tmp146, j
	cdqe
	mov	rsi, rax	#, _13
	mov	rdi, rdx	#, _12
	call	_ZNSt6vectorIiSaIiEEixEm	#
# Flood_fill.cpp:37: 		vec[i][j] = aa;
	mov	DWORD PTR [rax], ebx	# *_14, aa.10_10
# Flood_fill.cpp:34: 	    for (int j = 0; j < m; j++) {
	add	DWORD PTR -180[rbp], 1	# j,
.L72:
# Flood_fill.cpp:34: 	    for (int j = 0; j < m; j++) {
	mov	eax, DWORD PTR m[rip]	# m.11_15, m
	cmp	DWORD PTR -180[rbp], eax	# j, m.11_15
	jl	.L73	#,
# Flood_fill.cpp:33: 	for (int i = 0; i < n; i++) {
	add	DWORD PTR -184[rbp], 1	# i,
.L71:
# Flood_fill.cpp:33: 	for (int i = 0; i < n; i++) {
	mov	eax, DWORD PTR n[rip]	# n.12_16, n
	cmp	DWORD PTR -184[rbp], eax	# i, n.12_16
	jl	.L74	#,
# Flood_fill.cpp:41: 	long long res = 0;
	mov	QWORD PTR -168[rbp], 0	# MEM[(long long int *)_134],
# Flood_fill.cpp:42: 	for (int i = 0; i < n; i++) {
	mov	DWORD PTR -176[rbp], 0	# i,
# Flood_fill.cpp:42: 	for (int i = 0; i < n; i++) {
	jmp	.L75	#
.L79:
# Flood_fill.cpp:43: 	    for (int j = 0; j < m; j++) {
	mov	DWORD PTR -172[rbp], 0	# j,
# Flood_fill.cpp:43: 	    for (int j = 0; j < m; j++) {
	jmp	.L76	#
.L78:
# Flood_fill.cpp:44: 		if (!visited[i][j]) {
	mov	eax, DWORD PTR -176[rbp]	# tmp147, i
	movsx	rdx, eax	# _17, tmp147
	lea	rax, -96[rbp]	# tmp148,
	mov	rsi, rdx	#, _17
	mov	rdi, rax	#, tmp148
	call	_ZNSt6vectorIS_IbSaIbEESaIS1_EEixEm	#
	mov	rdx, rax	# _18,
# Flood_fill.cpp:44: 		if (!visited[i][j]) {
	mov	eax, DWORD PTR -172[rbp]	# tmp149, j
	cdqe
	mov	rsi, rax	#, _19
	mov	rdi, rdx	#, _18
	call	_ZNSt6vectorIbSaIbEEixEm	#
	mov	QWORD PTR -64[rbp], rax	# MEM[(struct _Bit_reference *)_132], tmp151
	mov	QWORD PTR -56[rbp], rdx	# MEM[(struct _Bit_reference *)_132],
# Flood_fill.cpp:44: 		if (!visited[i][j]) {
	lea	rax, -64[rbp]	# tmp152,
	mov	rdi, rax	#, tmp152
	call	_ZNKSt14_Bit_referencecvbEv	#
# Flood_fill.cpp:44: 		if (!visited[i][j]) {
	xor	eax, 1	# retval.13_85,
# Flood_fill.cpp:44: 		if (!visited[i][j]) {
	test	al, al	# retval.13_85
	je	.L77	#,
# Flood_fill.cpp:45: 		    floodfill(vec, visited, i, j);
	mov	ecx, DWORD PTR -172[rbp]	# tmp153, j
	mov	edx, DWORD PTR -176[rbp]	# tmp154, i
	lea	rsi, -96[rbp]	# tmp155,
	lea	rax, -128[rbp]	# tmp156,
	mov	rdi, rax	#, tmp156
	call	_Z9floodfillRSt6vectorIS_IiSaIiEESaIS1_EERS_IS_IbSaIbEESaIS6_EEii	#
# Flood_fill.cpp:46: 		    res = max(res, sum);
	lea	rax, -168[rbp]	# tmp157,
	lea	rdx, sum[rip]	# tmp158,
	mov	rsi, rdx	#, tmp158
	mov	rdi, rax	#, tmp157
	call	_ZSt3maxIxERKT_S2_S2_	#
# Flood_fill.cpp:46: 		    res = max(res, sum);
	mov	rax, QWORD PTR [rax]	# _22, *_21
# Flood_fill.cpp:46: 		    res = max(res, sum);
	mov	QWORD PTR -168[rbp], rax	# MEM[(long long int *)_134], _22
# Flood_fill.cpp:47: 		    sum ^= sum;
	mov	QWORD PTR sum[rip], 0	# sum,
.L77:
# Flood_fill.cpp:43: 	    for (int j = 0; j < m; j++) {
	add	DWORD PTR -172[rbp], 1	# j,
.L76:
# Flood_fill.cpp:43: 	    for (int j = 0; j < m; j++) {
	mov	eax, DWORD PTR m[rip]	# m.14_23, m
	cmp	DWORD PTR -172[rbp], eax	# j, m.14_23
	jl	.L78	#,
# Flood_fill.cpp:42: 	for (int i = 0; i < n; i++) {
	add	DWORD PTR -176[rbp], 1	# i,
.L75:
# Flood_fill.cpp:42: 	for (int i = 0; i < n; i++) {
	mov	eax, DWORD PTR n[rip]	# n.15_24, n
	cmp	DWORD PTR -176[rbp], eax	# i, n.15_24
	jl	.L79	#,
# Flood_fill.cpp:51: 	cout << res << "\n";
	mov	rax, QWORD PTR -168[rbp]	# res.16_25, MEM[(long long int *)_134]
# Flood_fill.cpp:51: 	cout << res << "\n";
	mov	rsi, rax	#, res.16_25
	lea	rax, _ZSt4cout[rip]	# tmp159,
	mov	rdi, rax	#, tmp159
	call	_ZNSolsEx@PLT	#
	mov	rdx, rax	# _26,
# Flood_fill.cpp:51: 	cout << res << "\n";
	lea	rax, .LC0[rip]	# tmp160,
	mov	rsi, rax	#, tmp160
	mov	rdi, rdx	#, _26
	call	_ZStlsISt11char_traitsIcEERSt13basic_ostreamIcT_ES5_PKc@PLT	#
.LEHE5:
# Flood_fill.cpp:52:     }
	lea	rax, -96[rbp]	# tmp161,
	mov	rdi, rax	#, tmp161
	call	_ZNSt6vectorIS_IbSaIbEESaIS1_EED1Ev	#
# Flood_fill.cpp:52:     }
	lea	rax, -128[rbp]	# tmp162,
	mov	rdi, rax	#, tmp162
	call	_ZNSt6vectorIS_IiSaIiEESaIS1_EED1Ev	#
.L70:
# Flood_fill.cpp:29:     while (T--) {
	mov	eax, DWORD PTR -188[rbp]	# T.18_27, T
	lea	edx, -1[rax]	# _29,
	mov	DWORD PTR -188[rbp], edx	# T, _29
	test	eax, eax	# T.18_27
	setne	al	#, retval.17_51
	test	al, al	# retval.17_51
	jne	.L80	#,
# Flood_fill.cpp:54:     return 0;
	mov	eax, 0	# _52,
# Flood_fill.cpp:55: }
	mov	rdx, QWORD PTR -24[rbp]	# tmp189, D.230932
	sub	rdx, QWORD PTR fs:40	# tmp189, MEM[(<address-space-1> long unsigned int *)40B]
	je	.L90	#,
	jmp	.L96	#
.L92:
	endbr64	
# Flood_fill.cpp:31: 	vector<vector<int>> vec(n, vector<int>(m));
	mov	rbx, rax	# tmp166,
	lea	rax, -64[rbp]	# tmp164,
	mov	rdi, rax	#, tmp164
	call	_ZNSt6vectorIiSaIiEED1Ev	#
	jmp	.L83	#
.L91:
	endbr64	
# /usr/include/c++/13/bits/allocator.h:184:       ~allocator() _GLIBCXX_NOTHROW { }
	mov	rbx, rax	# tmp165,
.L83:
	lea	rax, -168[rbp]	# tmp169,
	mov	rdi, rax	#, tmp169
	call	_ZNSt15__new_allocatorIiED2Ev	#
	nop	
	lea	rax, -96[rbp]	# tmp172,
	mov	rdi, rax	#, tmp172
	call	_ZNSt15__new_allocatorISt6vectorIiSaIiEEED2Ev	#
	nop	
	mov	rax, rbx	# D.230929, tmp170
	mov	rdx, QWORD PTR -24[rbp]	# tmp190, D.230932
	sub	rdx, QWORD PTR fs:40	# tmp190, MEM[(<address-space-1> long unsigned int *)40B]
	je	.L84	#,
	call	__stack_chk_fail@PLT	#
.L84:
	mov	rdi, rax	#, D.230929
.LEHB6:
	call	_Unwind_Resume@PLT	#
.L94:
	endbr64	
# Flood_fill.cpp:32: 	vector<vector<bool>> visited(n, vector<bool>(m));
	mov	rbx, rax	# tmp175,
	lea	rax, -64[rbp]	# tmp173,
	mov	rdi, rax	#, tmp173
	call	_ZNSt6vectorIbSaIbEED1Ev	#
	jmp	.L86	#
.L93:
	endbr64	
# /usr/include/c++/13/bits/allocator.h:184:       ~allocator() _GLIBCXX_NOTHROW { }
	mov	rbx, rax	# tmp174,
.L86:
	lea	rax, -189[rbp]	# tmp178,
	mov	rdi, rax	#, tmp178
	call	_ZNSt15__new_allocatorIbED2Ev	#
	nop	
	lea	rax, -168[rbp]	# tmp181,
	mov	rdi, rax	#, tmp181
	call	_ZNSt15__new_allocatorISt6vectorIbSaIbEEED2Ev	#
	nop	
	jmp	.L87	#
.L95:
	endbr64	
# Flood_fill.cpp:52:     }
	mov	rbx, rax	# tmp185,
	lea	rax, -96[rbp]	# tmp184,
	mov	rdi, rax	#, tmp184
	call	_ZNSt6vectorIS_IbSaIbEESaIS1_EED1Ev	#
.L87:
	lea	rax, -128[rbp]	# tmp187,
	mov	rdi, rax	#, tmp187
	call	_ZNSt6vectorIS_IiSaIiEESaIS1_EED1Ev	#
	mov	rax, rbx	# D.230930, tmp182
	mov	rdx, QWORD PTR -24[rbp]	# tmp191, D.230932
	sub	rdx, QWORD PTR fs:40	# tmp191, MEM[(<address-space-1> long unsigned int *)40B]
	je	.L89	#,
	call	__stack_chk_fail@PLT	#
.L89:
	mov	rdi, rax	#, D.230930
	call	_Unwind_Resume@PLT	#
.LEHE6:
.L96:
# Flood_fill.cpp:55: }
	call	__stack_chk_fail@PLT	#
.L90:
	mov	rbx, QWORD PTR -8[rbp]	#,
	leave	
	.cfi_def_cfa 7, 8
	ret	
	.cfi_endproc
.LFE9771:
	.globl	__gxx_personality_v0
	.section	.gcc_except_table,"a",@progbits
.LLSDA9771:
	.byte	0xff
	.byte	0xff
	.byte	0x1
	.uleb128 .LLSDACSE9771-.LLSDACSB9771
.LLSDACSB9771:
	.uleb128 .LEHB0-.LFB9771
	.uleb128 .LEHE0-.LEHB0
	.uleb128 0
	.uleb128 0
	.uleb128 .LEHB1-.LFB9771
	.uleb128 .LEHE1-.LEHB1
	.uleb128 .L91-.LFB9771
	.uleb128 0
	.uleb128 .LEHB2-.LFB9771
	.uleb128 .LEHE2-.LEHB2
	.uleb128 .L92-.LFB9771
	.uleb128 0
	.uleb128 .LEHB3-.LFB9771
	.uleb128 .LEHE3-.LEHB3
	.uleb128 .L93-.LFB9771
	.uleb128 0
	.uleb128 .LEHB4-.LFB9771
	.uleb128 .LEHE4-.LEHB4
	.uleb128 .L94-.LFB9771
	.uleb128 0
	.uleb128 .LEHB5-.LFB9771
	.uleb128 .LEHE5-.LEHB5
	.uleb128 .L95-.LFB9771
	.uleb128 0
	.uleb128 .LEHB6-.LFB9771
	.uleb128 .LEHE6-.LEHB6
	.uleb128 0
	.uleb128 0
.LLSDACSE9771:
	.text
	.size	main, .-main
	.section	.text._ZNSt6vectorIS_IiSaIiEESaIS1_EEixEm,"axG",@progbits,_ZNSt6vectorIS_IiSaIiEESaIS1_EEixEm,comdat
	.align 2
	.weak	_ZNSt6vectorIS_IiSaIiEESaIS1_EEixEm
	.type	_ZNSt6vectorIS_IiSaIiEESaIS1_EEixEm, @function
_ZNSt6vectorIS_IiSaIiEESaIS1_EEixEm:
.LFB10457:
	.cfi_startproc
	endbr64	
	push	rbp	#
	.cfi_def_cfa_offset 16
	.cfi_offset 6, -16
	mov	rbp, rsp	#,
	.cfi_def_cfa_register 6
	mov	QWORD PTR -8[rbp], rdi	# this, this
	mov	QWORD PTR -16[rbp], rsi	# __n, __n
# /usr/include/c++/13/bits/stl_vector.h:1129: 	return *(this->_M_impl._M_start + __n);
	mov	rax, QWORD PTR -8[rbp]	# tmp86, this
	mov	rcx, QWORD PTR [rax]	# _1, this_4(D)->D.209085._M_impl.D.208424._M_start
# /usr/include/c++/13/bits/stl_vector.h:1129: 	return *(this->_M_impl._M_start + __n);
	mov	rdx, QWORD PTR -16[rbp]	# tmp87, __n
	mov	rax, rdx	# tmp88, tmp87
	add	rax, rax	# tmp88
	add	rax, rdx	# tmp88, tmp87
	sal	rax, 3	# tmp89,
# /usr/include/c++/13/bits/stl_vector.h:1129: 	return *(this->_M_impl._M_start + __n);
	add	rax, rcx	# _6, _1
# /usr/include/c++/13/bits/stl_vector.h:1130:       }
	pop	rbp	#
	.cfi_def_cfa 7, 8
	ret	
	.cfi_endproc
.LFE10457:
	.size	_ZNSt6vectorIS_IiSaIiEESaIS1_EEixEm, .-_ZNSt6vectorIS_IiSaIiEESaIS1_EEixEm
	.section	.text._ZNSt6vectorIiSaIiEEixEm,"axG",@progbits,_ZNSt6vectorIiSaIiEEixEm,comdat
	.align 2
	.weak	_ZNSt6vectorIiSaIiEEixEm
	.type	_ZNSt6vectorIiSaIiEEixEm, @function
_ZNSt6vectorIiSaIiEEixEm:
.LFB10458:
	.cfi_startproc
	endbr64	
	push	rbp	#
	.cfi_def_cfa_offset 16
	.cfi_offset 6, -16
	mov	rbp, rsp	#,
	.cfi_def_cfa_register 6
	mov	QWORD PTR -8[rbp], rdi	# this, this
	mov	QWORD PTR -16[rbp], rsi	# __n, __n
# /usr/include/c++/13/bits/stl_vector.h:1129: 	return *(this->_M_impl._M_start + __n);
	mov	rax, QWORD PTR -8[rbp]	# tmp86, this
	mov	rax, QWORD PTR [rax]	# _1, this_4(D)->D.188304._M_impl.D.187644._M_start
# /usr/include/c++/13/bits/stl_vector.h:1129: 	return *(this->_M_impl._M_start + __n);
	mov	rdx, QWORD PTR -16[rbp]	# tmp87, __n
	sal	rdx, 2	# _2,
# /usr/include/c++/13/bits/stl_vector.h:1129: 	return *(this->_M_impl._M_start + __n);
	add	rax, rdx	# _6, _2
# /usr/include/c++/13/bits/stl_vector.h:1130:       }
	pop	rbp	#
	.cfi_def_cfa 7, 8
	ret	
	.cfi_endproc
.LFE10458:
	.size	_ZNSt6vectorIiSaIiEEixEm, .-_ZNSt6vectorIiSaIiEEixEm
	.section	.text._ZNSt6vectorIS_IbSaIbEESaIS1_EEixEm,"axG",@progbits,_ZNSt6vectorIS_IbSaIbEESaIS1_EEixEm,comdat
	.align 2
	.weak	_ZNSt6vectorIS_IbSaIbEESaIS1_EEixEm
	.type	_ZNSt6vectorIS_IbSaIbEESaIS1_EEixEm, @function
_ZNSt6vectorIS_IbSaIbEESaIS1_EEixEm:
.LFB10459:
	.cfi_startproc
	endbr64	
	push	rbp	#
	.cfi_def_cfa_offset 16
	.cfi_offset 6, -16
	mov	rbp, rsp	#,
	.cfi_def_cfa_register 6
	mov	QWORD PTR -8[rbp], rdi	# this, this
	mov	QWORD PTR -16[rbp], rsi	# __n, __n
# /usr/include/c++/13/bits/stl_vector.h:1129: 	return *(this->_M_impl._M_start + __n);
	mov	rax, QWORD PTR -8[rbp]	# tmp86, this
	mov	rcx, QWORD PTR [rax]	# _1, this_4(D)->D.210132._M_impl.D.209471._M_start
# /usr/include/c++/13/bits/stl_vector.h:1129: 	return *(this->_M_impl._M_start + __n);
	mov	rdx, QWORD PTR -16[rbp]	# tmp87, __n
	mov	rax, rdx	# tmp88, tmp87
	sal	rax, 2	# tmp88,
	add	rax, rdx	# tmp88, tmp87
	sal	rax, 3	# tmp89,
# /usr/include/c++/13/bits/stl_vector.h:1129: 	return *(this->_M_impl._M_start + __n);
	add	rax, rcx	# _6, _1
# /usr/include/c++/13/bits/stl_vector.h:1130:       }
	pop	rbp	#
	.cfi_def_cfa 7, 8
	ret	
	.cfi_endproc
.LFE10459:
	.size	_ZNSt6vectorIS_IbSaIbEESaIS1_EEixEm, .-_ZNSt6vectorIS_IbSaIbEESaIS1_EEixEm
	.section	.text._ZNSt6vectorIbSaIbEEixEm,"axG",@progbits,_ZNSt6vectorIbSaIbEEixEm,comdat
	.align 2
	.weak	_ZNSt6vectorIbSaIbEEixEm
	.type	_ZNSt6vectorIbSaIbEEixEm, @function
_ZNSt6vectorIbSaIbEEixEm:
.LFB10460:
	.cfi_startproc
	endbr64	
	push	rbp	#
	.cfi_def_cfa_offset 16
	.cfi_offset 6, -16
	mov	rbp, rsp	#,
	.cfi_def_cfa_register 6
	sub	rsp, 48	#,
	mov	QWORD PTR -40[rbp], rdi	# this, this
	mov	QWORD PTR -48[rbp], rsi	# __n, __n
# /usr/include/c++/13/bits/stl_bvector.h:1086:       operator[](size_type __n)
	mov	rax, QWORD PTR fs:40	# tmp89, MEM[(<address-space-1> long unsigned int *)40B]
	mov	QWORD PTR -8[rbp], rax	# D.230934, tmp89
	xor	eax, eax	# tmp89
# /usr/include/c++/13/bits/stl_bvector.h:1087:       { return begin()[__n]; }
	mov	rax, QWORD PTR -40[rbp]	# tmp85, this
	mov	rdi, rax	#, tmp85
	call	_ZNSt6vectorIbSaIbEE5beginEv	#
	mov	QWORD PTR -32[rbp], rax	# D.217837, tmp86
	mov	QWORD PTR -24[rbp], rdx	# D.217837,
# /usr/include/c++/13/bits/stl_bvector.h:1087:       { return begin()[__n]; }
	mov	rdx, QWORD PTR -48[rbp]	# __n.5_1, __n
	lea	rax, -32[rbp]	# tmp87,
	mov	rsi, rdx	#, __n.5_1
	mov	rdi, rax	#, tmp87
	call	_ZNKSt13_Bit_iteratorixEl	#
# /usr/include/c++/13/bits/stl_bvector.h:1087:       { return begin()[__n]; }
	mov	rcx, QWORD PTR -8[rbp]	# tmp90, D.230934
	sub	rcx, QWORD PTR fs:40	# tmp90, MEM[(<address-space-1> long unsigned int *)40B]
	je	.L105	#,
	call	__stack_chk_fail@PLT	#
.L105:
	leave	
	.cfi_def_cfa 7, 8
	ret	
	.cfi_endproc
.LFE10460:
	.size	_ZNSt6vectorIbSaIbEEixEm, .-_ZNSt6vectorIbSaIbEEixEm
	.section	.text._ZNSt6vectorIiSaIiEEC2EmRKS0_,"axG",@progbits,_ZNSt6vectorIiSaIiEEC5EmRKS0_,comdat
	.align 2
	.weak	_ZNSt6vectorIiSaIiEEC2EmRKS0_
	.type	_ZNSt6vectorIiSaIiEEC2EmRKS0_, @function
_ZNSt6vectorIiSaIiEEC2EmRKS0_:
.LFB10469:
	.cfi_startproc
	.cfi_personality 0x9b,DW.ref.__gxx_personality_v0
	.cfi_lsda 0x1b,.LLSDA10469
	endbr64	
	push	rbp	#
	.cfi_def_cfa_offset 16
	.cfi_offset 6, -16
	mov	rbp, rsp	#,
	.cfi_def_cfa_register 6
	push	rbx	#
	sub	rsp, 40	#,
	.cfi_offset 3, -24
	mov	QWORD PTR -24[rbp], rdi	# this, this
	mov	QWORD PTR -32[rbp], rsi	# __n, __n
	mov	QWORD PTR -40[rbp], rdx	# __a, __a
# /usr/include/c++/13/bits/stl_vector.h:557:       : _Base(_S_check_init_len(__n, __a), __a)
	mov	rbx, QWORD PTR -24[rbp]	# _1, this
	mov	rdx, QWORD PTR -40[rbp]	# tmp86, __a
	mov	rax, QWORD PTR -32[rbp]	# tmp87, __n
	mov	rsi, rdx	#, tmp86
	mov	rdi, rax	#, tmp87
.LEHB7:
	call	_ZNSt6vectorIiSaIiEE17_S_check_init_lenEmRKS0_	#
	mov	rcx, rax	# _2,
# /usr/include/c++/13/bits/stl_vector.h:557:       : _Base(_S_check_init_len(__n, __a), __a)
	mov	rax, QWORD PTR -40[rbp]	# tmp88, __a
	mov	rdx, rax	#, tmp88
	mov	rsi, rcx	#, _2
	mov	rdi, rbx	#, _1
	call	_ZNSt12_Vector_baseIiSaIiEEC2EmRKS0_	#
.LEHE7:
# /usr/include/c++/13/bits/stl_vector.h:558:       { _M_default_initialize(__n); }
	mov	rdx, QWORD PTR -32[rbp]	# tmp89, __n
	mov	rax, QWORD PTR -24[rbp]	# tmp90, this
	mov	rsi, rdx	#, tmp89
	mov	rdi, rax	#, tmp90
.LEHB8:
	call	_ZNSt6vectorIiSaIiEE21_M_default_initializeEm	#
.LEHE8:
# /usr/include/c++/13/bits/stl_vector.h:558:       { _M_default_initialize(__n); }
	jmp	.L109	#
.L108:
	endbr64	
# /usr/include/c++/13/bits/stl_vector.h:558:       { _M_default_initialize(__n); }
	mov	rbx, rax	# tmp91,
	mov	rax, QWORD PTR -24[rbp]	# _3, this
	mov	rdi, rax	#, _3
	call	_ZNSt12_Vector_baseIiSaIiEED2Ev	#
	mov	rax, rbx	# D.230935, tmp91
	mov	rdi, rax	#, D.230935
.LEHB9:
	call	_Unwind_Resume@PLT	#
.LEHE9:
.L109:
# /usr/include/c++/13/bits/stl_vector.h:558:       { _M_default_initialize(__n); }
	mov	rbx, QWORD PTR -8[rbp]	#,
	leave	
	.cfi_def_cfa 7, 8
	ret	
	.cfi_endproc
.LFE10469:
	.section	.gcc_except_table
.LLSDA10469:
	.byte	0xff
	.byte	0xff
	.byte	0x1
	.uleb128 .LLSDACSE10469-.LLSDACSB10469
.LLSDACSB10469:
	.uleb128 .LEHB7-.LFB10469
	.uleb128 .LEHE7-.LEHB7
	.uleb128 0
	.uleb128 0
	.uleb128 .LEHB8-.LFB10469
	.uleb128 .LEHE8-.LEHB8
	.uleb128 .L108-.LFB10469
	.uleb128 0
	.uleb128 .LEHB9-.LFB10469
	.uleb128 .LEHE9-.LEHB9
	.uleb128 0
	.uleb128 0
.LLSDACSE10469:
	.section	.text._ZNSt6vectorIiSaIiEEC2EmRKS0_,"axG",@progbits,_ZNSt6vectorIiSaIiEEC5EmRKS0_,comdat
	.size	_ZNSt6vectorIiSaIiEEC2EmRKS0_, .-_ZNSt6vectorIiSaIiEEC2EmRKS0_
	.weak	_ZNSt6vectorIiSaIiEEC1EmRKS0_
	.set	_ZNSt6vectorIiSaIiEEC1EmRKS0_,_ZNSt6vectorIiSaIiEEC2EmRKS0_
	.section	.text._ZNSt6vectorIiSaIiEED2Ev,"axG",@progbits,_ZNSt6vectorIiSaIiEED5Ev,comdat
	.align 2
	.weak	_ZNSt6vectorIiSaIiEED2Ev
	.type	_ZNSt6vectorIiSaIiEED2Ev, @function
_ZNSt6vectorIiSaIiEED2Ev:
.LFB10472:
	.cfi_startproc
	.cfi_personality 0x9b,DW.ref.__gxx_personality_v0
	.cfi_lsda 0x1b,.LLSDA10472
	endbr64	
	push	rbp	#
	.cfi_def_cfa_offset 16
	.cfi_offset 6, -16
	mov	rbp, rsp	#,
	.cfi_def_cfa_register 6
	sub	rsp, 48	#,
	mov	QWORD PTR -40[rbp], rdi	# this, this
# /usr/include/c++/13/bits/stl_vector.h:736: 		      _M_get_Tp_allocator());
	mov	rax, QWORD PTR -40[rbp]	# _1, this
	mov	rdi, rax	#, _1
	call	_ZNSt12_Vector_baseIiSaIiEE19_M_get_Tp_allocatorEv	#
# /usr/include/c++/13/bits/stl_vector.h:735: 	std::_Destroy(this->_M_impl._M_start, this->_M_impl._M_finish,
	mov	rdx, QWORD PTR -40[rbp]	# tmp87, this
	mov	rdx, QWORD PTR 8[rdx]	# _3, this_6(D)->D.188304._M_impl.D.187644._M_finish
	mov	rcx, QWORD PTR -40[rbp]	# tmp88, this
	mov	rcx, QWORD PTR [rcx]	# _4, this_6(D)->D.188304._M_impl.D.187644._M_start
	mov	QWORD PTR -24[rbp], rcx	# __first, _4
	mov	QWORD PTR -16[rbp], rdx	# __last, _3
	mov	QWORD PTR -8[rbp], rax	# D.230686, _2
# /usr/include/c++/13/bits/alloc_traits.h:948:       std::_Destroy(__first, __last);
	mov	rdx, QWORD PTR -16[rbp]	# tmp89, __last
	mov	rax, QWORD PTR -24[rbp]	# tmp90, __first
	mov	rsi, rdx	#, tmp89
	mov	rdi, rax	#, tmp90
	call	_ZSt8_DestroyIPiEvT_S1_	#
# /usr/include/c++/13/bits/alloc_traits.h:949:     }
	nop	
# /usr/include/c++/13/bits/stl_vector.h:738:       }
	mov	rax, QWORD PTR -40[rbp]	# _5, this
	mov	rdi, rax	#, _5
	call	_ZNSt12_Vector_baseIiSaIiEED2Ev	#
	nop	
	leave	
	.cfi_def_cfa 7, 8
	ret	
	.cfi_endproc
.LFE10472:
	.section	.gcc_except_table
.LLSDA10472:
	.byte	0xff
	.byte	0xff
	.byte	0x1
	.uleb128 .LLSDACSE10472-.LLSDACSB10472
.LLSDACSB10472:
.LLSDACSE10472:
	.section	.text._ZNSt6vectorIiSaIiEED2Ev,"axG",@progbits,_ZNSt6vectorIiSaIiEED5Ev,comdat
	.size	_ZNSt6vectorIiSaIiEED2Ev, .-_ZNSt6vectorIiSaIiEED2Ev
	.weak	_ZNSt6vectorIiSaIiEED1Ev
	.set	_ZNSt6vectorIiSaIiEED1Ev,_ZNSt6vectorIiSaIiEED2Ev
	.section	.text._ZNSt6vectorIS_IiSaIiEESaIS1_EEC2EmRKS1_RKS2_,"axG",@progbits,_ZNSt6vectorIS_IiSaIiEESaIS1_EEC5EmRKS1_RKS2_,comdat
	.align 2
	.weak	_ZNSt6vectorIS_IiSaIiEESaIS1_EEC2EmRKS1_RKS2_
	.type	_ZNSt6vectorIS_IiSaIiEESaIS1_EEC2EmRKS1_RKS2_, @function
_ZNSt6vectorIS_IiSaIiEESaIS1_EEC2EmRKS1_RKS2_:
.LFB10481:
	.cfi_startproc
	.cfi_personality 0x9b,DW.ref.__gxx_personality_v0
	.cfi_lsda 0x1b,.LLSDA10481
	endbr64	
	push	rbp	#
	.cfi_def_cfa_offset 16
	.cfi_offset 6, -16
	mov	rbp, rsp	#,
	.cfi_def_cfa_register 6
	push	rbx	#
	sub	rsp, 40	#,
	.cfi_offset 3, -24
	mov	QWORD PTR -24[rbp], rdi	# this, this
	mov	QWORD PTR -32[rbp], rsi	# __n, __n
	mov	QWORD PTR -40[rbp], rdx	# __value, __value
	mov	QWORD PTR -48[rbp], rcx	# __a, __a
# /usr/include/c++/13/bits/stl_vector.h:571:       : _Base(_S_check_init_len(__n, __a), __a)
	mov	rbx, QWORD PTR -24[rbp]	# _1, this
	mov	rdx, QWORD PTR -48[rbp]	# tmp86, __a
	mov	rax, QWORD PTR -32[rbp]	# tmp87, __n
	mov	rsi, rdx	#, tmp86
	mov	rdi, rax	#, tmp87
.LEHB10:
	call	_ZNSt6vectorIS_IiSaIiEESaIS1_EE17_S_check_init_lenEmRKS2_	#
	mov	rcx, rax	# _2,
# /usr/include/c++/13/bits/stl_vector.h:571:       : _Base(_S_check_init_len(__n, __a), __a)
	mov	rax, QWORD PTR -48[rbp]	# tmp88, __a
	mov	rdx, rax	#, tmp88
	mov	rsi, rcx	#, _2
	mov	rdi, rbx	#, _1
	call	_ZNSt12_Vector_baseISt6vectorIiSaIiEESaIS2_EEC2EmRKS3_	#
.LEHE10:
# /usr/include/c++/13/bits/stl_vector.h:572:       { _M_fill_initialize(__n, __value); }
	mov	rdx, QWORD PTR -40[rbp]	# tmp89, __value
	mov	rcx, QWORD PTR -32[rbp]	# tmp90, __n
	mov	rax, QWORD PTR -24[rbp]	# tmp91, this
	mov	rsi, rcx	#, tmp90
	mov	rdi, rax	#, tmp91
.LEHB11:
	call	_ZNSt6vectorIS_IiSaIiEESaIS1_EE18_M_fill_initializeEmRKS1_	#
.LEHE11:
# /usr/include/c++/13/bits/stl_vector.h:572:       { _M_fill_initialize(__n, __value); }
	jmp	.L114	#
.L113:
	endbr64	
# /usr/include/c++/13/bits/stl_vector.h:572:       { _M_fill_initialize(__n, __value); }
	mov	rbx, rax	# tmp92,
	mov	rax, QWORD PTR -24[rbp]	# _3, this
	mov	rdi, rax	#, _3
	call	_ZNSt12_Vector_baseISt6vectorIiSaIiEESaIS2_EED2Ev	#
	mov	rax, rbx	# D.230936, tmp92
	mov	rdi, rax	#, D.230936
.LEHB12:
	call	_Unwind_Resume@PLT	#
.LEHE12:
.L114:
# /usr/include/c++/13/bits/stl_vector.h:572:       { _M_fill_initialize(__n, __value); }
	mov	rbx, QWORD PTR -8[rbp]	#,
	leave	
	.cfi_def_cfa 7, 8
	ret	
	.cfi_endproc
.LFE10481:
	.section	.gcc_except_table
.LLSDA10481:
	.byte	0xff
	.byte	0xff
	.byte	0x1
	.uleb128 .LLSDACSE10481-.LLSDACSB10481
.LLSDACSB10481:
	.uleb128 .LEHB10-.LFB10481
	.uleb128 .LEHE10-.LEHB10
	.uleb128 0
	.uleb128 0
	.uleb128 .LEHB11-.LFB10481
	.uleb128 .LEHE11-.LEHB11
	.uleb128 .L113-.LFB10481
	.uleb128 0
	.uleb128 .LEHB12-.LFB10481
	.uleb128 .LEHE12-.LEHB12
	.uleb128 0
	.uleb128 0
.LLSDACSE10481:
	.section	.text._ZNSt6vectorIS_IiSaIiEESaIS1_EEC2EmRKS1_RKS2_,"axG",@progbits,_ZNSt6vectorIS_IiSaIiEESaIS1_EEC5EmRKS1_RKS2_,comdat
	.size	_ZNSt6vectorIS_IiSaIiEESaIS1_EEC2EmRKS1_RKS2_, .-_ZNSt6vectorIS_IiSaIiEESaIS1_EEC2EmRKS1_RKS2_
	.weak	_ZNSt6vectorIS_IiSaIiEESaIS1_EEC1EmRKS1_RKS2_
	.set	_ZNSt6vectorIS_IiSaIiEESaIS1_EEC1EmRKS1_RKS2_,_ZNSt6vectorIS_IiSaIiEESaIS1_EEC2EmRKS1_RKS2_
	.section	.text._ZNSt6vectorIS_IiSaIiEESaIS1_EED2Ev,"axG",@progbits,_ZNSt6vectorIS_IiSaIiEESaIS1_EED5Ev,comdat
	.align 2
	.weak	_ZNSt6vectorIS_IiSaIiEESaIS1_EED2Ev
	.type	_ZNSt6vectorIS_IiSaIiEESaIS1_EED2Ev, @function
_ZNSt6vectorIS_IiSaIiEESaIS1_EED2Ev:
.LFB10484:
	.cfi_startproc
	.cfi_personality 0x9b,DW.ref.__gxx_personality_v0
	.cfi_lsda 0x1b,.LLSDA10484
	endbr64	
	push	rbp	#
	.cfi_def_cfa_offset 16
	.cfi_offset 6, -16
	mov	rbp, rsp	#,
	.cfi_def_cfa_register 6
	sub	rsp, 48	#,
	mov	QWORD PTR -40[rbp], rdi	# this, this
# /usr/include/c++/13/bits/stl_vector.h:736: 		      _M_get_Tp_allocator());
	mov	rax, QWORD PTR -40[rbp]	# _1, this
	mov	rdi, rax	#, _1
	call	_ZNSt12_Vector_baseISt6vectorIiSaIiEESaIS2_EE19_M_get_Tp_allocatorEv	#
# /usr/include/c++/13/bits/stl_vector.h:735: 	std::_Destroy(this->_M_impl._M_start, this->_M_impl._M_finish,
	mov	rdx, QWORD PTR -40[rbp]	# tmp87, this
	mov	rdx, QWORD PTR 8[rdx]	# _3, this_6(D)->D.209085._M_impl.D.208424._M_finish
	mov	rcx, QWORD PTR -40[rbp]	# tmp88, this
	mov	rcx, QWORD PTR [rcx]	# _4, this_6(D)->D.209085._M_impl.D.208424._M_start
	mov	QWORD PTR -24[rbp], rcx	# __first, _4
	mov	QWORD PTR -16[rbp], rdx	# __last, _3
	mov	QWORD PTR -8[rbp], rax	# D.230698, _2
# /usr/include/c++/13/bits/alloc_traits.h:948:       std::_Destroy(__first, __last);
	mov	rdx, QWORD PTR -16[rbp]	# tmp89, __last
	mov	rax, QWORD PTR -24[rbp]	# tmp90, __first
	mov	rsi, rdx	#, tmp89
	mov	rdi, rax	#, tmp90
	call	_ZSt8_DestroyIPSt6vectorIiSaIiEEEvT_S4_	#
# /usr/include/c++/13/bits/alloc_traits.h:949:     }
	nop	
# /usr/include/c++/13/bits/stl_vector.h:738:       }
	mov	rax, QWORD PTR -40[rbp]	# _5, this
	mov	rdi, rax	#, _5
	call	_ZNSt12_Vector_baseISt6vectorIiSaIiEESaIS2_EED2Ev	#
	nop	
	leave	
	.cfi_def_cfa 7, 8
	ret	
	.cfi_endproc
.LFE10484:
	.section	.gcc_except_table
.LLSDA10484:
	.byte	0xff
	.byte	0xff
	.byte	0x1
	.uleb128 .LLSDACSE10484-.LLSDACSB10484
.LLSDACSB10484:
.LLSDACSE10484:
	.section	.text._ZNSt6vectorIS_IiSaIiEESaIS1_EED2Ev,"axG",@progbits,_ZNSt6vectorIS_IiSaIiEESaIS1_EED5Ev,comdat
	.size	_ZNSt6vectorIS_IiSaIiEESaIS1_EED2Ev, .-_ZNSt6vectorIS_IiSaIiEESaIS1_EED2Ev
	.weak	_ZNSt6vectorIS_IiSaIiEESaIS1_EED1Ev
	.set	_ZNSt6vectorIS_IiSaIiEESaIS1_EED1Ev,_ZNSt6vectorIS_IiSaIiEESaIS1_EED2Ev
	.section	.text._ZNSt6vectorIbSaIbEEC2EmRKS0_,"axG",@progbits,_ZNSt6vectorIbSaIbEEC5EmRKS0_,comdat
	.align 2
	.weak	_ZNSt6vectorIbSaIbEEC2EmRKS0_
	.type	_ZNSt6vectorIbSaIbEEC2EmRKS0_, @function
_ZNSt6vectorIbSaIbEEC2EmRKS0_:
.LFB10493:
	.cfi_startproc
	endbr64	
	push	rbp	#
	.cfi_def_cfa_offset 16
	.cfi_offset 6, -16
	mov	rbp, rsp	#,
	.cfi_def_cfa_register 6
	sub	rsp, 48	#,
	mov	QWORD PTR -24[rbp], rdi	# this, this
	mov	QWORD PTR -32[rbp], rsi	# __n, __n
	mov	QWORD PTR -40[rbp], rdx	# __a, __a
# /usr/include/c++/13/bits/stl_bvector.h:790:       vector(size_type __n, const allocator_type& __a = allocator_type())
	mov	rax, QWORD PTR fs:40	# tmp86, MEM[(<address-space-1> long unsigned int *)40B]
	mov	QWORD PTR -8[rbp], rax	# D.230937, tmp86
	xor	eax, eax	# tmp86
# /usr/include/c++/13/bits/stl_bvector.h:791:       : vector(__n, false, __a)
	mov	BYTE PTR -9[rbp], 0	# D.217898,
# /usr/include/c++/13/bits/stl_bvector.h:791:       : vector(__n, false, __a)
	mov	rcx, QWORD PTR -40[rbp]	# tmp82, __a
	lea	rdx, -9[rbp]	# tmp83,
	mov	rsi, QWORD PTR -32[rbp]	# tmp84, __n
	mov	rax, QWORD PTR -24[rbp]	# tmp85, this
	mov	rdi, rax	#, tmp85
	call	_ZNSt6vectorIbSaIbEEC1EmRKbRKS0_	#
# /usr/include/c++/13/bits/stl_bvector.h:792:       { }
	nop	
	mov	rax, QWORD PTR -8[rbp]	# tmp87, D.230937
	sub	rax, QWORD PTR fs:40	# tmp87, MEM[(<address-space-1> long unsigned int *)40B]
	je	.L117	#,
	call	__stack_chk_fail@PLT	#
.L117:
	leave	
	.cfi_def_cfa 7, 8
	ret	
	.cfi_endproc
.LFE10493:
	.size	_ZNSt6vectorIbSaIbEEC2EmRKS0_, .-_ZNSt6vectorIbSaIbEEC2EmRKS0_
	.weak	_ZNSt6vectorIbSaIbEEC1EmRKS0_
	.set	_ZNSt6vectorIbSaIbEEC1EmRKS0_,_ZNSt6vectorIbSaIbEEC2EmRKS0_
	.section	.text._ZNSt6vectorIbSaIbEED2Ev,"axG",@progbits,_ZNSt6vectorIbSaIbEED5Ev,comdat
	.align 2
	.weak	_ZNSt6vectorIbSaIbEED2Ev
	.type	_ZNSt6vectorIbSaIbEED2Ev, @function
_ZNSt6vectorIbSaIbEED2Ev:
.LFB10496:
	.cfi_startproc
	endbr64	
	push	rbp	#
	.cfi_def_cfa_offset 16
	.cfi_offset 6, -16
	mov	rbp, rsp	#,
	.cfi_def_cfa_register 6
	sub	rsp, 16	#,
	mov	QWORD PTR -8[rbp], rdi	# this, this
# /usr/include/c++/13/bits/stl_bvector.h:890:       ~vector() _GLIBCXX_NOEXCEPT { }
	mov	rax, QWORD PTR -8[rbp]	# _1, this
	mov	rdi, rax	#, _1
	call	_ZNSt13_Bvector_baseISaIbEED2Ev	#
	nop	
	leave	
	.cfi_def_cfa 7, 8
	ret	
	.cfi_endproc
.LFE10496:
	.size	_ZNSt6vectorIbSaIbEED2Ev, .-_ZNSt6vectorIbSaIbEED2Ev
	.weak	_ZNSt6vectorIbSaIbEED1Ev
	.set	_ZNSt6vectorIbSaIbEED1Ev,_ZNSt6vectorIbSaIbEED2Ev
	.section	.text._ZNSt6vectorIS_IbSaIbEESaIS1_EEC2EmRKS1_RKS2_,"axG",@progbits,_ZNSt6vectorIS_IbSaIbEESaIS1_EEC5EmRKS1_RKS2_,comdat
	.align 2
	.weak	_ZNSt6vectorIS_IbSaIbEESaIS1_EEC2EmRKS1_RKS2_
	.type	_ZNSt6vectorIS_IbSaIbEESaIS1_EEC2EmRKS1_RKS2_, @function
_ZNSt6vectorIS_IbSaIbEESaIS1_EEC2EmRKS1_RKS2_:
.LFB10505:
	.cfi_startproc
	.cfi_personality 0x9b,DW.ref.__gxx_personality_v0
	.cfi_lsda 0x1b,.LLSDA10505
	endbr64	
	push	rbp	#
	.cfi_def_cfa_offset 16
	.cfi_offset 6, -16
	mov	rbp, rsp	#,
	.cfi_def_cfa_register 6
	push	rbx	#
	sub	rsp, 40	#,
	.cfi_offset 3, -24
	mov	QWORD PTR -24[rbp], rdi	# this, this
	mov	QWORD PTR -32[rbp], rsi	# __n, __n
	mov	QWORD PTR -40[rbp], rdx	# __value, __value
	mov	QWORD PTR -48[rbp], rcx	# __a, __a
# /usr/include/c++/13/bits/stl_vector.h:571:       : _Base(_S_check_init_len(__n, __a), __a)
	mov	rbx, QWORD PTR -24[rbp]	# _1, this
	mov	rdx, QWORD PTR -48[rbp]	# tmp86, __a
	mov	rax, QWORD PTR -32[rbp]	# tmp87, __n
	mov	rsi, rdx	#, tmp86
	mov	rdi, rax	#, tmp87
.LEHB13:
	call	_ZNSt6vectorIS_IbSaIbEESaIS1_EE17_S_check_init_lenEmRKS2_	#
	mov	rcx, rax	# _2,
# /usr/include/c++/13/bits/stl_vector.h:571:       : _Base(_S_check_init_len(__n, __a), __a)
	mov	rax, QWORD PTR -48[rbp]	# tmp88, __a
	mov	rdx, rax	#, tmp88
	mov	rsi, rcx	#, _2
	mov	rdi, rbx	#, _1
	call	_ZNSt12_Vector_baseISt6vectorIbSaIbEESaIS2_EEC2EmRKS3_	#
.LEHE13:
# /usr/include/c++/13/bits/stl_vector.h:572:       { _M_fill_initialize(__n, __value); }
	mov	rdx, QWORD PTR -40[rbp]	# tmp89, __value
	mov	rcx, QWORD PTR -32[rbp]	# tmp90, __n
	mov	rax, QWORD PTR -24[rbp]	# tmp91, this
	mov	rsi, rcx	#, tmp90
	mov	rdi, rax	#, tmp91
.LEHB14:
	call	_ZNSt6vectorIS_IbSaIbEESaIS1_EE18_M_fill_initializeEmRKS1_	#
.LEHE14:
# /usr/include/c++/13/bits/stl_vector.h:572:       { _M_fill_initialize(__n, __value); }
	jmp	.L122	#
.L121:
	endbr64	
# /usr/include/c++/13/bits/stl_vector.h:572:       { _M_fill_initialize(__n, __value); }
	mov	rbx, rax	# tmp92,
	mov	rax, QWORD PTR -24[rbp]	# _3, this
	mov	rdi, rax	#, _3
	call	_ZNSt12_Vector_baseISt6vectorIbSaIbEESaIS2_EED2Ev	#
	mov	rax, rbx	# D.230938, tmp92
	mov	rdi, rax	#, D.230938
.LEHB15:
	call	_Unwind_Resume@PLT	#
.LEHE15:
.L122:
# /usr/include/c++/13/bits/stl_vector.h:572:       { _M_fill_initialize(__n, __value); }
	mov	rbx, QWORD PTR -8[rbp]	#,
	leave	
	.cfi_def_cfa 7, 8
	ret	
	.cfi_endproc
.LFE10505:
	.section	.gcc_except_table
.LLSDA10505:
	.byte	0xff
	.byte	0xff
	.byte	0x1
	.uleb128 .LLSDACSE10505-.LLSDACSB10505
.LLSDACSB10505:
	.uleb128 .LEHB13-.LFB10505
	.uleb128 .LEHE13-.LEHB13
	.uleb128 0
	.uleb128 0
	.uleb128 .LEHB14-.LFB10505
	.uleb128 .LEHE14-.LEHB14
	.uleb128 .L121-.LFB10505
	.uleb128 0
	.uleb128 .LEHB15-.LFB10505
	.uleb128 .LEHE15-.LEHB15
	.uleb128 0
	.uleb128 0
.LLSDACSE10505:
	.section	.text._ZNSt6vectorIS_IbSaIbEESaIS1_EEC2EmRKS1_RKS2_,"axG",@progbits,_ZNSt6vectorIS_IbSaIbEESaIS1_EEC5EmRKS1_RKS2_,comdat
	.size	_ZNSt6vectorIS_IbSaIbEESaIS1_EEC2EmRKS1_RKS2_, .-_ZNSt6vectorIS_IbSaIbEESaIS1_EEC2EmRKS1_RKS2_
	.weak	_ZNSt6vectorIS_IbSaIbEESaIS1_EEC1EmRKS1_RKS2_
	.set	_ZNSt6vectorIS_IbSaIbEESaIS1_EEC1EmRKS1_RKS2_,_ZNSt6vectorIS_IbSaIbEESaIS1_EEC2EmRKS1_RKS2_
	.section	.text._ZNSt6vectorIS_IbSaIbEESaIS1_EED2Ev,"axG",@progbits,_ZNSt6vectorIS_IbSaIbEESaIS1_EED5Ev,comdat
	.align 2
	.weak	_ZNSt6vectorIS_IbSaIbEESaIS1_EED2Ev
	.type	_ZNSt6vectorIS_IbSaIbEESaIS1_EED2Ev, @function
_ZNSt6vectorIS_IbSaIbEESaIS1_EED2Ev:
.LFB10508:
	.cfi_startproc
	.cfi_personality 0x9b,DW.ref.__gxx_personality_v0
	.cfi_lsda 0x1b,.LLSDA10508
	endbr64	
	push	rbp	#
	.cfi_def_cfa_offset 16
	.cfi_offset 6, -16
	mov	rbp, rsp	#,
	.cfi_def_cfa_register 6
	sub	rsp, 48	#,
	mov	QWORD PTR -40[rbp], rdi	# this, this
# /usr/include/c++/13/bits/stl_vector.h:736: 		      _M_get_Tp_allocator());
	mov	rax, QWORD PTR -40[rbp]	# _1, this
	mov	rdi, rax	#, _1
	call	_ZNSt12_Vector_baseISt6vectorIbSaIbEESaIS2_EE19_M_get_Tp_allocatorEv	#
# /usr/include/c++/13/bits/stl_vector.h:735: 	std::_Destroy(this->_M_impl._M_start, this->_M_impl._M_finish,
	mov	rdx, QWORD PTR -40[rbp]	# tmp87, this
	mov	rdx, QWORD PTR 8[rdx]	# _3, this_6(D)->D.210132._M_impl.D.209471._M_finish
	mov	rcx, QWORD PTR -40[rbp]	# tmp88, this
	mov	rcx, QWORD PTR [rcx]	# _4, this_6(D)->D.210132._M_impl.D.209471._M_start
	mov	QWORD PTR -24[rbp], rcx	# __first, _4
	mov	QWORD PTR -16[rbp], rdx	# __last, _3
	mov	QWORD PTR -8[rbp], rax	# D.230711, _2
# /usr/include/c++/13/bits/alloc_traits.h:948:       std::_Destroy(__first, __last);
	mov	rdx, QWORD PTR -16[rbp]	# tmp89, __last
	mov	rax, QWORD PTR -24[rbp]	# tmp90, __first
	mov	rsi, rdx	#, tmp89
	mov	rdi, rax	#, tmp90
	call	_ZSt8_DestroyIPSt6vectorIbSaIbEEEvT_S4_	#
# /usr/include/c++/13/bits/alloc_traits.h:949:     }
	nop	
# /usr/include/c++/13/bits/stl_vector.h:738:       }
	mov	rax, QWORD PTR -40[rbp]	# _5, this
	mov	rdi, rax	#, _5
	call	_ZNSt12_Vector_baseISt6vectorIbSaIbEESaIS2_EED2Ev	#
	nop	
	leave	
	.cfi_def_cfa 7, 8
	ret	
	.cfi_endproc
.LFE10508:
	.section	.gcc_except_table
.LLSDA10508:
	.byte	0xff
	.byte	0xff
	.byte	0x1
	.uleb128 .LLSDACSE10508-.LLSDACSB10508
.LLSDACSB10508:
.LLSDACSE10508:
	.section	.text._ZNSt6vectorIS_IbSaIbEESaIS1_EED2Ev,"axG",@progbits,_ZNSt6vectorIS_IbSaIbEESaIS1_EED5Ev,comdat
	.size	_ZNSt6vectorIS_IbSaIbEESaIS1_EED2Ev, .-_ZNSt6vectorIS_IbSaIbEESaIS1_EED2Ev
	.weak	_ZNSt6vectorIS_IbSaIbEESaIS1_EED1Ev
	.set	_ZNSt6vectorIS_IbSaIbEESaIS1_EED1Ev,_ZNSt6vectorIS_IbSaIbEESaIS1_EED2Ev
	.section	.text._ZSt3maxIxERKT_S2_S2_,"axG",@progbits,_ZSt3maxIxERKT_S2_S2_,comdat
	.weak	_ZSt3maxIxERKT_S2_S2_
	.type	_ZSt3maxIxERKT_S2_S2_, @function
_ZSt3maxIxERKT_S2_S2_:
.LFB10510:
	.cfi_startproc
	endbr64	
	push	rbp	#
	.cfi_def_cfa_offset 16
	.cfi_offset 6, -16
	mov	rbp, rsp	#,
	.cfi_def_cfa_register 6
	mov	QWORD PTR -8[rbp], rdi	# __a, __a
	mov	QWORD PTR -16[rbp], rsi	# __b, __b
# /usr/include/c++/13/bits/stl_algobase.h:262:       if (__a < __b)
	mov	rax, QWORD PTR -8[rbp]	# tmp86, __a
	mov	rdx, QWORD PTR [rax]	# _1, *__a_5(D)
	mov	rax, QWORD PTR -16[rbp]	# tmp87, __b
	mov	rax, QWORD PTR [rax]	# _2, *__b_6(D)
# /usr/include/c++/13/bits/stl_algobase.h:262:       if (__a < __b)
	cmp	rdx, rax	# _1, _2
	jge	.L125	#,
# /usr/include/c++/13/bits/stl_algobase.h:263: 	return __b;
	mov	rax, QWORD PTR -16[rbp]	# _3, __b
	jmp	.L126	#
.L125:
# /usr/include/c++/13/bits/stl_algobase.h:264:       return __a;
	mov	rax, QWORD PTR -8[rbp]	# _3, __a
.L126:
# /usr/include/c++/13/bits/stl_algobase.h:265:     }
	pop	rbp	#
	.cfi_def_cfa 7, 8
	ret	
	.cfi_endproc
.LFE10510:
	.size	_ZSt3maxIxERKT_S2_S2_, .-_ZSt3maxIxERKT_S2_S2_
	.section	.text._ZNSt15__new_allocatorImED2Ev,"axG",@progbits,_ZNSt15__new_allocatorImED5Ev,comdat
	.align 2
	.weak	_ZNSt15__new_allocatorImED2Ev
	.type	_ZNSt15__new_allocatorImED2Ev, @function
_ZNSt15__new_allocatorImED2Ev:
.LFB10826:
	.cfi_startproc
	endbr64	
	push	rbp	#
	.cfi_def_cfa_offset 16
	.cfi_offset 6, -16
	mov	rbp, rsp	#,
	.cfi_def_cfa_register 6
	mov	QWORD PTR -8[rbp], rdi	# this, this
# /usr/include/c++/13/bits/new_allocator.h:104:       ~__new_allocator() _GLIBCXX_USE_NOEXCEPT { }
	nop	
	pop	rbp	#
	.cfi_def_cfa 7, 8
	ret	
	.cfi_endproc
.LFE10826:
	.size	_ZNSt15__new_allocatorImED2Ev, .-_ZNSt15__new_allocatorImED2Ev
	.weak	_ZNSt15__new_allocatorImED1Ev
	.set	_ZNSt15__new_allocatorImED1Ev,_ZNSt15__new_allocatorImED2Ev
	.section	.text._ZNSt6vectorIbSaIbEE5beginEv,"axG",@progbits,_ZNSt6vectorIbSaIbEE5beginEv,comdat
	.align 2
	.weak	_ZNSt6vectorIbSaIbEE5beginEv
	.type	_ZNSt6vectorIbSaIbEE5beginEv, @function
_ZNSt6vectorIbSaIbEE5beginEv:
.LFB10936:
	.cfi_startproc
	endbr64	
	push	rbp	#
	.cfi_def_cfa_offset 16
	.cfi_offset 6, -16
	mov	rbp, rsp	#,
	.cfi_def_cfa_register 6
	sub	rsp, 80	#,
	mov	QWORD PTR -56[rbp], rdi	# this, this
# /usr/include/c++/13/bits/stl_bvector.h:995:       begin() _GLIBCXX_NOEXCEPT
	mov	rax, QWORD PTR fs:40	# tmp88, MEM[(<address-space-1> long unsigned int *)40B]
	mov	QWORD PTR -8[rbp], rax	# D.230939, tmp88
	xor	eax, eax	# tmp88
# /usr/include/c++/13/bits/stl_bvector.h:996:       { return iterator(this->_M_impl._M_start._M_p, 0); }
	mov	rax, QWORD PTR -56[rbp]	# tmp84, this
	mov	rcx, QWORD PTR [rax]	# _1, this_3(D)->D.211044._M_impl.D.210518._M_start.D.58751._M_p
	lea	rax, -48[rbp]	# tmp85,
	mov	edx, 0	#,
	mov	rsi, rcx	#, _1
	mov	rdi, rax	#, tmp85
	call	_ZNSt13_Bit_iteratorC1EPmj	#
# /usr/include/c++/13/bits/stl_bvector.h:996:       { return iterator(this->_M_impl._M_start._M_p, 0); }
	mov	rax, QWORD PTR -48[rbp]	# tmp86, D.222591
	mov	rdx, QWORD PTR -40[rbp]	#, D.222591
	mov	QWORD PTR -32[rbp], rax	# D.229944, tmp86
	mov	QWORD PTR -24[rbp], rdx	# D.229944,
# /usr/include/c++/13/bits/stl_bvector.h:996:       { return iterator(this->_M_impl._M_start._M_p, 0); }
	mov	rax, QWORD PTR -32[rbp]	# tmp87, D.229944
	mov	rdx, QWORD PTR -24[rbp]	#, D.229944
# /usr/include/c++/13/bits/stl_bvector.h:996:       { return iterator(this->_M_impl._M_start._M_p, 0); }
	mov	rcx, QWORD PTR -8[rbp]	# tmp89, D.230939
	sub	rcx, QWORD PTR fs:40	# tmp89, MEM[(<address-space-1> long unsigned int *)40B]
	je	.L130	#,
	call	__stack_chk_fail@PLT	#
.L130:
	leave	
	.cfi_def_cfa 7, 8
	ret	
	.cfi_endproc
.LFE10936:
	.size	_ZNSt6vectorIbSaIbEE5beginEv, .-_ZNSt6vectorIbSaIbEE5beginEv
	.section	.text._ZNSt15__new_allocatorIiED2Ev,"axG",@progbits,_ZNSt15__new_allocatorIiED5Ev,comdat
	.align 2
	.weak	_ZNSt15__new_allocatorIiED2Ev
	.type	_ZNSt15__new_allocatorIiED2Ev, @function
_ZNSt15__new_allocatorIiED2Ev:
.LFB10941:
	.cfi_startproc
	endbr64	
	push	rbp	#
	.cfi_def_cfa_offset 16
	.cfi_offset 6, -16
	mov	rbp, rsp	#,
	.cfi_def_cfa_register 6
	mov	QWORD PTR -8[rbp], rdi	# this, this
# /usr/include/c++/13/bits/new_allocator.h:104:       ~__new_allocator() _GLIBCXX_USE_NOEXCEPT { }
	nop	
	pop	rbp	#
	.cfi_def_cfa 7, 8
	ret	
	.cfi_endproc
.LFE10941:
	.size	_ZNSt15__new_allocatorIiED2Ev, .-_ZNSt15__new_allocatorIiED2Ev
	.weak	_ZNSt15__new_allocatorIiED1Ev
	.set	_ZNSt15__new_allocatorIiED1Ev,_ZNSt15__new_allocatorIiED2Ev
	.section	.rodata
	.align 8
.LC1:
	.string	"cannot create std::vector larger than max_size()"
	.section	.text._ZNSt6vectorIiSaIiEE17_S_check_init_lenEmRKS0_,"axG",@progbits,_ZNSt6vectorIiSaIiEE17_S_check_init_lenEmRKS0_,comdat
	.weak	_ZNSt6vectorIiSaIiEE17_S_check_init_lenEmRKS0_
	.type	_ZNSt6vectorIiSaIiEE17_S_check_init_lenEmRKS0_, @function
_ZNSt6vectorIiSaIiEE17_S_check_init_lenEmRKS0_:
.LFB10943:
	.cfi_startproc
	endbr64	
	push	rbp	#
	.cfi_def_cfa_offset 16
	.cfi_offset 6, -16
	mov	rbp, rsp	#,
	.cfi_def_cfa_register 6
	push	rbx	#
	sub	rsp, 72	#,
	.cfi_offset 3, -24
	mov	QWORD PTR -72[rbp], rdi	# __n, __n
	mov	QWORD PTR -80[rbp], rsi	# __a, __a
# /usr/include/c++/13/bits/stl_vector.h:1907:       _S_check_init_len(size_type __n, const allocator_type& __a)
	mov	rax, QWORD PTR fs:40	# tmp93, MEM[(<address-space-1> long unsigned int *)40B]
	mov	QWORD PTR -24[rbp], rax	# D.230940, tmp93
	xor	eax, eax	# tmp93
	mov	rax, QWORD PTR -80[rbp]	# tmp86, __a
	mov	QWORD PTR -48[rbp], rax	# __a, tmp86
	lea	rax, -49[rbp]	# tmp87,
	mov	QWORD PTR -40[rbp], rax	# this, tmp87
	mov	rax, QWORD PTR -48[rbp]	# tmp88, __a
	mov	QWORD PTR -32[rbp], rax	# D.230766, tmp88
# /usr/include/c++/13/bits/new_allocator.h:92:       __new_allocator(const __new_allocator&) _GLIBCXX_USE_NOEXCEPT { }
	nop	
# /usr/include/c++/13/bits/allocator.h:168:       : __allocator_base<_Tp>(__a) { }
	nop	
# /usr/include/c++/13/bits/stl_vector.h:1909: 	if (__n > _S_max_size(_Tp_alloc_type(__a)))
	lea	rax, -49[rbp]	# tmp89,
	mov	rdi, rax	#, tmp89
	call	_ZNSt6vectorIiSaIiEE11_S_max_sizeERKS0_	#
# /usr/include/c++/13/bits/stl_vector.h:1909: 	if (__n > _S_max_size(_Tp_alloc_type(__a)))
	cmp	rax, QWORD PTR -72[rbp]	# _1, __n
	setb	bl	#, retval.20_6
# /usr/include/c++/13/bits/allocator.h:184:       ~allocator() _GLIBCXX_NOTHROW { }
	lea	rax, -49[rbp]	# tmp90,
	mov	rdi, rax	#, tmp90
	call	_ZNSt15__new_allocatorIiED2Ev	#
	nop	
# /usr/include/c++/13/bits/stl_vector.h:1909: 	if (__n > _S_max_size(_Tp_alloc_type(__a)))
	test	bl, bl	# retval.20_6
	je	.L133	#,
# /usr/include/c++/13/bits/stl_vector.h:1910: 	  __throw_length_error(
	mov	rax, QWORD PTR -24[rbp]	# tmp94, D.230940
	sub	rax, QWORD PTR fs:40	# tmp94, MEM[(<address-space-1> long unsigned int *)40B]
	je	.L134	#,
	call	__stack_chk_fail@PLT	#
.L134:
	lea	rax, .LC1[rip]	# tmp91,
	mov	rdi, rax	#, tmp91
	call	_ZSt20__throw_length_errorPKc@PLT	#
.L133:
# /usr/include/c++/13/bits/stl_vector.h:1912: 	return __n;
	mov	rax, QWORD PTR -72[rbp]	# _8, __n
# /usr/include/c++/13/bits/stl_vector.h:1913:       }
	mov	rdx, QWORD PTR -24[rbp]	# tmp95, D.230940
	sub	rdx, QWORD PTR fs:40	# tmp95, MEM[(<address-space-1> long unsigned int *)40B]
	je	.L136	#,
	call	__stack_chk_fail@PLT	#
.L136:
	mov	rbx, QWORD PTR -8[rbp]	#,
	leave	
	.cfi_def_cfa 7, 8
	ret	
	.cfi_endproc
.LFE10943:
	.size	_ZNSt6vectorIiSaIiEE17_S_check_init_lenEmRKS0_, .-_ZNSt6vectorIiSaIiEE17_S_check_init_lenEmRKS0_
	.section	.text._ZNSt12_Vector_baseIiSaIiEE12_Vector_implD2Ev,"axG",@progbits,_ZNSt12_Vector_baseIiSaIiEE12_Vector_implD5Ev,comdat
	.align 2
	.weak	_ZNSt12_Vector_baseIiSaIiEE12_Vector_implD2Ev
	.type	_ZNSt12_Vector_baseIiSaIiEE12_Vector_implD2Ev, @function
_ZNSt12_Vector_baseIiSaIiEE12_Vector_implD2Ev:
.LFB10946:
	.cfi_startproc
	endbr64	
	push	rbp	#
	.cfi_def_cfa_offset 16
	.cfi_offset 6, -16
	mov	rbp, rsp	#,
	.cfi_def_cfa_register 6
	sub	rsp, 32	#,
	mov	QWORD PTR -24[rbp], rdi	# this, this
	mov	rax, QWORD PTR -24[rbp]	# tmp82, this
	mov	QWORD PTR -8[rbp], rax	# this, tmp82
# /usr/include/c++/13/bits/allocator.h:184:       ~allocator() _GLIBCXX_NOTHROW { }
	mov	rax, QWORD PTR -8[rbp]	# tmp83, this
	mov	rdi, rax	#, tmp83
	call	_ZNSt15__new_allocatorIiED2Ev	#
	nop	
# /usr/include/c++/13/bits/stl_vector.h:133:       struct _Vector_impl
	nop	
	leave	
	.cfi_def_cfa 7, 8
	ret	
	.cfi_endproc
.LFE10946:
	.size	_ZNSt12_Vector_baseIiSaIiEE12_Vector_implD2Ev, .-_ZNSt12_Vector_baseIiSaIiEE12_Vector_implD2Ev
	.weak	_ZNSt12_Vector_baseIiSaIiEE12_Vector_implD1Ev
	.set	_ZNSt12_Vector_baseIiSaIiEE12_Vector_implD1Ev,_ZNSt12_Vector_baseIiSaIiEE12_Vector_implD2Ev
	.section	.text._ZNSt12_Vector_baseIiSaIiEEC2EmRKS0_,"axG",@progbits,_ZNSt12_Vector_baseIiSaIiEEC5EmRKS0_,comdat
	.align 2
	.weak	_ZNSt12_Vector_baseIiSaIiEEC2EmRKS0_
	.type	_ZNSt12_Vector_baseIiSaIiEEC2EmRKS0_, @function
_ZNSt12_Vector_baseIiSaIiEEC2EmRKS0_:
.LFB10948:
	.cfi_startproc
	.cfi_personality 0x9b,DW.ref.__gxx_personality_v0
	.cfi_lsda 0x1b,.LLSDA10948
	endbr64	
	push	rbp	#
	.cfi_def_cfa_offset 16
	.cfi_offset 6, -16
	mov	rbp, rsp	#,
	.cfi_def_cfa_register 6
	push	rbx	#
	sub	rsp, 40	#,
	.cfi_offset 3, -24
	mov	QWORD PTR -24[rbp], rdi	# this, this
	mov	QWORD PTR -32[rbp], rsi	# __n, __n
	mov	QWORD PTR -40[rbp], rdx	# __a, __a
# /usr/include/c++/13/bits/stl_vector.h:334:       : _M_impl(__a)
	mov	rax, QWORD PTR -24[rbp]	# _1, this
	mov	rdx, QWORD PTR -40[rbp]	# tmp85, __a
	mov	rsi, rdx	#, tmp85
	mov	rdi, rax	#, _1
	call	_ZNSt12_Vector_baseIiSaIiEE12_Vector_implC1ERKS0_	#
# /usr/include/c++/13/bits/stl_vector.h:335:       { _M_create_storage(__n); }
	mov	rdx, QWORD PTR -32[rbp]	# tmp86, __n
	mov	rax, QWORD PTR -24[rbp]	# tmp87, this
	mov	rsi, rdx	#, tmp86
	mov	rdi, rax	#, tmp87
.LEHB16:
	call	_ZNSt12_Vector_baseIiSaIiEE17_M_create_storageEm	#
.LEHE16:
# /usr/include/c++/13/bits/stl_vector.h:335:       { _M_create_storage(__n); }
	jmp	.L141	#
.L140:
	endbr64	
# /usr/include/c++/13/bits/stl_vector.h:335:       { _M_create_storage(__n); }
	mov	rbx, rax	# tmp88,
	mov	rax, QWORD PTR -24[rbp]	# _2, this
	mov	rdi, rax	#, _2
	call	_ZNSt12_Vector_baseIiSaIiEE12_Vector_implD1Ev	#
	mov	rax, rbx	# D.230942, tmp88
	mov	rdi, rax	#, D.230942
.LEHB17:
	call	_Unwind_Resume@PLT	#
.LEHE17:
.L141:
# /usr/include/c++/13/bits/stl_vector.h:335:       { _M_create_storage(__n); }
	mov	rbx, QWORD PTR -8[rbp]	#,
	leave	
	.cfi_def_cfa 7, 8
	ret	
	.cfi_endproc
.LFE10948:
	.section	.gcc_except_table
.LLSDA10948:
	.byte	0xff
	.byte	0xff
	.byte	0x1
	.uleb128 .LLSDACSE10948-.LLSDACSB10948
.LLSDACSB10948:
	.uleb128 .LEHB16-.LFB10948
	.uleb128 .LEHE16-.LEHB16
	.uleb128 .L140-.LFB10948
	.uleb128 0
	.uleb128 .LEHB17-.LFB10948
	.uleb128 .LEHE17-.LEHB17
	.uleb128 0
	.uleb128 0
.LLSDACSE10948:
	.section	.text._ZNSt12_Vector_baseIiSaIiEEC2EmRKS0_,"axG",@progbits,_ZNSt12_Vector_baseIiSaIiEEC5EmRKS0_,comdat
	.size	_ZNSt12_Vector_baseIiSaIiEEC2EmRKS0_, .-_ZNSt12_Vector_baseIiSaIiEEC2EmRKS0_
	.weak	_ZNSt12_Vector_baseIiSaIiEEC1EmRKS0_
	.set	_ZNSt12_Vector_baseIiSaIiEEC1EmRKS0_,_ZNSt12_Vector_baseIiSaIiEEC2EmRKS0_
	.section	.text._ZNSt12_Vector_baseIiSaIiEED2Ev,"axG",@progbits,_ZNSt12_Vector_baseIiSaIiEED5Ev,comdat
	.align 2
	.weak	_ZNSt12_Vector_baseIiSaIiEED2Ev
	.type	_ZNSt12_Vector_baseIiSaIiEED2Ev, @function
_ZNSt12_Vector_baseIiSaIiEED2Ev:
.LFB10951:
	.cfi_startproc
	.cfi_personality 0x9b,DW.ref.__gxx_personality_v0
	.cfi_lsda 0x1b,.LLSDA10951
	endbr64	
	push	rbp	#
	.cfi_def_cfa_offset 16
	.cfi_offset 6, -16
	mov	rbp, rsp	#,
	.cfi_def_cfa_register 6
	sub	rsp, 16	#,
	mov	QWORD PTR -8[rbp], rdi	# this, this
# /usr/include/c++/13/bits/stl_vector.h:370: 		      _M_impl._M_end_of_storage - _M_impl._M_start);
	mov	rax, QWORD PTR -8[rbp]	# tmp89, this
	mov	rdx, QWORD PTR 16[rax]	# _1, this_9(D)->_M_impl.D.187644._M_end_of_storage
# /usr/include/c++/13/bits/stl_vector.h:370: 		      _M_impl._M_end_of_storage - _M_impl._M_start);
	mov	rax, QWORD PTR -8[rbp]	# tmp90, this
	mov	rax, QWORD PTR [rax]	# _2, this_9(D)->_M_impl.D.187644._M_start
# /usr/include/c++/13/bits/stl_vector.h:370: 		      _M_impl._M_end_of_storage - _M_impl._M_start);
	sub	rdx, rax	# _3, _2
	mov	rax, rdx	# _3, _3
	sar	rax, 2	# _3,
# /usr/include/c++/13/bits/stl_vector.h:369: 	_M_deallocate(_M_impl._M_start,
	mov	rdx, rax	# _5, _4
	mov	rax, QWORD PTR -8[rbp]	# tmp92, this
	mov	rcx, QWORD PTR [rax]	# _6, this_9(D)->_M_impl.D.187644._M_start
	mov	rax, QWORD PTR -8[rbp]	# tmp93, this
	mov	rsi, rcx	#, _6
	mov	rdi, rax	#, tmp93
	call	_ZNSt12_Vector_baseIiSaIiEE13_M_deallocateEPim	#
# /usr/include/c++/13/bits/stl_vector.h:371:       }
	mov	rax, QWORD PTR -8[rbp]	# _7, this
	mov	rdi, rax	#, _7
	call	_ZNSt12_Vector_baseIiSaIiEE12_Vector_implD1Ev	#
	nop	
	leave	
	.cfi_def_cfa 7, 8
	ret	
	.cfi_endproc
.LFE10951:
	.section	.gcc_except_table
.LLSDA10951:
	.byte	0xff
	.byte	0xff
	.byte	0x1
	.uleb128 .LLSDACSE10951-.LLSDACSB10951
.LLSDACSB10951:
.LLSDACSE10951:
	.section	.text._ZNSt12_Vector_baseIiSaIiEED2Ev,"axG",@progbits,_ZNSt12_Vector_baseIiSaIiEED5Ev,comdat
	.size	_ZNSt12_Vector_baseIiSaIiEED2Ev, .-_ZNSt12_Vector_baseIiSaIiEED2Ev
	.weak	_ZNSt12_Vector_baseIiSaIiEED1Ev
	.set	_ZNSt12_Vector_baseIiSaIiEED1Ev,_ZNSt12_Vector_baseIiSaIiEED2Ev
	.section	.text._ZNSt6vectorIiSaIiEE21_M_default_initializeEm,"axG",@progbits,_ZNSt6vectorIiSaIiEE21_M_default_initializeEm,comdat
	.align 2
	.weak	_ZNSt6vectorIiSaIiEE21_M_default_initializeEm
	.type	_ZNSt6vectorIiSaIiEE21_M_default_initializeEm, @function
_ZNSt6vectorIiSaIiEE21_M_default_initializeEm:
.LFB10953:
	.cfi_startproc
	endbr64	
	push	rbp	#
	.cfi_def_cfa_offset 16
	.cfi_offset 6, -16
	mov	rbp, rsp	#,
	.cfi_def_cfa_register 6
	sub	rsp, 16	#,
	mov	QWORD PTR -8[rbp], rdi	# this, this
	mov	QWORD PTR -16[rbp], rsi	# __n, __n
# /usr/include/c++/13/bits/stl_vector.h:1719: 					   _M_get_Tp_allocator());
	mov	rax, QWORD PTR -8[rbp]	# _1, this
	mov	rdi, rax	#, _1
	call	_ZNSt12_Vector_baseIiSaIiEE19_M_get_Tp_allocatorEv	#
	mov	rdx, rax	# _2,
# /usr/include/c++/13/bits/stl_vector.h:1718: 	  std::__uninitialized_default_n_a(this->_M_impl._M_start, __n,
	mov	rax, QWORD PTR -8[rbp]	# tmp86, this
	mov	rax, QWORD PTR [rax]	# _3, this_5(D)->D.188304._M_impl.D.187644._M_start
	mov	rcx, QWORD PTR -16[rbp]	# tmp87, __n
	mov	rsi, rcx	#, tmp87
	mov	rdi, rax	#, _3
	call	_ZSt27__uninitialized_default_n_aIPimiET_S1_T0_RSaIT1_E	#
# /usr/include/c++/13/bits/stl_vector.h:1717: 	this->_M_impl._M_finish =
	mov	rdx, QWORD PTR -8[rbp]	# tmp88, this
	mov	QWORD PTR 8[rdx], rax	# this_5(D)->D.188304._M_impl.D.187644._M_finish, _4
# /usr/include/c++/13/bits/stl_vector.h:1720:       }
	nop	
	leave	
	.cfi_def_cfa 7, 8
	ret	
	.cfi_endproc
.LFE10953:
	.size	_ZNSt6vectorIiSaIiEE21_M_default_initializeEm, .-_ZNSt6vectorIiSaIiEE21_M_default_initializeEm
	.section	.text._ZNSt12_Vector_baseIiSaIiEE19_M_get_Tp_allocatorEv,"axG",@progbits,_ZNSt12_Vector_baseIiSaIiEE19_M_get_Tp_allocatorEv,comdat
	.align 2
	.weak	_ZNSt12_Vector_baseIiSaIiEE19_M_get_Tp_allocatorEv
	.type	_ZNSt12_Vector_baseIiSaIiEE19_M_get_Tp_allocatorEv, @function
_ZNSt12_Vector_baseIiSaIiEE19_M_get_Tp_allocatorEv:
.LFB10954:
	.cfi_startproc
	endbr64	
	push	rbp	#
	.cfi_def_cfa_offset 16
	.cfi_offset 6, -16
	mov	rbp, rsp	#,
	.cfi_def_cfa_register 6
	mov	QWORD PTR -8[rbp], rdi	# this, this
# /usr/include/c++/13/bits/stl_vector.h:302:       { return this->_M_impl; }
	mov	rax, QWORD PTR -8[rbp]	# _2, this
# /usr/include/c++/13/bits/stl_vector.h:302:       { return this->_M_impl; }
	pop	rbp	#
	.cfi_def_cfa 7, 8
	ret	
	.cfi_endproc
.LFE10954:
	.size	_ZNSt12_Vector_baseIiSaIiEE19_M_get_Tp_allocatorEv, .-_ZNSt12_Vector_baseIiSaIiEE19_M_get_Tp_allocatorEv
	.section	.text._ZNSt15__new_allocatorISt6vectorIiSaIiEEED2Ev,"axG",@progbits,_ZNSt15__new_allocatorISt6vectorIiSaIiEEED5Ev,comdat
	.align 2
	.weak	_ZNSt15__new_allocatorISt6vectorIiSaIiEEED2Ev
	.type	_ZNSt15__new_allocatorISt6vectorIiSaIiEEED2Ev, @function
_ZNSt15__new_allocatorISt6vectorIiSaIiEEED2Ev:
.LFB10960:
	.cfi_startproc
	endbr64	
	push	rbp	#
	.cfi_def_cfa_offset 16
	.cfi_offset 6, -16
	mov	rbp, rsp	#,
	.cfi_def_cfa_register 6
	mov	QWORD PTR -8[rbp], rdi	# this, this
# /usr/include/c++/13/bits/new_allocator.h:104:       ~__new_allocator() _GLIBCXX_USE_NOEXCEPT { }
	nop	
	pop	rbp	#
	.cfi_def_cfa 7, 8
	ret	
	.cfi_endproc
.LFE10960:
	.size	_ZNSt15__new_allocatorISt6vectorIiSaIiEEED2Ev, .-_ZNSt15__new_allocatorISt6vectorIiSaIiEEED2Ev
	.weak	_ZNSt15__new_allocatorISt6vectorIiSaIiEEED1Ev
	.set	_ZNSt15__new_allocatorISt6vectorIiSaIiEEED1Ev,_ZNSt15__new_allocatorISt6vectorIiSaIiEEED2Ev
	.section	.text._ZNSt6vectorIS_IiSaIiEESaIS1_EE17_S_check_init_lenEmRKS2_,"axG",@progbits,_ZNSt6vectorIS_IiSaIiEESaIS1_EE17_S_check_init_lenEmRKS2_,comdat
	.weak	_ZNSt6vectorIS_IiSaIiEESaIS1_EE17_S_check_init_lenEmRKS2_
	.type	_ZNSt6vectorIS_IiSaIiEESaIS1_EE17_S_check_init_lenEmRKS2_, @function
_ZNSt6vectorIS_IiSaIiEESaIS1_EE17_S_check_init_lenEmRKS2_:
.LFB10962:
	.cfi_startproc
	endbr64	
	push	rbp	#
	.cfi_def_cfa_offset 16
	.cfi_offset 6, -16
	mov	rbp, rsp	#,
	.cfi_def_cfa_register 6
	push	rbx	#
	sub	rsp, 72	#,
	.cfi_offset 3, -24
	mov	QWORD PTR -72[rbp], rdi	# __n, __n
	mov	QWORD PTR -80[rbp], rsi	# __a, __a
# /usr/include/c++/13/bits/stl_vector.h:1907:       _S_check_init_len(size_type __n, const allocator_type& __a)
	mov	rax, QWORD PTR fs:40	# tmp93, MEM[(<address-space-1> long unsigned int *)40B]
	mov	QWORD PTR -24[rbp], rax	# D.230943, tmp93
	xor	eax, eax	# tmp93
	mov	rax, QWORD PTR -80[rbp]	# tmp86, __a
	mov	QWORD PTR -48[rbp], rax	# __a, tmp86
	lea	rax, -49[rbp]	# tmp87,
	mov	QWORD PTR -40[rbp], rax	# this, tmp87
	mov	rax, QWORD PTR -48[rbp]	# tmp88, __a
	mov	QWORD PTR -32[rbp], rax	# D.230799, tmp88
# /usr/include/c++/13/bits/new_allocator.h:92:       __new_allocator(const __new_allocator&) _GLIBCXX_USE_NOEXCEPT { }
	nop	
# /usr/include/c++/13/bits/allocator.h:168:       : __allocator_base<_Tp>(__a) { }
	nop	
# /usr/include/c++/13/bits/stl_vector.h:1909: 	if (__n > _S_max_size(_Tp_alloc_type(__a)))
	lea	rax, -49[rbp]	# tmp89,
	mov	rdi, rax	#, tmp89
	call	_ZNSt6vectorIS_IiSaIiEESaIS1_EE11_S_max_sizeERKS2_	#
# /usr/include/c++/13/bits/stl_vector.h:1909: 	if (__n > _S_max_size(_Tp_alloc_type(__a)))
	cmp	rax, QWORD PTR -72[rbp]	# _1, __n
	setb	bl	#, retval.24_6
# /usr/include/c++/13/bits/allocator.h:184:       ~allocator() _GLIBCXX_NOTHROW { }
	lea	rax, -49[rbp]	# tmp90,
	mov	rdi, rax	#, tmp90
	call	_ZNSt15__new_allocatorISt6vectorIiSaIiEEED2Ev	#
	nop	
# /usr/include/c++/13/bits/stl_vector.h:1909: 	if (__n > _S_max_size(_Tp_alloc_type(__a)))
	test	bl, bl	# retval.24_6
	je	.L148	#,
# /usr/include/c++/13/bits/stl_vector.h:1910: 	  __throw_length_error(
	mov	rax, QWORD PTR -24[rbp]	# tmp94, D.230943
	sub	rax, QWORD PTR fs:40	# tmp94, MEM[(<address-space-1> long unsigned int *)40B]
	je	.L149	#,
	call	__stack_chk_fail@PLT	#
.L149:
	lea	rax, .LC1[rip]	# tmp91,
	mov	rdi, rax	#, tmp91
	call	_ZSt20__throw_length_errorPKc@PLT	#
.L148:
# /usr/include/c++/13/bits/stl_vector.h:1912: 	return __n;
	mov	rax, QWORD PTR -72[rbp]	# _8, __n
# /usr/include/c++/13/bits/stl_vector.h:1913:       }
	mov	rdx, QWORD PTR -24[rbp]	# tmp95, D.230943
	sub	rdx, QWORD PTR fs:40	# tmp95, MEM[(<address-space-1> long unsigned int *)40B]
	je	.L151	#,
	call	__stack_chk_fail@PLT	#
.L151:
	mov	rbx, QWORD PTR -8[rbp]	#,
	leave	
	.cfi_def_cfa 7, 8
	ret	
	.cfi_endproc
.LFE10962:
	.size	_ZNSt6vectorIS_IiSaIiEESaIS1_EE17_S_check_init_lenEmRKS2_, .-_ZNSt6vectorIS_IiSaIiEESaIS1_EE17_S_check_init_lenEmRKS2_
	.section	.text._ZNSt12_Vector_baseISt6vectorIiSaIiEESaIS2_EE12_Vector_implD2Ev,"axG",@progbits,_ZNSt12_Vector_baseISt6vectorIiSaIiEESaIS2_EE12_Vector_implD5Ev,comdat
	.align 2
	.weak	_ZNSt12_Vector_baseISt6vectorIiSaIiEESaIS2_EE12_Vector_implD2Ev
	.type	_ZNSt12_Vector_baseISt6vectorIiSaIiEESaIS2_EE12_Vector_implD2Ev, @function
_ZNSt12_Vector_baseISt6vectorIiSaIiEESaIS2_EE12_Vector_implD2Ev:
.LFB10965:
	.cfi_startproc
	endbr64	
	push	rbp	#
	.cfi_def_cfa_offset 16
	.cfi_offset 6, -16
	mov	rbp, rsp	#,
	.cfi_def_cfa_register 6
	sub	rsp, 32	#,
	mov	QWORD PTR -24[rbp], rdi	# this, this
	mov	rax, QWORD PTR -24[rbp]	# tmp82, this
	mov	QWORD PTR -8[rbp], rax	# this, tmp82
# /usr/include/c++/13/bits/allocator.h:184:       ~allocator() _GLIBCXX_NOTHROW { }
	mov	rax, QWORD PTR -8[rbp]	# tmp83, this
	mov	rdi, rax	#, tmp83
	call	_ZNSt15__new_allocatorISt6vectorIiSaIiEEED2Ev	#
	nop	
# /usr/include/c++/13/bits/stl_vector.h:133:       struct _Vector_impl
	nop	
	leave	
	.cfi_def_cfa 7, 8
	ret	
	.cfi_endproc
.LFE10965:
	.size	_ZNSt12_Vector_baseISt6vectorIiSaIiEESaIS2_EE12_Vector_implD2Ev, .-_ZNSt12_Vector_baseISt6vectorIiSaIiEESaIS2_EE12_Vector_implD2Ev
	.weak	_ZNSt12_Vector_baseISt6vectorIiSaIiEESaIS2_EE12_Vector_implD1Ev
	.set	_ZNSt12_Vector_baseISt6vectorIiSaIiEESaIS2_EE12_Vector_implD1Ev,_ZNSt12_Vector_baseISt6vectorIiSaIiEESaIS2_EE12_Vector_implD2Ev
	.section	.text._ZNSt12_Vector_baseISt6vectorIiSaIiEESaIS2_EEC2EmRKS3_,"axG",@progbits,_ZNSt12_Vector_baseISt6vectorIiSaIiEESaIS2_EEC5EmRKS3_,comdat
	.align 2
	.weak	_ZNSt12_Vector_baseISt6vectorIiSaIiEESaIS2_EEC2EmRKS3_
	.type	_ZNSt12_Vector_baseISt6vectorIiSaIiEESaIS2_EEC2EmRKS3_, @function
_ZNSt12_Vector_baseISt6vectorIiSaIiEESaIS2_EEC2EmRKS3_:
.LFB10967:
	.cfi_startproc
	.cfi_personality 0x9b,DW.ref.__gxx_personality_v0
	.cfi_lsda 0x1b,.LLSDA10967
	endbr64	
	push	rbp	#
	.cfi_def_cfa_offset 16
	.cfi_offset 6, -16
	mov	rbp, rsp	#,
	.cfi_def_cfa_register 6
	push	rbx	#
	sub	rsp, 40	#,
	.cfi_offset 3, -24
	mov	QWORD PTR -24[rbp], rdi	# this, this
	mov	QWORD PTR -32[rbp], rsi	# __n, __n
	mov	QWORD PTR -40[rbp], rdx	# __a, __a
# /usr/include/c++/13/bits/stl_vector.h:334:       : _M_impl(__a)
	mov	rax, QWORD PTR -24[rbp]	# _1, this
	mov	rdx, QWORD PTR -40[rbp]	# tmp85, __a
	mov	rsi, rdx	#, tmp85
	mov	rdi, rax	#, _1
	call	_ZNSt12_Vector_baseISt6vectorIiSaIiEESaIS2_EE12_Vector_implC1ERKS3_	#
# /usr/include/c++/13/bits/stl_vector.h:335:       { _M_create_storage(__n); }
	mov	rdx, QWORD PTR -32[rbp]	# tmp86, __n
	mov	rax, QWORD PTR -24[rbp]	# tmp87, this
	mov	rsi, rdx	#, tmp86
	mov	rdi, rax	#, tmp87
.LEHB18:
	call	_ZNSt12_Vector_baseISt6vectorIiSaIiEESaIS2_EE17_M_create_storageEm	#
.LEHE18:
# /usr/include/c++/13/bits/stl_vector.h:335:       { _M_create_storage(__n); }
	jmp	.L156	#
.L155:
	endbr64	
# /usr/include/c++/13/bits/stl_vector.h:335:       { _M_create_storage(__n); }
	mov	rbx, rax	# tmp88,
	mov	rax, QWORD PTR -24[rbp]	# _2, this
	mov	rdi, rax	#, _2
	call	_ZNSt12_Vector_baseISt6vectorIiSaIiEESaIS2_EE12_Vector_implD1Ev	#
	mov	rax, rbx	# D.230944, tmp88
	mov	rdi, rax	#, D.230944
.LEHB19:
	call	_Unwind_Resume@PLT	#
.LEHE19:
.L156:
# /usr/include/c++/13/bits/stl_vector.h:335:       { _M_create_storage(__n); }
	mov	rbx, QWORD PTR -8[rbp]	#,
	leave	
	.cfi_def_cfa 7, 8
	ret	
	.cfi_endproc
.LFE10967:
	.section	.gcc_except_table
.LLSDA10967:
	.byte	0xff
	.byte	0xff
	.byte	0x1
	.uleb128 .LLSDACSE10967-.LLSDACSB10967
.LLSDACSB10967:
	.uleb128 .LEHB18-.LFB10967
	.uleb128 .LEHE18-.LEHB18
	.uleb128 .L155-.LFB10967
	.uleb128 0
	.uleb128 .LEHB19-.LFB10967
	.uleb128 .LEHE19-.LEHB19
	.uleb128 0
	.uleb128 0
.LLSDACSE10967:
	.section	.text._ZNSt12_Vector_baseISt6vectorIiSaIiEESaIS2_EEC2EmRKS3_,"axG",@progbits,_ZNSt12_Vector_baseISt6vectorIiSaIiEESaIS2_EEC5EmRKS3_,comdat
	.size	_ZNSt12_Vector_baseISt6vectorIiSaIiEESaIS2_EEC2EmRKS3_, .-_ZNSt12_Vector_baseISt6vectorIiSaIiEESaIS2_EEC2EmRKS3_
	.weak	_ZNSt12_Vector_baseISt6vectorIiSaIiEESaIS2_EEC1EmRKS3_
	.set	_ZNSt12_Vector_baseISt6vectorIiSaIiEESaIS2_EEC1EmRKS3_,_ZNSt12_Vector_baseISt6vectorIiSaIiEESaIS2_EEC2EmRKS3_
	.section	.text._ZNSt12_Vector_baseISt6vectorIiSaIiEESaIS2_EED2Ev,"axG",@progbits,_ZNSt12_Vector_baseISt6vectorIiSaIiEESaIS2_EED5Ev,comdat
	.align 2
	.weak	_ZNSt12_Vector_baseISt6vectorIiSaIiEESaIS2_EED2Ev
	.type	_ZNSt12_Vector_baseISt6vectorIiSaIiEESaIS2_EED2Ev, @function
_ZNSt12_Vector_baseISt6vectorIiSaIiEESaIS2_EED2Ev:
.LFB10970:
	.cfi_startproc
	.cfi_personality 0x9b,DW.ref.__gxx_personality_v0
	.cfi_lsda 0x1b,.LLSDA10970
	endbr64	
	push	rbp	#
	.cfi_def_cfa_offset 16
	.cfi_offset 6, -16
	mov	rbp, rsp	#,
	.cfi_def_cfa_register 6
	sub	rsp, 16	#,
	mov	QWORD PTR -8[rbp], rdi	# this, this
# /usr/include/c++/13/bits/stl_vector.h:370: 		      _M_impl._M_end_of_storage - _M_impl._M_start);
	mov	rax, QWORD PTR -8[rbp]	# tmp89, this
	mov	rdx, QWORD PTR 16[rax]	# _1, this_9(D)->_M_impl.D.208424._M_end_of_storage
# /usr/include/c++/13/bits/stl_vector.h:370: 		      _M_impl._M_end_of_storage - _M_impl._M_start);
	mov	rax, QWORD PTR -8[rbp]	# tmp90, this
	mov	rax, QWORD PTR [rax]	# _2, this_9(D)->_M_impl.D.208424._M_start
# /usr/include/c++/13/bits/stl_vector.h:370: 		      _M_impl._M_end_of_storage - _M_impl._M_start);
	sub	rdx, rax	# _3, _2
	sar	rdx, 3	# tmp91,
	movabs	rax, -6148914691236517205	# tmp93,
	imul	rax, rdx	# tmp92, tmp91
# /usr/include/c++/13/bits/stl_vector.h:369: 	_M_deallocate(_M_impl._M_start,
	mov	rdx, rax	# _5, _4
	mov	rax, QWORD PTR -8[rbp]	# tmp94, this
	mov	rcx, QWORD PTR [rax]	# _6, this_9(D)->_M_impl.D.208424._M_start
	mov	rax, QWORD PTR -8[rbp]	# tmp95, this
	mov	rsi, rcx	#, _6
	mov	rdi, rax	#, tmp95
	call	_ZNSt12_Vector_baseISt6vectorIiSaIiEESaIS2_EE13_M_deallocateEPS2_m	#
# /usr/include/c++/13/bits/stl_vector.h:371:       }
	mov	rax, QWORD PTR -8[rbp]	# _7, this
	mov	rdi, rax	#, _7
	call	_ZNSt12_Vector_baseISt6vectorIiSaIiEESaIS2_EE12_Vector_implD1Ev	#
	nop	
	leave	
	.cfi_def_cfa 7, 8
	ret	
	.cfi_endproc
.LFE10970:
	.section	.gcc_except_table
.LLSDA10970:
	.byte	0xff
	.byte	0xff
	.byte	0x1
	.uleb128 .LLSDACSE10970-.LLSDACSB10970
.LLSDACSB10970:
.LLSDACSE10970:
	.section	.text._ZNSt12_Vector_baseISt6vectorIiSaIiEESaIS2_EED2Ev,"axG",@progbits,_ZNSt12_Vector_baseISt6vectorIiSaIiEESaIS2_EED5Ev,comdat
	.size	_ZNSt12_Vector_baseISt6vectorIiSaIiEESaIS2_EED2Ev, .-_ZNSt12_Vector_baseISt6vectorIiSaIiEESaIS2_EED2Ev
	.weak	_ZNSt12_Vector_baseISt6vectorIiSaIiEESaIS2_EED1Ev
	.set	_ZNSt12_Vector_baseISt6vectorIiSaIiEESaIS2_EED1Ev,_ZNSt12_Vector_baseISt6vectorIiSaIiEESaIS2_EED2Ev
	.section	.text._ZNSt6vectorIS_IiSaIiEESaIS1_EE18_M_fill_initializeEmRKS1_,"axG",@progbits,_ZNSt6vectorIS_IiSaIiEESaIS1_EE18_M_fill_initializeEmRKS1_,comdat
	.align 2
	.weak	_ZNSt6vectorIS_IiSaIiEESaIS1_EE18_M_fill_initializeEmRKS1_
	.type	_ZNSt6vectorIS_IiSaIiEESaIS1_EE18_M_fill_initializeEmRKS1_, @function
_ZNSt6vectorIS_IiSaIiEESaIS1_EE18_M_fill_initializeEmRKS1_:
.LFB10972:
	.cfi_startproc
	endbr64	
	push	rbp	#
	.cfi_def_cfa_offset 16
	.cfi_offset 6, -16
	mov	rbp, rsp	#,
	.cfi_def_cfa_register 6
	sub	rsp, 32	#,
	mov	QWORD PTR -8[rbp], rdi	# this, this
	mov	QWORD PTR -16[rbp], rsi	# __n, __n
	mov	QWORD PTR -24[rbp], rdx	# __value, __value
# /usr/include/c++/13/bits/stl_vector.h:1708: 					_M_get_Tp_allocator());
	mov	rax, QWORD PTR -8[rbp]	# _1, this
	mov	rdi, rax	#, _1
	call	_ZNSt12_Vector_baseISt6vectorIiSaIiEESaIS2_EE19_M_get_Tp_allocatorEv	#
	mov	rcx, rax	# _2,
# /usr/include/c++/13/bits/stl_vector.h:1707: 	  std::__uninitialized_fill_n_a(this->_M_impl._M_start, __n, __value,
	mov	rax, QWORD PTR -8[rbp]	# tmp86, this
	mov	rax, QWORD PTR [rax]	# _3, this_5(D)->D.209085._M_impl.D.208424._M_start
	mov	rdx, QWORD PTR -24[rbp]	# tmp87, __value
	mov	rsi, QWORD PTR -16[rbp]	# tmp88, __n
	mov	rdi, rax	#, _3
	call	_ZSt24__uninitialized_fill_n_aIPSt6vectorIiSaIiEEmS2_S2_ET_S4_T0_RKT1_RSaIT2_E	#
# /usr/include/c++/13/bits/stl_vector.h:1706: 	this->_M_impl._M_finish =
	mov	rdx, QWORD PTR -8[rbp]	# tmp89, this
	mov	QWORD PTR 8[rdx], rax	# this_5(D)->D.209085._M_impl.D.208424._M_finish, _4
# /usr/include/c++/13/bits/stl_vector.h:1709:       }
	nop	
	leave	
	.cfi_def_cfa 7, 8
	ret	
	.cfi_endproc
.LFE10972:
	.size	_ZNSt6vectorIS_IiSaIiEESaIS1_EE18_M_fill_initializeEmRKS1_, .-_ZNSt6vectorIS_IiSaIiEESaIS1_EE18_M_fill_initializeEmRKS1_
	.section	.text._ZNSt12_Vector_baseISt6vectorIiSaIiEESaIS2_EE19_M_get_Tp_allocatorEv,"axG",@progbits,_ZNSt12_Vector_baseISt6vectorIiSaIiEESaIS2_EE19_M_get_Tp_allocatorEv,comdat
	.align 2
	.weak	_ZNSt12_Vector_baseISt6vectorIiSaIiEESaIS2_EE19_M_get_Tp_allocatorEv
	.type	_ZNSt12_Vector_baseISt6vectorIiSaIiEESaIS2_EE19_M_get_Tp_allocatorEv, @function
_ZNSt12_Vector_baseISt6vectorIiSaIiEESaIS2_EE19_M_get_Tp_allocatorEv:
.LFB10973:
	.cfi_startproc
	endbr64	
	push	rbp	#
	.cfi_def_cfa_offset 16
	.cfi_offset 6, -16
	mov	rbp, rsp	#,
	.cfi_def_cfa_register 6
	mov	QWORD PTR -8[rbp], rdi	# this, this
# /usr/include/c++/13/bits/stl_vector.h:302:       { return this->_M_impl; }
	mov	rax, QWORD PTR -8[rbp]	# _2, this
# /usr/include/c++/13/bits/stl_vector.h:302:       { return this->_M_impl; }
	pop	rbp	#
	.cfi_def_cfa 7, 8
	ret	
	.cfi_endproc
.LFE10973:
	.size	_ZNSt12_Vector_baseISt6vectorIiSaIiEESaIS2_EE19_M_get_Tp_allocatorEv, .-_ZNSt12_Vector_baseISt6vectorIiSaIiEESaIS2_EE19_M_get_Tp_allocatorEv
	.section	.text._ZNSt15__new_allocatorIbED2Ev,"axG",@progbits,_ZNSt15__new_allocatorIbED5Ev,comdat
	.align 2
	.weak	_ZNSt15__new_allocatorIbED2Ev
	.type	_ZNSt15__new_allocatorIbED2Ev, @function
_ZNSt15__new_allocatorIbED2Ev:
.LFB10979:
	.cfi_startproc
	endbr64	
	push	rbp	#
	.cfi_def_cfa_offset 16
	.cfi_offset 6, -16
	mov	rbp, rsp	#,
	.cfi_def_cfa_register 6
	mov	QWORD PTR -8[rbp], rdi	# this, this
# /usr/include/c++/13/bits/new_allocator.h:104:       ~__new_allocator() _GLIBCXX_USE_NOEXCEPT { }
	nop	
	pop	rbp	#
	.cfi_def_cfa 7, 8
	ret	
	.cfi_endproc
.LFE10979:
	.size	_ZNSt15__new_allocatorIbED2Ev, .-_ZNSt15__new_allocatorIbED2Ev
	.weak	_ZNSt15__new_allocatorIbED1Ev
	.set	_ZNSt15__new_allocatorIbED1Ev,_ZNSt15__new_allocatorIbED2Ev
	.section	.text._ZNSt6vectorIbSaIbEEC2EmRKbRKS0_,"axG",@progbits,_ZNSt6vectorIbSaIbEEC5EmRKbRKS0_,comdat
	.align 2
	.weak	_ZNSt6vectorIbSaIbEEC2EmRKbRKS0_
	.type	_ZNSt6vectorIbSaIbEEC2EmRKbRKS0_, @function
_ZNSt6vectorIbSaIbEEC2EmRKbRKS0_:
.LFB10982:
	.cfi_startproc
	.cfi_personality 0x9b,DW.ref.__gxx_personality_v0
	.cfi_lsda 0x1b,.LLSDA10982
	endbr64	
	push	rbp	#
	.cfi_def_cfa_offset 16
	.cfi_offset 6, -16
	mov	rbp, rsp	#,
	.cfi_def_cfa_register 6
	push	rbx	#
	sub	rsp, 40	#,
	.cfi_offset 3, -24
	mov	QWORD PTR -24[rbp], rdi	# this, this
	mov	QWORD PTR -32[rbp], rsi	# __n, __n
	mov	QWORD PTR -40[rbp], rdx	# __value, __value
	mov	QWORD PTR -48[rbp], rcx	# __a, __a
# /usr/include/c++/13/bits/stl_bvector.h:802:       : _Base(__a)
	mov	rax, QWORD PTR -24[rbp]	# _1, this
	mov	rdx, QWORD PTR -48[rbp]	# tmp87, __a
	mov	rsi, rdx	#, tmp87
	mov	rdi, rax	#, _1
	call	_ZNSt13_Bvector_baseISaIbEEC2ERKS0_	#
# /usr/include/c++/13/bits/stl_bvector.h:804: 	_M_initialize(__n);
	mov	rdx, QWORD PTR -32[rbp]	# tmp88, __n
	mov	rax, QWORD PTR -24[rbp]	# tmp89, this
	mov	rsi, rdx	#, tmp88
	mov	rdi, rax	#, tmp89
.LEHB20:
	call	_ZNSt6vectorIbSaIbEE13_M_initializeEm	#
.LEHE20:
# /usr/include/c++/13/bits/stl_bvector.h:805: 	_M_initialize_value(__value);
	mov	rax, QWORD PTR -40[rbp]	# tmp90, __value
	movzx	eax, BYTE PTR [rax]	# _2, *__value_12(D)
	movzx	edx, al	# _3, _2
	mov	rax, QWORD PTR -24[rbp]	# tmp91, this
	mov	esi, edx	#, _3
	mov	rdi, rax	#, tmp91
	call	_ZNSt6vectorIbSaIbEE19_M_initialize_valueEb	#
# /usr/include/c++/13/bits/stl_bvector.h:806:       }
	jmp	.L165	#
.L164:
	endbr64	
	mov	rbx, rax	# tmp92,
	mov	rax, QWORD PTR -24[rbp]	# _4, this
	mov	rdi, rax	#, _4
	call	_ZNSt13_Bvector_baseISaIbEED2Ev	#
	mov	rax, rbx	# D.230945, tmp92
	mov	rdi, rax	#, D.230945
.LEHB21:
	call	_Unwind_Resume@PLT	#
.LEHE21:
.L165:
	mov	rbx, QWORD PTR -8[rbp]	#,
	leave	
	.cfi_def_cfa 7, 8
	ret	
	.cfi_endproc
.LFE10982:
	.section	.gcc_except_table
.LLSDA10982:
	.byte	0xff
	.byte	0xff
	.byte	0x1
	.uleb128 .LLSDACSE10982-.LLSDACSB10982
.LLSDACSB10982:
	.uleb128 .LEHB20-.LFB10982
	.uleb128 .LEHE20-.LEHB20
	.uleb128 .L164-.LFB10982
	.uleb128 0
	.uleb128 .LEHB21-.LFB10982
	.uleb128 .LEHE21-.LEHB21
	.uleb128 0
	.uleb128 0
.LLSDACSE10982:
	.section	.text._ZNSt6vectorIbSaIbEEC2EmRKbRKS0_,"axG",@progbits,_ZNSt6vectorIbSaIbEEC5EmRKbRKS0_,comdat
	.size	_ZNSt6vectorIbSaIbEEC2EmRKbRKS0_, .-_ZNSt6vectorIbSaIbEEC2EmRKbRKS0_
	.weak	_ZNSt6vectorIbSaIbEEC1EmRKbRKS0_
	.set	_ZNSt6vectorIbSaIbEEC1EmRKbRKS0_,_ZNSt6vectorIbSaIbEEC2EmRKbRKS0_
	.section	.text._ZNSt13_Bvector_baseISaIbEE13_Bvector_implD2Ev,"axG",@progbits,_ZNSt13_Bvector_baseISaIbEE13_Bvector_implD5Ev,comdat
	.align 2
	.weak	_ZNSt13_Bvector_baseISaIbEE13_Bvector_implD2Ev
	.type	_ZNSt13_Bvector_baseISaIbEE13_Bvector_implD2Ev, @function
_ZNSt13_Bvector_baseISaIbEE13_Bvector_implD2Ev:
.LFB10986:
	.cfi_startproc
	endbr64	
	push	rbp	#
	.cfi_def_cfa_offset 16
	.cfi_offset 6, -16
	mov	rbp, rsp	#,
	.cfi_def_cfa_register 6
	sub	rsp, 32	#,
	mov	QWORD PTR -24[rbp], rdi	# this, this
	mov	rax, QWORD PTR -24[rbp]	# tmp82, this
	mov	QWORD PTR -8[rbp], rax	# this, tmp82
# /usr/include/c++/13/bits/allocator.h:184:       ~allocator() _GLIBCXX_NOTHROW { }
	mov	rax, QWORD PTR -8[rbp]	# tmp83, this
	mov	rdi, rax	#, tmp83
	call	_ZNSt15__new_allocatorImED2Ev	#
	nop	
# /usr/include/c++/13/bits/stl_bvector.h:590:       struct _Bvector_impl
	nop	
	leave	
	.cfi_def_cfa 7, 8
	ret	
	.cfi_endproc
.LFE10986:
	.size	_ZNSt13_Bvector_baseISaIbEE13_Bvector_implD2Ev, .-_ZNSt13_Bvector_baseISaIbEE13_Bvector_implD2Ev
	.weak	_ZNSt13_Bvector_baseISaIbEE13_Bvector_implD1Ev
	.set	_ZNSt13_Bvector_baseISaIbEE13_Bvector_implD1Ev,_ZNSt13_Bvector_baseISaIbEE13_Bvector_implD2Ev
	.section	.text._ZNSt13_Bvector_baseISaIbEED2Ev,"axG",@progbits,_ZNSt13_Bvector_baseISaIbEED5Ev,comdat
	.align 2
	.weak	_ZNSt13_Bvector_baseISaIbEED2Ev
	.type	_ZNSt13_Bvector_baseISaIbEED2Ev, @function
_ZNSt13_Bvector_baseISaIbEED2Ev:
.LFB10988:
	.cfi_startproc
	.cfi_personality 0x9b,DW.ref.__gxx_personality_v0
	.cfi_lsda 0x1b,.LLSDA10988
	endbr64	
	push	rbp	#
	.cfi_def_cfa_offset 16
	.cfi_offset 6, -16
	mov	rbp, rsp	#,
	.cfi_def_cfa_register 6
	sub	rsp, 16	#,
	mov	QWORD PTR -8[rbp], rdi	# this, this
# /usr/include/c++/13/bits/stl_bvector.h:670:       { this->_M_deallocate(); }
	mov	rax, QWORD PTR -8[rbp]	# tmp83, this
	mov	rdi, rax	#, tmp83
	call	_ZNSt13_Bvector_baseISaIbEE13_M_deallocateEv	#
# /usr/include/c++/13/bits/stl_bvector.h:670:       { this->_M_deallocate(); }
	mov	rax, QWORD PTR -8[rbp]	# _1, this
	mov	rdi, rax	#, _1
	call	_ZNSt13_Bvector_baseISaIbEE13_Bvector_implD1Ev	#
# /usr/include/c++/13/bits/stl_bvector.h:670:       { this->_M_deallocate(); }
	nop	
	leave	
	.cfi_def_cfa 7, 8
	ret	
	.cfi_endproc
.LFE10988:
	.section	.gcc_except_table
.LLSDA10988:
	.byte	0xff
	.byte	0xff
	.byte	0x1
	.uleb128 .LLSDACSE10988-.LLSDACSB10988
.LLSDACSB10988:
.LLSDACSE10988:
	.section	.text._ZNSt13_Bvector_baseISaIbEED2Ev,"axG",@progbits,_ZNSt13_Bvector_baseISaIbEED5Ev,comdat
	.size	_ZNSt13_Bvector_baseISaIbEED2Ev, .-_ZNSt13_Bvector_baseISaIbEED2Ev
	.weak	_ZNSt13_Bvector_baseISaIbEED1Ev
	.set	_ZNSt13_Bvector_baseISaIbEED1Ev,_ZNSt13_Bvector_baseISaIbEED2Ev
	.section	.text._ZNSt15__new_allocatorISt6vectorIbSaIbEEED2Ev,"axG",@progbits,_ZNSt15__new_allocatorISt6vectorIbSaIbEEED5Ev,comdat
	.align 2
	.weak	_ZNSt15__new_allocatorISt6vectorIbSaIbEEED2Ev
	.type	_ZNSt15__new_allocatorISt6vectorIbSaIbEEED2Ev, @function
_ZNSt15__new_allocatorISt6vectorIbSaIbEEED2Ev:
.LFB10994:
	.cfi_startproc
	endbr64	
	push	rbp	#
	.cfi_def_cfa_offset 16
	.cfi_offset 6, -16
	mov	rbp, rsp	#,
	.cfi_def_cfa_register 6
	mov	QWORD PTR -8[rbp], rdi	# this, this
# /usr/include/c++/13/bits/new_allocator.h:104:       ~__new_allocator() _GLIBCXX_USE_NOEXCEPT { }
	nop	
	pop	rbp	#
	.cfi_def_cfa 7, 8
	ret	
	.cfi_endproc
.LFE10994:
	.size	_ZNSt15__new_allocatorISt6vectorIbSaIbEEED2Ev, .-_ZNSt15__new_allocatorISt6vectorIbSaIbEEED2Ev
	.weak	_ZNSt15__new_allocatorISt6vectorIbSaIbEEED1Ev
	.set	_ZNSt15__new_allocatorISt6vectorIbSaIbEEED1Ev,_ZNSt15__new_allocatorISt6vectorIbSaIbEEED2Ev
	.section	.text._ZNSt6vectorIS_IbSaIbEESaIS1_EE17_S_check_init_lenEmRKS2_,"axG",@progbits,_ZNSt6vectorIS_IbSaIbEESaIS1_EE17_S_check_init_lenEmRKS2_,comdat
	.weak	_ZNSt6vectorIS_IbSaIbEESaIS1_EE17_S_check_init_lenEmRKS2_
	.type	_ZNSt6vectorIS_IbSaIbEESaIS1_EE17_S_check_init_lenEmRKS2_, @function
_ZNSt6vectorIS_IbSaIbEESaIS1_EE17_S_check_init_lenEmRKS2_:
.LFB10996:
	.cfi_startproc
	endbr64	
	push	rbp	#
	.cfi_def_cfa_offset 16
	.cfi_offset 6, -16
	mov	rbp, rsp	#,
	.cfi_def_cfa_register 6
	push	rbx	#
	sub	rsp, 72	#,
	.cfi_offset 3, -24
	mov	QWORD PTR -72[rbp], rdi	# __n, __n
	mov	QWORD PTR -80[rbp], rsi	# __a, __a
# /usr/include/c++/13/bits/stl_vector.h:1907:       _S_check_init_len(size_type __n, const allocator_type& __a)
	mov	rax, QWORD PTR fs:40	# tmp93, MEM[(<address-space-1> long unsigned int *)40B]
	mov	QWORD PTR -24[rbp], rax	# D.230946, tmp93
	xor	eax, eax	# tmp93
	mov	rax, QWORD PTR -80[rbp]	# tmp86, __a
	mov	QWORD PTR -48[rbp], rax	# __a, tmp86
	lea	rax, -49[rbp]	# tmp87,
	mov	QWORD PTR -40[rbp], rax	# this, tmp87
	mov	rax, QWORD PTR -48[rbp]	# tmp88, __a
	mov	QWORD PTR -32[rbp], rax	# D.230842, tmp88
# /usr/include/c++/13/bits/new_allocator.h:92:       __new_allocator(const __new_allocator&) _GLIBCXX_USE_NOEXCEPT { }
	nop	
# /usr/include/c++/13/bits/allocator.h:168:       : __allocator_base<_Tp>(__a) { }
	nop	
# /usr/include/c++/13/bits/stl_vector.h:1909: 	if (__n > _S_max_size(_Tp_alloc_type(__a)))
	lea	rax, -49[rbp]	# tmp89,
	mov	rdi, rax	#, tmp89
	call	_ZNSt6vectorIS_IbSaIbEESaIS1_EE11_S_max_sizeERKS2_	#
# /usr/include/c++/13/bits/stl_vector.h:1909: 	if (__n > _S_max_size(_Tp_alloc_type(__a)))
	cmp	rax, QWORD PTR -72[rbp]	# _1, __n
	setb	bl	#, retval.33_6
# /usr/include/c++/13/bits/allocator.h:184:       ~allocator() _GLIBCXX_NOTHROW { }
	lea	rax, -49[rbp]	# tmp90,
	mov	rdi, rax	#, tmp90
	call	_ZNSt15__new_allocatorISt6vectorIbSaIbEEED2Ev	#
	nop	
# /usr/include/c++/13/bits/stl_vector.h:1909: 	if (__n > _S_max_size(_Tp_alloc_type(__a)))
	test	bl, bl	# retval.33_6
	je	.L170	#,
# /usr/include/c++/13/bits/stl_vector.h:1910: 	  __throw_length_error(
	mov	rax, QWORD PTR -24[rbp]	# tmp94, D.230946
	sub	rax, QWORD PTR fs:40	# tmp94, MEM[(<address-space-1> long unsigned int *)40B]
	je	.L171	#,
	call	__stack_chk_fail@PLT	#
.L171:
	lea	rax, .LC1[rip]	# tmp91,
	mov	rdi, rax	#, tmp91
	call	_ZSt20__throw_length_errorPKc@PLT	#
.L170:
# /usr/include/c++/13/bits/stl_vector.h:1912: 	return __n;
	mov	rax, QWORD PTR -72[rbp]	# _8, __n
# /usr/include/c++/13/bits/stl_vector.h:1913:       }
	mov	rdx, QWORD PTR -24[rbp]	# tmp95, D.230946
	sub	rdx, QWORD PTR fs:40	# tmp95, MEM[(<address-space-1> long unsigned int *)40B]
	je	.L173	#,
	call	__stack_chk_fail@PLT	#
.L173:
	mov	rbx, QWORD PTR -8[rbp]	#,
	leave	
	.cfi_def_cfa 7, 8
	ret	
	.cfi_endproc
.LFE10996:
	.size	_ZNSt6vectorIS_IbSaIbEESaIS1_EE17_S_check_init_lenEmRKS2_, .-_ZNSt6vectorIS_IbSaIbEESaIS1_EE17_S_check_init_lenEmRKS2_
	.section	.text._ZNSt12_Vector_baseISt6vectorIbSaIbEESaIS2_EE12_Vector_implD2Ev,"axG",@progbits,_ZNSt12_Vector_baseISt6vectorIbSaIbEESaIS2_EE12_Vector_implD5Ev,comdat
	.align 2
	.weak	_ZNSt12_Vector_baseISt6vectorIbSaIbEESaIS2_EE12_Vector_implD2Ev
	.type	_ZNSt12_Vector_baseISt6vectorIbSaIbEESaIS2_EE12_Vector_implD2Ev, @function
_ZNSt12_Vector_baseISt6vectorIbSaIbEESaIS2_EE12_Vector_implD2Ev:
.LFB10999:
	.cfi_startproc
	endbr64	
	push	rbp	#
	.cfi_def_cfa_offset 16
	.cfi_offset 6, -16
	mov	rbp, rsp	#,
	.cfi_def_cfa_register 6
	sub	rsp, 32	#,
	mov	QWORD PTR -24[rbp], rdi	# this, this
	mov	rax, QWORD PTR -24[rbp]	# tmp82, this
	mov	QWORD PTR -8[rbp], rax	# this, tmp82
# /usr/include/c++/13/bits/allocator.h:184:       ~allocator() _GLIBCXX_NOTHROW { }
	mov	rax, QWORD PTR -8[rbp]	# tmp83, this
	mov	rdi, rax	#, tmp83
	call	_ZNSt15__new_allocatorISt6vectorIbSaIbEEED2Ev	#
	nop	
# /usr/include/c++/13/bits/stl_vector.h:133:       struct _Vector_impl
	nop	
	leave	
	.cfi_def_cfa 7, 8
	ret	
	.cfi_endproc
.LFE10999:
	.size	_ZNSt12_Vector_baseISt6vectorIbSaIbEESaIS2_EE12_Vector_implD2Ev, .-_ZNSt12_Vector_baseISt6vectorIbSaIbEESaIS2_EE12_Vector_implD2Ev
	.weak	_ZNSt12_Vector_baseISt6vectorIbSaIbEESaIS2_EE12_Vector_implD1Ev
	.set	_ZNSt12_Vector_baseISt6vectorIbSaIbEESaIS2_EE12_Vector_implD1Ev,_ZNSt12_Vector_baseISt6vectorIbSaIbEESaIS2_EE12_Vector_implD2Ev
	.section	.text._ZNSt12_Vector_baseISt6vectorIbSaIbEESaIS2_EEC2EmRKS3_,"axG",@progbits,_ZNSt12_Vector_baseISt6vectorIbSaIbEESaIS2_EEC5EmRKS3_,comdat
	.align 2
	.weak	_ZNSt12_Vector_baseISt6vectorIbSaIbEESaIS2_EEC2EmRKS3_
	.type	_ZNSt12_Vector_baseISt6vectorIbSaIbEESaIS2_EEC2EmRKS3_, @function
_ZNSt12_Vector_baseISt6vectorIbSaIbEESaIS2_EEC2EmRKS3_:
.LFB11001:
	.cfi_startproc
	.cfi_personality 0x9b,DW.ref.__gxx_personality_v0
	.cfi_lsda 0x1b,.LLSDA11001
	endbr64	
	push	rbp	#
	.cfi_def_cfa_offset 16
	.cfi_offset 6, -16
	mov	rbp, rsp	#,
	.cfi_def_cfa_register 6
	push	rbx	#
	sub	rsp, 40	#,
	.cfi_offset 3, -24
	mov	QWORD PTR -24[rbp], rdi	# this, this
	mov	QWORD PTR -32[rbp], rsi	# __n, __n
	mov	QWORD PTR -40[rbp], rdx	# __a, __a
# /usr/include/c++/13/bits/stl_vector.h:334:       : _M_impl(__a)
	mov	rax, QWORD PTR -24[rbp]	# _1, this
	mov	rdx, QWORD PTR -40[rbp]	# tmp85, __a
	mov	rsi, rdx	#, tmp85
	mov	rdi, rax	#, _1
	call	_ZNSt12_Vector_baseISt6vectorIbSaIbEESaIS2_EE12_Vector_implC1ERKS3_	#
# /usr/include/c++/13/bits/stl_vector.h:335:       { _M_create_storage(__n); }
	mov	rdx, QWORD PTR -32[rbp]	# tmp86, __n
	mov	rax, QWORD PTR -24[rbp]	# tmp87, this
	mov	rsi, rdx	#, tmp86
	mov	rdi, rax	#, tmp87
.LEHB22:
	call	_ZNSt12_Vector_baseISt6vectorIbSaIbEESaIS2_EE17_M_create_storageEm	#
.LEHE22:
# /usr/include/c++/13/bits/stl_vector.h:335:       { _M_create_storage(__n); }
	jmp	.L178	#
.L177:
	endbr64	
# /usr/include/c++/13/bits/stl_vector.h:335:       { _M_create_storage(__n); }
	mov	rbx, rax	# tmp88,
	mov	rax, QWORD PTR -24[rbp]	# _2, this
	mov	rdi, rax	#, _2
	call	_ZNSt12_Vector_baseISt6vectorIbSaIbEESaIS2_EE12_Vector_implD1Ev	#
	mov	rax, rbx	# D.230947, tmp88
	mov	rdi, rax	#, D.230947
.LEHB23:
	call	_Unwind_Resume@PLT	#
.LEHE23:
.L178:
# /usr/include/c++/13/bits/stl_vector.h:335:       { _M_create_storage(__n); }
	mov	rbx, QWORD PTR -8[rbp]	#,
	leave	
	.cfi_def_cfa 7, 8
	ret	
	.cfi_endproc
.LFE11001:
	.section	.gcc_except_table
.LLSDA11001:
	.byte	0xff
	.byte	0xff
	.byte	0x1
	.uleb128 .LLSDACSE11001-.LLSDACSB11001
.LLSDACSB11001:
	.uleb128 .LEHB22-.LFB11001
	.uleb128 .LEHE22-.LEHB22
	.uleb128 .L177-.LFB11001
	.uleb128 0
	.uleb128 .LEHB23-.LFB11001
	.uleb128 .LEHE23-.LEHB23
	.uleb128 0
	.uleb128 0
.LLSDACSE11001:
	.section	.text._ZNSt12_Vector_baseISt6vectorIbSaIbEESaIS2_EEC2EmRKS3_,"axG",@progbits,_ZNSt12_Vector_baseISt6vectorIbSaIbEESaIS2_EEC5EmRKS3_,comdat
	.size	_ZNSt12_Vector_baseISt6vectorIbSaIbEESaIS2_EEC2EmRKS3_, .-_ZNSt12_Vector_baseISt6vectorIbSaIbEESaIS2_EEC2EmRKS3_
	.weak	_ZNSt12_Vector_baseISt6vectorIbSaIbEESaIS2_EEC1EmRKS3_
	.set	_ZNSt12_Vector_baseISt6vectorIbSaIbEESaIS2_EEC1EmRKS3_,_ZNSt12_Vector_baseISt6vectorIbSaIbEESaIS2_EEC2EmRKS3_
	.section	.text._ZNSt12_Vector_baseISt6vectorIbSaIbEESaIS2_EED2Ev,"axG",@progbits,_ZNSt12_Vector_baseISt6vectorIbSaIbEESaIS2_EED5Ev,comdat
	.align 2
	.weak	_ZNSt12_Vector_baseISt6vectorIbSaIbEESaIS2_EED2Ev
	.type	_ZNSt12_Vector_baseISt6vectorIbSaIbEESaIS2_EED2Ev, @function
_ZNSt12_Vector_baseISt6vectorIbSaIbEESaIS2_EED2Ev:
.LFB11004:
	.cfi_startproc
	.cfi_personality 0x9b,DW.ref.__gxx_personality_v0
	.cfi_lsda 0x1b,.LLSDA11004
	endbr64	
	push	rbp	#
	.cfi_def_cfa_offset 16
	.cfi_offset 6, -16
	mov	rbp, rsp	#,
	.cfi_def_cfa_register 6
	sub	rsp, 16	#,
	mov	QWORD PTR -8[rbp], rdi	# this, this
# /usr/include/c++/13/bits/stl_vector.h:370: 		      _M_impl._M_end_of_storage - _M_impl._M_start);
	mov	rax, QWORD PTR -8[rbp]	# tmp89, this
	mov	rdx, QWORD PTR 16[rax]	# _1, this_9(D)->_M_impl.D.209471._M_end_of_storage
# /usr/include/c++/13/bits/stl_vector.h:370: 		      _M_impl._M_end_of_storage - _M_impl._M_start);
	mov	rax, QWORD PTR -8[rbp]	# tmp90, this
	mov	rax, QWORD PTR [rax]	# _2, this_9(D)->_M_impl.D.209471._M_start
# /usr/include/c++/13/bits/stl_vector.h:370: 		      _M_impl._M_end_of_storage - _M_impl._M_start);
	sub	rdx, rax	# _3, _2
	sar	rdx, 3	# tmp91,
	movabs	rax, -3689348814741910323	# tmp93,
	imul	rax, rdx	# tmp92, tmp91
# /usr/include/c++/13/bits/stl_vector.h:369: 	_M_deallocate(_M_impl._M_start,
	mov	rdx, rax	# _5, _4
	mov	rax, QWORD PTR -8[rbp]	# tmp94, this
	mov	rcx, QWORD PTR [rax]	# _6, this_9(D)->_M_impl.D.209471._M_start
	mov	rax, QWORD PTR -8[rbp]	# tmp95, this
	mov	rsi, rcx	#, _6
	mov	rdi, rax	#, tmp95
	call	_ZNSt12_Vector_baseISt6vectorIbSaIbEESaIS2_EE13_M_deallocateEPS2_m	#
# /usr/include/c++/13/bits/stl_vector.h:371:       }
	mov	rax, QWORD PTR -8[rbp]	# _7, this
	mov	rdi, rax	#, _7
	call	_ZNSt12_Vector_baseISt6vectorIbSaIbEESaIS2_EE12_Vector_implD1Ev	#
	nop	
	leave	
	.cfi_def_cfa 7, 8
	ret	
	.cfi_endproc
.LFE11004:
	.section	.gcc_except_table
.LLSDA11004:
	.byte	0xff
	.byte	0xff
	.byte	0x1
	.uleb128 .LLSDACSE11004-.LLSDACSB11004
.LLSDACSB11004:
.LLSDACSE11004:
	.section	.text._ZNSt12_Vector_baseISt6vectorIbSaIbEESaIS2_EED2Ev,"axG",@progbits,_ZNSt12_Vector_baseISt6vectorIbSaIbEESaIS2_EED5Ev,comdat
	.size	_ZNSt12_Vector_baseISt6vectorIbSaIbEESaIS2_EED2Ev, .-_ZNSt12_Vector_baseISt6vectorIbSaIbEESaIS2_EED2Ev
	.weak	_ZNSt12_Vector_baseISt6vectorIbSaIbEESaIS2_EED1Ev
	.set	_ZNSt12_Vector_baseISt6vectorIbSaIbEESaIS2_EED1Ev,_ZNSt12_Vector_baseISt6vectorIbSaIbEESaIS2_EED2Ev
	.section	.text._ZNSt6vectorIS_IbSaIbEESaIS1_EE18_M_fill_initializeEmRKS1_,"axG",@progbits,_ZNSt6vectorIS_IbSaIbEESaIS1_EE18_M_fill_initializeEmRKS1_,comdat
	.align 2
	.weak	_ZNSt6vectorIS_IbSaIbEESaIS1_EE18_M_fill_initializeEmRKS1_
	.type	_ZNSt6vectorIS_IbSaIbEESaIS1_EE18_M_fill_initializeEmRKS1_, @function
_ZNSt6vectorIS_IbSaIbEESaIS1_EE18_M_fill_initializeEmRKS1_:
.LFB11006:
	.cfi_startproc
	endbr64	
	push	rbp	#
	.cfi_def_cfa_offset 16
	.cfi_offset 6, -16
	mov	rbp, rsp	#,
	.cfi_def_cfa_register 6
	sub	rsp, 32	#,
	mov	QWORD PTR -8[rbp], rdi	# this, this
	mov	QWORD PTR -16[rbp], rsi	# __n, __n
	mov	QWORD PTR -24[rbp], rdx	# __value, __value
# /usr/include/c++/13/bits/stl_vector.h:1708: 					_M_get_Tp_allocator());
	mov	rax, QWORD PTR -8[rbp]	# _1, this
	mov	rdi, rax	#, _1
	call	_ZNSt12_Vector_baseISt6vectorIbSaIbEESaIS2_EE19_M_get_Tp_allocatorEv	#
	mov	rcx, rax	# _2,
# /usr/include/c++/13/bits/stl_vector.h:1707: 	  std::__uninitialized_fill_n_a(this->_M_impl._M_start, __n, __value,
	mov	rax, QWORD PTR -8[rbp]	# tmp86, this
	mov	rax, QWORD PTR [rax]	# _3, this_5(D)->D.210132._M_impl.D.209471._M_start
	mov	rdx, QWORD PTR -24[rbp]	# tmp87, __value
	mov	rsi, QWORD PTR -16[rbp]	# tmp88, __n
	mov	rdi, rax	#, _3
	call	_ZSt24__uninitialized_fill_n_aIPSt6vectorIbSaIbEEmS2_S2_ET_S4_T0_RKT1_RSaIT2_E	#
# /usr/include/c++/13/bits/stl_vector.h:1706: 	this->_M_impl._M_finish =
	mov	rdx, QWORD PTR -8[rbp]	# tmp89, this
	mov	QWORD PTR 8[rdx], rax	# this_5(D)->D.210132._M_impl.D.209471._M_finish, _4
# /usr/include/c++/13/bits/stl_vector.h:1709:       }
	nop	
	leave	
	.cfi_def_cfa 7, 8
	ret	
	.cfi_endproc
.LFE11006:
	.size	_ZNSt6vectorIS_IbSaIbEESaIS1_EE18_M_fill_initializeEmRKS1_, .-_ZNSt6vectorIS_IbSaIbEESaIS1_EE18_M_fill_initializeEmRKS1_
	.section	.text._ZNSt12_Vector_baseISt6vectorIbSaIbEESaIS2_EE19_M_get_Tp_allocatorEv,"axG",@progbits,_ZNSt12_Vector_baseISt6vectorIbSaIbEESaIS2_EE19_M_get_Tp_allocatorEv,comdat
	.align 2
	.weak	_ZNSt12_Vector_baseISt6vectorIbSaIbEESaIS2_EE19_M_get_Tp_allocatorEv
	.type	_ZNSt12_Vector_baseISt6vectorIbSaIbEESaIS2_EE19_M_get_Tp_allocatorEv, @function
_ZNSt12_Vector_baseISt6vectorIbSaIbEESaIS2_EE19_M_get_Tp_allocatorEv:
.LFB11007:
	.cfi_startproc
	endbr64	
	push	rbp	#
	.cfi_def_cfa_offset 16
	.cfi_offset 6, -16
	mov	rbp, rsp	#,
	.cfi_def_cfa_register 6
	mov	QWORD PTR -8[rbp], rdi	# this, this
# /usr/include/c++/13/bits/stl_vector.h:302:       { return this->_M_impl; }
	mov	rax, QWORD PTR -8[rbp]	# _2, this
# /usr/include/c++/13/bits/stl_vector.h:302:       { return this->_M_impl; }
	pop	rbp	#
	.cfi_def_cfa 7, 8
	ret	
	.cfi_endproc
.LFE11007:
	.size	_ZNSt12_Vector_baseISt6vectorIbSaIbEESaIS2_EE19_M_get_Tp_allocatorEv, .-_ZNSt12_Vector_baseISt6vectorIbSaIbEESaIS2_EE19_M_get_Tp_allocatorEv
	.section	.text._ZNSt6vectorIiSaIiEE11_S_max_sizeERKS0_,"axG",@progbits,_ZNSt6vectorIiSaIiEE11_S_max_sizeERKS0_,comdat
	.weak	_ZNSt6vectorIiSaIiEE11_S_max_sizeERKS0_
	.type	_ZNSt6vectorIiSaIiEE11_S_max_sizeERKS0_, @function
_ZNSt6vectorIiSaIiEE11_S_max_sizeERKS0_:
.LFB11221:
	.cfi_startproc
	endbr64	
	push	rbp	#
	.cfi_def_cfa_offset 16
	.cfi_offset 6, -16
	mov	rbp, rsp	#,
	.cfi_def_cfa_register 6
	sub	rsp, 64	#,
	mov	QWORD PTR -56[rbp], rdi	# __a, __a
# /usr/include/c++/13/bits/stl_vector.h:1916:       _S_max_size(const _Tp_alloc_type& __a) _GLIBCXX_NOEXCEPT
	mov	rax, QWORD PTR fs:40	# tmp92, MEM[(<address-space-1> long unsigned int *)40B]
	mov	QWORD PTR -8[rbp], rax	# D.230948, tmp92
	xor	eax, eax	# tmp92
# /usr/include/c++/13/bits/stl_vector.h:1921: 	const size_t __diffmax
	movabs	rax, 2305843009213693951	# tmp95,
	mov	QWORD PTR -48[rbp], rax	# __diffmax, tmp95
	mov	rax, QWORD PTR -56[rbp]	# tmp86, __a
	mov	QWORD PTR -32[rbp], rax	# __a, tmp86
	mov	rax, QWORD PTR -32[rbp]	# tmp87, __a
	mov	QWORD PTR -24[rbp], rax	# this, tmp87
	mov	rax, QWORD PTR -24[rbp]	# tmp88, this
	mov	QWORD PTR -16[rbp], rax	# this, tmp88
# /usr/include/c++/13/bits/new_allocator.h:233: 	return std::size_t(__PTRDIFF_MAX__) / sizeof(_Tp);
	movabs	rax, 2305843009213693951	# D.230756,
# /usr/include/c++/13/bits/new_allocator.h:183:       { return _M_max_size(); }
	nop	
# /usr/include/c++/13/bits/alloc_traits.h:574: 	return __a.max_size();
	nop	
# /usr/include/c++/13/bits/stl_vector.h:1923: 	const size_t __allocmax = _Alloc_traits::max_size(__a);
	mov	QWORD PTR -40[rbp], rax	# __allocmax, D.230756
# /usr/include/c++/13/bits/stl_vector.h:1924: 	return (std::min)(__diffmax, __allocmax);
	lea	rdx, -40[rbp]	# tmp89,
	lea	rax, -48[rbp]	# tmp90,
	mov	rsi, rdx	#, tmp89
	mov	rdi, rax	#, tmp90
	call	_ZSt3minImERKT_S2_S2_	#
# /usr/include/c++/13/bits/stl_vector.h:1924: 	return (std::min)(__diffmax, __allocmax);
	mov	rax, QWORD PTR [rax]	# _8, *_2
# /usr/include/c++/13/bits/stl_vector.h:1925:       }
	mov	rdx, QWORD PTR -8[rbp]	# tmp93, D.230948
	sub	rdx, QWORD PTR fs:40	# tmp93, MEM[(<address-space-1> long unsigned int *)40B]
	je	.L188	#,
	call	__stack_chk_fail@PLT	#
.L188:
	leave	
	.cfi_def_cfa 7, 8
	ret	
	.cfi_endproc
.LFE11221:
	.size	_ZNSt6vectorIiSaIiEE11_S_max_sizeERKS0_, .-_ZNSt6vectorIiSaIiEE11_S_max_sizeERKS0_
	.section	.text._ZNSt12_Vector_baseIiSaIiEE12_Vector_implC2ERKS0_,"axG",@progbits,_ZNSt12_Vector_baseIiSaIiEE12_Vector_implC5ERKS0_,comdat
	.align 2
	.weak	_ZNSt12_Vector_baseIiSaIiEE12_Vector_implC2ERKS0_
	.type	_ZNSt12_Vector_baseIiSaIiEE12_Vector_implC2ERKS0_, @function
_ZNSt12_Vector_baseIiSaIiEE12_Vector_implC2ERKS0_:
.LFB11226:
	.cfi_startproc
	endbr64	
	push	rbp	#
	.cfi_def_cfa_offset 16
	.cfi_offset 6, -16
	mov	rbp, rsp	#,
	.cfi_def_cfa_register 6
	sub	rsp, 48	#,
	mov	QWORD PTR -40[rbp], rdi	# this, this
	mov	QWORD PTR -48[rbp], rsi	# __a, __a
	mov	rax, QWORD PTR -40[rbp]	# tmp83, this
	mov	QWORD PTR -32[rbp], rax	# this, tmp83
	mov	rax, QWORD PTR -48[rbp]	# tmp84, __a
	mov	QWORD PTR -24[rbp], rax	# __a, tmp84
	mov	rax, QWORD PTR -32[rbp]	# tmp85, this
	mov	QWORD PTR -16[rbp], rax	# this, tmp85
	mov	rax, QWORD PTR -24[rbp]	# tmp86, __a
	mov	QWORD PTR -8[rbp], rax	# D.230679, tmp86
# /usr/include/c++/13/bits/new_allocator.h:92:       __new_allocator(const __new_allocator&) _GLIBCXX_USE_NOEXCEPT { }
	nop	
# /usr/include/c++/13/bits/allocator.h:168:       : __allocator_base<_Tp>(__a) { }
	nop	
# /usr/include/c++/13/bits/stl_vector.h:147: 	: _Tp_alloc_type(__a)
	mov	rax, QWORD PTR -40[rbp]	# _1, this
	mov	rdi, rax	#, _1
	call	_ZNSt12_Vector_baseIiSaIiEE17_Vector_impl_dataC2Ev	#
# /usr/include/c++/13/bits/stl_vector.h:148: 	{ }
	nop	
	leave	
	.cfi_def_cfa 7, 8
	ret	
	.cfi_endproc
.LFE11226:
	.size	_ZNSt12_Vector_baseIiSaIiEE12_Vector_implC2ERKS0_, .-_ZNSt12_Vector_baseIiSaIiEE12_Vector_implC2ERKS0_
	.weak	_ZNSt12_Vector_baseIiSaIiEE12_Vector_implC1ERKS0_
	.set	_ZNSt12_Vector_baseIiSaIiEE12_Vector_implC1ERKS0_,_ZNSt12_Vector_baseIiSaIiEE12_Vector_implC2ERKS0_
	.section	.text._ZNSt12_Vector_baseIiSaIiEE17_M_create_storageEm,"axG",@progbits,_ZNSt12_Vector_baseIiSaIiEE17_M_create_storageEm,comdat
	.align 2
	.weak	_ZNSt12_Vector_baseIiSaIiEE17_M_create_storageEm
	.type	_ZNSt12_Vector_baseIiSaIiEE17_M_create_storageEm, @function
_ZNSt12_Vector_baseIiSaIiEE17_M_create_storageEm:
.LFB11228:
	.cfi_startproc
	endbr64	
	push	rbp	#
	.cfi_def_cfa_offset 16
	.cfi_offset 6, -16
	mov	rbp, rsp	#,
	.cfi_def_cfa_register 6
	sub	rsp, 16	#,
	mov	QWORD PTR -8[rbp], rdi	# this, this
	mov	QWORD PTR -16[rbp], rsi	# __n, __n
# /usr/include/c++/13/bits/stl_vector.h:398: 	this->_M_impl._M_start = this->_M_allocate(__n);
	mov	rdx, QWORD PTR -16[rbp]	# tmp87, __n
	mov	rax, QWORD PTR -8[rbp]	# tmp88, this
	mov	rsi, rdx	#, tmp87
	mov	rdi, rax	#, tmp88
	call	_ZNSt12_Vector_baseIiSaIiEE11_M_allocateEm	#
# /usr/include/c++/13/bits/stl_vector.h:398: 	this->_M_impl._M_start = this->_M_allocate(__n);
	mov	rdx, QWORD PTR -8[rbp]	# tmp89, this
	mov	QWORD PTR [rdx], rax	# this_7(D)->_M_impl.D.187644._M_start, _1
# /usr/include/c++/13/bits/stl_vector.h:399: 	this->_M_impl._M_finish = this->_M_impl._M_start;
	mov	rax, QWORD PTR -8[rbp]	# tmp90, this
	mov	rdx, QWORD PTR [rax]	# _2, this_7(D)->_M_impl.D.187644._M_start
# /usr/include/c++/13/bits/stl_vector.h:399: 	this->_M_impl._M_finish = this->_M_impl._M_start;
	mov	rax, QWORD PTR -8[rbp]	# tmp91, this
	mov	QWORD PTR 8[rax], rdx	# this_7(D)->_M_impl.D.187644._M_finish, _2
# /usr/include/c++/13/bits/stl_vector.h:400: 	this->_M_impl._M_end_of_storage = this->_M_impl._M_start + __n;
	mov	rax, QWORD PTR -8[rbp]	# tmp92, this
	mov	rax, QWORD PTR [rax]	# _3, this_7(D)->_M_impl.D.187644._M_start
# /usr/include/c++/13/bits/stl_vector.h:400: 	this->_M_impl._M_end_of_storage = this->_M_impl._M_start + __n;
	mov	rdx, QWORD PTR -16[rbp]	# tmp93, __n
	sal	rdx, 2	# _4,
	add	rdx, rax	# _5, _3
# /usr/include/c++/13/bits/stl_vector.h:400: 	this->_M_impl._M_end_of_storage = this->_M_impl._M_start + __n;
	mov	rax, QWORD PTR -8[rbp]	# tmp94, this
	mov	QWORD PTR 16[rax], rdx	# this_7(D)->_M_impl.D.187644._M_end_of_storage, _5
# /usr/include/c++/13/bits/stl_vector.h:401:       }
	nop	
	leave	
	.cfi_def_cfa 7, 8
	ret	
	.cfi_endproc
.LFE11228:
	.size	_ZNSt12_Vector_baseIiSaIiEE17_M_create_storageEm, .-_ZNSt12_Vector_baseIiSaIiEE17_M_create_storageEm
	.section	.text._ZNSt12_Vector_baseIiSaIiEE13_M_deallocateEPim,"axG",@progbits,_ZNSt12_Vector_baseIiSaIiEE13_M_deallocateEPim,comdat
	.align 2
	.weak	_ZNSt12_Vector_baseIiSaIiEE13_M_deallocateEPim
	.type	_ZNSt12_Vector_baseIiSaIiEE13_M_deallocateEPim, @function
_ZNSt12_Vector_baseIiSaIiEE13_M_deallocateEPim:
.LFB11229:
	.cfi_startproc
	endbr64	
	push	rbp	#
	.cfi_def_cfa_offset 16
	.cfi_offset 6, -16
	mov	rbp, rsp	#,
	.cfi_def_cfa_register 6
	sub	rsp, 64	#,
	mov	QWORD PTR -40[rbp], rdi	# this, this
	mov	QWORD PTR -48[rbp], rsi	# __p, __p
	mov	QWORD PTR -56[rbp], rdx	# __n, __n
# /usr/include/c++/13/bits/stl_vector.h:389: 	if (__p)
	cmp	QWORD PTR -48[rbp], 0	# __p,
	je	.L193	#,
# /usr/include/c++/13/bits/stl_vector.h:390: 	  _Tr::deallocate(_M_impl, __p, __n);
	mov	rax, QWORD PTR -40[rbp]	# _1, this
	mov	QWORD PTR -24[rbp], rax	# __a, _1
	mov	rax, QWORD PTR -48[rbp]	# tmp83, __p
	mov	QWORD PTR -16[rbp], rax	# __p, tmp83
	mov	rax, QWORD PTR -56[rbp]	# tmp84, __n
	mov	QWORD PTR -8[rbp], rax	# __n, tmp84
# /usr/include/c++/13/bits/alloc_traits.h:517:       { __a.deallocate(__p, __n); }
	mov	rdx, QWORD PTR -8[rbp]	# tmp85, __n
	mov	rcx, QWORD PTR -16[rbp]	# tmp86, __p
	mov	rax, QWORD PTR -24[rbp]	# tmp87, __a
	mov	rsi, rcx	#, tmp86
	mov	rdi, rax	#, tmp87
	call	_ZNSt15__new_allocatorIiE10deallocateEPim	#
# /usr/include/c++/13/bits/alloc_traits.h:517:       { __a.deallocate(__p, __n); }
	nop	
.L193:
# /usr/include/c++/13/bits/stl_vector.h:391:       }
	nop	
	leave	
	.cfi_def_cfa 7, 8
	ret	
	.cfi_endproc
.LFE11229:
	.size	_ZNSt12_Vector_baseIiSaIiEE13_M_deallocateEPim, .-_ZNSt12_Vector_baseIiSaIiEE13_M_deallocateEPim
	.section	.text._ZSt27__uninitialized_default_n_aIPimiET_S1_T0_RSaIT1_E,"axG",@progbits,_ZSt27__uninitialized_default_n_aIPimiET_S1_T0_RSaIT1_E,comdat
	.weak	_ZSt27__uninitialized_default_n_aIPimiET_S1_T0_RSaIT1_E
	.type	_ZSt27__uninitialized_default_n_aIPimiET_S1_T0_RSaIT1_E, @function
_ZSt27__uninitialized_default_n_aIPimiET_S1_T0_RSaIT1_E:
.LFB11230:
	.cfi_startproc
	endbr64	
	push	rbp	#
	.cfi_def_cfa_offset 16
	.cfi_offset 6, -16
	mov	rbp, rsp	#,
	.cfi_def_cfa_register 6
	sub	rsp, 32	#,
	mov	QWORD PTR -8[rbp], rdi	# __first, __first
	mov	QWORD PTR -16[rbp], rsi	# __n, __n
	mov	QWORD PTR -24[rbp], rdx	# D.224259, D.224259
# /usr/include/c++/13/bits/stl_uninitialized.h:779:     { return std::__uninitialized_default_n(__first, __n); }
	mov	rdx, QWORD PTR -16[rbp]	# tmp84, __n
	mov	rax, QWORD PTR -8[rbp]	# tmp85, __first
	mov	rsi, rdx	#, tmp84
	mov	rdi, rax	#, tmp85
	call	_ZSt25__uninitialized_default_nIPimET_S1_T0_	#
# /usr/include/c++/13/bits/stl_uninitialized.h:779:     { return std::__uninitialized_default_n(__first, __n); }
	leave	
	.cfi_def_cfa 7, 8
	ret	
	.cfi_endproc
.LFE11230:
	.size	_ZSt27__uninitialized_default_n_aIPimiET_S1_T0_RSaIT1_E, .-_ZSt27__uninitialized_default_n_aIPimiET_S1_T0_RSaIT1_E
	.section	.text._ZSt8_DestroyIPiEvT_S1_,"axG",@progbits,_ZSt8_DestroyIPiEvT_S1_,comdat
	.weak	_ZSt8_DestroyIPiEvT_S1_
	.type	_ZSt8_DestroyIPiEvT_S1_, @function
_ZSt8_DestroyIPiEvT_S1_:
.LFB11231:
	.cfi_startproc
	endbr64	
	push	rbp	#
	.cfi_def_cfa_offset 16
	.cfi_offset 6, -16
	mov	rbp, rsp	#,
	.cfi_def_cfa_register 6
	sub	rsp, 16	#,
	mov	QWORD PTR -8[rbp], rdi	# __first, __first
	mov	QWORD PTR -16[rbp], rsi	# __last, __last
# /usr/include/c++/13/bits/stl_construct.h:196: 	__destroy(__first, __last);
	mov	rdx, QWORD PTR -16[rbp]	# tmp82, __last
	mov	rax, QWORD PTR -8[rbp]	# tmp83, __first
	mov	rsi, rdx	#, tmp82
	mov	rdi, rax	#, tmp83
	call	_ZNSt12_Destroy_auxILb1EE9__destroyIPiEEvT_S3_	#
# /usr/include/c++/13/bits/stl_construct.h:197:     }
	nop	
	leave	
	.cfi_def_cfa 7, 8
	ret	
	.cfi_endproc
.LFE11231:
	.size	_ZSt8_DestroyIPiEvT_S1_, .-_ZSt8_DestroyIPiEvT_S1_
	.section	.text._ZNSt6vectorIS_IiSaIiEESaIS1_EE11_S_max_sizeERKS2_,"axG",@progbits,_ZNSt6vectorIS_IiSaIiEESaIS1_EE11_S_max_sizeERKS2_,comdat
	.weak	_ZNSt6vectorIS_IiSaIiEESaIS1_EE11_S_max_sizeERKS2_
	.type	_ZNSt6vectorIS_IiSaIiEESaIS1_EE11_S_max_sizeERKS2_, @function
_ZNSt6vectorIS_IiSaIiEESaIS1_EE11_S_max_sizeERKS2_:
.LFB11233:
	.cfi_startproc
	endbr64	
	push	rbp	#
	.cfi_def_cfa_offset 16
	.cfi_offset 6, -16
	mov	rbp, rsp	#,
	.cfi_def_cfa_register 6
	sub	rsp, 64	#,
	mov	QWORD PTR -56[rbp], rdi	# __a, __a
# /usr/include/c++/13/bits/stl_vector.h:1916:       _S_max_size(const _Tp_alloc_type& __a) _GLIBCXX_NOEXCEPT
	mov	rax, QWORD PTR fs:40	# tmp92, MEM[(<address-space-1> long unsigned int *)40B]
	mov	QWORD PTR -8[rbp], rax	# D.230949, tmp92
	xor	eax, eax	# tmp92
# /usr/include/c++/13/bits/stl_vector.h:1921: 	const size_t __diffmax
	movabs	rax, 384307168202282325	# tmp95,
	mov	QWORD PTR -48[rbp], rax	# __diffmax, tmp95
	mov	rax, QWORD PTR -56[rbp]	# tmp86, __a
	mov	QWORD PTR -32[rbp], rax	# __a, tmp86
	mov	rax, QWORD PTR -32[rbp]	# tmp87, __a
	mov	QWORD PTR -24[rbp], rax	# this, tmp87
	mov	rax, QWORD PTR -24[rbp]	# tmp88, this
	mov	QWORD PTR -16[rbp], rax	# this, tmp88
# /usr/include/c++/13/bits/new_allocator.h:233: 	return std::size_t(__PTRDIFF_MAX__) / sizeof(_Tp);
	movabs	rax, 384307168202282325	# D.230789,
# /usr/include/c++/13/bits/new_allocator.h:183:       { return _M_max_size(); }
	nop	
# /usr/include/c++/13/bits/alloc_traits.h:574: 	return __a.max_size();
	nop	
# /usr/include/c++/13/bits/stl_vector.h:1923: 	const size_t __allocmax = _Alloc_traits::max_size(__a);
	mov	QWORD PTR -40[rbp], rax	# __allocmax, D.230789
# /usr/include/c++/13/bits/stl_vector.h:1924: 	return (std::min)(__diffmax, __allocmax);
	lea	rdx, -40[rbp]	# tmp89,
	lea	rax, -48[rbp]	# tmp90,
	mov	rsi, rdx	#, tmp89
	mov	rdi, rax	#, tmp90
	call	_ZSt3minImERKT_S2_S2_	#
# /usr/include/c++/13/bits/stl_vector.h:1924: 	return (std::min)(__diffmax, __allocmax);
	mov	rax, QWORD PTR [rax]	# _8, *_2
# /usr/include/c++/13/bits/stl_vector.h:1925:       }
	mov	rdx, QWORD PTR -8[rbp]	# tmp93, D.230949
	sub	rdx, QWORD PTR fs:40	# tmp93, MEM[(<address-space-1> long unsigned int *)40B]
	je	.L202	#,
	call	__stack_chk_fail@PLT	#
.L202:
	leave	
	.cfi_def_cfa 7, 8
	ret	
	.cfi_endproc
.LFE11233:
	.size	_ZNSt6vectorIS_IiSaIiEESaIS1_EE11_S_max_sizeERKS2_, .-_ZNSt6vectorIS_IiSaIiEESaIS1_EE11_S_max_sizeERKS2_
	.section	.text._ZNSt12_Vector_baseISt6vectorIiSaIiEESaIS2_EE12_Vector_implC2ERKS3_,"axG",@progbits,_ZNSt12_Vector_baseISt6vectorIiSaIiEESaIS2_EE12_Vector_implC5ERKS3_,comdat
	.align 2
	.weak	_ZNSt12_Vector_baseISt6vectorIiSaIiEESaIS2_EE12_Vector_implC2ERKS3_
	.type	_ZNSt12_Vector_baseISt6vectorIiSaIiEESaIS2_EE12_Vector_implC2ERKS3_, @function
_ZNSt12_Vector_baseISt6vectorIiSaIiEESaIS2_EE12_Vector_implC2ERKS3_:
.LFB11238:
	.cfi_startproc
	endbr64	
	push	rbp	#
	.cfi_def_cfa_offset 16
	.cfi_offset 6, -16
	mov	rbp, rsp	#,
	.cfi_def_cfa_register 6
	sub	rsp, 48	#,
	mov	QWORD PTR -40[rbp], rdi	# this, this
	mov	QWORD PTR -48[rbp], rsi	# __a, __a
	mov	rax, QWORD PTR -40[rbp]	# tmp83, this
	mov	QWORD PTR -32[rbp], rax	# this, tmp83
	mov	rax, QWORD PTR -48[rbp]	# tmp84, __a
	mov	QWORD PTR -24[rbp], rax	# __a, tmp84
	mov	rax, QWORD PTR -32[rbp]	# tmp85, this
	mov	QWORD PTR -16[rbp], rax	# this, tmp85
	mov	rax, QWORD PTR -24[rbp]	# tmp86, __a
	mov	QWORD PTR -8[rbp], rax	# D.230691, tmp86
# /usr/include/c++/13/bits/new_allocator.h:92:       __new_allocator(const __new_allocator&) _GLIBCXX_USE_NOEXCEPT { }
	nop	
# /usr/include/c++/13/bits/allocator.h:168:       : __allocator_base<_Tp>(__a) { }
	nop	
# /usr/include/c++/13/bits/stl_vector.h:147: 	: _Tp_alloc_type(__a)
	mov	rax, QWORD PTR -40[rbp]	# _1, this
	mov	rdi, rax	#, _1
	call	_ZNSt12_Vector_baseISt6vectorIiSaIiEESaIS2_EE17_Vector_impl_dataC2Ev	#
# /usr/include/c++/13/bits/stl_vector.h:148: 	{ }
	nop	
	leave	
	.cfi_def_cfa 7, 8
	ret	
	.cfi_endproc
.LFE11238:
	.size	_ZNSt12_Vector_baseISt6vectorIiSaIiEESaIS2_EE12_Vector_implC2ERKS3_, .-_ZNSt12_Vector_baseISt6vectorIiSaIiEESaIS2_EE12_Vector_implC2ERKS3_
	.weak	_ZNSt12_Vector_baseISt6vectorIiSaIiEESaIS2_EE12_Vector_implC1ERKS3_
	.set	_ZNSt12_Vector_baseISt6vectorIiSaIiEESaIS2_EE12_Vector_implC1ERKS3_,_ZNSt12_Vector_baseISt6vectorIiSaIiEESaIS2_EE12_Vector_implC2ERKS3_
	.section	.text._ZNSt12_Vector_baseISt6vectorIiSaIiEESaIS2_EE17_M_create_storageEm,"axG",@progbits,_ZNSt12_Vector_baseISt6vectorIiSaIiEESaIS2_EE17_M_create_storageEm,comdat
	.align 2
	.weak	_ZNSt12_Vector_baseISt6vectorIiSaIiEESaIS2_EE17_M_create_storageEm
	.type	_ZNSt12_Vector_baseISt6vectorIiSaIiEESaIS2_EE17_M_create_storageEm, @function
_ZNSt12_Vector_baseISt6vectorIiSaIiEESaIS2_EE17_M_create_storageEm:
.LFB11240:
	.cfi_startproc
	endbr64	
	push	rbp	#
	.cfi_def_cfa_offset 16
	.cfi_offset 6, -16
	mov	rbp, rsp	#,
	.cfi_def_cfa_register 6
	sub	rsp, 16	#,
	mov	QWORD PTR -8[rbp], rdi	# this, this
	mov	QWORD PTR -16[rbp], rsi	# __n, __n
# /usr/include/c++/13/bits/stl_vector.h:398: 	this->_M_impl._M_start = this->_M_allocate(__n);
	mov	rdx, QWORD PTR -16[rbp]	# tmp87, __n
	mov	rax, QWORD PTR -8[rbp]	# tmp88, this
	mov	rsi, rdx	#, tmp87
	mov	rdi, rax	#, tmp88
	call	_ZNSt12_Vector_baseISt6vectorIiSaIiEESaIS2_EE11_M_allocateEm	#
# /usr/include/c++/13/bits/stl_vector.h:398: 	this->_M_impl._M_start = this->_M_allocate(__n);
	mov	rdx, QWORD PTR -8[rbp]	# tmp89, this
	mov	QWORD PTR [rdx], rax	# this_7(D)->_M_impl.D.208424._M_start, _1
# /usr/include/c++/13/bits/stl_vector.h:399: 	this->_M_impl._M_finish = this->_M_impl._M_start;
	mov	rax, QWORD PTR -8[rbp]	# tmp90, this
	mov	rdx, QWORD PTR [rax]	# _2, this_7(D)->_M_impl.D.208424._M_start
# /usr/include/c++/13/bits/stl_vector.h:399: 	this->_M_impl._M_finish = this->_M_impl._M_start;
	mov	rax, QWORD PTR -8[rbp]	# tmp91, this
	mov	QWORD PTR 8[rax], rdx	# this_7(D)->_M_impl.D.208424._M_finish, _2
# /usr/include/c++/13/bits/stl_vector.h:400: 	this->_M_impl._M_end_of_storage = this->_M_impl._M_start + __n;
	mov	rax, QWORD PTR -8[rbp]	# tmp92, this
	mov	rcx, QWORD PTR [rax]	# _3, this_7(D)->_M_impl.D.208424._M_start
# /usr/include/c++/13/bits/stl_vector.h:400: 	this->_M_impl._M_end_of_storage = this->_M_impl._M_start + __n;
	mov	rdx, QWORD PTR -16[rbp]	# tmp93, __n
	mov	rax, rdx	# tmp94, tmp93
	add	rax, rax	# tmp94
	add	rax, rdx	# tmp94, tmp93
	sal	rax, 3	# tmp95,
	lea	rdx, [rcx+rax]	# _5,
# /usr/include/c++/13/bits/stl_vector.h:400: 	this->_M_impl._M_end_of_storage = this->_M_impl._M_start + __n;
	mov	rax, QWORD PTR -8[rbp]	# tmp96, this
	mov	QWORD PTR 16[rax], rdx	# this_7(D)->_M_impl.D.208424._M_end_of_storage, _5
# /usr/include/c++/13/bits/stl_vector.h:401:       }
	nop	
	leave	
	.cfi_def_cfa 7, 8
	ret	
	.cfi_endproc
.LFE11240:
	.size	_ZNSt12_Vector_baseISt6vectorIiSaIiEESaIS2_EE17_M_create_storageEm, .-_ZNSt12_Vector_baseISt6vectorIiSaIiEESaIS2_EE17_M_create_storageEm
	.section	.text._ZNSt12_Vector_baseISt6vectorIiSaIiEESaIS2_EE13_M_deallocateEPS2_m,"axG",@progbits,_ZNSt12_Vector_baseISt6vectorIiSaIiEESaIS2_EE13_M_deallocateEPS2_m,comdat
	.align 2
	.weak	_ZNSt12_Vector_baseISt6vectorIiSaIiEESaIS2_EE13_M_deallocateEPS2_m
	.type	_ZNSt12_Vector_baseISt6vectorIiSaIiEESaIS2_EE13_M_deallocateEPS2_m, @function
_ZNSt12_Vector_baseISt6vectorIiSaIiEESaIS2_EE13_M_deallocateEPS2_m:
.LFB11241:
	.cfi_startproc
	endbr64	
	push	rbp	#
	.cfi_def_cfa_offset 16
	.cfi_offset 6, -16
	mov	rbp, rsp	#,
	.cfi_def_cfa_register 6
	sub	rsp, 64	#,
	mov	QWORD PTR -40[rbp], rdi	# this, this
	mov	QWORD PTR -48[rbp], rsi	# __p, __p
	mov	QWORD PTR -56[rbp], rdx	# __n, __n
# /usr/include/c++/13/bits/stl_vector.h:389: 	if (__p)
	cmp	QWORD PTR -48[rbp], 0	# __p,
	je	.L207	#,
# /usr/include/c++/13/bits/stl_vector.h:390: 	  _Tr::deallocate(_M_impl, __p, __n);
	mov	rax, QWORD PTR -40[rbp]	# _1, this
	mov	QWORD PTR -24[rbp], rax	# __a, _1
	mov	rax, QWORD PTR -48[rbp]	# tmp83, __p
	mov	QWORD PTR -16[rbp], rax	# __p, tmp83
	mov	rax, QWORD PTR -56[rbp]	# tmp84, __n
	mov	QWORD PTR -8[rbp], rax	# __n, tmp84
# /usr/include/c++/13/bits/alloc_traits.h:517:       { __a.deallocate(__p, __n); }
	mov	rdx, QWORD PTR -8[rbp]	# tmp85, __n
	mov	rcx, QWORD PTR -16[rbp]	# tmp86, __p
	mov	rax, QWORD PTR -24[rbp]	# tmp87, __a
	mov	rsi, rcx	#, tmp86
	mov	rdi, rax	#, tmp87
	call	_ZNSt15__new_allocatorISt6vectorIiSaIiEEE10deallocateEPS2_m	#
# /usr/include/c++/13/bits/alloc_traits.h:517:       { __a.deallocate(__p, __n); }
	nop	
.L207:
# /usr/include/c++/13/bits/stl_vector.h:391:       }
	nop	
	leave	
	.cfi_def_cfa 7, 8
	ret	
	.cfi_endproc
.LFE11241:
	.size	_ZNSt12_Vector_baseISt6vectorIiSaIiEESaIS2_EE13_M_deallocateEPS2_m, .-_ZNSt12_Vector_baseISt6vectorIiSaIiEESaIS2_EE13_M_deallocateEPS2_m
	.section	.text._ZSt24__uninitialized_fill_n_aIPSt6vectorIiSaIiEEmS2_S2_ET_S4_T0_RKT1_RSaIT2_E,"axG",@progbits,_ZSt24__uninitialized_fill_n_aIPSt6vectorIiSaIiEEmS2_S2_ET_S4_T0_RKT1_RSaIT2_E,comdat
	.weak	_ZSt24__uninitialized_fill_n_aIPSt6vectorIiSaIiEEmS2_S2_ET_S4_T0_RKT1_RSaIT2_E
	.type	_ZSt24__uninitialized_fill_n_aIPSt6vectorIiSaIiEEmS2_S2_ET_S4_T0_RKT1_RSaIT2_E, @function
_ZSt24__uninitialized_fill_n_aIPSt6vectorIiSaIiEEmS2_S2_ET_S4_T0_RKT1_RSaIT2_E:
.LFB11242:
	.cfi_startproc
	endbr64	
	push	rbp	#
	.cfi_def_cfa_offset 16
	.cfi_offset 6, -16
	mov	rbp, rsp	#,
	.cfi_def_cfa_register 6
	sub	rsp, 32	#,
	mov	QWORD PTR -8[rbp], rdi	# __first, __first
	mov	QWORD PTR -16[rbp], rsi	# __n, __n
	mov	QWORD PTR -24[rbp], rdx	# __x, __x
	mov	QWORD PTR -32[rbp], rcx	# D.224398, D.224398
# /usr/include/c++/13/bits/stl_uninitialized.h:472:       return std::uninitialized_fill_n(__first, __n, __x);
	mov	rdx, QWORD PTR -24[rbp]	# tmp84, __x
	mov	rcx, QWORD PTR -16[rbp]	# tmp85, __n
	mov	rax, QWORD PTR -8[rbp]	# tmp86, __first
	mov	rsi, rcx	#, tmp85
	mov	rdi, rax	#, tmp86
	call	_ZSt20uninitialized_fill_nIPSt6vectorIiSaIiEEmS2_ET_S4_T0_RKT1_	#
# /usr/include/c++/13/bits/stl_uninitialized.h:473:     }
	leave	
	.cfi_def_cfa 7, 8
	ret	
	.cfi_endproc
.LFE11242:
	.size	_ZSt24__uninitialized_fill_n_aIPSt6vectorIiSaIiEEmS2_S2_ET_S4_T0_RKT1_RSaIT2_E, .-_ZSt24__uninitialized_fill_n_aIPSt6vectorIiSaIiEEmS2_S2_ET_S4_T0_RKT1_RSaIT2_E
	.section	.text._ZSt8_DestroyIPSt6vectorIiSaIiEEEvT_S4_,"axG",@progbits,_ZSt8_DestroyIPSt6vectorIiSaIiEEEvT_S4_,comdat
	.weak	_ZSt8_DestroyIPSt6vectorIiSaIiEEEvT_S4_
	.type	_ZSt8_DestroyIPSt6vectorIiSaIiEEEvT_S4_, @function
_ZSt8_DestroyIPSt6vectorIiSaIiEEEvT_S4_:
.LFB11243:
	.cfi_startproc
	endbr64	
	push	rbp	#
	.cfi_def_cfa_offset 16
	.cfi_offset 6, -16
	mov	rbp, rsp	#,
	.cfi_def_cfa_register 6
	sub	rsp, 16	#,
	mov	QWORD PTR -8[rbp], rdi	# __first, __first
	mov	QWORD PTR -16[rbp], rsi	# __last, __last
# /usr/include/c++/13/bits/stl_construct.h:196: 	__destroy(__first, __last);
	mov	rdx, QWORD PTR -16[rbp]	# tmp82, __last
	mov	rax, QWORD PTR -8[rbp]	# tmp83, __first
	mov	rsi, rdx	#, tmp82
	mov	rdi, rax	#, tmp83
	call	_ZNSt12_Destroy_auxILb0EE9__destroyIPSt6vectorIiSaIiEEEEvT_S6_	#
# /usr/include/c++/13/bits/stl_construct.h:197:     }
	nop	
	leave	
	.cfi_def_cfa 7, 8
	ret	
	.cfi_endproc
.LFE11243:
	.size	_ZSt8_DestroyIPSt6vectorIiSaIiEEEvT_S4_, .-_ZSt8_DestroyIPSt6vectorIiSaIiEEEvT_S4_
	.section	.text._ZNSt13_Bvector_baseISaIbEEC2ERKS0_,"axG",@progbits,_ZNSt13_Bvector_baseISaIbEEC5ERKS0_,comdat
	.align 2
	.weak	_ZNSt13_Bvector_baseISaIbEEC2ERKS0_
	.type	_ZNSt13_Bvector_baseISaIbEEC2ERKS0_, @function
_ZNSt13_Bvector_baseISaIbEEC2ERKS0_:
.LFB11246:
	.cfi_startproc
	endbr64	
	push	rbp	#
	.cfi_def_cfa_offset 16
	.cfi_offset 6, -16
	mov	rbp, rsp	#,
	.cfi_def_cfa_register 6
	sub	rsp, 48	#,
	mov	QWORD PTR -40[rbp], rdi	# this, this
	mov	QWORD PTR -48[rbp], rsi	# __a, __a
# /usr/include/c++/13/bits/stl_bvector.h:656:       _Bvector_base(const allocator_type& __a)
	mov	rax, QWORD PTR fs:40	# tmp88, MEM[(<address-space-1> long unsigned int *)40B]
	mov	QWORD PTR -8[rbp], rax	# D.230950, tmp88
	xor	eax, eax	# tmp88
# /usr/include/c++/13/bits/stl_bvector.h:657:       : _M_impl(__a) { }
	mov	rax, QWORD PTR -40[rbp]	# _1, this
	mov	rdx, QWORD PTR -48[rbp]	# tmp84, __a
	mov	QWORD PTR -24[rbp], rdx	# D.230813, tmp84
	lea	rdx, -25[rbp]	# tmp85,
	mov	QWORD PTR -16[rbp], rdx	# this, tmp85
# /usr/include/c++/13/bits/new_allocator.h:88:       __new_allocator() _GLIBCXX_USE_NOEXCEPT { }
	nop	
# /usr/include/c++/13/bits/allocator.h:178: 	allocator(const allocator<_Tp1>&) _GLIBCXX_NOTHROW { }
	nop	
# /usr/include/c++/13/bits/stl_bvector.h:657:       : _M_impl(__a) { }
	lea	rdx, -25[rbp]	# tmp86,
	mov	rsi, rdx	#, tmp86
	mov	rdi, rax	#, _1
	call	_ZNSt13_Bvector_baseISaIbEE13_Bvector_implC1ERKSaImE	#
# /usr/include/c++/13/bits/allocator.h:184:       ~allocator() _GLIBCXX_NOTHROW { }
	lea	rax, -25[rbp]	# tmp87,
	mov	rdi, rax	#, tmp87
	call	_ZNSt15__new_allocatorImED2Ev	#
	nop	
# /usr/include/c++/13/bits/stl_bvector.h:657:       : _M_impl(__a) { }
	nop	
	mov	rax, QWORD PTR -8[rbp]	# tmp89, D.230950
	sub	rax, QWORD PTR fs:40	# tmp89, MEM[(<address-space-1> long unsigned int *)40B]
	je	.L212	#,
	call	__stack_chk_fail@PLT	#
.L212:
	leave	
	.cfi_def_cfa 7, 8
	ret	
	.cfi_endproc
.LFE11246:
	.size	_ZNSt13_Bvector_baseISaIbEEC2ERKS0_, .-_ZNSt13_Bvector_baseISaIbEEC2ERKS0_
	.weak	_ZNSt13_Bvector_baseISaIbEEC1ERKS0_
	.set	_ZNSt13_Bvector_baseISaIbEEC1ERKS0_,_ZNSt13_Bvector_baseISaIbEEC2ERKS0_
	.section	.text._ZNSt6vectorIbSaIbEE13_M_initializeEm,"axG",@progbits,_ZNSt6vectorIbSaIbEE13_M_initializeEm,comdat
	.align 2
	.weak	_ZNSt6vectorIbSaIbEE13_M_initializeEm
	.type	_ZNSt6vectorIbSaIbEE13_M_initializeEm, @function
_ZNSt6vectorIbSaIbEE13_M_initializeEm:
.LFB11248:
	.cfi_startproc
	endbr64	
	push	rbp	#
	.cfi_def_cfa_offset 16
	.cfi_offset 6, -16
	mov	rbp, rsp	#,
	.cfi_def_cfa_register 6
	sub	rsp, 80	#,
	mov	QWORD PTR -72[rbp], rdi	# this, this
	mov	QWORD PTR -80[rbp], rsi	# __n, __n
# /usr/include/c++/13/bits/stl_bvector.h:1349:       _M_initialize(size_type __n)
	mov	rax, QWORD PTR fs:40	# tmp103, MEM[(<address-space-1> long unsigned int *)40B]
	mov	QWORD PTR -8[rbp], rax	# D.230951, tmp103
	xor	eax, eax	# tmp103
# /usr/include/c++/13/bits/stl_bvector.h:1351: 	if (__n)
	cmp	QWORD PTR -80[rbp], 0	# __n,
	je	.L216	#,
# /usr/include/c++/13/bits/stl_bvector.h:1353: 	    _Bit_pointer __q = this->_M_allocate(__n);
	mov	rax, QWORD PTR -72[rbp]	# _1, this
	mov	rdx, QWORD PTR -80[rbp]	# tmp89, __n
	mov	rsi, rdx	#, tmp89
	mov	rdi, rax	#, _1
	call	_ZNSt13_Bvector_baseISaIbEE11_M_allocateEm	#
# /usr/include/c++/13/bits/stl_bvector.h:1353: 	    _Bit_pointer __q = this->_M_allocate(__n);
	mov	QWORD PTR -56[rbp], rax	# __q, _12
# /usr/include/c++/13/bits/stl_bvector.h:1354: 	    this->_M_impl._M_end_of_storage = __q + _S_nword(__n);
	mov	rax, QWORD PTR -80[rbp]	# tmp90, __n
	mov	rdi, rax	#, tmp90
	call	_ZNSt13_Bvector_baseISaIbEE8_S_nwordEm	#
# /usr/include/c++/13/bits/stl_bvector.h:1354: 	    this->_M_impl._M_end_of_storage = __q + _S_nword(__n);
	lea	rdx, 0[0+rax*8]	# _3,
	mov	rax, QWORD PTR -56[rbp]	# tmp91, __q
	add	rdx, rax	# _4, tmp91
# /usr/include/c++/13/bits/stl_bvector.h:1354: 	    this->_M_impl._M_end_of_storage = __q + _S_nword(__n);
	mov	rax, QWORD PTR -72[rbp]	# tmp92, this
	mov	QWORD PTR 32[rax], rdx	# this_10(D)->D.211044._M_impl.D.210518._M_end_of_storage, _4
# /usr/include/c++/13/bits/stl_bvector.h:1355: 	    iterator __start = iterator(std::__addressof(*__q), 0);
	mov	rax, QWORD PTR -56[rbp]	# tmp93, __q
	mov	rdi, rax	#, tmp93
	call	_ZSt11__addressofImEPT_RS0_	#
	mov	rcx, rax	# _5,
# /usr/include/c++/13/bits/stl_bvector.h:1355: 	    iterator __start = iterator(std::__addressof(*__q), 0);
	lea	rax, -48[rbp]	# tmp94,
	mov	edx, 0	#,
	mov	rsi, rcx	#, _5
	mov	rdi, rax	#, tmp94
	call	_ZNSt13_Bit_iteratorC1EPmj	#
# /usr/include/c++/13/bits/stl_bvector.h:1356: 	    this->_M_impl._M_start = __start;
	mov	rax, QWORD PTR -72[rbp]	# tmp95, this
	mov	rdx, QWORD PTR -48[rbp]	# tmp96, MEM <unsigned char[12]> [(struct _Bit_iterator *)&__start]
	mov	QWORD PTR [rax], rdx	# MEM <unsigned char[12]> [(struct _Bit_iterator *)this_10(D)], tmp96
	mov	edx, DWORD PTR -40[rbp]	# tmp97, MEM <unsigned char[12]> [(struct _Bit_iterator *)&__start]
	mov	DWORD PTR 8[rax], edx	# MEM <unsigned char[12]> [(struct _Bit_iterator *)this_10(D)], tmp97
# /usr/include/c++/13/bits/stl_bvector.h:1357: 	    this->_M_impl._M_finish = __start + difference_type(__n);
	mov	rdx, QWORD PTR -80[rbp]	# __n.30_6, __n
	lea	rax, -48[rbp]	# tmp98,
	mov	rsi, rdx	#, __n.30_6
	mov	rdi, rax	#, tmp98
	call	_ZStplRKSt13_Bit_iteratorl	#
	mov	QWORD PTR -32[rbp], rax	# D.224633, tmp99
	mov	QWORD PTR -24[rbp], rdx	# D.224633,
# /usr/include/c++/13/bits/stl_bvector.h:1357: 	    this->_M_impl._M_finish = __start + difference_type(__n);
	mov	rax, QWORD PTR -72[rbp]	# tmp100, this
	mov	rdx, QWORD PTR -32[rbp]	# tmp101, MEM <unsigned char[12]> [(struct _Bit_iterator *)&D.224633]
	mov	QWORD PTR 16[rax], rdx	# MEM <unsigned char[12]> [(struct _Bit_iterator *)this_10(D) + 16B], tmp101
	mov	edx, DWORD PTR -24[rbp]	# tmp102, MEM <unsigned char[12]> [(struct _Bit_iterator *)&D.224633]
	mov	DWORD PTR 24[rax], edx	# MEM <unsigned char[12]> [(struct _Bit_iterator *)this_10(D) + 16B], tmp102
.L216:
# /usr/include/c++/13/bits/stl_bvector.h:1359:       }
	nop	
	mov	rax, QWORD PTR -8[rbp]	# tmp104, D.230951
	sub	rax, QWORD PTR fs:40	# tmp104, MEM[(<address-space-1> long unsigned int *)40B]
	je	.L215	#,
	call	__stack_chk_fail@PLT	#
.L215:
	leave	
	.cfi_def_cfa 7, 8
	ret	
	.cfi_endproc
.LFE11248:
	.size	_ZNSt6vectorIbSaIbEE13_M_initializeEm, .-_ZNSt6vectorIbSaIbEE13_M_initializeEm
	.section	.text._ZNSt6vectorIbSaIbEE19_M_initialize_valueEb,"axG",@progbits,_ZNSt6vectorIbSaIbEE19_M_initialize_valueEb,comdat
	.align 2
	.weak	_ZNSt6vectorIbSaIbEE19_M_initialize_valueEb
	.type	_ZNSt6vectorIbSaIbEE19_M_initialize_valueEb, @function
_ZNSt6vectorIbSaIbEE19_M_initialize_valueEb:
.LFB11249:
	.cfi_startproc
	endbr64	
	push	rbp	#
	.cfi_def_cfa_offset 16
	.cfi_offset 6, -16
	mov	rbp, rsp	#,
	.cfi_def_cfa_register 6
	push	rbx	#
	sub	rsp, 40	#,
	.cfi_offset 3, -24
	mov	QWORD PTR -40[rbp], rdi	# this, this
	mov	eax, esi	# tmp88, __x
	mov	BYTE PTR -44[rbp], al	# __x, tmp89
# /usr/include/c++/13/bits/stl_bvector.h:1365: 	if (_Bit_type* __p = this->_M_impl._M_start._M_p)
	mov	rax, QWORD PTR -40[rbp]	# tmp90, this
	mov	rax, QWORD PTR [rax]	# tmp91, this_9(D)->D.211044._M_impl.D.210518._M_start.D.58751._M_p
	mov	QWORD PTR -24[rbp], rax	# __p, tmp91
# /usr/include/c++/13/bits/stl_bvector.h:1365: 	if (_Bit_type* __p = this->_M_impl._M_start._M_p)
	cmp	QWORD PTR -24[rbp], 0	# __p,
	je	.L219	#,
# /usr/include/c++/13/bits/stl_bvector.h:1366: 	  __fill_bvector_n(__p, this->_M_impl._M_end_addr() - __p, __x);
	movzx	ebx, BYTE PTR -44[rbp]	# _1, __x
# /usr/include/c++/13/bits/stl_bvector.h:1366: 	  __fill_bvector_n(__p, this->_M_impl._M_end_addr() - __p, __x);
	mov	rax, QWORD PTR -40[rbp]	# _2, this
	mov	rdi, rax	#, _2
	call	_ZNKSt13_Bvector_baseISaIbEE13_Bvector_impl11_M_end_addrEv	#
# /usr/include/c++/13/bits/stl_bvector.h:1366: 	  __fill_bvector_n(__p, this->_M_impl._M_end_addr() - __p, __x);
	sub	rax, QWORD PTR -24[rbp]	# _4, __p
	sar	rax, 3	# tmp92,
# /usr/include/c++/13/bits/stl_bvector.h:1366: 	  __fill_bvector_n(__p, this->_M_impl._M_end_addr() - __p, __x);
	mov	rcx, rax	# _6, _5
	mov	rax, QWORD PTR -24[rbp]	# tmp93, __p
	mov	edx, ebx	#, _1
	mov	rsi, rcx	#, _6
	mov	rdi, rax	#, tmp93
	call	_ZSt16__fill_bvector_nPmmb	#
.L219:
# /usr/include/c++/13/bits/stl_bvector.h:1367:       }
	nop	
	mov	rbx, QWORD PTR -8[rbp]	#,
	leave	
	.cfi_def_cfa 7, 8
	ret	
	.cfi_endproc
.LFE11249:
	.size	_ZNSt6vectorIbSaIbEE19_M_initialize_valueEb, .-_ZNSt6vectorIbSaIbEE19_M_initialize_valueEb
	.section	.text._ZNSt13_Bvector_baseISaIbEE13_M_deallocateEv,"axG",@progbits,_ZNSt13_Bvector_baseISaIbEE13_M_deallocateEv,comdat
	.align 2
	.weak	_ZNSt13_Bvector_baseISaIbEE13_M_deallocateEv
	.type	_ZNSt13_Bvector_baseISaIbEE13_M_deallocateEv, @function
_ZNSt13_Bvector_baseISaIbEE13_M_deallocateEv:
.LFB11250:
	.cfi_startproc
	endbr64	
	push	rbp	#
	.cfi_def_cfa_offset 16
	.cfi_offset 6, -16
	mov	rbp, rsp	#,
	.cfi_def_cfa_register 6
	sub	rsp, 48	#,
	mov	QWORD PTR -40[rbp], rdi	# this, this
# /usr/include/c++/13/bits/stl_bvector.h:695: 	if (_M_impl._M_start._M_p)
	mov	rax, QWORD PTR -40[rbp]	# tmp94, this
	mov	rax, QWORD PTR [rax]	# _1, this_15(D)->_M_impl.D.210518._M_start.D.58751._M_p
# /usr/include/c++/13/bits/stl_bvector.h:695: 	if (_M_impl._M_start._M_p)
	test	rax, rax	# _1
	je	.L222	#,
# /usr/include/c++/13/bits/stl_bvector.h:697: 	    const size_t __n = _M_impl._M_end_addr() - _M_impl._M_start._M_p;
	mov	rax, QWORD PTR -40[rbp]	# _2, this
	mov	rdi, rax	#, _2
	call	_ZNKSt13_Bvector_baseISaIbEE13_Bvector_impl11_M_end_addrEv	#
	mov	rdx, rax	# _3,
# /usr/include/c++/13/bits/stl_bvector.h:697: 	    const size_t __n = _M_impl._M_end_addr() - _M_impl._M_start._M_p;
	mov	rax, QWORD PTR -40[rbp]	# tmp95, this
	mov	rax, QWORD PTR [rax]	# _4, this_15(D)->_M_impl.D.210518._M_start.D.58751._M_p
# /usr/include/c++/13/bits/stl_bvector.h:697: 	    const size_t __n = _M_impl._M_end_addr() - _M_impl._M_start._M_p;
	sub	rdx, rax	# _5, _4
	mov	rax, rdx	# _5, _5
	sar	rax, 3	# _5,
# /usr/include/c++/13/bits/stl_bvector.h:697: 	    const size_t __n = _M_impl._M_end_addr() - _M_impl._M_start._M_p;
	mov	QWORD PTR -32[rbp], rax	# __n, _6
# /usr/include/c++/13/bits/stl_bvector.h:699: 					  _M_impl._M_end_of_storage - __n,
	mov	rax, QWORD PTR -40[rbp]	# tmp97, this
	mov	rax, QWORD PTR 32[rax]	# _7, this_15(D)->_M_impl.D.210518._M_end_of_storage
# /usr/include/c++/13/bits/stl_bvector.h:699: 					  _M_impl._M_end_of_storage - __n,
	mov	rdx, QWORD PTR -32[rbp]	# tmp98, __n
	sal	rdx, 3	# _8,
	neg	rdx	# _9
# /usr/include/c++/13/bits/stl_bvector.h:698: 	    _Bit_alloc_traits::deallocate(_M_impl,
	add	rdx, rax	# _10, _7
# /usr/include/c++/13/bits/stl_bvector.h:698: 	    _Bit_alloc_traits::deallocate(_M_impl,
	mov	rax, QWORD PTR -40[rbp]	# _11, this
	mov	QWORD PTR -24[rbp], rax	# __a, _11
	mov	QWORD PTR -16[rbp], rdx	# __p, _10
	mov	rax, QWORD PTR -32[rbp]	# tmp99, __n
	mov	QWORD PTR -8[rbp], rax	# __n, tmp99
# /usr/include/c++/13/bits/alloc_traits.h:517:       { __a.deallocate(__p, __n); }
	mov	rdx, QWORD PTR -8[rbp]	# tmp100, __n
	mov	rcx, QWORD PTR -16[rbp]	# tmp101, __p
	mov	rax, QWORD PTR -24[rbp]	# tmp102, __a
	mov	rsi, rcx	#, tmp101
	mov	rdi, rax	#, tmp102
	call	_ZNSt15__new_allocatorImE10deallocateEPmm	#
# /usr/include/c++/13/bits/alloc_traits.h:517:       { __a.deallocate(__p, __n); }
	nop	
# /usr/include/c++/13/bits/stl_bvector.h:701: 	    _M_impl._M_reset();
	mov	rax, QWORD PTR -40[rbp]	# _12, this
	mov	rdi, rax	#, _12
	call	_ZNSt13_Bvector_baseISaIbEE18_Bvector_impl_data8_M_resetEv	#
.L222:
# /usr/include/c++/13/bits/stl_bvector.h:703:       }
	nop	
	leave	
	.cfi_def_cfa 7, 8
	ret	
	.cfi_endproc
.LFE11250:
	.size	_ZNSt13_Bvector_baseISaIbEE13_M_deallocateEv, .-_ZNSt13_Bvector_baseISaIbEE13_M_deallocateEv
	.section	.text._ZNSt6vectorIS_IbSaIbEESaIS1_EE11_S_max_sizeERKS2_,"axG",@progbits,_ZNSt6vectorIS_IbSaIbEESaIS1_EE11_S_max_sizeERKS2_,comdat
	.weak	_ZNSt6vectorIS_IbSaIbEESaIS1_EE11_S_max_sizeERKS2_
	.type	_ZNSt6vectorIS_IbSaIbEESaIS1_EE11_S_max_sizeERKS2_, @function
_ZNSt6vectorIS_IbSaIbEESaIS1_EE11_S_max_sizeERKS2_:
.LFB11251:
	.cfi_startproc
	endbr64	
	push	rbp	#
	.cfi_def_cfa_offset 16
	.cfi_offset 6, -16
	mov	rbp, rsp	#,
	.cfi_def_cfa_register 6
	sub	rsp, 64	#,
	mov	QWORD PTR -56[rbp], rdi	# __a, __a
# /usr/include/c++/13/bits/stl_vector.h:1916:       _S_max_size(const _Tp_alloc_type& __a) _GLIBCXX_NOEXCEPT
	mov	rax, QWORD PTR fs:40	# tmp92, MEM[(<address-space-1> long unsigned int *)40B]
	mov	QWORD PTR -8[rbp], rax	# D.230952, tmp92
	xor	eax, eax	# tmp92
# /usr/include/c++/13/bits/stl_vector.h:1921: 	const size_t __diffmax
	movabs	rax, 230584300921369395	# tmp95,
	mov	QWORD PTR -48[rbp], rax	# __diffmax, tmp95
	mov	rax, QWORD PTR -56[rbp]	# tmp86, __a
	mov	QWORD PTR -32[rbp], rax	# __a, tmp86
	mov	rax, QWORD PTR -32[rbp]	# tmp87, __a
	mov	QWORD PTR -24[rbp], rax	# this, tmp87
	mov	rax, QWORD PTR -24[rbp]	# tmp88, this
	mov	QWORD PTR -16[rbp], rax	# this, tmp88
# /usr/include/c++/13/bits/new_allocator.h:233: 	return std::size_t(__PTRDIFF_MAX__) / sizeof(_Tp);
	movabs	rax, 230584300921369395	# D.230832,
# /usr/include/c++/13/bits/new_allocator.h:183:       { return _M_max_size(); }
	nop	
# /usr/include/c++/13/bits/alloc_traits.h:574: 	return __a.max_size();
	nop	
# /usr/include/c++/13/bits/stl_vector.h:1923: 	const size_t __allocmax = _Alloc_traits::max_size(__a);
	mov	QWORD PTR -40[rbp], rax	# __allocmax, D.230832
# /usr/include/c++/13/bits/stl_vector.h:1924: 	return (std::min)(__diffmax, __allocmax);
	lea	rdx, -40[rbp]	# tmp89,
	lea	rax, -48[rbp]	# tmp90,
	mov	rsi, rdx	#, tmp89
	mov	rdi, rax	#, tmp90
	call	_ZSt3minImERKT_S2_S2_	#
# /usr/include/c++/13/bits/stl_vector.h:1924: 	return (std::min)(__diffmax, __allocmax);
	mov	rax, QWORD PTR [rax]	# _8, *_2
# /usr/include/c++/13/bits/stl_vector.h:1925:       }
	mov	rdx, QWORD PTR -8[rbp]	# tmp93, D.230952
	sub	rdx, QWORD PTR fs:40	# tmp93, MEM[(<address-space-1> long unsigned int *)40B]
	je	.L228	#,
	call	__stack_chk_fail@PLT	#
.L228:
	leave	
	.cfi_def_cfa 7, 8
	ret	
	.cfi_endproc
.LFE11251:
	.size	_ZNSt6vectorIS_IbSaIbEESaIS1_EE11_S_max_sizeERKS2_, .-_ZNSt6vectorIS_IbSaIbEESaIS1_EE11_S_max_sizeERKS2_
	.section	.text._ZNSt12_Vector_baseISt6vectorIbSaIbEESaIS2_EE12_Vector_implC2ERKS3_,"axG",@progbits,_ZNSt12_Vector_baseISt6vectorIbSaIbEESaIS2_EE12_Vector_implC5ERKS3_,comdat
	.align 2
	.weak	_ZNSt12_Vector_baseISt6vectorIbSaIbEESaIS2_EE12_Vector_implC2ERKS3_
	.type	_ZNSt12_Vector_baseISt6vectorIbSaIbEESaIS2_EE12_Vector_implC2ERKS3_, @function
_ZNSt12_Vector_baseISt6vectorIbSaIbEESaIS2_EE12_Vector_implC2ERKS3_:
.LFB11256:
	.cfi_startproc
	endbr64	
	push	rbp	#
	.cfi_def_cfa_offset 16
	.cfi_offset 6, -16
	mov	rbp, rsp	#,
	.cfi_def_cfa_register 6
	sub	rsp, 48	#,
	mov	QWORD PTR -40[rbp], rdi	# this, this
	mov	QWORD PTR -48[rbp], rsi	# __a, __a
	mov	rax, QWORD PTR -40[rbp]	# tmp83, this
	mov	QWORD PTR -32[rbp], rax	# this, tmp83
	mov	rax, QWORD PTR -48[rbp]	# tmp84, __a
	mov	QWORD PTR -24[rbp], rax	# __a, tmp84
	mov	rax, QWORD PTR -32[rbp]	# tmp85, this
	mov	QWORD PTR -16[rbp], rax	# this, tmp85
	mov	rax, QWORD PTR -24[rbp]	# tmp86, __a
	mov	QWORD PTR -8[rbp], rax	# D.230704, tmp86
# /usr/include/c++/13/bits/new_allocator.h:92:       __new_allocator(const __new_allocator&) _GLIBCXX_USE_NOEXCEPT { }
	nop	
# /usr/include/c++/13/bits/allocator.h:168:       : __allocator_base<_Tp>(__a) { }
	nop	
# /usr/include/c++/13/bits/stl_vector.h:147: 	: _Tp_alloc_type(__a)
	mov	rax, QWORD PTR -40[rbp]	# _1, this
	mov	rdi, rax	#, _1
	call	_ZNSt12_Vector_baseISt6vectorIbSaIbEESaIS2_EE17_Vector_impl_dataC2Ev	#
# /usr/include/c++/13/bits/stl_vector.h:148: 	{ }
	nop	
	leave	
	.cfi_def_cfa 7, 8
	ret	
	.cfi_endproc
.LFE11256:
	.size	_ZNSt12_Vector_baseISt6vectorIbSaIbEESaIS2_EE12_Vector_implC2ERKS3_, .-_ZNSt12_Vector_baseISt6vectorIbSaIbEESaIS2_EE12_Vector_implC2ERKS3_
	.weak	_ZNSt12_Vector_baseISt6vectorIbSaIbEESaIS2_EE12_Vector_implC1ERKS3_
	.set	_ZNSt12_Vector_baseISt6vectorIbSaIbEESaIS2_EE12_Vector_implC1ERKS3_,_ZNSt12_Vector_baseISt6vectorIbSaIbEESaIS2_EE12_Vector_implC2ERKS3_
	.section	.text._ZNSt12_Vector_baseISt6vectorIbSaIbEESaIS2_EE17_M_create_storageEm,"axG",@progbits,_ZNSt12_Vector_baseISt6vectorIbSaIbEESaIS2_EE17_M_create_storageEm,comdat
	.align 2
	.weak	_ZNSt12_Vector_baseISt6vectorIbSaIbEESaIS2_EE17_M_create_storageEm
	.type	_ZNSt12_Vector_baseISt6vectorIbSaIbEESaIS2_EE17_M_create_storageEm, @function
_ZNSt12_Vector_baseISt6vectorIbSaIbEESaIS2_EE17_M_create_storageEm:
.LFB11258:
	.cfi_startproc
	endbr64	
	push	rbp	#
	.cfi_def_cfa_offset 16
	.cfi_offset 6, -16
	mov	rbp, rsp	#,
	.cfi_def_cfa_register 6
	sub	rsp, 16	#,
	mov	QWORD PTR -8[rbp], rdi	# this, this
	mov	QWORD PTR -16[rbp], rsi	# __n, __n
# /usr/include/c++/13/bits/stl_vector.h:398: 	this->_M_impl._M_start = this->_M_allocate(__n);
	mov	rdx, QWORD PTR -16[rbp]	# tmp87, __n
	mov	rax, QWORD PTR -8[rbp]	# tmp88, this
	mov	rsi, rdx	#, tmp87
	mov	rdi, rax	#, tmp88
	call	_ZNSt12_Vector_baseISt6vectorIbSaIbEESaIS2_EE11_M_allocateEm	#
# /usr/include/c++/13/bits/stl_vector.h:398: 	this->_M_impl._M_start = this->_M_allocate(__n);
	mov	rdx, QWORD PTR -8[rbp]	# tmp89, this
	mov	QWORD PTR [rdx], rax	# this_7(D)->_M_impl.D.209471._M_start, _1
# /usr/include/c++/13/bits/stl_vector.h:399: 	this->_M_impl._M_finish = this->_M_impl._M_start;
	mov	rax, QWORD PTR -8[rbp]	# tmp90, this
	mov	rdx, QWORD PTR [rax]	# _2, this_7(D)->_M_impl.D.209471._M_start
# /usr/include/c++/13/bits/stl_vector.h:399: 	this->_M_impl._M_finish = this->_M_impl._M_start;
	mov	rax, QWORD PTR -8[rbp]	# tmp91, this
	mov	QWORD PTR 8[rax], rdx	# this_7(D)->_M_impl.D.209471._M_finish, _2
# /usr/include/c++/13/bits/stl_vector.h:400: 	this->_M_impl._M_end_of_storage = this->_M_impl._M_start + __n;
	mov	rax, QWORD PTR -8[rbp]	# tmp92, this
	mov	rcx, QWORD PTR [rax]	# _3, this_7(D)->_M_impl.D.209471._M_start
# /usr/include/c++/13/bits/stl_vector.h:400: 	this->_M_impl._M_end_of_storage = this->_M_impl._M_start + __n;
	mov	rdx, QWORD PTR -16[rbp]	# tmp93, __n
	mov	rax, rdx	# tmp94, tmp93
	sal	rax, 2	# tmp94,
	add	rax, rdx	# tmp94, tmp93
	sal	rax, 3	# tmp95,
	lea	rdx, [rcx+rax]	# _5,
# /usr/include/c++/13/bits/stl_vector.h:400: 	this->_M_impl._M_end_of_storage = this->_M_impl._M_start + __n;
	mov	rax, QWORD PTR -8[rbp]	# tmp96, this
	mov	QWORD PTR 16[rax], rdx	# this_7(D)->_M_impl.D.209471._M_end_of_storage, _5
# /usr/include/c++/13/bits/stl_vector.h:401:       }
	nop	
	leave	
	.cfi_def_cfa 7, 8
	ret	
	.cfi_endproc
.LFE11258:
	.size	_ZNSt12_Vector_baseISt6vectorIbSaIbEESaIS2_EE17_M_create_storageEm, .-_ZNSt12_Vector_baseISt6vectorIbSaIbEESaIS2_EE17_M_create_storageEm
	.section	.text._ZNSt12_Vector_baseISt6vectorIbSaIbEESaIS2_EE13_M_deallocateEPS2_m,"axG",@progbits,_ZNSt12_Vector_baseISt6vectorIbSaIbEESaIS2_EE13_M_deallocateEPS2_m,comdat
	.align 2
	.weak	_ZNSt12_Vector_baseISt6vectorIbSaIbEESaIS2_EE13_M_deallocateEPS2_m
	.type	_ZNSt12_Vector_baseISt6vectorIbSaIbEESaIS2_EE13_M_deallocateEPS2_m, @function
_ZNSt12_Vector_baseISt6vectorIbSaIbEESaIS2_EE13_M_deallocateEPS2_m:
.LFB11259:
	.cfi_startproc
	endbr64	
	push	rbp	#
	.cfi_def_cfa_offset 16
	.cfi_offset 6, -16
	mov	rbp, rsp	#,
	.cfi_def_cfa_register 6
	sub	rsp, 64	#,
	mov	QWORD PTR -40[rbp], rdi	# this, this
	mov	QWORD PTR -48[rbp], rsi	# __p, __p
	mov	QWORD PTR -56[rbp], rdx	# __n, __n
# /usr/include/c++/13/bits/stl_vector.h:389: 	if (__p)
	cmp	QWORD PTR -48[rbp], 0	# __p,
	je	.L233	#,
# /usr/include/c++/13/bits/stl_vector.h:390: 	  _Tr::deallocate(_M_impl, __p, __n);
	mov	rax, QWORD PTR -40[rbp]	# _1, this
	mov	QWORD PTR -24[rbp], rax	# __a, _1
	mov	rax, QWORD PTR -48[rbp]	# tmp83, __p
	mov	QWORD PTR -16[rbp], rax	# __p, tmp83
	mov	rax, QWORD PTR -56[rbp]	# tmp84, __n
	mov	QWORD PTR -8[rbp], rax	# __n, tmp84
# /usr/include/c++/13/bits/alloc_traits.h:517:       { __a.deallocate(__p, __n); }
	mov	rdx, QWORD PTR -8[rbp]	# tmp85, __n
	mov	rcx, QWORD PTR -16[rbp]	# tmp86, __p
	mov	rax, QWORD PTR -24[rbp]	# tmp87, __a
	mov	rsi, rcx	#, tmp86
	mov	rdi, rax	#, tmp87
	call	_ZNSt15__new_allocatorISt6vectorIbSaIbEEE10deallocateEPS2_m	#
# /usr/include/c++/13/bits/alloc_traits.h:517:       { __a.deallocate(__p, __n); }
	nop	
.L233:
# /usr/include/c++/13/bits/stl_vector.h:391:       }
	nop	
	leave	
	.cfi_def_cfa 7, 8
	ret	
	.cfi_endproc
.LFE11259:
	.size	_ZNSt12_Vector_baseISt6vectorIbSaIbEESaIS2_EE13_M_deallocateEPS2_m, .-_ZNSt12_Vector_baseISt6vectorIbSaIbEESaIS2_EE13_M_deallocateEPS2_m
	.section	.text._ZSt24__uninitialized_fill_n_aIPSt6vectorIbSaIbEEmS2_S2_ET_S4_T0_RKT1_RSaIT2_E,"axG",@progbits,_ZSt24__uninitialized_fill_n_aIPSt6vectorIbSaIbEEmS2_S2_ET_S4_T0_RKT1_RSaIT2_E,comdat
	.weak	_ZSt24__uninitialized_fill_n_aIPSt6vectorIbSaIbEEmS2_S2_ET_S4_T0_RKT1_RSaIT2_E
	.type	_ZSt24__uninitialized_fill_n_aIPSt6vectorIbSaIbEEmS2_S2_ET_S4_T0_RKT1_RSaIT2_E, @function
_ZSt24__uninitialized_fill_n_aIPSt6vectorIbSaIbEEmS2_S2_ET_S4_T0_RKT1_RSaIT2_E:
.LFB11260:
	.cfi_startproc
	endbr64	
	push	rbp	#
	.cfi_def_cfa_offset 16
	.cfi_offset 6, -16
	mov	rbp, rsp	#,
	.cfi_def_cfa_register 6
	sub	rsp, 32	#,
	mov	QWORD PTR -8[rbp], rdi	# __first, __first
	mov	QWORD PTR -16[rbp], rsi	# __n, __n
	mov	QWORD PTR -24[rbp], rdx	# __x, __x
	mov	QWORD PTR -32[rbp], rcx	# D.224669, D.224669
# /usr/include/c++/13/bits/stl_uninitialized.h:472:       return std::uninitialized_fill_n(__first, __n, __x);
	mov	rdx, QWORD PTR -24[rbp]	# tmp84, __x
	mov	rcx, QWORD PTR -16[rbp]	# tmp85, __n
	mov	rax, QWORD PTR -8[rbp]	# tmp86, __first
	mov	rsi, rcx	#, tmp85
	mov	rdi, rax	#, tmp86
	call	_ZSt20uninitialized_fill_nIPSt6vectorIbSaIbEEmS2_ET_S4_T0_RKT1_	#
# /usr/include/c++/13/bits/stl_uninitialized.h:473:     }
	leave	
	.cfi_def_cfa 7, 8
	ret	
	.cfi_endproc
.LFE11260:
	.size	_ZSt24__uninitialized_fill_n_aIPSt6vectorIbSaIbEEmS2_S2_ET_S4_T0_RKT1_RSaIT2_E, .-_ZSt24__uninitialized_fill_n_aIPSt6vectorIbSaIbEEmS2_S2_ET_S4_T0_RKT1_RSaIT2_E
	.section	.text._ZSt8_DestroyIPSt6vectorIbSaIbEEEvT_S4_,"axG",@progbits,_ZSt8_DestroyIPSt6vectorIbSaIbEEEvT_S4_,comdat
	.weak	_ZSt8_DestroyIPSt6vectorIbSaIbEEEvT_S4_
	.type	_ZSt8_DestroyIPSt6vectorIbSaIbEEEvT_S4_, @function
_ZSt8_DestroyIPSt6vectorIbSaIbEEEvT_S4_:
.LFB11261:
	.cfi_startproc
	endbr64	
	push	rbp	#
	.cfi_def_cfa_offset 16
	.cfi_offset 6, -16
	mov	rbp, rsp	#,
	.cfi_def_cfa_register 6
	sub	rsp, 16	#,
	mov	QWORD PTR -8[rbp], rdi	# __first, __first
	mov	QWORD PTR -16[rbp], rsi	# __last, __last
# /usr/include/c++/13/bits/stl_construct.h:196: 	__destroy(__first, __last);
	mov	rdx, QWORD PTR -16[rbp]	# tmp82, __last
	mov	rax, QWORD PTR -8[rbp]	# tmp83, __first
	mov	rsi, rdx	#, tmp82
	mov	rdi, rax	#, tmp83
	call	_ZNSt12_Destroy_auxILb0EE9__destroyIPSt6vectorIbSaIbEEEEvT_S6_	#
# /usr/include/c++/13/bits/stl_construct.h:197:     }
	nop	
	leave	
	.cfi_def_cfa 7, 8
	ret	
	.cfi_endproc
.LFE11261:
	.size	_ZSt8_DestroyIPSt6vectorIbSaIbEEEvT_S4_, .-_ZSt8_DestroyIPSt6vectorIbSaIbEEEvT_S4_
	.section	.text._ZNSt15__new_allocatorImE10deallocateEPmm,"axG",@progbits,_ZNSt15__new_allocatorImE10deallocateEPmm,comdat
	.align 2
	.weak	_ZNSt15__new_allocatorImE10deallocateEPmm
	.type	_ZNSt15__new_allocatorImE10deallocateEPmm, @function
_ZNSt15__new_allocatorImE10deallocateEPmm:
.LFB11376:
	.cfi_startproc
	endbr64	
	push	rbp	#
	.cfi_def_cfa_offset 16
	.cfi_offset 6, -16
	mov	rbp, rsp	#,
	.cfi_def_cfa_register 6
	sub	rsp, 32	#,
	mov	QWORD PTR -8[rbp], rdi	# this, this
	mov	QWORD PTR -16[rbp], rsi	# __p, __p
	mov	QWORD PTR -24[rbp], rdx	# __n, __n
# /usr/include/c++/13/bits/new_allocator.h:172: 	_GLIBCXX_OPERATOR_DELETE(_GLIBCXX_SIZED_DEALLOC(__p, __n));
	mov	rax, QWORD PTR -24[rbp]	# tmp83, __n
	lea	rdx, 0[0+rax*8]	# _2,
	mov	rax, QWORD PTR -16[rbp]	# tmp84, __p
	mov	rsi, rdx	#, _2
	mov	rdi, rax	#, tmp84
	call	_ZdlPvm@PLT	#
# /usr/include/c++/13/bits/new_allocator.h:173:       }
	leave	
	.cfi_def_cfa 7, 8
	ret	
	.cfi_endproc
.LFE11376:
	.size	_ZNSt15__new_allocatorImE10deallocateEPmm, .-_ZNSt15__new_allocatorImE10deallocateEPmm
	.section	.text._ZNSt12_Vector_baseIiSaIiEE17_Vector_impl_dataC2Ev,"axG",@progbits,_ZNSt12_Vector_baseIiSaIiEE17_Vector_impl_dataC5Ev,comdat
	.align 2
	.weak	_ZNSt12_Vector_baseIiSaIiEE17_Vector_impl_dataC2Ev
	.type	_ZNSt12_Vector_baseIiSaIiEE17_Vector_impl_dataC2Ev, @function
_ZNSt12_Vector_baseIiSaIiEE17_Vector_impl_dataC2Ev:
.LFB11415:
	.cfi_startproc
	endbr64	
	push	rbp	#
	.cfi_def_cfa_offset 16
	.cfi_offset 6, -16
	mov	rbp, rsp	#,
	.cfi_def_cfa_register 6
	mov	QWORD PTR -8[rbp], rdi	# this, this
# /usr/include/c++/13/bits/stl_vector.h:100: 	: _M_start(), _M_finish(), _M_end_of_storage()
	mov	rax, QWORD PTR -8[rbp]	# tmp82, this
	mov	QWORD PTR [rax], 0	# this_2(D)->_M_start,
# /usr/include/c++/13/bits/stl_vector.h:100: 	: _M_start(), _M_finish(), _M_end_of_storage()
	mov	rax, QWORD PTR -8[rbp]	# tmp83, this
	mov	QWORD PTR 8[rax], 0	# this_2(D)->_M_finish,
# /usr/include/c++/13/bits/stl_vector.h:100: 	: _M_start(), _M_finish(), _M_end_of_storage()
	mov	rax, QWORD PTR -8[rbp]	# tmp84, this
	mov	QWORD PTR 16[rax], 0	# this_2(D)->_M_end_of_storage,
# /usr/include/c++/13/bits/stl_vector.h:101: 	{ }
	nop	
	pop	rbp	#
	.cfi_def_cfa 7, 8
	ret	
	.cfi_endproc
.LFE11415:
	.size	_ZNSt12_Vector_baseIiSaIiEE17_Vector_impl_dataC2Ev, .-_ZNSt12_Vector_baseIiSaIiEE17_Vector_impl_dataC2Ev
	.weak	_ZNSt12_Vector_baseIiSaIiEE17_Vector_impl_dataC1Ev
	.set	_ZNSt12_Vector_baseIiSaIiEE17_Vector_impl_dataC1Ev,_ZNSt12_Vector_baseIiSaIiEE17_Vector_impl_dataC2Ev
	.section	.text._ZNSt12_Vector_baseIiSaIiEE11_M_allocateEm,"axG",@progbits,_ZNSt12_Vector_baseIiSaIiEE11_M_allocateEm,comdat
	.align 2
	.weak	_ZNSt12_Vector_baseIiSaIiEE11_M_allocateEm
	.type	_ZNSt12_Vector_baseIiSaIiEE11_M_allocateEm, @function
_ZNSt12_Vector_baseIiSaIiEE11_M_allocateEm:
.LFB11417:
	.cfi_startproc
	endbr64	
	push	rbp	#
	.cfi_def_cfa_offset 16
	.cfi_offset 6, -16
	mov	rbp, rsp	#,
	.cfi_def_cfa_register 6
	sub	rsp, 32	#,
	mov	QWORD PTR -24[rbp], rdi	# this, this
	mov	QWORD PTR -32[rbp], rsi	# __n, __n
# /usr/include/c++/13/bits/stl_vector.h:381: 	return __n != 0 ? _Tr::allocate(_M_impl, __n) : pointer();
	cmp	QWORD PTR -32[rbp], 0	# __n,
	je	.L241	#,
# /usr/include/c++/13/bits/stl_vector.h:381: 	return __n != 0 ? _Tr::allocate(_M_impl, __n) : pointer();
	mov	rax, QWORD PTR -24[rbp]	# _1, this
	mov	QWORD PTR -16[rbp], rax	# __a, _1
	mov	rax, QWORD PTR -32[rbp]	# tmp85, __n
	mov	QWORD PTR -8[rbp], rax	# __n, tmp85
# /usr/include/c++/13/bits/alloc_traits.h:482:       { return __a.allocate(__n); }
	mov	rcx, QWORD PTR -8[rbp]	# tmp86, __n
	mov	rax, QWORD PTR -16[rbp]	# tmp87, __a
	mov	edx, 0	#,
	mov	rsi, rcx	#, tmp86
	mov	rdi, rax	#, tmp87
	call	_ZNSt15__new_allocatorIiE8allocateEmPKv	#
# /usr/include/c++/13/bits/alloc_traits.h:482:       { return __a.allocate(__n); }
	nop	
	jmp	.L243	#
.L241:
# /usr/include/c++/13/bits/stl_vector.h:381: 	return __n != 0 ? _Tr::allocate(_M_impl, __n) : pointer();
	mov	eax, 0	# D.230714,
.L243:
# /usr/include/c++/13/bits/stl_vector.h:382:       }
	leave	
	.cfi_def_cfa 7, 8
	ret	
	.cfi_endproc
.LFE11417:
	.size	_ZNSt12_Vector_baseIiSaIiEE11_M_allocateEm, .-_ZNSt12_Vector_baseIiSaIiEE11_M_allocateEm
	.section	.text._ZSt25__uninitialized_default_nIPimET_S1_T0_,"axG",@progbits,_ZSt25__uninitialized_default_nIPimET_S1_T0_,comdat
	.weak	_ZSt25__uninitialized_default_nIPimET_S1_T0_
	.type	_ZSt25__uninitialized_default_nIPimET_S1_T0_, @function
_ZSt25__uninitialized_default_nIPimET_S1_T0_:
.LFB11419:
	.cfi_startproc
	endbr64	
	push	rbp	#
	.cfi_def_cfa_offset 16
	.cfi_offset 6, -16
	mov	rbp, rsp	#,
	.cfi_def_cfa_register 6
	sub	rsp, 32	#,
	mov	QWORD PTR -24[rbp], rdi	# __first, __first
	mov	QWORD PTR -32[rbp], rsi	# __n, __n
# /usr/include/c++/13/bits/stl_uninitialized.h:707:       constexpr bool __can_fill
	mov	BYTE PTR -1[rbp], 1	# __can_fill,
# /usr/include/c++/13/bits/stl_uninitialized.h:712: 	__uninit_default_n(__first, __n);
	mov	rdx, QWORD PTR -32[rbp]	# tmp84, __n
	mov	rax, QWORD PTR -24[rbp]	# tmp85, __first
	mov	rsi, rdx	#, tmp84
	mov	rdi, rax	#, tmp85
	call	_ZNSt27__uninitialized_default_n_1ILb1EE18__uninit_default_nIPimEET_S3_T0_	#
# /usr/include/c++/13/bits/stl_uninitialized.h:713:     }
	leave	
	.cfi_def_cfa 7, 8
	ret	
	.cfi_endproc
.LFE11419:
	.size	_ZSt25__uninitialized_default_nIPimET_S1_T0_, .-_ZSt25__uninitialized_default_nIPimET_S1_T0_
	.section	.text._ZNSt12_Destroy_auxILb1EE9__destroyIPiEEvT_S3_,"axG",@progbits,_ZNSt12_Destroy_auxILb1EE9__destroyIPiEEvT_S3_,comdat
	.weak	_ZNSt12_Destroy_auxILb1EE9__destroyIPiEEvT_S3_
	.type	_ZNSt12_Destroy_auxILb1EE9__destroyIPiEEvT_S3_, @function
_ZNSt12_Destroy_auxILb1EE9__destroyIPiEEvT_S3_:
.LFB11420:
	.cfi_startproc
	endbr64	
	push	rbp	#
	.cfi_def_cfa_offset 16
	.cfi_offset 6, -16
	mov	rbp, rsp	#,
	.cfi_def_cfa_register 6
	mov	QWORD PTR -8[rbp], rdi	# D.227069, D.227069
	mov	QWORD PTR -16[rbp], rsi	# D.227070, D.227070
# /usr/include/c++/13/bits/stl_construct.h:172:         __destroy(_ForwardIterator, _ForwardIterator) { }
	nop	
	pop	rbp	#
	.cfi_def_cfa 7, 8
	ret	
	.cfi_endproc
.LFE11420:
	.size	_ZNSt12_Destroy_auxILb1EE9__destroyIPiEEvT_S3_, .-_ZNSt12_Destroy_auxILb1EE9__destroyIPiEEvT_S3_
	.section	.text._ZNSt12_Vector_baseISt6vectorIiSaIiEESaIS2_EE17_Vector_impl_dataC2Ev,"axG",@progbits,_ZNSt12_Vector_baseISt6vectorIiSaIiEESaIS2_EE17_Vector_impl_dataC5Ev,comdat
	.align 2
	.weak	_ZNSt12_Vector_baseISt6vectorIiSaIiEESaIS2_EE17_Vector_impl_dataC2Ev
	.type	_ZNSt12_Vector_baseISt6vectorIiSaIiEESaIS2_EE17_Vector_impl_dataC2Ev, @function
_ZNSt12_Vector_baseISt6vectorIiSaIiEESaIS2_EE17_Vector_impl_dataC2Ev:
.LFB11426:
	.cfi_startproc
	endbr64	
	push	rbp	#
	.cfi_def_cfa_offset 16
	.cfi_offset 6, -16
	mov	rbp, rsp	#,
	.cfi_def_cfa_register 6
	mov	QWORD PTR -8[rbp], rdi	# this, this
# /usr/include/c++/13/bits/stl_vector.h:100: 	: _M_start(), _M_finish(), _M_end_of_storage()
	mov	rax, QWORD PTR -8[rbp]	# tmp82, this
	mov	QWORD PTR [rax], 0	# this_2(D)->_M_start,
# /usr/include/c++/13/bits/stl_vector.h:100: 	: _M_start(), _M_finish(), _M_end_of_storage()
	mov	rax, QWORD PTR -8[rbp]	# tmp83, this
	mov	QWORD PTR 8[rax], 0	# this_2(D)->_M_finish,
# /usr/include/c++/13/bits/stl_vector.h:100: 	: _M_start(), _M_finish(), _M_end_of_storage()
	mov	rax, QWORD PTR -8[rbp]	# tmp84, this
	mov	QWORD PTR 16[rax], 0	# this_2(D)->_M_end_of_storage,
# /usr/include/c++/13/bits/stl_vector.h:101: 	{ }
	nop	
	pop	rbp	#
	.cfi_def_cfa 7, 8
	ret	
	.cfi_endproc
.LFE11426:
	.size	_ZNSt12_Vector_baseISt6vectorIiSaIiEESaIS2_EE17_Vector_impl_dataC2Ev, .-_ZNSt12_Vector_baseISt6vectorIiSaIiEESaIS2_EE17_Vector_impl_dataC2Ev
	.weak	_ZNSt12_Vector_baseISt6vectorIiSaIiEESaIS2_EE17_Vector_impl_dataC1Ev
	.set	_ZNSt12_Vector_baseISt6vectorIiSaIiEESaIS2_EE17_Vector_impl_dataC1Ev,_ZNSt12_Vector_baseISt6vectorIiSaIiEESaIS2_EE17_Vector_impl_dataC2Ev
	.section	.text._ZNSt12_Vector_baseISt6vectorIiSaIiEESaIS2_EE11_M_allocateEm,"axG",@progbits,_ZNSt12_Vector_baseISt6vectorIiSaIiEESaIS2_EE11_M_allocateEm,comdat
	.align 2
	.weak	_ZNSt12_Vector_baseISt6vectorIiSaIiEESaIS2_EE11_M_allocateEm
	.type	_ZNSt12_Vector_baseISt6vectorIiSaIiEESaIS2_EE11_M_allocateEm, @function
_ZNSt12_Vector_baseISt6vectorIiSaIiEESaIS2_EE11_M_allocateEm:
.LFB11428:
	.cfi_startproc
	endbr64	
	push	rbp	#
	.cfi_def_cfa_offset 16
	.cfi_offset 6, -16
	mov	rbp, rsp	#,
	.cfi_def_cfa_register 6
	sub	rsp, 32	#,
	mov	QWORD PTR -24[rbp], rdi	# this, this
	mov	QWORD PTR -32[rbp], rsi	# __n, __n
# /usr/include/c++/13/bits/stl_vector.h:381: 	return __n != 0 ? _Tr::allocate(_M_impl, __n) : pointer();
	cmp	QWORD PTR -32[rbp], 0	# __n,
	je	.L250	#,
# /usr/include/c++/13/bits/stl_vector.h:381: 	return __n != 0 ? _Tr::allocate(_M_impl, __n) : pointer();
	mov	rax, QWORD PTR -24[rbp]	# _1, this
	mov	QWORD PTR -16[rbp], rax	# __a, _1
	mov	rax, QWORD PTR -32[rbp]	# tmp85, __n
	mov	QWORD PTR -8[rbp], rax	# __n, tmp85
# /usr/include/c++/13/bits/alloc_traits.h:482:       { return __a.allocate(__n); }
	mov	rcx, QWORD PTR -8[rbp]	# tmp86, __n
	mov	rax, QWORD PTR -16[rbp]	# tmp87, __a
	mov	edx, 0	#,
	mov	rsi, rcx	#, tmp86
	mov	rdi, rax	#, tmp87
	call	_ZNSt15__new_allocatorISt6vectorIiSaIiEEE8allocateEmPKv	#
# /usr/include/c++/13/bits/alloc_traits.h:482:       { return __a.allocate(__n); }
	nop	
	jmp	.L252	#
.L250:
# /usr/include/c++/13/bits/stl_vector.h:381: 	return __n != 0 ? _Tr::allocate(_M_impl, __n) : pointer();
	mov	eax, 0	# D.230720,
.L252:
# /usr/include/c++/13/bits/stl_vector.h:382:       }
	leave	
	.cfi_def_cfa 7, 8
	ret	
	.cfi_endproc
.LFE11428:
	.size	_ZNSt12_Vector_baseISt6vectorIiSaIiEESaIS2_EE11_M_allocateEm, .-_ZNSt12_Vector_baseISt6vectorIiSaIiEESaIS2_EE11_M_allocateEm
	.section	.text._ZSt20uninitialized_fill_nIPSt6vectorIiSaIiEEmS2_ET_S4_T0_RKT1_,"axG",@progbits,_ZSt20uninitialized_fill_nIPSt6vectorIiSaIiEEmS2_ET_S4_T0_RKT1_,comdat
	.weak	_ZSt20uninitialized_fill_nIPSt6vectorIiSaIiEEmS2_ET_S4_T0_RKT1_
	.type	_ZSt20uninitialized_fill_nIPSt6vectorIiSaIiEEmS2_ET_S4_T0_RKT1_, @function
_ZSt20uninitialized_fill_nIPSt6vectorIiSaIiEEmS2_ET_S4_T0_RKT1_:
.LFB11430:
	.cfi_startproc
	endbr64	
	push	rbp	#
	.cfi_def_cfa_offset 16
	.cfi_offset 6, -16
	mov	rbp, rsp	#,
	.cfi_def_cfa_register 6
	sub	rsp, 48	#,
	mov	QWORD PTR -24[rbp], rdi	# __first, __first
	mov	QWORD PTR -32[rbp], rsi	# __n, __n
	mov	QWORD PTR -40[rbp], rdx	# __x, __x
# /usr/include/c++/13/bits/stl_uninitialized.h:319:       const bool __can_fill
	mov	BYTE PTR -1[rbp], 0	# __can_fill,
# /usr/include/c++/13/bits/stl_uninitialized.h:327: 	__uninit_fill_n(__first, __n, __x);
	mov	rdx, QWORD PTR -40[rbp]	# tmp84, __x
	mov	rcx, QWORD PTR -32[rbp]	# tmp85, __n
	mov	rax, QWORD PTR -24[rbp]	# tmp86, __first
	mov	rsi, rcx	#, tmp85
	mov	rdi, rax	#, tmp86
	call	_ZNSt22__uninitialized_fill_nILb0EE15__uninit_fill_nIPSt6vectorIiSaIiEEmS4_EET_S6_T0_RKT1_	#
# /usr/include/c++/13/bits/stl_uninitialized.h:328:     }
	leave	
	.cfi_def_cfa 7, 8
	ret	
	.cfi_endproc
.LFE11430:
	.size	_ZSt20uninitialized_fill_nIPSt6vectorIiSaIiEEmS2_ET_S4_T0_RKT1_, .-_ZSt20uninitialized_fill_nIPSt6vectorIiSaIiEEmS2_ET_S4_T0_RKT1_
	.section	.text._ZNSt12_Destroy_auxILb0EE9__destroyIPSt6vectorIiSaIiEEEEvT_S6_,"axG",@progbits,_ZNSt12_Destroy_auxILb0EE9__destroyIPSt6vectorIiSaIiEEEEvT_S6_,comdat
	.weak	_ZNSt12_Destroy_auxILb0EE9__destroyIPSt6vectorIiSaIiEEEEvT_S6_
	.type	_ZNSt12_Destroy_auxILb0EE9__destroyIPSt6vectorIiSaIiEEEEvT_S6_, @function
_ZNSt12_Destroy_auxILb0EE9__destroyIPSt6vectorIiSaIiEEEEvT_S6_:
.LFB11432:
	.cfi_startproc
	endbr64	
	push	rbp	#
	.cfi_def_cfa_offset 16
	.cfi_offset 6, -16
	mov	rbp, rsp	#,
	.cfi_def_cfa_register 6
	sub	rsp, 16	#,
	mov	QWORD PTR -8[rbp], rdi	# __first, __first
	mov	QWORD PTR -16[rbp], rsi	# __last, __last
# /usr/include/c++/13/bits/stl_construct.h:162: 	  for (; __first != __last; ++__first)
	jmp	.L257	#
.L258:
# /usr/include/c++/13/bits/stl_construct.h:163: 	    std::_Destroy(std::__addressof(*__first));
	mov	rax, QWORD PTR -8[rbp]	# tmp83, __first
	mov	rdi, rax	#, tmp83
	call	_ZSt11__addressofISt6vectorIiSaIiEEEPT_RS3_	#
# /usr/include/c++/13/bits/stl_construct.h:163: 	    std::_Destroy(std::__addressof(*__first));
	mov	rdi, rax	#, _1
	call	_ZSt8_DestroyISt6vectorIiSaIiEEEvPT_	#
# /usr/include/c++/13/bits/stl_construct.h:162: 	  for (; __first != __last; ++__first)
	add	QWORD PTR -8[rbp], 24	# __first,
.L257:
# /usr/include/c++/13/bits/stl_construct.h:162: 	  for (; __first != __last; ++__first)
	mov	rax, QWORD PTR -8[rbp]	# tmp84, __first
	cmp	rax, QWORD PTR -16[rbp]	# tmp84, __last
	jne	.L258	#,
# /usr/include/c++/13/bits/stl_construct.h:164: 	}
	nop	
	nop	
	leave	
	.cfi_def_cfa 7, 8
	ret	
	.cfi_endproc
.LFE11432:
	.size	_ZNSt12_Destroy_auxILb0EE9__destroyIPSt6vectorIiSaIiEEEEvT_S6_, .-_ZNSt12_Destroy_auxILb0EE9__destroyIPSt6vectorIiSaIiEEEEvT_S6_
	.section	.text._ZNSt13_Bvector_baseISaIbEE13_Bvector_implC2ERKSaImE,"axG",@progbits,_ZNSt13_Bvector_baseISaIbEE13_Bvector_implC5ERKSaImE,comdat
	.align 2
	.weak	_ZNSt13_Bvector_baseISaIbEE13_Bvector_implC2ERKSaImE
	.type	_ZNSt13_Bvector_baseISaIbEE13_Bvector_implC2ERKSaImE, @function
_ZNSt13_Bvector_baseISaIbEE13_Bvector_implC2ERKSaImE:
.LFB11437:
	.cfi_startproc
	endbr64	
	push	rbp	#
	.cfi_def_cfa_offset 16
	.cfi_offset 6, -16
	mov	rbp, rsp	#,
	.cfi_def_cfa_register 6
	sub	rsp, 48	#,
	mov	QWORD PTR -40[rbp], rdi	# this, this
	mov	QWORD PTR -48[rbp], rsi	# __a, __a
	mov	rax, QWORD PTR -40[rbp]	# tmp83, this
	mov	QWORD PTR -32[rbp], rax	# this, tmp83
	mov	rax, QWORD PTR -48[rbp]	# tmp84, __a
	mov	QWORD PTR -24[rbp], rax	# __a, tmp84
	mov	rax, QWORD PTR -32[rbp]	# tmp85, this
	mov	QWORD PTR -16[rbp], rax	# this, tmp85
	mov	rax, QWORD PTR -24[rbp]	# tmp86, __a
	mov	QWORD PTR -8[rbp], rax	# D.230809, tmp86
# /usr/include/c++/13/bits/new_allocator.h:92:       __new_allocator(const __new_allocator&) _GLIBCXX_USE_NOEXCEPT { }
	nop	
# /usr/include/c++/13/bits/allocator.h:168:       : __allocator_base<_Tp>(__a) { }
	nop	
# /usr/include/c++/13/bits/stl_bvector.h:604: 	: _Bit_alloc_type(__a)
	mov	rax, QWORD PTR -40[rbp]	# _1, this
	mov	rdi, rax	#, _1
	call	_ZNSt13_Bvector_baseISaIbEE18_Bvector_impl_dataC2Ev	#
# /usr/include/c++/13/bits/stl_bvector.h:605: 	{ }
	nop	
	leave	
	.cfi_def_cfa 7, 8
	ret	
	.cfi_endproc
.LFE11437:
	.size	_ZNSt13_Bvector_baseISaIbEE13_Bvector_implC2ERKSaImE, .-_ZNSt13_Bvector_baseISaIbEE13_Bvector_implC2ERKSaImE
	.weak	_ZNSt13_Bvector_baseISaIbEE13_Bvector_implC1ERKSaImE
	.set	_ZNSt13_Bvector_baseISaIbEE13_Bvector_implC1ERKSaImE,_ZNSt13_Bvector_baseISaIbEE13_Bvector_implC2ERKSaImE
	.section	.text._ZNSt13_Bvector_baseISaIbEE11_M_allocateEm,"axG",@progbits,_ZNSt13_Bvector_baseISaIbEE11_M_allocateEm,comdat
	.align 2
	.weak	_ZNSt13_Bvector_baseISaIbEE11_M_allocateEm
	.type	_ZNSt13_Bvector_baseISaIbEE11_M_allocateEm, @function
_ZNSt13_Bvector_baseISaIbEE11_M_allocateEm:
.LFB11439:
	.cfi_startproc
	endbr64	
	push	rbp	#
	.cfi_def_cfa_offset 16
	.cfi_offset 6, -16
	mov	rbp, rsp	#,
	.cfi_def_cfa_register 6
	sub	rsp, 48	#,
	mov	QWORD PTR -40[rbp], rdi	# this, this
	mov	QWORD PTR -48[rbp], rsi	# __n, __n
# /usr/include/c++/13/bits/stl_bvector.h:679: 	_Bit_pointer __p = _Bit_alloc_traits::allocate(_M_impl, _S_nword(__n));
	mov	rax, QWORD PTR -48[rbp]	# tmp87, __n
	mov	rdi, rax	#, tmp87
	call	_ZNSt13_Bvector_baseISaIbEE8_S_nwordEm	#
# /usr/include/c++/13/bits/stl_bvector.h:679: 	_Bit_pointer __p = _Bit_alloc_traits::allocate(_M_impl, _S_nword(__n));
	mov	rdx, QWORD PTR -40[rbp]	# _2, this
	mov	QWORD PTR -16[rbp], rdx	# __a, _2
	mov	QWORD PTR -8[rbp], rax	# __n, _1
# /usr/include/c++/13/bits/alloc_traits.h:482:       { return __a.allocate(__n); }
	mov	rcx, QWORD PTR -8[rbp]	# tmp88, __n
	mov	rax, QWORD PTR -16[rbp]	# tmp89, __a
	mov	edx, 0	#,
	mov	rsi, rcx	#, tmp88
	mov	rdi, rax	#, tmp89
	call	_ZNSt15__new_allocatorImE8allocateEmPKv	#
# /usr/include/c++/13/bits/alloc_traits.h:482:       { return __a.allocate(__n); }
	nop	
# /usr/include/c++/13/bits/stl_bvector.h:679: 	_Bit_pointer __p = _Bit_alloc_traits::allocate(_M_impl, _S_nword(__n));
	mov	QWORD PTR -24[rbp], rax	# __p, D.230729
# /usr/include/c++/13/bits/stl_bvector.h:688: 	return __p;
	mov	rax, QWORD PTR -24[rbp]	# _9, __p
# /usr/include/c++/13/bits/stl_bvector.h:689:       }
	leave	
	.cfi_def_cfa 7, 8
	ret	
	.cfi_endproc
.LFE11439:
	.size	_ZNSt13_Bvector_baseISaIbEE11_M_allocateEm, .-_ZNSt13_Bvector_baseISaIbEE11_M_allocateEm
	.section	.text._ZNSt13_Bvector_baseISaIbEE8_S_nwordEm,"axG",@progbits,_ZNSt13_Bvector_baseISaIbEE8_S_nwordEm,comdat
	.weak	_ZNSt13_Bvector_baseISaIbEE8_S_nwordEm
	.type	_ZNSt13_Bvector_baseISaIbEE8_S_nwordEm, @function
_ZNSt13_Bvector_baseISaIbEE8_S_nwordEm:
.LFB11440:
	.cfi_startproc
	endbr64	
	push	rbp	#
	.cfi_def_cfa_offset 16
	.cfi_offset 6, -16
	mov	rbp, rsp	#,
	.cfi_def_cfa_register 6
	mov	QWORD PTR -8[rbp], rdi	# __n, __n
# /usr/include/c++/13/bits/stl_bvector.h:715:       { return (__n + int(_S_word_bit) - 1) / int(_S_word_bit); }
	mov	rax, QWORD PTR -8[rbp]	# tmp85, __n
	add	rax, 63	# _1,
# /usr/include/c++/13/bits/stl_bvector.h:715:       { return (__n + int(_S_word_bit) - 1) / int(_S_word_bit); }
	shr	rax, 6	# _3,
# /usr/include/c++/13/bits/stl_bvector.h:715:       { return (__n + int(_S_word_bit) - 1) / int(_S_word_bit); }
	pop	rbp	#
	.cfi_def_cfa 7, 8
	ret	
	.cfi_endproc
.LFE11440:
	.size	_ZNSt13_Bvector_baseISaIbEE8_S_nwordEm, .-_ZNSt13_Bvector_baseISaIbEE8_S_nwordEm
	.section	.text._ZSt11__addressofImEPT_RS0_,"axG",@progbits,_ZSt11__addressofImEPT_RS0_,comdat
	.weak	_ZSt11__addressofImEPT_RS0_
	.type	_ZSt11__addressofImEPT_RS0_, @function
_ZSt11__addressofImEPT_RS0_:
.LFB11441:
	.cfi_startproc
	endbr64	
	push	rbp	#
	.cfi_def_cfa_offset 16
	.cfi_offset 6, -16
	mov	rbp, rsp	#,
	.cfi_def_cfa_register 6
	mov	QWORD PTR -8[rbp], rdi	# __r, __r
# /usr/include/c++/13/bits/move.h:52:     { return __builtin_addressof(__r); }
	mov	rax, QWORD PTR -8[rbp]	# _2, __r
# /usr/include/c++/13/bits/move.h:52:     { return __builtin_addressof(__r); }
	pop	rbp	#
	.cfi_def_cfa 7, 8
	ret	
	.cfi_endproc
.LFE11441:
	.size	_ZSt11__addressofImEPT_RS0_, .-_ZSt11__addressofImEPT_RS0_
	.section	.text._ZNKSt13_Bvector_baseISaIbEE13_Bvector_impl11_M_end_addrEv,"axG",@progbits,_ZNKSt13_Bvector_baseISaIbEE13_Bvector_impl11_M_end_addrEv,comdat
	.align 2
	.weak	_ZNKSt13_Bvector_baseISaIbEE13_Bvector_impl11_M_end_addrEv
	.type	_ZNKSt13_Bvector_baseISaIbEE13_Bvector_impl11_M_end_addrEv, @function
_ZNKSt13_Bvector_baseISaIbEE13_Bvector_impl11_M_end_addrEv:
.LFB11442:
	.cfi_startproc
	endbr64	
	push	rbp	#
	.cfi_def_cfa_offset 16
	.cfi_offset 6, -16
	mov	rbp, rsp	#,
	.cfi_def_cfa_register 6
	sub	rsp, 16	#,
	mov	QWORD PTR -8[rbp], rdi	# this, this
# /usr/include/c++/13/bits/stl_bvector.h:625: 	  if (this->_M_end_of_storage)
	mov	rax, QWORD PTR -8[rbp]	# tmp88, this
	mov	rax, QWORD PTR 32[rax]	# _1, this_8(D)->D.210518._M_end_of_storage
# /usr/include/c++/13/bits/stl_bvector.h:625: 	  if (this->_M_end_of_storage)
	test	rax, rax	# _1
	je	.L268	#,
# /usr/include/c++/13/bits/stl_bvector.h:626: 	    return std::__addressof(this->_M_end_of_storage[-1]) + 1;
	mov	rax, QWORD PTR -8[rbp]	# tmp89, this
	mov	rax, QWORD PTR 32[rax]	# _2, this_8(D)->D.210518._M_end_of_storage
# /usr/include/c++/13/bits/stl_bvector.h:626: 	    return std::__addressof(this->_M_end_of_storage[-1]) + 1;
	sub	rax, 8	# _3,
	mov	rdi, rax	#, _3
	call	_ZSt11__addressofImEPT_RS0_	#
# /usr/include/c++/13/bits/stl_bvector.h:626: 	    return std::__addressof(this->_M_end_of_storage[-1]) + 1;
	add	rax, 8	# _5,
# /usr/include/c++/13/bits/stl_bvector.h:626: 	    return std::__addressof(this->_M_end_of_storage[-1]) + 1;
	jmp	.L269	#
.L268:
# /usr/include/c++/13/bits/stl_bvector.h:627: 	  return 0;
	mov	eax, 0	# _5,
.L269:
# /usr/include/c++/13/bits/stl_bvector.h:628: 	}
	leave	
	.cfi_def_cfa 7, 8
	ret	
	.cfi_endproc
.LFE11442:
	.size	_ZNKSt13_Bvector_baseISaIbEE13_Bvector_impl11_M_end_addrEv, .-_ZNKSt13_Bvector_baseISaIbEE13_Bvector_impl11_M_end_addrEv
	.section	.text._ZNSt13_Bvector_baseISaIbEE18_Bvector_impl_data8_M_resetEv,"axG",@progbits,_ZNSt13_Bvector_baseISaIbEE18_Bvector_impl_data8_M_resetEv,comdat
	.align 2
	.weak	_ZNSt13_Bvector_baseISaIbEE18_Bvector_impl_data8_M_resetEv
	.type	_ZNSt13_Bvector_baseISaIbEE18_Bvector_impl_data8_M_resetEv, @function
_ZNSt13_Bvector_baseISaIbEE18_Bvector_impl_data8_M_resetEv:
.LFB11443:
	.cfi_startproc
	endbr64	
	push	rbp	#
	.cfi_def_cfa_offset 16
	.cfi_offset 6, -16
	mov	rbp, rsp	#,
	.cfi_def_cfa_register 6
	push	rbx	#
	sub	rsp, 72	#,
	.cfi_offset 3, -24
	mov	QWORD PTR -72[rbp], rdi	# this, this
# /usr/include/c++/13/bits/stl_bvector.h:577: 	_M_reset() _GLIBCXX_NOEXCEPT
	mov	rax, QWORD PTR fs:40	# tmp88, MEM[(<address-space-1> long unsigned int *)40B]
	mov	QWORD PTR -24[rbp], rax	# D.230953, tmp88
	xor	eax, eax	# tmp88
# /usr/include/c++/13/bits/stl_bvector.h:578: 	{ *this = _Bvector_impl_data(); }
	lea	rax, -64[rbp]	# tmp83,
	mov	rdi, rax	#, tmp83
	call	_ZNSt13_Bvector_baseISaIbEE18_Bvector_impl_dataC1Ev	#
# /usr/include/c++/13/bits/stl_bvector.h:578: 	{ *this = _Bvector_impl_data(); }
	lea	rdx, -64[rbp]	# _1,
# /usr/include/c++/13/bits/stl_bvector.h:578: 	{ *this = _Bvector_impl_data(); }
	mov	rax, QWORD PTR -72[rbp]	# tmp84, this
	mov	rcx, QWORD PTR [rdx]	# tmp85, MEM[(const struct _Bvector_impl_data &)_1]
	mov	rbx, QWORD PTR 8[rdx]	#, MEM[(const struct _Bvector_impl_data &)_1]
	mov	QWORD PTR [rax], rcx	# *this_4(D), tmp85
	mov	QWORD PTR 8[rax], rbx	# *this_4(D),
	mov	rcx, QWORD PTR 16[rdx]	# tmp86, MEM[(const struct _Bvector_impl_data &)_1]
	mov	rbx, QWORD PTR 24[rdx]	#, MEM[(const struct _Bvector_impl_data &)_1]
	mov	QWORD PTR 16[rax], rcx	# *this_4(D), tmp86
	mov	QWORD PTR 24[rax], rbx	# *this_4(D),
	mov	rdx, QWORD PTR 32[rdx]	# tmp87, MEM[(const struct _Bvector_impl_data &)_1]
	mov	QWORD PTR 32[rax], rdx	# *this_4(D), tmp87
# /usr/include/c++/13/bits/stl_bvector.h:578: 	{ *this = _Bvector_impl_data(); }
	nop	
	mov	rax, QWORD PTR -24[rbp]	# tmp89, D.230953
	sub	rax, QWORD PTR fs:40	# tmp89, MEM[(<address-space-1> long unsigned int *)40B]
	je	.L271	#,
	call	__stack_chk_fail@PLT	#
.L271:
	mov	rbx, QWORD PTR -8[rbp]	#,
	leave	
	.cfi_def_cfa 7, 8
	ret	
	.cfi_endproc
.LFE11443:
	.size	_ZNSt13_Bvector_baseISaIbEE18_Bvector_impl_data8_M_resetEv, .-_ZNSt13_Bvector_baseISaIbEE18_Bvector_impl_data8_M_resetEv
	.section	.text._ZNSt12_Vector_baseISt6vectorIbSaIbEESaIS2_EE17_Vector_impl_dataC2Ev,"axG",@progbits,_ZNSt12_Vector_baseISt6vectorIbSaIbEESaIS2_EE17_Vector_impl_dataC5Ev,comdat
	.align 2
	.weak	_ZNSt12_Vector_baseISt6vectorIbSaIbEESaIS2_EE17_Vector_impl_dataC2Ev
	.type	_ZNSt12_Vector_baseISt6vectorIbSaIbEESaIS2_EE17_Vector_impl_dataC2Ev, @function
_ZNSt12_Vector_baseISt6vectorIbSaIbEESaIS2_EE17_Vector_impl_dataC2Ev:
.LFB11449:
	.cfi_startproc
	endbr64	
	push	rbp	#
	.cfi_def_cfa_offset 16
	.cfi_offset 6, -16
	mov	rbp, rsp	#,
	.cfi_def_cfa_register 6
	mov	QWORD PTR -8[rbp], rdi	# this, this
# /usr/include/c++/13/bits/stl_vector.h:100: 	: _M_start(), _M_finish(), _M_end_of_storage()
	mov	rax, QWORD PTR -8[rbp]	# tmp82, this
	mov	QWORD PTR [rax], 0	# this_2(D)->_M_start,
# /usr/include/c++/13/bits/stl_vector.h:100: 	: _M_start(), _M_finish(), _M_end_of_storage()
	mov	rax, QWORD PTR -8[rbp]	# tmp83, this
	mov	QWORD PTR 8[rax], 0	# this_2(D)->_M_finish,
# /usr/include/c++/13/bits/stl_vector.h:100: 	: _M_start(), _M_finish(), _M_end_of_storage()
	mov	rax, QWORD PTR -8[rbp]	# tmp84, this
	mov	QWORD PTR 16[rax], 0	# this_2(D)->_M_end_of_storage,
# /usr/include/c++/13/bits/stl_vector.h:101: 	{ }
	nop	
	pop	rbp	#
	.cfi_def_cfa 7, 8
	ret	
	.cfi_endproc
.LFE11449:
	.size	_ZNSt12_Vector_baseISt6vectorIbSaIbEESaIS2_EE17_Vector_impl_dataC2Ev, .-_ZNSt12_Vector_baseISt6vectorIbSaIbEESaIS2_EE17_Vector_impl_dataC2Ev
	.weak	_ZNSt12_Vector_baseISt6vectorIbSaIbEESaIS2_EE17_Vector_impl_dataC1Ev
	.set	_ZNSt12_Vector_baseISt6vectorIbSaIbEESaIS2_EE17_Vector_impl_dataC1Ev,_ZNSt12_Vector_baseISt6vectorIbSaIbEESaIS2_EE17_Vector_impl_dataC2Ev
	.section	.text._ZNSt12_Vector_baseISt6vectorIbSaIbEESaIS2_EE11_M_allocateEm,"axG",@progbits,_ZNSt12_Vector_baseISt6vectorIbSaIbEESaIS2_EE11_M_allocateEm,comdat
	.align 2
	.weak	_ZNSt12_Vector_baseISt6vectorIbSaIbEESaIS2_EE11_M_allocateEm
	.type	_ZNSt12_Vector_baseISt6vectorIbSaIbEESaIS2_EE11_M_allocateEm, @function
_ZNSt12_Vector_baseISt6vectorIbSaIbEESaIS2_EE11_M_allocateEm:
.LFB11451:
	.cfi_startproc
	endbr64	
	push	rbp	#
	.cfi_def_cfa_offset 16
	.cfi_offset 6, -16
	mov	rbp, rsp	#,
	.cfi_def_cfa_register 6
	sub	rsp, 32	#,
	mov	QWORD PTR -24[rbp], rdi	# this, this
	mov	QWORD PTR -32[rbp], rsi	# __n, __n
# /usr/include/c++/13/bits/stl_vector.h:381: 	return __n != 0 ? _Tr::allocate(_M_impl, __n) : pointer();
	cmp	QWORD PTR -32[rbp], 0	# __n,
	je	.L274	#,
# /usr/include/c++/13/bits/stl_vector.h:381: 	return __n != 0 ? _Tr::allocate(_M_impl, __n) : pointer();
	mov	rax, QWORD PTR -24[rbp]	# _1, this
	mov	QWORD PTR -16[rbp], rax	# __a, _1
	mov	rax, QWORD PTR -32[rbp]	# tmp85, __n
	mov	QWORD PTR -8[rbp], rax	# __n, tmp85
# /usr/include/c++/13/bits/alloc_traits.h:482:       { return __a.allocate(__n); }
	mov	rcx, QWORD PTR -8[rbp]	# tmp86, __n
	mov	rax, QWORD PTR -16[rbp]	# tmp87, __a
	mov	edx, 0	#,
	mov	rsi, rcx	#, tmp86
	mov	rdi, rax	#, tmp87
	call	_ZNSt15__new_allocatorISt6vectorIbSaIbEEE8allocateEmPKv	#
# /usr/include/c++/13/bits/alloc_traits.h:482:       { return __a.allocate(__n); }
	nop	
	jmp	.L276	#
.L274:
# /usr/include/c++/13/bits/stl_vector.h:381: 	return __n != 0 ? _Tr::allocate(_M_impl, __n) : pointer();
	mov	eax, 0	# D.230735,
.L276:
# /usr/include/c++/13/bits/stl_vector.h:382:       }
	leave	
	.cfi_def_cfa 7, 8
	ret	
	.cfi_endproc
.LFE11451:
	.size	_ZNSt12_Vector_baseISt6vectorIbSaIbEESaIS2_EE11_M_allocateEm, .-_ZNSt12_Vector_baseISt6vectorIbSaIbEESaIS2_EE11_M_allocateEm
	.section	.text._ZSt20uninitialized_fill_nIPSt6vectorIbSaIbEEmS2_ET_S4_T0_RKT1_,"axG",@progbits,_ZSt20uninitialized_fill_nIPSt6vectorIbSaIbEEmS2_ET_S4_T0_RKT1_,comdat
	.weak	_ZSt20uninitialized_fill_nIPSt6vectorIbSaIbEEmS2_ET_S4_T0_RKT1_
	.type	_ZSt20uninitialized_fill_nIPSt6vectorIbSaIbEEmS2_ET_S4_T0_RKT1_, @function
_ZSt20uninitialized_fill_nIPSt6vectorIbSaIbEEmS2_ET_S4_T0_RKT1_:
.LFB11453:
	.cfi_startproc
	endbr64	
	push	rbp	#
	.cfi_def_cfa_offset 16
	.cfi_offset 6, -16
	mov	rbp, rsp	#,
	.cfi_def_cfa_register 6
	sub	rsp, 48	#,
	mov	QWORD PTR -24[rbp], rdi	# __first, __first
	mov	QWORD PTR -32[rbp], rsi	# __n, __n
	mov	QWORD PTR -40[rbp], rdx	# __x, __x
# /usr/include/c++/13/bits/stl_uninitialized.h:319:       const bool __can_fill
	mov	BYTE PTR -1[rbp], 0	# __can_fill,
# /usr/include/c++/13/bits/stl_uninitialized.h:327: 	__uninit_fill_n(__first, __n, __x);
	mov	rdx, QWORD PTR -40[rbp]	# tmp84, __x
	mov	rcx, QWORD PTR -32[rbp]	# tmp85, __n
	mov	rax, QWORD PTR -24[rbp]	# tmp86, __first
	mov	rsi, rcx	#, tmp85
	mov	rdi, rax	#, tmp86
	call	_ZNSt22__uninitialized_fill_nILb0EE15__uninit_fill_nIPSt6vectorIbSaIbEEmS4_EET_S6_T0_RKT1_	#
# /usr/include/c++/13/bits/stl_uninitialized.h:328:     }
	leave	
	.cfi_def_cfa 7, 8
	ret	
	.cfi_endproc
.LFE11453:
	.size	_ZSt20uninitialized_fill_nIPSt6vectorIbSaIbEEmS2_ET_S4_T0_RKT1_, .-_ZSt20uninitialized_fill_nIPSt6vectorIbSaIbEEmS2_ET_S4_T0_RKT1_
	.section	.text._ZNSt12_Destroy_auxILb0EE9__destroyIPSt6vectorIbSaIbEEEEvT_S6_,"axG",@progbits,_ZNSt12_Destroy_auxILb0EE9__destroyIPSt6vectorIbSaIbEEEEvT_S6_,comdat
	.weak	_ZNSt12_Destroy_auxILb0EE9__destroyIPSt6vectorIbSaIbEEEEvT_S6_
	.type	_ZNSt12_Destroy_auxILb0EE9__destroyIPSt6vectorIbSaIbEEEEvT_S6_, @function
_ZNSt12_Destroy_auxILb0EE9__destroyIPSt6vectorIbSaIbEEEEvT_S6_:
.LFB11455:
	.cfi_startproc
	endbr64	
	push	rbp	#
	.cfi_def_cfa_offset 16
	.cfi_offset 6, -16
	mov	rbp, rsp	#,
	.cfi_def_cfa_register 6
	sub	rsp, 16	#,
	mov	QWORD PTR -8[rbp], rdi	# __first, __first
	mov	QWORD PTR -16[rbp], rsi	# __last, __last
# /usr/include/c++/13/bits/stl_construct.h:162: 	  for (; __first != __last; ++__first)
	jmp	.L281	#
.L282:
# /usr/include/c++/13/bits/stl_construct.h:163: 	    std::_Destroy(std::__addressof(*__first));
	mov	rax, QWORD PTR -8[rbp]	# tmp83, __first
	mov	rdi, rax	#, tmp83
	call	_ZSt11__addressofISt6vectorIbSaIbEEEPT_RS3_	#
# /usr/include/c++/13/bits/stl_construct.h:163: 	    std::_Destroy(std::__addressof(*__first));
	mov	rdi, rax	#, _1
	call	_ZSt8_DestroyISt6vectorIbSaIbEEEvPT_	#
# /usr/include/c++/13/bits/stl_construct.h:162: 	  for (; __first != __last; ++__first)
	add	QWORD PTR -8[rbp], 40	# __first,
.L281:
# /usr/include/c++/13/bits/stl_construct.h:162: 	  for (; __first != __last; ++__first)
	mov	rax, QWORD PTR -8[rbp]	# tmp84, __first
	cmp	rax, QWORD PTR -16[rbp]	# tmp84, __last
	jne	.L282	#,
# /usr/include/c++/13/bits/stl_construct.h:164: 	}
	nop	
	nop	
	leave	
	.cfi_def_cfa 7, 8
	ret	
	.cfi_endproc
.LFE11455:
	.size	_ZNSt12_Destroy_auxILb0EE9__destroyIPSt6vectorIbSaIbEEEEvT_S6_, .-_ZNSt12_Destroy_auxILb0EE9__destroyIPSt6vectorIbSaIbEEEEvT_S6_
	.section	.text._ZNSt15__new_allocatorIiE10deallocateEPim,"axG",@progbits,_ZNSt15__new_allocatorIiE10deallocateEPim,comdat
	.align 2
	.weak	_ZNSt15__new_allocatorIiE10deallocateEPim
	.type	_ZNSt15__new_allocatorIiE10deallocateEPim, @function
_ZNSt15__new_allocatorIiE10deallocateEPim:
.LFB11559:
	.cfi_startproc
	endbr64	
	push	rbp	#
	.cfi_def_cfa_offset 16
	.cfi_offset 6, -16
	mov	rbp, rsp	#,
	.cfi_def_cfa_register 6
	sub	rsp, 32	#,
	mov	QWORD PTR -8[rbp], rdi	# this, this
	mov	QWORD PTR -16[rbp], rsi	# __p, __p
	mov	QWORD PTR -24[rbp], rdx	# __n, __n
# /usr/include/c++/13/bits/new_allocator.h:172: 	_GLIBCXX_OPERATOR_DELETE(_GLIBCXX_SIZED_DEALLOC(__p, __n));
	mov	rax, QWORD PTR -24[rbp]	# tmp83, __n
	lea	rdx, 0[0+rax*4]	# _2,
	mov	rax, QWORD PTR -16[rbp]	# tmp84, __p
	mov	rsi, rdx	#, _2
	mov	rdi, rax	#, tmp84
	call	_ZdlPvm@PLT	#
# /usr/include/c++/13/bits/new_allocator.h:173:       }
	leave	
	.cfi_def_cfa 7, 8
	ret	
	.cfi_endproc
.LFE11559:
	.size	_ZNSt15__new_allocatorIiE10deallocateEPim, .-_ZNSt15__new_allocatorIiE10deallocateEPim
	.section	.text._ZNSt27__uninitialized_default_n_1ILb1EE18__uninit_default_nIPimEET_S3_T0_,"axG",@progbits,_ZNSt27__uninitialized_default_n_1ILb1EE18__uninit_default_nIPimEET_S3_T0_,comdat
	.weak	_ZNSt27__uninitialized_default_n_1ILb1EE18__uninit_default_nIPimEET_S3_T0_
	.type	_ZNSt27__uninitialized_default_n_1ILb1EE18__uninit_default_nIPimEET_S3_T0_, @function
_ZNSt27__uninitialized_default_n_1ILb1EE18__uninit_default_nIPimEET_S3_T0_:
.LFB11560:
	.cfi_startproc
	endbr64	
	push	rbp	#
	.cfi_def_cfa_offset 16
	.cfi_offset 6, -16
	mov	rbp, rsp	#,
	.cfi_def_cfa_register 6
	sub	rsp, 32	#,
	mov	QWORD PTR -24[rbp], rdi	# __first, __first
	mov	QWORD PTR -32[rbp], rsi	# __n, __n
# /usr/include/c++/13/bits/stl_uninitialized.h:662: 	  if (__n > 0)
	cmp	QWORD PTR -32[rbp], 0	# __n,
	je	.L286	#,
# /usr/include/c++/13/bits/stl_uninitialized.h:665: 		= std::__addressof(*__first);
	mov	rax, QWORD PTR -24[rbp]	# tmp86, __first
	mov	rdi, rax	#, tmp86
	call	_ZSt11__addressofIiEPT_RS0_	#
	mov	QWORD PTR -8[rbp], rax	# __val, tmp87
# /usr/include/c++/13/bits/stl_uninitialized.h:666: 	      std::_Construct(__val);
	mov	rax, QWORD PTR -8[rbp]	# tmp88, __val
	mov	rdi, rax	#, tmp88
	call	_ZSt10_ConstructIiJEEvPT_DpOT0_	#
# /usr/include/c++/13/bits/stl_uninitialized.h:667: 	      ++__first;
	add	QWORD PTR -24[rbp], 4	# __first,
# /usr/include/c++/13/bits/stl_uninitialized.h:668: 	      __first = std::fill_n(__first, __n - 1, *__val);
	mov	rax, QWORD PTR -32[rbp]	# tmp89, __n
	lea	rcx, -1[rax]	# _1,
	mov	rdx, QWORD PTR -8[rbp]	# tmp90, __val
	mov	rax, QWORD PTR -24[rbp]	# tmp91, __first
	mov	rsi, rcx	#, _1
	mov	rdi, rax	#, tmp91
	call	_ZSt6fill_nIPimiET_S1_T0_RKT1_	#
# /usr/include/c++/13/bits/stl_uninitialized.h:668: 	      __first = std::fill_n(__first, __n - 1, *__val);
	mov	QWORD PTR -24[rbp], rax	# __first, _12
.L286:
# /usr/include/c++/13/bits/stl_uninitialized.h:670: 	  return __first;
	mov	rax, QWORD PTR -24[rbp]	# _14, __first
# /usr/include/c++/13/bits/stl_uninitialized.h:671: 	}
	leave	
	.cfi_def_cfa 7, 8
	ret	
	.cfi_endproc
.LFE11560:
	.size	_ZNSt27__uninitialized_default_n_1ILb1EE18__uninit_default_nIPimEET_S3_T0_, .-_ZNSt27__uninitialized_default_n_1ILb1EE18__uninit_default_nIPimEET_S3_T0_
	.section	.text._ZNSt15__new_allocatorISt6vectorIiSaIiEEE10deallocateEPS2_m,"axG",@progbits,_ZNSt15__new_allocatorISt6vectorIiSaIiEEE10deallocateEPS2_m,comdat
	.align 2
	.weak	_ZNSt15__new_allocatorISt6vectorIiSaIiEEE10deallocateEPS2_m
	.type	_ZNSt15__new_allocatorISt6vectorIiSaIiEEE10deallocateEPS2_m, @function
_ZNSt15__new_allocatorISt6vectorIiSaIiEEE10deallocateEPS2_m:
.LFB11563:
	.cfi_startproc
	endbr64	
	push	rbp	#
	.cfi_def_cfa_offset 16
	.cfi_offset 6, -16
	mov	rbp, rsp	#,
	.cfi_def_cfa_register 6
	sub	rsp, 32	#,
	mov	QWORD PTR -8[rbp], rdi	# this, this
	mov	QWORD PTR -16[rbp], rsi	# __p, __p
	mov	QWORD PTR -24[rbp], rdx	# __n, __n
# /usr/include/c++/13/bits/new_allocator.h:172: 	_GLIBCXX_OPERATOR_DELETE(_GLIBCXX_SIZED_DEALLOC(__p, __n));
	mov	rdx, QWORD PTR -24[rbp]	# tmp83, __n
	mov	rax, rdx	# tmp84, tmp83
	add	rax, rax	# tmp84
	add	rax, rdx	# tmp84, tmp83
	sal	rax, 3	# tmp85,
	mov	rdx, rax	# _2, tmp84
	mov	rax, QWORD PTR -16[rbp]	# tmp86, __p
	mov	rsi, rdx	#, _2
	mov	rdi, rax	#, tmp86
	call	_ZdlPvm@PLT	#
# /usr/include/c++/13/bits/new_allocator.h:173:       }
	leave	
	.cfi_def_cfa 7, 8
	ret	
	.cfi_endproc
.LFE11563:
	.size	_ZNSt15__new_allocatorISt6vectorIiSaIiEEE10deallocateEPS2_m, .-_ZNSt15__new_allocatorISt6vectorIiSaIiEEE10deallocateEPS2_m
	.section	.text._ZNSt22__uninitialized_fill_nILb0EE15__uninit_fill_nIPSt6vectorIiSaIiEEmS4_EET_S6_T0_RKT1_,"axG",@progbits,_ZNSt22__uninitialized_fill_nILb0EE15__uninit_fill_nIPSt6vectorIiSaIiEEmS4_EET_S6_T0_RKT1_,comdat
	.weak	_ZNSt22__uninitialized_fill_nILb0EE15__uninit_fill_nIPSt6vectorIiSaIiEEmS4_EET_S6_T0_RKT1_
	.type	_ZNSt22__uninitialized_fill_nILb0EE15__uninit_fill_nIPSt6vectorIiSaIiEEmS4_EET_S6_T0_RKT1_, @function
_ZNSt22__uninitialized_fill_nILb0EE15__uninit_fill_nIPSt6vectorIiSaIiEEmS4_EET_S6_T0_RKT1_:
.LFB11564:
	.cfi_startproc
	endbr64	
	push	rbp	#
	.cfi_def_cfa_offset 16
	.cfi_offset 6, -16
	mov	rbp, rsp	#,
	.cfi_def_cfa_register 6
	sub	rsp, 32	#,
	mov	QWORD PTR -8[rbp], rdi	# __first, __first
	mov	QWORD PTR -16[rbp], rsi	# __n, __n
	mov	QWORD PTR -24[rbp], rdx	# __x, __x
# /usr/include/c++/13/bits/stl_uninitialized.h:284: 	{ return std::__do_uninit_fill_n(__first, __n, __x); }
	mov	rdx, QWORD PTR -24[rbp]	# tmp84, __x
	mov	rcx, QWORD PTR -16[rbp]	# tmp85, __n
	mov	rax, QWORD PTR -8[rbp]	# tmp86, __first
	mov	rsi, rcx	#, tmp85
	mov	rdi, rax	#, tmp86
	call	_ZSt18__do_uninit_fill_nIPSt6vectorIiSaIiEEmS2_ET_S4_T0_RKT1_	#
# /usr/include/c++/13/bits/stl_uninitialized.h:284: 	{ return std::__do_uninit_fill_n(__first, __n, __x); }
	leave	
	.cfi_def_cfa 7, 8
	ret	
	.cfi_endproc
.LFE11564:
	.size	_ZNSt22__uninitialized_fill_nILb0EE15__uninit_fill_nIPSt6vectorIiSaIiEEmS4_EET_S6_T0_RKT1_, .-_ZNSt22__uninitialized_fill_nILb0EE15__uninit_fill_nIPSt6vectorIiSaIiEEmS4_EET_S6_T0_RKT1_
	.section	.text._ZSt11__addressofISt6vectorIiSaIiEEEPT_RS3_,"axG",@progbits,_ZSt11__addressofISt6vectorIiSaIiEEEPT_RS3_,comdat
	.weak	_ZSt11__addressofISt6vectorIiSaIiEEEPT_RS3_
	.type	_ZSt11__addressofISt6vectorIiSaIiEEEPT_RS3_, @function
_ZSt11__addressofISt6vectorIiSaIiEEEPT_RS3_:
.LFB11565:
	.cfi_startproc
	endbr64	
	push	rbp	#
	.cfi_def_cfa_offset 16
	.cfi_offset 6, -16
	mov	rbp, rsp	#,
	.cfi_def_cfa_register 6
	mov	QWORD PTR -8[rbp], rdi	# __r, __r
# /usr/include/c++/13/bits/move.h:52:     { return __builtin_addressof(__r); }
	mov	rax, QWORD PTR -8[rbp]	# _2, __r
# /usr/include/c++/13/bits/move.h:52:     { return __builtin_addressof(__r); }
	pop	rbp	#
	.cfi_def_cfa 7, 8
	ret	
	.cfi_endproc
.LFE11565:
	.size	_ZSt11__addressofISt6vectorIiSaIiEEEPT_RS3_, .-_ZSt11__addressofISt6vectorIiSaIiEEEPT_RS3_
	.section	.text._ZSt8_DestroyISt6vectorIiSaIiEEEvPT_,"axG",@progbits,_ZSt8_DestroyISt6vectorIiSaIiEEEvPT_,comdat
	.weak	_ZSt8_DestroyISt6vectorIiSaIiEEEvPT_
	.type	_ZSt8_DestroyISt6vectorIiSaIiEEEvPT_, @function
_ZSt8_DestroyISt6vectorIiSaIiEEEvPT_:
.LFB11566:
	.cfi_startproc
	endbr64	
	push	rbp	#
	.cfi_def_cfa_offset 16
	.cfi_offset 6, -16
	mov	rbp, rsp	#,
	.cfi_def_cfa_register 6
	sub	rsp, 16	#,
	mov	QWORD PTR -8[rbp], rdi	# __pointer, __pointer
# /usr/include/c++/13/bits/stl_construct.h:151:       __pointer->~_Tp();
	mov	rax, QWORD PTR -8[rbp]	# tmp82, __pointer
	mov	rdi, rax	#, tmp82
	call	_ZNSt6vectorIiSaIiEED1Ev	#
# /usr/include/c++/13/bits/stl_construct.h:153:     }
	nop	
	leave	
	.cfi_def_cfa 7, 8
	ret	
	.cfi_endproc
.LFE11566:
	.size	_ZSt8_DestroyISt6vectorIiSaIiEEEvPT_, .-_ZSt8_DestroyISt6vectorIiSaIiEEEvPT_
	.section	.text._ZNSt13_Bvector_baseISaIbEE18_Bvector_impl_dataC2Ev,"axG",@progbits,_ZNSt13_Bvector_baseISaIbEE18_Bvector_impl_dataC5Ev,comdat
	.align 2
	.weak	_ZNSt13_Bvector_baseISaIbEE18_Bvector_impl_dataC2Ev
	.type	_ZNSt13_Bvector_baseISaIbEE18_Bvector_impl_dataC2Ev, @function
_ZNSt13_Bvector_baseISaIbEE18_Bvector_impl_dataC2Ev:
.LFB11571:
	.cfi_startproc
	endbr64	
	push	rbp	#
	.cfi_def_cfa_offset 16
	.cfi_offset 6, -16
	mov	rbp, rsp	#,
	.cfi_def_cfa_register 6
	sub	rsp, 16	#,
	mov	QWORD PTR -8[rbp], rdi	# this, this
# /usr/include/c++/13/bits/stl_bvector.h:552: 	: _M_start(), _M_finish(), _M_end_of_storage()
	mov	rax, QWORD PTR -8[rbp]	# _1, this
	mov	rdi, rax	#, _1
	call	_ZNSt13_Bit_iteratorC1Ev	#
# /usr/include/c++/13/bits/stl_bvector.h:552: 	: _M_start(), _M_finish(), _M_end_of_storage()
	mov	rax, QWORD PTR -8[rbp]	# tmp84, this
	add	rax, 16	# _2,
	mov	rdi, rax	#, _2
	call	_ZNSt13_Bit_iteratorC1Ev	#
# /usr/include/c++/13/bits/stl_bvector.h:552: 	: _M_start(), _M_finish(), _M_end_of_storage()
	mov	rax, QWORD PTR -8[rbp]	# tmp85, this
	mov	QWORD PTR 32[rax], 0	# this_4(D)->_M_end_of_storage,
# /usr/include/c++/13/bits/stl_bvector.h:553: 	{ }
	nop	
	leave	
	.cfi_def_cfa 7, 8
	ret	
	.cfi_endproc
.LFE11571:
	.size	_ZNSt13_Bvector_baseISaIbEE18_Bvector_impl_dataC2Ev, .-_ZNSt13_Bvector_baseISaIbEE18_Bvector_impl_dataC2Ev
	.weak	_ZNSt13_Bvector_baseISaIbEE18_Bvector_impl_dataC1Ev
	.set	_ZNSt13_Bvector_baseISaIbEE18_Bvector_impl_dataC1Ev,_ZNSt13_Bvector_baseISaIbEE18_Bvector_impl_dataC2Ev
	.section	.text._ZNSt15__new_allocatorISt6vectorIbSaIbEEE10deallocateEPS2_m,"axG",@progbits,_ZNSt15__new_allocatorISt6vectorIbSaIbEEE10deallocateEPS2_m,comdat
	.align 2
	.weak	_ZNSt15__new_allocatorISt6vectorIbSaIbEEE10deallocateEPS2_m
	.type	_ZNSt15__new_allocatorISt6vectorIbSaIbEEE10deallocateEPS2_m, @function
_ZNSt15__new_allocatorISt6vectorIbSaIbEEE10deallocateEPS2_m:
.LFB11576:
	.cfi_startproc
	endbr64	
	push	rbp	#
	.cfi_def_cfa_offset 16
	.cfi_offset 6, -16
	mov	rbp, rsp	#,
	.cfi_def_cfa_register 6
	sub	rsp, 32	#,
	mov	QWORD PTR -8[rbp], rdi	# this, this
	mov	QWORD PTR -16[rbp], rsi	# __p, __p
	mov	QWORD PTR -24[rbp], rdx	# __n, __n
# /usr/include/c++/13/bits/new_allocator.h:172: 	_GLIBCXX_OPERATOR_DELETE(_GLIBCXX_SIZED_DEALLOC(__p, __n));
	mov	rdx, QWORD PTR -24[rbp]	# tmp83, __n
	mov	rax, rdx	# tmp84, tmp83
	sal	rax, 2	# tmp84,
	add	rax, rdx	# tmp84, tmp83
	sal	rax, 3	# tmp85,
	mov	rdx, rax	# _2, tmp84
	mov	rax, QWORD PTR -16[rbp]	# tmp86, __p
	mov	rsi, rdx	#, _2
	mov	rdi, rax	#, tmp86
	call	_ZdlPvm@PLT	#
# /usr/include/c++/13/bits/new_allocator.h:173:       }
	leave	
	.cfi_def_cfa 7, 8
	ret	
	.cfi_endproc
.LFE11576:
	.size	_ZNSt15__new_allocatorISt6vectorIbSaIbEEE10deallocateEPS2_m, .-_ZNSt15__new_allocatorISt6vectorIbSaIbEEE10deallocateEPS2_m
	.section	.text._ZNSt22__uninitialized_fill_nILb0EE15__uninit_fill_nIPSt6vectorIbSaIbEEmS4_EET_S6_T0_RKT1_,"axG",@progbits,_ZNSt22__uninitialized_fill_nILb0EE15__uninit_fill_nIPSt6vectorIbSaIbEEmS4_EET_S6_T0_RKT1_,comdat
	.weak	_ZNSt22__uninitialized_fill_nILb0EE15__uninit_fill_nIPSt6vectorIbSaIbEEmS4_EET_S6_T0_RKT1_
	.type	_ZNSt22__uninitialized_fill_nILb0EE15__uninit_fill_nIPSt6vectorIbSaIbEEmS4_EET_S6_T0_RKT1_, @function
_ZNSt22__uninitialized_fill_nILb0EE15__uninit_fill_nIPSt6vectorIbSaIbEEmS4_EET_S6_T0_RKT1_:
.LFB11577:
	.cfi_startproc
	endbr64	
	push	rbp	#
	.cfi_def_cfa_offset 16
	.cfi_offset 6, -16
	mov	rbp, rsp	#,
	.cfi_def_cfa_register 6
	sub	rsp, 32	#,
	mov	QWORD PTR -8[rbp], rdi	# __first, __first
	mov	QWORD PTR -16[rbp], rsi	# __n, __n
	mov	QWORD PTR -24[rbp], rdx	# __x, __x
# /usr/include/c++/13/bits/stl_uninitialized.h:284: 	{ return std::__do_uninit_fill_n(__first, __n, __x); }
	mov	rdx, QWORD PTR -24[rbp]	# tmp84, __x
	mov	rcx, QWORD PTR -16[rbp]	# tmp85, __n
	mov	rax, QWORD PTR -8[rbp]	# tmp86, __first
	mov	rsi, rcx	#, tmp85
	mov	rdi, rax	#, tmp86
	call	_ZSt18__do_uninit_fill_nIPSt6vectorIbSaIbEEmS2_ET_S4_T0_RKT1_	#
# /usr/include/c++/13/bits/stl_uninitialized.h:284: 	{ return std::__do_uninit_fill_n(__first, __n, __x); }
	leave	
	.cfi_def_cfa 7, 8
	ret	
	.cfi_endproc
.LFE11577:
	.size	_ZNSt22__uninitialized_fill_nILb0EE15__uninit_fill_nIPSt6vectorIbSaIbEEmS4_EET_S6_T0_RKT1_, .-_ZNSt22__uninitialized_fill_nILb0EE15__uninit_fill_nIPSt6vectorIbSaIbEEmS4_EET_S6_T0_RKT1_
	.section	.text._ZSt11__addressofISt6vectorIbSaIbEEEPT_RS3_,"axG",@progbits,_ZSt11__addressofISt6vectorIbSaIbEEEPT_RS3_,comdat
	.weak	_ZSt11__addressofISt6vectorIbSaIbEEEPT_RS3_
	.type	_ZSt11__addressofISt6vectorIbSaIbEEEPT_RS3_, @function
_ZSt11__addressofISt6vectorIbSaIbEEEPT_RS3_:
.LFB11578:
	.cfi_startproc
	endbr64	
	push	rbp	#
	.cfi_def_cfa_offset 16
	.cfi_offset 6, -16
	mov	rbp, rsp	#,
	.cfi_def_cfa_register 6
	mov	QWORD PTR -8[rbp], rdi	# __r, __r
# /usr/include/c++/13/bits/move.h:52:     { return __builtin_addressof(__r); }
	mov	rax, QWORD PTR -8[rbp]	# _2, __r
# /usr/include/c++/13/bits/move.h:52:     { return __builtin_addressof(__r); }
	pop	rbp	#
	.cfi_def_cfa 7, 8
	ret	
	.cfi_endproc
.LFE11578:
	.size	_ZSt11__addressofISt6vectorIbSaIbEEEPT_RS3_, .-_ZSt11__addressofISt6vectorIbSaIbEEEPT_RS3_
	.section	.text._ZSt8_DestroyISt6vectorIbSaIbEEEvPT_,"axG",@progbits,_ZSt8_DestroyISt6vectorIbSaIbEEEvPT_,comdat
	.weak	_ZSt8_DestroyISt6vectorIbSaIbEEEvPT_
	.type	_ZSt8_DestroyISt6vectorIbSaIbEEEvPT_, @function
_ZSt8_DestroyISt6vectorIbSaIbEEEvPT_:
.LFB11579:
	.cfi_startproc
	endbr64	
	push	rbp	#
	.cfi_def_cfa_offset 16
	.cfi_offset 6, -16
	mov	rbp, rsp	#,
	.cfi_def_cfa_register 6
	sub	rsp, 16	#,
	mov	QWORD PTR -8[rbp], rdi	# __pointer, __pointer
# /usr/include/c++/13/bits/stl_construct.h:151:       __pointer->~_Tp();
	mov	rax, QWORD PTR -8[rbp]	# tmp82, __pointer
	mov	rdi, rax	#, tmp82
	call	_ZNSt6vectorIbSaIbEED1Ev	#
# /usr/include/c++/13/bits/stl_construct.h:153:     }
	nop	
	leave	
	.cfi_def_cfa 7, 8
	ret	
	.cfi_endproc
.LFE11579:
	.size	_ZSt8_DestroyISt6vectorIbSaIbEEEvPT_, .-_ZSt8_DestroyISt6vectorIbSaIbEEEvPT_
	.section	.text._ZNSt15__new_allocatorIiE8allocateEmPKv,"axG",@progbits,_ZNSt15__new_allocatorIiE8allocateEmPKv,comdat
	.align 2
	.weak	_ZNSt15__new_allocatorIiE8allocateEmPKv
	.type	_ZNSt15__new_allocatorIiE8allocateEmPKv, @function
_ZNSt15__new_allocatorIiE8allocateEmPKv:
.LFB11665:
	.cfi_startproc
	endbr64	
	push	rbp	#
	.cfi_def_cfa_offset 16
	.cfi_offset 6, -16
	mov	rbp, rsp	#,
	.cfi_def_cfa_register 6
	sub	rsp, 48	#,
	mov	QWORD PTR -24[rbp], rdi	# this, this
	mov	QWORD PTR -32[rbp], rsi	# __n, __n
	mov	QWORD PTR -40[rbp], rdx	# D.228231, D.228231
	mov	rax, QWORD PTR -24[rbp]	# tmp90, this
	mov	QWORD PTR -8[rbp], rax	# this, tmp90
# /usr/include/c++/13/bits/new_allocator.h:233: 	return std::size_t(__PTRDIFF_MAX__) / sizeof(_Tp);
	movabs	rax, 2305843009213693951	# D.230769,
# /usr/include/c++/13/bits/new_allocator.h:134: 	if (__builtin_expect(__n > this->_M_max_size(), false))
	cmp	rax, QWORD PTR -32[rbp]	# D.230769, __n
	setb	al	#, _2
# /usr/include/c++/13/bits/new_allocator.h:134: 	if (__builtin_expect(__n > this->_M_max_size(), false))
	movzx	eax, al	# _3, _2
# /usr/include/c++/13/bits/new_allocator.h:134: 	if (__builtin_expect(__n > this->_M_max_size(), false))
	test	rax, rax	# _4
	setne	al	#, retval.22_9
# /usr/include/c++/13/bits/new_allocator.h:134: 	if (__builtin_expect(__n > this->_M_max_size(), false))
	test	al, al	# retval.22_9
	je	.L305	#,
# /usr/include/c++/13/bits/new_allocator.h:138: 	    if (__n > (std::size_t(-1) / sizeof(_Tp)))
	movabs	rax, 4611686018427387903	# tmp91,
	cmp	rax, QWORD PTR -32[rbp]	# tmp91, __n
	jnb	.L306	#,
# /usr/include/c++/13/bits/new_allocator.h:139: 	      std::__throw_bad_array_new_length();
	call	_ZSt28__throw_bad_array_new_lengthv@PLT	#
.L306:
# /usr/include/c++/13/bits/new_allocator.h:140: 	    std::__throw_bad_alloc();
	call	_ZSt17__throw_bad_allocv@PLT	#
.L305:
# /usr/include/c++/13/bits/new_allocator.h:151: 	return static_cast<_Tp*>(_GLIBCXX_OPERATOR_NEW(__n * sizeof(_Tp)));
	mov	rax, QWORD PTR -32[rbp]	# tmp92, __n
	sal	rax, 2	# _6,
	mov	rdi, rax	#, _6
	call	_Znwm@PLT	#
# /usr/include/c++/13/bits/new_allocator.h:151: 	return static_cast<_Tp*>(_GLIBCXX_OPERATOR_NEW(__n * sizeof(_Tp)));
	nop	
# /usr/include/c++/13/bits/new_allocator.h:152:       }
	leave	
	.cfi_def_cfa 7, 8
	ret	
	.cfi_endproc
.LFE11665:
	.size	_ZNSt15__new_allocatorIiE8allocateEmPKv, .-_ZNSt15__new_allocatorIiE8allocateEmPKv
	.section	.text._ZSt11__addressofIiEPT_RS0_,"axG",@progbits,_ZSt11__addressofIiEPT_RS0_,comdat
	.weak	_ZSt11__addressofIiEPT_RS0_
	.type	_ZSt11__addressofIiEPT_RS0_, @function
_ZSt11__addressofIiEPT_RS0_:
.LFB11666:
	.cfi_startproc
	endbr64	
	push	rbp	#
	.cfi_def_cfa_offset 16
	.cfi_offset 6, -16
	mov	rbp, rsp	#,
	.cfi_def_cfa_register 6
	mov	QWORD PTR -8[rbp], rdi	# __r, __r
# /usr/include/c++/13/bits/move.h:52:     { return __builtin_addressof(__r); }
	mov	rax, QWORD PTR -8[rbp]	# _2, __r
# /usr/include/c++/13/bits/move.h:52:     { return __builtin_addressof(__r); }
	pop	rbp	#
	.cfi_def_cfa 7, 8
	ret	
	.cfi_endproc
.LFE11666:
	.size	_ZSt11__addressofIiEPT_RS0_, .-_ZSt11__addressofIiEPT_RS0_
	.section	.text._ZSt10_ConstructIiJEEvPT_DpOT0_,"axG",@progbits,_ZSt10_ConstructIiJEEvPT_DpOT0_,comdat
	.weak	_ZSt10_ConstructIiJEEvPT_DpOT0_
	.type	_ZSt10_ConstructIiJEEvPT_DpOT0_, @function
_ZSt10_ConstructIiJEEvPT_DpOT0_:
.LFB11667:
	.cfi_startproc
	endbr64	
	push	rbp	#
	.cfi_def_cfa_offset 16
	.cfi_offset 6, -16
	mov	rbp, rsp	#,
	.cfi_def_cfa_register 6
	sub	rsp, 16	#,
	mov	QWORD PTR -8[rbp], rdi	# __p, __p
# /usr/include/c++/13/bits/stl_construct.h:119:       ::new((void*)__p) _Tp(std::forward<_Args>(__args)...);
	mov	rax, QWORD PTR -8[rbp]	# _2, __p
# /usr/include/c++/13/bits/stl_construct.h:119:       ::new((void*)__p) _Tp(std::forward<_Args>(__args)...);
	mov	rsi, rax	#, _2
	mov	edi, 4	#,
	call	_ZnwmPv	#
# /usr/include/c++/13/bits/stl_construct.h:119:       ::new((void*)__p) _Tp(std::forward<_Args>(__args)...);
	mov	DWORD PTR [rax], 0	# MEM[(int *)_5],
# /usr/include/c++/13/bits/stl_construct.h:120:     }
	nop	
	leave	
	.cfi_def_cfa 7, 8
	ret	
	.cfi_endproc
.LFE11667:
	.size	_ZSt10_ConstructIiJEEvPT_DpOT0_, .-_ZSt10_ConstructIiJEEvPT_DpOT0_
	.section	.text._ZSt6fill_nIPimiET_S1_T0_RKT1_,"axG",@progbits,_ZSt6fill_nIPimiET_S1_T0_RKT1_,comdat
	.weak	_ZSt6fill_nIPimiET_S1_T0_RKT1_
	.type	_ZSt6fill_nIPimiET_S1_T0_RKT1_, @function
_ZSt6fill_nIPimiET_S1_T0_RKT1_:
.LFB11668:
	.cfi_startproc
	endbr64	
	push	rbp	#
	.cfi_def_cfa_offset 16
	.cfi_offset 6, -16
	mov	rbp, rsp	#,
	.cfi_def_cfa_register 6
	sub	rsp, 32	#,
	mov	QWORD PTR -8[rbp], rdi	# __first, __first
	mov	QWORD PTR -16[rbp], rsi	# __n, __n
	mov	QWORD PTR -24[rbp], rdx	# __value, __value
# /usr/include/c++/13/bits/stl_iterator_base_types.h:240:     { return typename iterator_traits<_Iter>::iterator_category(); }
	nop	
# /usr/include/c++/13/bits/stl_algobase.h:1157:       return std::__fill_n_a(__first, std::__size_to_integer(__n), __value,
	mov	rax, QWORD PTR -16[rbp]	# tmp89, __n
	mov	rdi, rax	#, tmp89
	call	_ZSt17__size_to_integerm	#
	mov	rcx, rax	# _1,
# /usr/include/c++/13/bits/stl_algobase.h:1157:       return std::__fill_n_a(__first, std::__size_to_integer(__n), __value,
	mov	rax, QWORD PTR -8[rbp]	# __first.23_2, __first
	mov	rdx, QWORD PTR -24[rbp]	# tmp90, __value
	mov	rsi, rcx	#, _1
	mov	rdi, rax	#, __first.23_2
	call	_ZSt10__fill_n_aIPimiET_S1_T0_RKT1_St26random_access_iterator_tag	#
# /usr/include/c++/13/bits/stl_algobase.h:1159:     }
	leave	
	.cfi_def_cfa 7, 8
	ret	
	.cfi_endproc
.LFE11668:
	.size	_ZSt6fill_nIPimiET_S1_T0_RKT1_, .-_ZSt6fill_nIPimiET_S1_T0_RKT1_
	.section	.text._ZNSt15__new_allocatorISt6vectorIiSaIiEEE8allocateEmPKv,"axG",@progbits,_ZNSt15__new_allocatorISt6vectorIiSaIiEEE8allocateEmPKv,comdat
	.align 2
	.weak	_ZNSt15__new_allocatorISt6vectorIiSaIiEEE8allocateEmPKv
	.type	_ZNSt15__new_allocatorISt6vectorIiSaIiEEE8allocateEmPKv, @function
_ZNSt15__new_allocatorISt6vectorIiSaIiEEE8allocateEmPKv:
.LFB11670:
	.cfi_startproc
	endbr64	
	push	rbp	#
	.cfi_def_cfa_offset 16
	.cfi_offset 6, -16
	mov	rbp, rsp	#,
	.cfi_def_cfa_register 6
	sub	rsp, 48	#,
	mov	QWORD PTR -24[rbp], rdi	# this, this
	mov	QWORD PTR -32[rbp], rsi	# __n, __n
	mov	QWORD PTR -40[rbp], rdx	# D.228264, D.228264
	mov	rax, QWORD PTR -24[rbp]	# tmp90, this
	mov	QWORD PTR -8[rbp], rax	# this, tmp90
# /usr/include/c++/13/bits/new_allocator.h:233: 	return std::size_t(__PTRDIFF_MAX__) / sizeof(_Tp);
	movabs	rax, 384307168202282325	# D.230802,
# /usr/include/c++/13/bits/new_allocator.h:134: 	if (__builtin_expect(__n > this->_M_max_size(), false))
	cmp	rax, QWORD PTR -32[rbp]	# D.230802, __n
	setb	al	#, _2
# /usr/include/c++/13/bits/new_allocator.h:134: 	if (__builtin_expect(__n > this->_M_max_size(), false))
	movzx	eax, al	# _3, _2
# /usr/include/c++/13/bits/new_allocator.h:134: 	if (__builtin_expect(__n > this->_M_max_size(), false))
	test	rax, rax	# _4
	setne	al	#, retval.26_9
# /usr/include/c++/13/bits/new_allocator.h:134: 	if (__builtin_expect(__n > this->_M_max_size(), false))
	test	al, al	# retval.26_9
	je	.L316	#,
# /usr/include/c++/13/bits/new_allocator.h:138: 	    if (__n > (std::size_t(-1) / sizeof(_Tp)))
	movabs	rax, 768614336404564650	# tmp91,
	cmp	rax, QWORD PTR -32[rbp]	# tmp91, __n
	jnb	.L317	#,
# /usr/include/c++/13/bits/new_allocator.h:139: 	      std::__throw_bad_array_new_length();
	call	_ZSt28__throw_bad_array_new_lengthv@PLT	#
.L317:
# /usr/include/c++/13/bits/new_allocator.h:140: 	    std::__throw_bad_alloc();
	call	_ZSt17__throw_bad_allocv@PLT	#
.L316:
# /usr/include/c++/13/bits/new_allocator.h:151: 	return static_cast<_Tp*>(_GLIBCXX_OPERATOR_NEW(__n * sizeof(_Tp)));
	mov	rdx, QWORD PTR -32[rbp]	# tmp92, __n
	mov	rax, rdx	# tmp93, tmp92
	add	rax, rax	# tmp93
	add	rax, rdx	# tmp93, tmp92
	sal	rax, 3	# tmp94,
	mov	rdi, rax	#, _6
	call	_Znwm@PLT	#
# /usr/include/c++/13/bits/new_allocator.h:151: 	return static_cast<_Tp*>(_GLIBCXX_OPERATOR_NEW(__n * sizeof(_Tp)));
	nop	
# /usr/include/c++/13/bits/new_allocator.h:152:       }
	leave	
	.cfi_def_cfa 7, 8
	ret	
	.cfi_endproc
.LFE11670:
	.size	_ZNSt15__new_allocatorISt6vectorIiSaIiEEE8allocateEmPKv, .-_ZNSt15__new_allocatorISt6vectorIiSaIiEEE8allocateEmPKv
	.section	.text._ZSt18__do_uninit_fill_nIPSt6vectorIiSaIiEEmS2_ET_S4_T0_RKT1_,"axG",@progbits,_ZSt18__do_uninit_fill_nIPSt6vectorIiSaIiEEmS2_ET_S4_T0_RKT1_,comdat
	.weak	_ZSt18__do_uninit_fill_nIPSt6vectorIiSaIiEEmS2_ET_S4_T0_RKT1_
	.type	_ZSt18__do_uninit_fill_nIPSt6vectorIiSaIiEEmS2_ET_S4_T0_RKT1_, @function
_ZSt18__do_uninit_fill_nIPSt6vectorIiSaIiEEmS2_ET_S4_T0_RKT1_:
.LFB11671:
	.cfi_startproc
	.cfi_personality 0x9b,DW.ref.__gxx_personality_v0
	.cfi_lsda 0x1b,.LLSDA11671
	endbr64	
	push	rbp	#
	.cfi_def_cfa_offset 16
	.cfi_offset 6, -16
	mov	rbp, rsp	#,
	.cfi_def_cfa_register 6
	push	rbx	#
	sub	rsp, 56	#,
	.cfi_offset 3, -24
	mov	QWORD PTR -40[rbp], rdi	# __first, __first
	mov	QWORD PTR -48[rbp], rsi	# __n, __n
	mov	QWORD PTR -56[rbp], rdx	# __x, __x
# /usr/include/c++/13/bits/stl_uninitialized.h:263:       _ForwardIterator __cur = __first;
	mov	rax, QWORD PTR -40[rbp]	# tmp87, __first
	mov	QWORD PTR -24[rbp], rax	# __cur, tmp87
# /usr/include/c++/13/bits/stl_uninitialized.h:266: 	  for (; __n > 0; --__n, (void) ++__cur)
	jmp	.L320	#
.L321:
# /usr/include/c++/13/bits/stl_uninitialized.h:267: 	    std::_Construct(std::__addressof(*__cur), __x);
	mov	rax, QWORD PTR -24[rbp]	# tmp88, __cur
	mov	rdi, rax	#, tmp88
	call	_ZSt11__addressofISt6vectorIiSaIiEEEPT_RS3_	#
	mov	rdx, rax	# _1,
# /usr/include/c++/13/bits/stl_uninitialized.h:267: 	    std::_Construct(std::__addressof(*__cur), __x);
	mov	rax, QWORD PTR -56[rbp]	# tmp89, __x
	mov	rsi, rax	#, tmp89
	mov	rdi, rdx	#, _1
.LEHB24:
	call	_ZSt10_ConstructISt6vectorIiSaIiEEJRKS2_EEvPT_DpOT0_	#
.LEHE24:
# /usr/include/c++/13/bits/stl_uninitialized.h:266: 	  for (; __n > 0; --__n, (void) ++__cur)
	sub	QWORD PTR -48[rbp], 1	# __n,
# /usr/include/c++/13/bits/stl_uninitialized.h:266: 	  for (; __n > 0; --__n, (void) ++__cur)
	add	QWORD PTR -24[rbp], 24	# __cur,
.L320:
# /usr/include/c++/13/bits/stl_uninitialized.h:266: 	  for (; __n > 0; --__n, (void) ++__cur)
	cmp	QWORD PTR -48[rbp], 0	# __n,
	jne	.L321	#,
# /usr/include/c++/13/bits/stl_uninitialized.h:268: 	  return __cur;
	mov	rax, QWORD PTR -24[rbp]	# _11, __cur
	jmp	.L327	#
.L325:
	endbr64	
# /usr/include/c++/13/bits/stl_uninitialized.h:270:       __catch(...)
	mov	rdi, rax	#, _2
	call	__cxa_begin_catch@PLT	#
# /usr/include/c++/13/bits/stl_uninitialized.h:272: 	  std::_Destroy(__first, __cur);
	mov	rdx, QWORD PTR -24[rbp]	# tmp92, __cur
	mov	rax, QWORD PTR -40[rbp]	# tmp93, __first
	mov	rsi, rdx	#, tmp92
	mov	rdi, rax	#, tmp93
.LEHB25:
	call	_ZSt8_DestroyIPSt6vectorIiSaIiEEEvT_S4_	#
# /usr/include/c++/13/bits/stl_uninitialized.h:273: 	  __throw_exception_again;
	call	__cxa_rethrow@PLT	#
.LEHE25:
.L326:
	endbr64	
# /usr/include/c++/13/bits/stl_uninitialized.h:270:       __catch(...)
	mov	rbx, rax	# tmp94,
	call	__cxa_end_catch@PLT	#
	mov	rax, rbx	# D.230954, tmp94
	mov	rdi, rax	#, D.230954
.LEHB26:
	call	_Unwind_Resume@PLT	#
.LEHE26:
.L327:
# /usr/include/c++/13/bits/stl_uninitialized.h:275:     }
	mov	rbx, QWORD PTR -8[rbp]	#,
	leave	
	.cfi_def_cfa 7, 8
	ret	
	.cfi_endproc
.LFE11671:
	.section	.gcc_except_table
	.align 4
.LLSDA11671:
	.byte	0xff
	.byte	0x9b
	.uleb128 .LLSDATT11671-.LLSDATTD11671
.LLSDATTD11671:
	.byte	0x1
	.uleb128 .LLSDACSE11671-.LLSDACSB11671
.LLSDACSB11671:
	.uleb128 .LEHB24-.LFB11671
	.uleb128 .LEHE24-.LEHB24
	.uleb128 .L325-.LFB11671
	.uleb128 0x1
	.uleb128 .LEHB25-.LFB11671
	.uleb128 .LEHE25-.LEHB25
	.uleb128 .L326-.LFB11671
	.uleb128 0
	.uleb128 .LEHB26-.LFB11671
	.uleb128 .LEHE26-.LEHB26
	.uleb128 0
	.uleb128 0
.LLSDACSE11671:
	.byte	0x1
	.byte	0
	.align 4
	.long	0

.LLSDATT11671:
	.section	.text._ZSt18__do_uninit_fill_nIPSt6vectorIiSaIiEEmS2_ET_S4_T0_RKT1_,"axG",@progbits,_ZSt18__do_uninit_fill_nIPSt6vectorIiSaIiEEmS2_ET_S4_T0_RKT1_,comdat
	.size	_ZSt18__do_uninit_fill_nIPSt6vectorIiSaIiEEmS2_ET_S4_T0_RKT1_, .-_ZSt18__do_uninit_fill_nIPSt6vectorIiSaIiEEmS2_ET_S4_T0_RKT1_
	.section	.text._ZNSt15__new_allocatorImE8allocateEmPKv,"axG",@progbits,_ZNSt15__new_allocatorImE8allocateEmPKv,comdat
	.align 2
	.weak	_ZNSt15__new_allocatorImE8allocateEmPKv
	.type	_ZNSt15__new_allocatorImE8allocateEmPKv, @function
_ZNSt15__new_allocatorImE8allocateEmPKv:
.LFB11675:
	.cfi_startproc
	endbr64	
	push	rbp	#
	.cfi_def_cfa_offset 16
	.cfi_offset 6, -16
	mov	rbp, rsp	#,
	.cfi_def_cfa_register 6
	sub	rsp, 48	#,
	mov	QWORD PTR -24[rbp], rdi	# this, this
	mov	QWORD PTR -32[rbp], rsi	# __n, __n
	mov	QWORD PTR -40[rbp], rdx	# D.228285, D.228285
	mov	rax, QWORD PTR -24[rbp]	# tmp90, this
	mov	QWORD PTR -8[rbp], rax	# this, tmp90
# /usr/include/c++/13/bits/new_allocator.h:233: 	return std::size_t(__PTRDIFF_MAX__) / sizeof(_Tp);
	movabs	rax, 1152921504606846975	# D.230849,
# /usr/include/c++/13/bits/new_allocator.h:134: 	if (__builtin_expect(__n > this->_M_max_size(), false))
	cmp	rax, QWORD PTR -32[rbp]	# D.230849, __n
	setb	al	#, _2
# /usr/include/c++/13/bits/new_allocator.h:134: 	if (__builtin_expect(__n > this->_M_max_size(), false))
	movzx	eax, al	# _3, _2
# /usr/include/c++/13/bits/new_allocator.h:134: 	if (__builtin_expect(__n > this->_M_max_size(), false))
	test	rax, rax	# _4
	setne	al	#, retval.31_9
# /usr/include/c++/13/bits/new_allocator.h:134: 	if (__builtin_expect(__n > this->_M_max_size(), false))
	test	al, al	# retval.31_9
	je	.L330	#,
# /usr/include/c++/13/bits/new_allocator.h:138: 	    if (__n > (std::size_t(-1) / sizeof(_Tp)))
	movabs	rax, 2305843009213693951	# tmp91,
	cmp	rax, QWORD PTR -32[rbp]	# tmp91, __n
	jnb	.L331	#,
# /usr/include/c++/13/bits/new_allocator.h:139: 	      std::__throw_bad_array_new_length();
	call	_ZSt28__throw_bad_array_new_lengthv@PLT	#
.L331:
# /usr/include/c++/13/bits/new_allocator.h:140: 	    std::__throw_bad_alloc();
	call	_ZSt17__throw_bad_allocv@PLT	#
.L330:
# /usr/include/c++/13/bits/new_allocator.h:151: 	return static_cast<_Tp*>(_GLIBCXX_OPERATOR_NEW(__n * sizeof(_Tp)));
	mov	rax, QWORD PTR -32[rbp]	# tmp92, __n
	sal	rax, 3	# _6,
	mov	rdi, rax	#, _6
	call	_Znwm@PLT	#
# /usr/include/c++/13/bits/new_allocator.h:151: 	return static_cast<_Tp*>(_GLIBCXX_OPERATOR_NEW(__n * sizeof(_Tp)));
	nop	
# /usr/include/c++/13/bits/new_allocator.h:152:       }
	leave	
	.cfi_def_cfa 7, 8
	ret	
	.cfi_endproc
.LFE11675:
	.size	_ZNSt15__new_allocatorImE8allocateEmPKv, .-_ZNSt15__new_allocatorImE8allocateEmPKv
	.section	.text._ZNSt15__new_allocatorISt6vectorIbSaIbEEE8allocateEmPKv,"axG",@progbits,_ZNSt15__new_allocatorISt6vectorIbSaIbEEE8allocateEmPKv,comdat
	.align 2
	.weak	_ZNSt15__new_allocatorISt6vectorIbSaIbEEE8allocateEmPKv
	.type	_ZNSt15__new_allocatorISt6vectorIbSaIbEEE8allocateEmPKv, @function
_ZNSt15__new_allocatorISt6vectorIbSaIbEEE8allocateEmPKv:
.LFB11677:
	.cfi_startproc
	endbr64	
	push	rbp	#
	.cfi_def_cfa_offset 16
	.cfi_offset 6, -16
	mov	rbp, rsp	#,
	.cfi_def_cfa_register 6
	sub	rsp, 48	#,
	mov	QWORD PTR -24[rbp], rdi	# this, this
	mov	QWORD PTR -32[rbp], rsi	# __n, __n
	mov	QWORD PTR -40[rbp], rdx	# D.228292, D.228292
	mov	rax, QWORD PTR -24[rbp]	# tmp90, this
	mov	QWORD PTR -8[rbp], rax	# this, tmp90
# /usr/include/c++/13/bits/new_allocator.h:233: 	return std::size_t(__PTRDIFF_MAX__) / sizeof(_Tp);
	movabs	rax, 230584300921369395	# D.230845,
# /usr/include/c++/13/bits/new_allocator.h:134: 	if (__builtin_expect(__n > this->_M_max_size(), false))
	cmp	rax, QWORD PTR -32[rbp]	# D.230845, __n
	setb	al	#, _2
# /usr/include/c++/13/bits/new_allocator.h:134: 	if (__builtin_expect(__n > this->_M_max_size(), false))
	movzx	eax, al	# _3, _2
# /usr/include/c++/13/bits/new_allocator.h:134: 	if (__builtin_expect(__n > this->_M_max_size(), false))
	test	rax, rax	# _4
	setne	al	#, retval.35_9
# /usr/include/c++/13/bits/new_allocator.h:134: 	if (__builtin_expect(__n > this->_M_max_size(), false))
	test	al, al	# retval.35_9
	je	.L335	#,
# /usr/include/c++/13/bits/new_allocator.h:138: 	    if (__n > (std::size_t(-1) / sizeof(_Tp)))
	movabs	rax, 461168601842738790	# tmp91,
	cmp	rax, QWORD PTR -32[rbp]	# tmp91, __n
	jnb	.L336	#,
# /usr/include/c++/13/bits/new_allocator.h:139: 	      std::__throw_bad_array_new_length();
	call	_ZSt28__throw_bad_array_new_lengthv@PLT	#
.L336:
# /usr/include/c++/13/bits/new_allocator.h:140: 	    std::__throw_bad_alloc();
	call	_ZSt17__throw_bad_allocv@PLT	#
.L335:
# /usr/include/c++/13/bits/new_allocator.h:151: 	return static_cast<_Tp*>(_GLIBCXX_OPERATOR_NEW(__n * sizeof(_Tp)));
	mov	rdx, QWORD PTR -32[rbp]	# tmp92, __n
	mov	rax, rdx	# tmp93, tmp92
	sal	rax, 2	# tmp93,
	add	rax, rdx	# tmp93, tmp92
	sal	rax, 3	# tmp94,
	mov	rdi, rax	#, _6
	call	_Znwm@PLT	#
# /usr/include/c++/13/bits/new_allocator.h:151: 	return static_cast<_Tp*>(_GLIBCXX_OPERATOR_NEW(__n * sizeof(_Tp)));
	nop	
# /usr/include/c++/13/bits/new_allocator.h:152:       }
	leave	
	.cfi_def_cfa 7, 8
	ret	
	.cfi_endproc
.LFE11677:
	.size	_ZNSt15__new_allocatorISt6vectorIbSaIbEEE8allocateEmPKv, .-_ZNSt15__new_allocatorISt6vectorIbSaIbEEE8allocateEmPKv
	.section	.text._ZSt18__do_uninit_fill_nIPSt6vectorIbSaIbEEmS2_ET_S4_T0_RKT1_,"axG",@progbits,_ZSt18__do_uninit_fill_nIPSt6vectorIbSaIbEEmS2_ET_S4_T0_RKT1_,comdat
	.weak	_ZSt18__do_uninit_fill_nIPSt6vectorIbSaIbEEmS2_ET_S4_T0_RKT1_
	.type	_ZSt18__do_uninit_fill_nIPSt6vectorIbSaIbEEmS2_ET_S4_T0_RKT1_, @function
_ZSt18__do_uninit_fill_nIPSt6vectorIbSaIbEEmS2_ET_S4_T0_RKT1_:
.LFB11678:
	.cfi_startproc
	.cfi_personality 0x9b,DW.ref.__gxx_personality_v0
	.cfi_lsda 0x1b,.LLSDA11678
	endbr64	
	push	rbp	#
	.cfi_def_cfa_offset 16
	.cfi_offset 6, -16
	mov	rbp, rsp	#,
	.cfi_def_cfa_register 6
	push	rbx	#
	sub	rsp, 56	#,
	.cfi_offset 3, -24
	mov	QWORD PTR -40[rbp], rdi	# __first, __first
	mov	QWORD PTR -48[rbp], rsi	# __n, __n
	mov	QWORD PTR -56[rbp], rdx	# __x, __x
# /usr/include/c++/13/bits/stl_uninitialized.h:263:       _ForwardIterator __cur = __first;
	mov	rax, QWORD PTR -40[rbp]	# tmp87, __first
	mov	QWORD PTR -24[rbp], rax	# __cur, tmp87
# /usr/include/c++/13/bits/stl_uninitialized.h:266: 	  for (; __n > 0; --__n, (void) ++__cur)
	jmp	.L339	#
.L340:
# /usr/include/c++/13/bits/stl_uninitialized.h:267: 	    std::_Construct(std::__addressof(*__cur), __x);
	mov	rax, QWORD PTR -24[rbp]	# tmp88, __cur
	mov	rdi, rax	#, tmp88
	call	_ZSt11__addressofISt6vectorIbSaIbEEEPT_RS3_	#
	mov	rdx, rax	# _1,
# /usr/include/c++/13/bits/stl_uninitialized.h:267: 	    std::_Construct(std::__addressof(*__cur), __x);
	mov	rax, QWORD PTR -56[rbp]	# tmp89, __x
	mov	rsi, rax	#, tmp89
	mov	rdi, rdx	#, _1
.LEHB27:
	call	_ZSt10_ConstructISt6vectorIbSaIbEEJRKS2_EEvPT_DpOT0_	#
.LEHE27:
# /usr/include/c++/13/bits/stl_uninitialized.h:266: 	  for (; __n > 0; --__n, (void) ++__cur)
	sub	QWORD PTR -48[rbp], 1	# __n,
# /usr/include/c++/13/bits/stl_uninitialized.h:266: 	  for (; __n > 0; --__n, (void) ++__cur)
	add	QWORD PTR -24[rbp], 40	# __cur,
.L339:
# /usr/include/c++/13/bits/stl_uninitialized.h:266: 	  for (; __n > 0; --__n, (void) ++__cur)
	cmp	QWORD PTR -48[rbp], 0	# __n,
	jne	.L340	#,
# /usr/include/c++/13/bits/stl_uninitialized.h:268: 	  return __cur;
	mov	rax, QWORD PTR -24[rbp]	# _11, __cur
	jmp	.L346	#
.L344:
	endbr64	
# /usr/include/c++/13/bits/stl_uninitialized.h:270:       __catch(...)
	mov	rdi, rax	#, _2
	call	__cxa_begin_catch@PLT	#
# /usr/include/c++/13/bits/stl_uninitialized.h:272: 	  std::_Destroy(__first, __cur);
	mov	rdx, QWORD PTR -24[rbp]	# tmp92, __cur
	mov	rax, QWORD PTR -40[rbp]	# tmp93, __first
	mov	rsi, rdx	#, tmp92
	mov	rdi, rax	#, tmp93
.LEHB28:
	call	_ZSt8_DestroyIPSt6vectorIbSaIbEEEvT_S4_	#
# /usr/include/c++/13/bits/stl_uninitialized.h:273: 	  __throw_exception_again;
	call	__cxa_rethrow@PLT	#
.LEHE28:
.L345:
	endbr64	
# /usr/include/c++/13/bits/stl_uninitialized.h:270:       __catch(...)
	mov	rbx, rax	# tmp94,
	call	__cxa_end_catch@PLT	#
	mov	rax, rbx	# D.230955, tmp94
	mov	rdi, rax	#, D.230955
.LEHB29:
	call	_Unwind_Resume@PLT	#
.LEHE29:
.L346:
# /usr/include/c++/13/bits/stl_uninitialized.h:275:     }
	mov	rbx, QWORD PTR -8[rbp]	#,
	leave	
	.cfi_def_cfa 7, 8
	ret	
	.cfi_endproc
.LFE11678:
	.section	.gcc_except_table
	.align 4
.LLSDA11678:
	.byte	0xff
	.byte	0x9b
	.uleb128 .LLSDATT11678-.LLSDATTD11678
.LLSDATTD11678:
	.byte	0x1
	.uleb128 .LLSDACSE11678-.LLSDACSB11678
.LLSDACSB11678:
	.uleb128 .LEHB27-.LFB11678
	.uleb128 .LEHE27-.LEHB27
	.uleb128 .L344-.LFB11678
	.uleb128 0x1
	.uleb128 .LEHB28-.LFB11678
	.uleb128 .LEHE28-.LEHB28
	.uleb128 .L345-.LFB11678
	.uleb128 0
	.uleb128 .LEHB29-.LFB11678
	.uleb128 .LEHE29-.LEHB29
	.uleb128 0
	.uleb128 0
.LLSDACSE11678:
	.byte	0x1
	.byte	0
	.align 4
	.long	0

.LLSDATT11678:
	.section	.text._ZSt18__do_uninit_fill_nIPSt6vectorIbSaIbEEmS2_ET_S4_T0_RKT1_,"axG",@progbits,_ZSt18__do_uninit_fill_nIPSt6vectorIbSaIbEEmS2_ET_S4_T0_RKT1_,comdat
	.size	_ZSt18__do_uninit_fill_nIPSt6vectorIbSaIbEEmS2_ET_S4_T0_RKT1_, .-_ZSt18__do_uninit_fill_nIPSt6vectorIbSaIbEEmS2_ET_S4_T0_RKT1_
	.section	.text._ZSt10__fill_n_aIPimiET_S1_T0_RKT1_St26random_access_iterator_tag,"axG",@progbits,_ZSt10__fill_n_aIPimiET_S1_T0_RKT1_St26random_access_iterator_tag,comdat
	.weak	_ZSt10__fill_n_aIPimiET_S1_T0_RKT1_St26random_access_iterator_tag
	.type	_ZSt10__fill_n_aIPimiET_S1_T0_RKT1_St26random_access_iterator_tag, @function
_ZSt10__fill_n_aIPimiET_S1_T0_RKT1_St26random_access_iterator_tag:
.LFB11718:
	.cfi_startproc
	endbr64	
	push	rbp	#
	.cfi_def_cfa_offset 16
	.cfi_offset 6, -16
	mov	rbp, rsp	#,
	.cfi_def_cfa_register 6
	sub	rsp, 32	#,
	mov	QWORD PTR -8[rbp], rdi	# __first, __first
	mov	QWORD PTR -16[rbp], rsi	# __n, __n
	mov	QWORD PTR -24[rbp], rdx	# __value, __value
# /usr/include/c++/13/bits/stl_algobase.h:1123:       if (__n <= 0)
	cmp	QWORD PTR -16[rbp], 0	# __n,
	jne	.L348	#,
# /usr/include/c++/13/bits/stl_algobase.h:1124: 	return __first;
	mov	rax, QWORD PTR -8[rbp]	# _4, __first
	jmp	.L349	#
.L348:
# /usr/include/c++/13/bits/stl_algobase.h:1128:       std::__fill_a(__first, __first + __n, __value);
	mov	rax, QWORD PTR -16[rbp]	# tmp87, __n
	lea	rdx, 0[0+rax*4]	# _1,
# /usr/include/c++/13/bits/stl_algobase.h:1128:       std::__fill_a(__first, __first + __n, __value);
	mov	rax, QWORD PTR -8[rbp]	# tmp88, __first
	lea	rcx, [rdx+rax]	# _2,
	mov	rdx, QWORD PTR -24[rbp]	# tmp89, __value
	mov	rax, QWORD PTR -8[rbp]	# tmp90, __first
	mov	rsi, rcx	#, _2
	mov	rdi, rax	#, tmp90
	call	_ZSt8__fill_aIPiiEvT_S1_RKT0_	#
# /usr/include/c++/13/bits/stl_algobase.h:1129:       return __first + __n;
	mov	rax, QWORD PTR -16[rbp]	# tmp91, __n
	lea	rdx, 0[0+rax*4]	# _3,
# /usr/include/c++/13/bits/stl_algobase.h:1129:       return __first + __n;
	mov	rax, QWORD PTR -8[rbp]	# tmp92, __first
	add	rax, rdx	# _4, _3
.L349:
# /usr/include/c++/13/bits/stl_algobase.h:1130:     }
	leave	
	.cfi_def_cfa 7, 8
	ret	
	.cfi_endproc
.LFE11718:
	.size	_ZSt10__fill_n_aIPimiET_S1_T0_RKT1_St26random_access_iterator_tag, .-_ZSt10__fill_n_aIPimiET_S1_T0_RKT1_St26random_access_iterator_tag
	.section	.text._ZSt10_ConstructISt6vectorIiSaIiEEJRKS2_EEvPT_DpOT0_,"axG",@progbits,_ZSt10_ConstructISt6vectorIiSaIiEEJRKS2_EEvPT_DpOT0_,comdat
	.weak	_ZSt10_ConstructISt6vectorIiSaIiEEJRKS2_EEvPT_DpOT0_
	.type	_ZSt10_ConstructISt6vectorIiSaIiEEJRKS2_EEvPT_DpOT0_, @function
_ZSt10_ConstructISt6vectorIiSaIiEEJRKS2_EEvPT_DpOT0_:
.LFB11719:
	.cfi_startproc
	.cfi_personality 0x9b,DW.ref.__gxx_personality_v0
	.cfi_lsda 0x1b,.LLSDA11719
	endbr64	
	push	rbp	#
	.cfi_def_cfa_offset 16
	.cfi_offset 6, -16
	mov	rbp, rsp	#,
	.cfi_def_cfa_register 6
	push	r14	#
	push	r13	#
	push	r12	#
	push	rbx	#
	sub	rsp, 16	#,
	.cfi_offset 14, -24
	.cfi_offset 13, -32
	.cfi_offset 12, -40
	.cfi_offset 3, -48
	mov	QWORD PTR -40[rbp], rdi	# __p, __p
	mov	QWORD PTR -48[rbp], rsi	# __args#0, __args#0
# /usr/include/c++/13/bits/stl_construct.h:119:       ::new((void*)__p) _Tp(std::forward<_Args>(__args)...);
	mov	rbx, QWORD PTR -40[rbp]	# _4, __p
# /usr/include/c++/13/bits/stl_construct.h:119:       ::new((void*)__p) _Tp(std::forward<_Args>(__args)...);
	mov	rsi, rbx	#, _4
	mov	edi, 24	#,
	call	_ZnwmPv	#
	mov	r12, rax	# _1,
# /usr/include/c++/13/bits/stl_construct.h:119:       ::new((void*)__p) _Tp(std::forward<_Args>(__args)...);
	mov	r14d, 1	# _8,
	mov	rax, QWORD PTR -48[rbp]	# tmp88, __args#0
	mov	rdi, rax	#, tmp88
	call	_ZSt7forwardIRKSt6vectorIiSaIiEEEOT_RNSt16remove_referenceIS5_E4typeE	#
# /usr/include/c++/13/bits/stl_construct.h:119:       ::new((void*)__p) _Tp(std::forward<_Args>(__args)...);
	mov	rsi, rax	#, _2
	mov	rdi, r12	#, _1
.LEHB30:
	call	_ZNSt6vectorIiSaIiEEC1ERKS1_	#
.LEHE30:
# /usr/include/c++/13/bits/stl_construct.h:120:     }
	jmp	.L354	#
.L353:
	endbr64	
# /usr/include/c++/13/bits/stl_construct.h:119:       ::new((void*)__p) _Tp(std::forward<_Args>(__args)...);
	mov	r13, rax	# tmp89,
	test	r14b, r14b	# _8
	je	.L352	#,
# /usr/include/c++/13/bits/stl_construct.h:119:       ::new((void*)__p) _Tp(std::forward<_Args>(__args)...);
	mov	rsi, rbx	#, _4
	mov	rdi, r12	#, _1
	call	_ZdlPvS_	#
.L352:
	mov	rax, r13	# D.230956, tmp89
	mov	rdi, rax	#, D.230956
.LEHB31:
	call	_Unwind_Resume@PLT	#
.LEHE31:
.L354:
# /usr/include/c++/13/bits/stl_construct.h:120:     }
	add	rsp, 16	#,
	pop	rbx	#
	pop	r12	#
	pop	r13	#
	pop	r14	#
	pop	rbp	#
	.cfi_def_cfa 7, 8
	ret	
	.cfi_endproc
.LFE11719:
	.section	.gcc_except_table
.LLSDA11719:
	.byte	0xff
	.byte	0xff
	.byte	0x1
	.uleb128 .LLSDACSE11719-.LLSDACSB11719
.LLSDACSB11719:
	.uleb128 .LEHB30-.LFB11719
	.uleb128 .LEHE30-.LEHB30
	.uleb128 .L353-.LFB11719
	.uleb128 0
	.uleb128 .LEHB31-.LFB11719
	.uleb128 .LEHE31-.LEHB31
	.uleb128 0
	.uleb128 0
.LLSDACSE11719:
	.section	.text._ZSt10_ConstructISt6vectorIiSaIiEEJRKS2_EEvPT_DpOT0_,"axG",@progbits,_ZSt10_ConstructISt6vectorIiSaIiEEJRKS2_EEvPT_DpOT0_,comdat
	.size	_ZSt10_ConstructISt6vectorIiSaIiEEJRKS2_EEvPT_DpOT0_, .-_ZSt10_ConstructISt6vectorIiSaIiEEJRKS2_EEvPT_DpOT0_
	.section	.text._ZSt10_ConstructISt6vectorIbSaIbEEJRKS2_EEvPT_DpOT0_,"axG",@progbits,_ZSt10_ConstructISt6vectorIbSaIbEEJRKS2_EEvPT_DpOT0_,comdat
	.weak	_ZSt10_ConstructISt6vectorIbSaIbEEJRKS2_EEvPT_DpOT0_
	.type	_ZSt10_ConstructISt6vectorIbSaIbEEJRKS2_EEvPT_DpOT0_, @function
_ZSt10_ConstructISt6vectorIbSaIbEEJRKS2_EEvPT_DpOT0_:
.LFB11721:
	.cfi_startproc
	.cfi_personality 0x9b,DW.ref.__gxx_personality_v0
	.cfi_lsda 0x1b,.LLSDA11721
	endbr64	
	push	rbp	#
	.cfi_def_cfa_offset 16
	.cfi_offset 6, -16
	mov	rbp, rsp	#,
	.cfi_def_cfa_register 6
	push	r14	#
	push	r13	#
	push	r12	#
	push	rbx	#
	sub	rsp, 16	#,
	.cfi_offset 14, -24
	.cfi_offset 13, -32
	.cfi_offset 12, -40
	.cfi_offset 3, -48
	mov	QWORD PTR -40[rbp], rdi	# __p, __p
	mov	QWORD PTR -48[rbp], rsi	# __args#0, __args#0
# /usr/include/c++/13/bits/stl_construct.h:119:       ::new((void*)__p) _Tp(std::forward<_Args>(__args)...);
	mov	rbx, QWORD PTR -40[rbp]	# _4, __p
# /usr/include/c++/13/bits/stl_construct.h:119:       ::new((void*)__p) _Tp(std::forward<_Args>(__args)...);
	mov	rsi, rbx	#, _4
	mov	edi, 40	#,
	call	_ZnwmPv	#
	mov	r12, rax	# _1,
# /usr/include/c++/13/bits/stl_construct.h:119:       ::new((void*)__p) _Tp(std::forward<_Args>(__args)...);
	mov	r14d, 1	# _8,
	mov	rax, QWORD PTR -48[rbp]	# tmp88, __args#0
	mov	rdi, rax	#, tmp88
	call	_ZSt7forwardIRKSt6vectorIbSaIbEEEOT_RNSt16remove_referenceIS5_E4typeE	#
# /usr/include/c++/13/bits/stl_construct.h:119:       ::new((void*)__p) _Tp(std::forward<_Args>(__args)...);
	mov	rsi, rax	#, _2
	mov	rdi, r12	#, _1
.LEHB32:
	call	_ZNSt6vectorIbSaIbEEC1ERKS1_	#
.LEHE32:
# /usr/include/c++/13/bits/stl_construct.h:120:     }
	jmp	.L359	#
.L358:
	endbr64	
# /usr/include/c++/13/bits/stl_construct.h:119:       ::new((void*)__p) _Tp(std::forward<_Args>(__args)...);
	mov	r13, rax	# tmp89,
	test	r14b, r14b	# _8
	je	.L357	#,
# /usr/include/c++/13/bits/stl_construct.h:119:       ::new((void*)__p) _Tp(std::forward<_Args>(__args)...);
	mov	rsi, rbx	#, _4
	mov	rdi, r12	#, _1
	call	_ZdlPvS_	#
.L357:
	mov	rax, r13	# D.230957, tmp89
	mov	rdi, rax	#, D.230957
.LEHB33:
	call	_Unwind_Resume@PLT	#
.LEHE33:
.L359:
# /usr/include/c++/13/bits/stl_construct.h:120:     }
	add	rsp, 16	#,
	pop	rbx	#
	pop	r12	#
	pop	r13	#
	pop	r14	#
	pop	rbp	#
	.cfi_def_cfa 7, 8
	ret	
	.cfi_endproc
.LFE11721:
	.section	.gcc_except_table
.LLSDA11721:
	.byte	0xff
	.byte	0xff
	.byte	0x1
	.uleb128 .LLSDACSE11721-.LLSDACSB11721
.LLSDACSB11721:
	.uleb128 .LEHB32-.LFB11721
	.uleb128 .LEHE32-.LEHB32
	.uleb128 .L358-.LFB11721
	.uleb128 0
	.uleb128 .LEHB33-.LFB11721
	.uleb128 .LEHE33-.LEHB33
	.uleb128 0
	.uleb128 0
.LLSDACSE11721:
	.section	.text._ZSt10_ConstructISt6vectorIbSaIbEEJRKS2_EEvPT_DpOT0_,"axG",@progbits,_ZSt10_ConstructISt6vectorIbSaIbEEJRKS2_EEvPT_DpOT0_,comdat
	.size	_ZSt10_ConstructISt6vectorIbSaIbEEJRKS2_EEvPT_DpOT0_, .-_ZSt10_ConstructISt6vectorIbSaIbEEJRKS2_EEvPT_DpOT0_
	.section	.text._ZSt8__fill_aIPiiEvT_S1_RKT0_,"axG",@progbits,_ZSt8__fill_aIPiiEvT_S1_RKT0_,comdat
	.weak	_ZSt8__fill_aIPiiEvT_S1_RKT0_
	.type	_ZSt8__fill_aIPiiEvT_S1_RKT0_, @function
_ZSt8__fill_aIPiiEvT_S1_RKT0_:
.LFB11728:
	.cfi_startproc
	endbr64	
	push	rbp	#
	.cfi_def_cfa_offset 16
	.cfi_offset 6, -16
	mov	rbp, rsp	#,
	.cfi_def_cfa_register 6
	sub	rsp, 32	#,
	mov	QWORD PTR -8[rbp], rdi	# __first, __first
	mov	QWORD PTR -16[rbp], rsi	# __last, __last
	mov	QWORD PTR -24[rbp], rdx	# __value, __value
# /usr/include/c++/13/bits/stl_algobase.h:977:     { std::__fill_a1(__first, __last, __value); }
	mov	rdx, QWORD PTR -24[rbp]	# tmp82, __value
	mov	rcx, QWORD PTR -16[rbp]	# tmp83, __last
	mov	rax, QWORD PTR -8[rbp]	# tmp84, __first
	mov	rsi, rcx	#, tmp83
	mov	rdi, rax	#, tmp84
	call	_ZSt9__fill_a1IPiiEN9__gnu_cxx11__enable_ifIXsrSt11__is_scalarIT0_E7__valueEvE6__typeET_S8_RKS4_	#
# /usr/include/c++/13/bits/stl_algobase.h:977:     { std::__fill_a1(__first, __last, __value); }
	nop	
	leave	
	.cfi_def_cfa 7, 8
	ret	
	.cfi_endproc
.LFE11728:
	.size	_ZSt8__fill_aIPiiEvT_S1_RKT0_, .-_ZSt8__fill_aIPiiEvT_S1_RKT0_
	.section	.text._ZSt7forwardIRKSt6vectorIiSaIiEEEOT_RNSt16remove_referenceIS5_E4typeE,"axG",@progbits,_ZSt7forwardIRKSt6vectorIiSaIiEEEOT_RNSt16remove_referenceIS5_E4typeE,comdat
	.weak	_ZSt7forwardIRKSt6vectorIiSaIiEEEOT_RNSt16remove_referenceIS5_E4typeE
	.type	_ZSt7forwardIRKSt6vectorIiSaIiEEEOT_RNSt16remove_referenceIS5_E4typeE, @function
_ZSt7forwardIRKSt6vectorIiSaIiEEEOT_RNSt16remove_referenceIS5_E4typeE:
.LFB11729:
	.cfi_startproc
	endbr64	
	push	rbp	#
	.cfi_def_cfa_offset 16
	.cfi_offset 6, -16
	mov	rbp, rsp	#,
	.cfi_def_cfa_register 6
	mov	QWORD PTR -8[rbp], rdi	# __t, __t
# /usr/include/c++/13/bits/move.h:71:     { return static_cast<_Tp&&>(__t); }
	mov	rax, QWORD PTR -8[rbp]	# _2, __t
# /usr/include/c++/13/bits/move.h:71:     { return static_cast<_Tp&&>(__t); }
	pop	rbp	#
	.cfi_def_cfa 7, 8
	ret	
	.cfi_endproc
.LFE11729:
	.size	_ZSt7forwardIRKSt6vectorIiSaIiEEEOT_RNSt16remove_referenceIS5_E4typeE, .-_ZSt7forwardIRKSt6vectorIiSaIiEEEOT_RNSt16remove_referenceIS5_E4typeE
	.section	.text._ZNSt6vectorIiSaIiEEC2ERKS1_,"axG",@progbits,_ZNSt6vectorIiSaIiEEC5ERKS1_,comdat
	.align 2
	.weak	_ZNSt6vectorIiSaIiEEC2ERKS1_
	.type	_ZNSt6vectorIiSaIiEEC2ERKS1_, @function
_ZNSt6vectorIiSaIiEEC2ERKS1_:
.LFB11731:
	.cfi_startproc
	.cfi_personality 0x9b,DW.ref.__gxx_personality_v0
	.cfi_lsda 0x1b,.LLSDA11731
	endbr64	
	push	rbp	#
	.cfi_def_cfa_offset 16
	.cfi_offset 6, -16
	mov	rbp, rsp	#,
	.cfi_def_cfa_register 6
	push	r13	#
	push	r12	#
	push	rbx	#
	sub	rsp, 88	#,
	.cfi_offset 13, -24
	.cfi_offset 12, -32
	.cfi_offset 3, -40
	mov	QWORD PTR -104[rbp], rdi	# this, this
	mov	QWORD PTR -112[rbp], rsi	# __x, __x
# /usr/include/c++/13/bits/stl_vector.h:601:       vector(const vector& __x)
	mov	rax, QWORD PTR fs:40	# tmp110, MEM[(<address-space-1> long unsigned int *)40B]
	mov	QWORD PTR -40[rbp], rax	# D.230960, tmp110
	xor	eax, eax	# tmp110
# /usr/include/c++/13/bits/stl_vector.h:603: 	_Alloc_traits::_S_select_on_copy(__x._M_get_Tp_allocator()))
	mov	rbx, QWORD PTR -104[rbp]	# _1, this
# /usr/include/c++/13/bits/stl_vector.h:603: 	_Alloc_traits::_S_select_on_copy(__x._M_get_Tp_allocator()))
	mov	rax, QWORD PTR -112[rbp]	# _2, __x
	mov	rdi, rax	#, _2
	call	_ZNKSt12_Vector_baseIiSaIiEE19_M_get_Tp_allocatorEv	#
	mov	QWORD PTR -88[rbp], rax	# __a, _3
	lea	rax, -89[rbp]	# retvalptr.40,
	mov	rdx, QWORD PTR -88[rbp]	# tmp96, __a
	mov	QWORD PTR -80[rbp], rdx	# __rhs, tmp96
	mov	QWORD PTR -72[rbp], rax	# this, retvalptr.40
	mov	rax, QWORD PTR -80[rbp]	# tmp97, __rhs
	mov	QWORD PTR -64[rbp], rax	# __a, tmp97
	mov	rax, QWORD PTR -72[rbp]	# tmp98, this
	mov	QWORD PTR -56[rbp], rax	# this, tmp98
	mov	rax, QWORD PTR -64[rbp]	# tmp99, __a
	mov	QWORD PTR -48[rbp], rax	# D.230898, tmp99
# /usr/include/c++/13/bits/new_allocator.h:92:       __new_allocator(const __new_allocator&) _GLIBCXX_USE_NOEXCEPT { }
	nop	
# /usr/include/c++/13/bits/allocator.h:168:       : __allocator_base<_Tp>(__a) { }
	nop	
# /usr/include/c++/13/bits/alloc_traits.h:588:       { return __rhs; }
	nop	
# /usr/include/c++/13/ext/alloc_traits.h:98:     { return _Base_type::select_on_container_copy_construction(__a); }
	nop	
# /usr/include/c++/13/bits/stl_vector.h:603: 	_Alloc_traits::_S_select_on_copy(__x._M_get_Tp_allocator()))
	mov	rax, QWORD PTR -112[rbp]	# tmp100, __x
	mov	rdi, rax	#, tmp100
	call	_ZNKSt6vectorIiSaIiEE4sizeEv	#
	mov	rcx, rax	# _4,
# /usr/include/c++/13/bits/stl_vector.h:603: 	_Alloc_traits::_S_select_on_copy(__x._M_get_Tp_allocator()))
	lea	rax, -89[rbp]	# tmp101,
	mov	rdx, rax	#, tmp101
	mov	rsi, rcx	#, _4
	mov	rdi, rbx	#, _1
.LEHB34:
	call	_ZNSt12_Vector_baseIiSaIiEEC2EmRKS0_	#
.LEHE34:
# /usr/include/c++/13/bits/allocator.h:184:       ~allocator() _GLIBCXX_NOTHROW { }
	lea	rax, -89[rbp]	# tmp102,
	mov	rdi, rax	#, tmp102
	call	_ZNSt15__new_allocatorIiED2Ev	#
	nop	
# /usr/include/c++/13/bits/stl_vector.h:608: 				      _M_get_Tp_allocator());
	mov	rax, QWORD PTR -104[rbp]	# _5, this
	mov	rdi, rax	#, _5
	call	_ZNSt12_Vector_baseIiSaIiEE19_M_get_Tp_allocatorEv	#
	mov	r13, rax	# _6,
# /usr/include/c++/13/bits/stl_vector.h:606: 	  std::__uninitialized_copy_a(__x.begin(), __x.end(),
	mov	rax, QWORD PTR -104[rbp]	# tmp103, this
	mov	rbx, QWORD PTR [rax]	# _7, this_12(D)->D.188304._M_impl.D.187644._M_start
	mov	rax, QWORD PTR -112[rbp]	# tmp104, __x
	mov	rdi, rax	#, tmp104
	call	_ZNKSt6vectorIiSaIiEE3endEv	#
	mov	r12, rax	# D.230148,
# /usr/include/c++/13/bits/stl_vector.h:606: 	  std::__uninitialized_copy_a(__x.begin(), __x.end(),
	mov	rax, QWORD PTR -112[rbp]	# tmp105, __x
	mov	rdi, rax	#, tmp105
	call	_ZNKSt6vectorIiSaIiEE5beginEv	#
# /usr/include/c++/13/bits/stl_vector.h:606: 	  std::__uninitialized_copy_a(__x.begin(), __x.end(),
	mov	rcx, r13	#, _6
	mov	rdx, rbx	#, _7
	mov	rsi, r12	#, D.230148
	mov	rdi, rax	#, D.230149
.LEHB35:
	call	_ZSt22__uninitialized_copy_aIN9__gnu_cxx17__normal_iteratorIPKiSt6vectorIiSaIiEEEEPiiET0_T_SA_S9_RSaIT1_E	#
.LEHE35:
# /usr/include/c++/13/bits/stl_vector.h:605: 	this->_M_impl._M_finish =
	mov	rdx, QWORD PTR -104[rbp]	# tmp106, this
	mov	QWORD PTR 8[rdx], rax	# this_12(D)->D.188304._M_impl.D.187644._M_finish, _8
# /usr/include/c++/13/bits/stl_vector.h:609:       }
	nop	
	mov	rax, QWORD PTR -40[rbp]	# tmp111, D.230960
	sub	rax, QWORD PTR fs:40	# tmp111, MEM[(<address-space-1> long unsigned int *)40B]
	je	.L370	#,
	jmp	.L373	#
.L371:
	endbr64	
# /usr/include/c++/13/bits/allocator.h:184:       ~allocator() _GLIBCXX_NOTHROW { }
	mov	rbx, rax	# tmp108,
	lea	rax, -89[rbp]	# tmp107,
	mov	rdi, rax	#, tmp107
	call	_ZNSt15__new_allocatorIiED2Ev	#
	nop	
	mov	rax, rbx	# D.230958, tmp108
	mov	rdx, QWORD PTR -40[rbp]	# tmp112, D.230960
	sub	rdx, QWORD PTR fs:40	# tmp112, MEM[(<address-space-1> long unsigned int *)40B]
	je	.L367	#,
	call	__stack_chk_fail@PLT	#
.L367:
	mov	rdi, rax	#, D.230958
.LEHB36:
	call	_Unwind_Resume@PLT	#
.L372:
	endbr64	
# /usr/include/c++/13/bits/stl_vector.h:609:       }
	mov	rbx, rax	# tmp109,
	mov	rax, QWORD PTR -104[rbp]	# _9, this
	mov	rdi, rax	#, _9
	call	_ZNSt12_Vector_baseIiSaIiEED2Ev	#
	mov	rax, rbx	# D.230959, tmp109
	mov	rdx, QWORD PTR -40[rbp]	# tmp113, D.230960
	sub	rdx, QWORD PTR fs:40	# tmp113, MEM[(<address-space-1> long unsigned int *)40B]
	je	.L369	#,
	call	__stack_chk_fail@PLT	#
.L369:
	mov	rdi, rax	#, D.230959
	call	_Unwind_Resume@PLT	#
.LEHE36:
.L373:
	call	__stack_chk_fail@PLT	#
.L370:
	add	rsp, 88	#,
	pop	rbx	#
	pop	r12	#
	pop	r13	#
	pop	rbp	#
	.cfi_def_cfa 7, 8
	ret	
	.cfi_endproc
.LFE11731:
	.section	.gcc_except_table
.LLSDA11731:
	.byte	0xff
	.byte	0xff
	.byte	0x1
	.uleb128 .LLSDACSE11731-.LLSDACSB11731
.LLSDACSB11731:
	.uleb128 .LEHB34-.LFB11731
	.uleb128 .LEHE34-.LEHB34
	.uleb128 .L371-.LFB11731
	.uleb128 0
	.uleb128 .LEHB35-.LFB11731
	.uleb128 .LEHE35-.LEHB35
	.uleb128 .L372-.LFB11731
	.uleb128 0
	.uleb128 .LEHB36-.LFB11731
	.uleb128 .LEHE36-.LEHB36
	.uleb128 0
	.uleb128 0
.LLSDACSE11731:
	.section	.text._ZNSt6vectorIiSaIiEEC2ERKS1_,"axG",@progbits,_ZNSt6vectorIiSaIiEEC5ERKS1_,comdat
	.size	_ZNSt6vectorIiSaIiEEC2ERKS1_, .-_ZNSt6vectorIiSaIiEEC2ERKS1_
	.weak	_ZNSt6vectorIiSaIiEEC1ERKS1_
	.set	_ZNSt6vectorIiSaIiEEC1ERKS1_,_ZNSt6vectorIiSaIiEEC2ERKS1_
	.section	.text._ZSt7forwardIRKSt6vectorIbSaIbEEEOT_RNSt16remove_referenceIS5_E4typeE,"axG",@progbits,_ZSt7forwardIRKSt6vectorIbSaIbEEEOT_RNSt16remove_referenceIS5_E4typeE,comdat
	.weak	_ZSt7forwardIRKSt6vectorIbSaIbEEEOT_RNSt16remove_referenceIS5_E4typeE
	.type	_ZSt7forwardIRKSt6vectorIbSaIbEEEOT_RNSt16remove_referenceIS5_E4typeE, @function
_ZSt7forwardIRKSt6vectorIbSaIbEEEOT_RNSt16remove_referenceIS5_E4typeE:
.LFB11733:
	.cfi_startproc
	endbr64	
	push	rbp	#
	.cfi_def_cfa_offset 16
	.cfi_offset 6, -16
	mov	rbp, rsp	#,
	.cfi_def_cfa_register 6
	mov	QWORD PTR -8[rbp], rdi	# __t, __t
# /usr/include/c++/13/bits/move.h:71:     { return static_cast<_Tp&&>(__t); }
	mov	rax, QWORD PTR -8[rbp]	# _2, __t
# /usr/include/c++/13/bits/move.h:71:     { return static_cast<_Tp&&>(__t); }
	pop	rbp	#
	.cfi_def_cfa 7, 8
	ret	
	.cfi_endproc
.LFE11733:
