	.file	"Kosaraju.cpp"
	.text
	.weak	_ZSt19piecewise_construct
	.section	.rodata._ZSt19piecewise_construct,"aG",@progbits,_ZSt19piecewise_construct,comdat
	.type	_ZSt19piecewise_construct, @gnu_unique_object
	.size	_ZSt19piecewise_construct, 1
_ZSt19piecewise_construct:
	.zero	1
	.section	.text._ZnwmPv,"axG",@progbits,_ZnwmPv,comdat
	.weak	_ZnwmPv
	.type	_ZnwmPv, @function
_ZnwmPv:
.LFB471:
	.cfi_startproc
	endbr64
	pushq	%rbp
	.cfi_def_cfa_offset 16
	.cfi_offset 6, -16
	movq	%rsp, %rbp
	.cfi_def_cfa_register 6
	movq	%rdi, -8(%rbp)
	movq	%rsi, -16(%rbp)
	movq	-16(%rbp), %rax
	popq	%rbp
	.cfi_def_cfa 7, 8
	ret
	.cfi_endproc
.LFE471:
	.size	_ZnwmPv, .-_ZnwmPv
	.section	.text._ZdlPvS_,"axG",@progbits,_ZdlPvS_,comdat
	.weak	_ZdlPvS_
	.type	_ZdlPvS_, @function
_ZdlPvS_:
.LFB473:
	.cfi_startproc
	endbr64
	pushq	%rbp
	.cfi_def_cfa_offset 16
	.cfi_offset 6, -16
	movq	%rsp, %rbp
	.cfi_def_cfa_register 6
	movq	%rdi, -8(%rbp)
	movq	%rsi, -16(%rbp)
	nop
	popq	%rbp
	.cfi_def_cfa 7, 8
	ret
	.cfi_endproc
.LFE473:
	.size	_ZdlPvS_, .-_ZdlPvS_
	.section	.text._ZSt3minImERKT_S2_S2_,"axG",@progbits,_ZSt3minImERKT_S2_S2_,comdat
	.weak	_ZSt3minImERKT_S2_S2_
	.type	_ZSt3minImERKT_S2_S2_, @function
_ZSt3minImERKT_S2_S2_:
.LFB1923:
	.cfi_startproc
	endbr64
	pushq	%rbp
	.cfi_def_cfa_offset 16
	.cfi_offset 6, -16
	movq	%rsp, %rbp
	.cfi_def_cfa_register 6
	movq	%rdi, -8(%rbp)
	movq	%rsi, -16(%rbp)
	movq	-16(%rbp), %rax
	movq	(%rax), %rdx
	movq	-8(%rbp), %rax
	movq	(%rax), %rax
	cmpq	%rax, %rdx
	jnb	.L5
	movq	-16(%rbp), %rax
	jmp	.L6
.L5:
	movq	-8(%rbp), %rax
.L6:
	popq	%rbp
	.cfi_def_cfa 7, 8
	ret
	.cfi_endproc
.LFE1923:
	.size	_ZSt3minImERKT_S2_S2_, .-_ZSt3minImERKT_S2_S2_
	.section	.text._ZNSt14_Bit_referenceC2EPmm,"axG",@progbits,_ZNSt14_Bit_referenceC5EPmm,comdat
	.align 2
	.weak	_ZNSt14_Bit_referenceC2EPmm
	.type	_ZNSt14_Bit_referenceC2EPmm, @function
_ZNSt14_Bit_referenceC2EPmm:
.LFB2519:
	.cfi_startproc
	endbr64
	pushq	%rbp
	.cfi_def_cfa_offset 16
	.cfi_offset 6, -16
	movq	%rsp, %rbp
	.cfi_def_cfa_register 6
	movq	%rdi, -8(%rbp)
	movq	%rsi, -16(%rbp)
	movq	%rdx, -24(%rbp)
	movq	-8(%rbp), %rax
	movq	-16(%rbp), %rdx
	movq	%rdx, (%rax)
	movq	-8(%rbp), %rax
	movq	-24(%rbp), %rdx
	movq	%rdx, 8(%rax)
	nop
	popq	%rbp
	.cfi_def_cfa 7, 8
	ret
	.cfi_endproc
.LFE2519:
	.size	_ZNSt14_Bit_referenceC2EPmm, .-_ZNSt14_Bit_referenceC2EPmm
	.weak	_ZNSt14_Bit_referenceC1EPmm
	.set	_ZNSt14_Bit_referenceC1EPmm,_ZNSt14_Bit_referenceC2EPmm
	.section	.text._ZNKSt14_Bit_referencecvbEv,"axG",@progbits,_ZNKSt14_Bit_referencecvbEv,comdat
	.align 2
	.weak	_ZNKSt14_Bit_referencecvbEv
	.type	_ZNKSt14_Bit_referencecvbEv, @function
_ZNKSt14_Bit_referencecvbEv:
.LFB2524:
	.cfi_startproc
	endbr64
	pushq	%rbp
	.cfi_def_cfa_offset 16
	.cfi_offset 6, -16
	movq	%rsp, %rbp
	.cfi_def_cfa_register 6
	movq	%rdi, -8(%rbp)
	movq	-8(%rbp), %rax
	movq	(%rax), %rax
	movq	(%rax), %rdx
	movq	-8(%rbp), %rax
	movq	8(%rax), %rax
	andq	%rdx, %rax
	testq	%rax, %rax
	setne	%al
	popq	%rbp
	.cfi_def_cfa 7, 8
	ret
	.cfi_endproc
.LFE2524:
	.size	_ZNKSt14_Bit_referencecvbEv, .-_ZNKSt14_Bit_referencecvbEv
	.section	.text._ZNSt14_Bit_referenceaSEb,"axG",@progbits,_ZNSt14_Bit_referenceaSEb,comdat
	.align 2
	.weak	_ZNSt14_Bit_referenceaSEb
	.type	_ZNSt14_Bit_referenceaSEb, @function
_ZNSt14_Bit_referenceaSEb:
.LFB2525:
	.cfi_startproc
	endbr64
	pushq	%rbp
	.cfi_def_cfa_offset 16
	.cfi_offset 6, -16
	movq	%rsp, %rbp
	.cfi_def_cfa_register 6
	movq	%rdi, -8(%rbp)
	movl	%esi, %eax
	movb	%al, -12(%rbp)
	cmpb	$0, -12(%rbp)
	je	.L11
	movq	-8(%rbp), %rax
	movq	(%rax), %rax
	movq	(%rax), %rcx
	movq	-8(%rbp), %rax
	movq	8(%rax), %rdx
	movq	-8(%rbp), %rax
	movq	(%rax), %rax
	orq	%rcx, %rdx
	movq	%rdx, (%rax)
	jmp	.L12
.L11:
	movq	-8(%rbp), %rax
	movq	(%rax), %rax
	movq	(%rax), %rdx
	movq	-8(%rbp), %rax
	movq	8(%rax), %rax
	notq	%rax
	movq	%rax, %rcx
	movq	-8(%rbp), %rax
	movq	(%rax), %rax
	andq	%rcx, %rdx
	movq	%rdx, (%rax)
.L12:
	movq	-8(%rbp), %rax
	popq	%rbp
	.cfi_def_cfa 7, 8
	ret
	.cfi_endproc
.LFE2525:
	.size	_ZNSt14_Bit_referenceaSEb, .-_ZNSt14_Bit_referenceaSEb
	.section	.text._ZNSt18_Bit_iterator_baseC2EPmj,"axG",@progbits,_ZNSt18_Bit_iterator_baseC5EPmj,comdat
	.align 2
	.weak	_ZNSt18_Bit_iterator_baseC2EPmj
	.type	_ZNSt18_Bit_iterator_baseC2EPmj, @function
_ZNSt18_Bit_iterator_baseC2EPmj:
.LFB2535:
	.cfi_startproc
	endbr64
	pushq	%rbp
	.cfi_def_cfa_offset 16
	.cfi_offset 6, -16
	movq	%rsp, %rbp
	.cfi_def_cfa_register 6
	movq	%rdi, -8(%rbp)
	movq	%rsi, -16(%rbp)
	movl	%edx, -20(%rbp)
	movq	-8(%rbp), %rax
	movq	-16(%rbp), %rdx
	movq	%rdx, (%rax)
	movq	-8(%rbp), %rax
	movl	-20(%rbp), %edx
	movl	%edx, 8(%rax)
	nop
	popq	%rbp
	.cfi_def_cfa 7, 8
	ret
	.cfi_endproc
.LFE2535:
	.size	_ZNSt18_Bit_iterator_baseC2EPmj, .-_ZNSt18_Bit_iterator_baseC2EPmj
	.weak	_ZNSt18_Bit_iterator_baseC1EPmj
	.set	_ZNSt18_Bit_iterator_baseC1EPmj,_ZNSt18_Bit_iterator_baseC2EPmj
	.section	.text._ZNSt18_Bit_iterator_base7_M_incrEl,"axG",@progbits,_ZNSt18_Bit_iterator_base7_M_incrEl,comdat
	.align 2
	.weak	_ZNSt18_Bit_iterator_base7_M_incrEl
	.type	_ZNSt18_Bit_iterator_base7_M_incrEl, @function
_ZNSt18_Bit_iterator_base7_M_incrEl:
.LFB2539:
	.cfi_startproc
	endbr64
	pushq	%rbp
	.cfi_def_cfa_offset 16
	.cfi_offset 6, -16
	movq	%rsp, %rbp
	.cfi_def_cfa_register 6
	movq	%rdi, -40(%rbp)
	movq	%rsi, -48(%rbp)
	movq	-40(%rbp), %rax
	movq	%rax, -8(%rbp)
	movq	-8(%rbp), %rax
	movl	8(%rax), %eax
	movl	%eax, -20(%rbp)
	cmpl	$63, -20(%rbp)
	nop
	movq	-40(%rbp), %rax
	movl	8(%rax), %eax
	movl	%eax, %edx
	movq	-48(%rbp), %rax
	addq	%rdx, %rax
	movq	%rax, -16(%rbp)
	movq	-40(%rbp), %rax
	movq	(%rax), %rdx
	movq	-16(%rbp), %rax
	leaq	63(%rax), %rcx
	testq	%rax, %rax
	cmovs	%rcx, %rax
	sarq	$6, %rax
	salq	$3, %rax
	addq	%rax, %rdx
	movq	-40(%rbp), %rax
	movq	%rdx, (%rax)
	movq	-16(%rbp), %rdx
	movq	%rdx, %rax
	sarq	$63, %rax
	shrq	$58, %rax
	addq	%rax, %rdx
	andl	$63, %edx
	subq	%rax, %rdx
	movq	%rdx, -16(%rbp)
	cmpq	$0, -16(%rbp)
	jns	.L17
	addq	$64, -16(%rbp)
	movq	-40(%rbp), %rax
	movq	(%rax), %rax
	leaq	-8(%rax), %rdx
	movq	-40(%rbp), %rax
	movq	%rdx, (%rax)
.L17:
	movq	-16(%rbp), %rax
	movl	%eax, %edx
	movq	-40(%rbp), %rax
	movl	%edx, 8(%rax)
	nop
	popq	%rbp
	.cfi_def_cfa 7, 8
	ret
	.cfi_endproc
.LFE2539:
	.size	_ZNSt18_Bit_iterator_base7_M_incrEl, .-_ZNSt18_Bit_iterator_base7_M_incrEl
	.section	.text._ZNSt13_Bit_iteratorC2Ev,"axG",@progbits,_ZNSt13_Bit_iteratorC5Ev,comdat
	.align 2
	.weak	_ZNSt13_Bit_iteratorC2Ev
	.type	_ZNSt13_Bit_iteratorC2Ev, @function
_ZNSt13_Bit_iteratorC2Ev:
.LFB2548:
	.cfi_startproc
	endbr64
	pushq	%rbp
	.cfi_def_cfa_offset 16
	.cfi_offset 6, -16
	movq	%rsp, %rbp
	.cfi_def_cfa_register 6
	subq	$16, %rsp
	movq	%rdi, -8(%rbp)
	movq	-8(%rbp), %rax
	movl	$0, %edx
	movl	$0, %esi
	movq	%rax, %rdi
	call	_ZNSt18_Bit_iterator_baseC2EPmj
	nop
	leave
	.cfi_def_cfa 7, 8
	ret
	.cfi_endproc
.LFE2548:
	.size	_ZNSt13_Bit_iteratorC2Ev, .-_ZNSt13_Bit_iteratorC2Ev
	.weak	_ZNSt13_Bit_iteratorC1Ev
	.set	_ZNSt13_Bit_iteratorC1Ev,_ZNSt13_Bit_iteratorC2Ev
	.section	.text._ZNSt13_Bit_iteratorC2EPmj,"axG",@progbits,_ZNSt13_Bit_iteratorC5EPmj,comdat
	.align 2
	.weak	_ZNSt13_Bit_iteratorC2EPmj
	.type	_ZNSt13_Bit_iteratorC2EPmj, @function
_ZNSt13_Bit_iteratorC2EPmj:
.LFB2551:
	.cfi_startproc
	endbr64
	pushq	%rbp
	.cfi_def_cfa_offset 16
	.cfi_offset 6, -16
	movq	%rsp, %rbp
	.cfi_def_cfa_register 6
	subq	$32, %rsp
	movq	%rdi, -8(%rbp)
	movq	%rsi, -16(%rbp)
	movl	%edx, -20(%rbp)
	movq	-8(%rbp), %rax
	movl	-20(%rbp), %edx
	movq	-16(%rbp), %rcx
	movq	%rcx, %rsi
	movq	%rax, %rdi
	call	_ZNSt18_Bit_iterator_baseC2EPmj
	nop
	leave
	.cfi_def_cfa 7, 8
	ret
	.cfi_endproc
.LFE2551:
	.size	_ZNSt13_Bit_iteratorC2EPmj, .-_ZNSt13_Bit_iteratorC2EPmj
	.weak	_ZNSt13_Bit_iteratorC1EPmj
	.set	_ZNSt13_Bit_iteratorC1EPmj,_ZNSt13_Bit_iteratorC2EPmj
	.section	.text._ZNKSt13_Bit_iteratordeEv,"axG",@progbits,_ZNKSt13_Bit_iteratordeEv,comdat
	.align 2
	.weak	_ZNKSt13_Bit_iteratordeEv
	.type	_ZNKSt13_Bit_iteratordeEv, @function
_ZNKSt13_Bit_iteratordeEv:
.LFB2554:
	.cfi_startproc
	endbr64
	pushq	%rbp
	.cfi_def_cfa_offset 16
	.cfi_offset 6, -16
	movq	%rsp, %rbp
	.cfi_def_cfa_register 6
	subq	$64, %rsp
	movq	%rdi, -56(%rbp)
	movq	%fs:40, %rax
	movq	%rax, -8(%rbp)
	xorl	%eax, %eax
	movq	-56(%rbp), %rax
	movq	%rax, -40(%rbp)
	movq	-40(%rbp), %rax
	movl	8(%rax), %eax
	movl	%eax, -44(%rbp)
	cmpl	$63, -44(%rbp)
	nop
	movq	-56(%rbp), %rax
	movl	8(%rax), %eax
	movl	$1, %edx
	movl	%eax, %ecx
	salq	%cl, %rdx
	movq	-56(%rbp), %rax
	movq	(%rax), %rcx
	leaq	-32(%rbp), %rax
	movq	%rcx, %rsi
	movq	%rax, %rdi
	call	_ZNSt14_Bit_referenceC1EPmm
	movq	-32(%rbp), %rax
	movq	-24(%rbp), %rdx
	movq	-8(%rbp), %rcx
	subq	%fs:40, %rcx
	je	.L24
	call	__stack_chk_fail@PLT
.L24:
	leave
	.cfi_def_cfa 7, 8
	ret
	.cfi_endproc
.LFE2554:
	.size	_ZNKSt13_Bit_iteratordeEv, .-_ZNKSt13_Bit_iteratordeEv
	.section	.text._ZNSt13_Bit_iteratorpLEl,"axG",@progbits,_ZNSt13_Bit_iteratorpLEl,comdat
	.align 2
	.weak	_ZNSt13_Bit_iteratorpLEl
	.type	_ZNSt13_Bit_iteratorpLEl, @function
_ZNSt13_Bit_iteratorpLEl:
.LFB2559:
	.cfi_startproc
	endbr64
	pushq	%rbp
	.cfi_def_cfa_offset 16
	.cfi_offset 6, -16
	movq	%rsp, %rbp
	.cfi_def_cfa_register 6
	subq	$16, %rsp
	movq	%rdi, -8(%rbp)
	movq	%rsi, -16(%rbp)
	movq	-8(%rbp), %rax
	movq	-16(%rbp), %rdx
	movq	%rdx, %rsi
	movq	%rax, %rdi
	call	_ZNSt18_Bit_iterator_base7_M_incrEl
	movq	-8(%rbp), %rax
	leave
	.cfi_def_cfa 7, 8
	ret
	.cfi_endproc
.LFE2559:
	.size	_ZNSt13_Bit_iteratorpLEl, .-_ZNSt13_Bit_iteratorpLEl
	.section	.text._ZNKSt13_Bit_iteratorixEl,"axG",@progbits,_ZNKSt13_Bit_iteratorixEl,comdat
	.align 2
	.weak	_ZNKSt13_Bit_iteratorixEl
	.type	_ZNKSt13_Bit_iteratorixEl, @function
_ZNKSt13_Bit_iteratorixEl:
.LFB2561:
	.cfi_startproc
	endbr64
	pushq	%rbp
	.cfi_def_cfa_offset 16
	.cfi_offset 6, -16
	movq	%rsp, %rbp
	.cfi_def_cfa_register 6
	subq	$48, %rsp
	movq	%rdi, -40(%rbp)
	movq	%rsi, -48(%rbp)
	movq	%fs:40, %rax
	movq	%rax, -8(%rbp)
	xorl	%eax, %eax
	movq	-48(%rbp), %rdx
	movq	-40(%rbp), %rax
	movq	%rdx, %rsi
	movq	%rax, %rdi
	call	_ZStplRKSt13_Bit_iteratorl
	movq	%rax, -32(%rbp)
	movq	%rdx, -24(%rbp)
	leaq	-32(%rbp), %rax
	movq	%rax, %rdi
	call	_ZNKSt13_Bit_iteratordeEv
	movq	-8(%rbp), %rcx
	subq	%fs:40, %rcx
	je	.L30
	call	__stack_chk_fail@PLT
.L30:
	leave
	.cfi_def_cfa 7, 8
	ret
	.cfi_endproc
.LFE2561:
	.size	_ZNKSt13_Bit_iteratorixEl, .-_ZNKSt13_Bit_iteratorixEl
	.section	.text._ZStplRKSt13_Bit_iteratorl,"axG",@progbits,_ZStplRKSt13_Bit_iteratorl,comdat
	.weak	_ZStplRKSt13_Bit_iteratorl
	.type	_ZStplRKSt13_Bit_iteratorl, @function
_ZStplRKSt13_Bit_iteratorl:
.LFB2562:
	.cfi_startproc
	endbr64
	pushq	%rbp
	.cfi_def_cfa_offset 16
	.cfi_offset 6, -16
	movq	%rsp, %rbp
	.cfi_def_cfa_register 6
	subq	$80, %rsp
	movq	%rdi, -56(%rbp)
	movq	%rsi, -64(%rbp)
	movq	%fs:40, %rax
	movq	%rax, -8(%rbp)
	xorl	%eax, %eax
	movq	-56(%rbp), %rax
	movq	8(%rax), %rdx
	movq	(%rax), %rax
	movq	%rax, -48(%rbp)
	movq	%rdx, -40(%rbp)
	movq	-64(%rbp), %rdx
	leaq	-48(%rbp), %rax
	movq	%rdx, %rsi
	movq	%rax, %rdi
	call	_ZNSt13_Bit_iteratorpLEl
	movq	-48(%rbp), %rax
	movq	-40(%rbp), %rdx
	movq	%rax, -32(%rbp)
	movq	%rdx, -24(%rbp)
	movq	-32(%rbp), %rax
	movq	-24(%rbp), %rdx
	movq	-8(%rbp), %rcx
	subq	%fs:40, %rcx
	je	.L33
	call	__stack_chk_fail@PLT
.L33:
	leave
	.cfi_def_cfa 7, 8
	ret
	.cfi_endproc
.LFE2562:
	.size	_ZStplRKSt13_Bit_iteratorl, .-_ZStplRKSt13_Bit_iteratorl
	.section	.text._ZSt16__fill_bvector_nPmmb,"axG",@progbits,_ZSt16__fill_bvector_nPmmb,comdat
	.weak	_ZSt16__fill_bvector_nPmmb
	.type	_ZSt16__fill_bvector_nPmmb, @function
_ZSt16__fill_bvector_nPmmb:
.LFB2679:
	.cfi_startproc
	endbr64
	pushq	%rbp
	.cfi_def_cfa_offset 16
	.cfi_offset 6, -16
	movq	%rsp, %rbp
	.cfi_def_cfa_register 6
	subq	$32, %rsp
	movq	%rdi, -8(%rbp)
	movq	%rsi, -16(%rbp)
	movl	%edx, %eax
	movb	%al, -20(%rbp)
	movq	-16(%rbp), %rax
	leaq	0(,%rax,8), %rdx
	cmpb	$0, -20(%rbp)
	je	.L35
	movl	$-1, %ecx
	jmp	.L36
.L35:
	movl	$0, %ecx
.L36:
	movq	-8(%rbp), %rax
	movl	%ecx, %esi
	movq	%rax, %rdi
	call	memset@PLT
	nop
	leave
	.cfi_def_cfa 7, 8
	ret
	.cfi_endproc
.LFE2679:
	.size	_ZSt16__fill_bvector_nPmmb, .-_ZSt16__fill_bvector_nPmmb
	.section	.text._ZSt16__deque_buf_sizem,"axG",@progbits,_ZSt16__deque_buf_sizem,comdat
	.weak	_ZSt16__deque_buf_sizem
	.type	_ZSt16__deque_buf_sizem, @function
_ZSt16__deque_buf_sizem:
.LFB5435:
	.cfi_startproc
	endbr64
	pushq	%rbp
	.cfi_def_cfa_offset 16
	.cfi_offset 6, -16
	movq	%rsp, %rbp
	.cfi_def_cfa_register 6
	movq	%rdi, -8(%rbp)
	cmpq	$511, -8(%rbp)
	ja	.L38
	movl	$512, %eax
	movl	$0, %edx
	divq	-8(%rbp)
	jmp	.L40
.L38:
	movl	$1, %eax
.L40:
	popq	%rbp
	.cfi_def_cfa 7, 8
	ret
	.cfi_endproc
.LFE5435:
	.size	_ZSt16__deque_buf_sizem, .-_ZSt16__deque_buf_sizem
#APP
	.globl _ZSt21ios_base_library_initv
#NO_APP
	.section	.text._ZNSt15_Rb_tree_headerC2Ev,"axG",@progbits,_ZNSt15_Rb_tree_headerC5Ev,comdat
	.align 2
	.weak	_ZNSt15_Rb_tree_headerC2Ev
	.type	_ZNSt15_Rb_tree_headerC2Ev, @function
_ZNSt15_Rb_tree_headerC2Ev:
.LFB6113:
	.cfi_startproc
	endbr64
	pushq	%rbp
	.cfi_def_cfa_offset 16
	.cfi_offset 6, -16
	movq	%rsp, %rbp
	.cfi_def_cfa_register 6
	subq	$16, %rsp
	movq	%rdi, -8(%rbp)
	movq	-8(%rbp), %rax
	movl	$0, (%rax)
	movq	-8(%rbp), %rax
	movq	%rax, %rdi
	call	_ZNSt15_Rb_tree_header8_M_resetEv
	nop
	leave
	.cfi_def_cfa 7, 8
	ret
	.cfi_endproc
.LFE6113:
	.size	_ZNSt15_Rb_tree_headerC2Ev, .-_ZNSt15_Rb_tree_headerC2Ev
	.weak	_ZNSt15_Rb_tree_headerC1Ev
	.set	_ZNSt15_Rb_tree_headerC1Ev,_ZNSt15_Rb_tree_headerC2Ev
	.section	.text._ZNSt15_Rb_tree_header8_M_resetEv,"axG",@progbits,_ZNSt15_Rb_tree_header8_M_resetEv,comdat
	.align 2
	.weak	_ZNSt15_Rb_tree_header8_M_resetEv
	.type	_ZNSt15_Rb_tree_header8_M_resetEv, @function
_ZNSt15_Rb_tree_header8_M_resetEv:
.LFB6119:
	.cfi_startproc
	endbr64
	pushq	%rbp
	.cfi_def_cfa_offset 16
	.cfi_offset 6, -16
	movq	%rsp, %rbp
	.cfi_def_cfa_register 6
	movq	%rdi, -8(%rbp)
	movq	-8(%rbp), %rax
	movq	$0, 8(%rax)
	movq	-8(%rbp), %rdx
	movq	-8(%rbp), %rax
	movq	%rdx, 16(%rax)
	movq	-8(%rbp), %rdx
	movq	-8(%rbp), %rax
	movq	%rdx, 24(%rax)
	movq	-8(%rbp), %rax
	movq	$0, 32(%rax)
	nop
	popq	%rbp
	.cfi_def_cfa 7, 8
	ret
	.cfi_endproc
.LFE6119:
	.size	_ZNSt15_Rb_tree_header8_M_resetEv, .-_ZNSt15_Rb_tree_header8_M_resetEv
	.globl	n
	.bss
	.align 4
	.type	n, @object
	.size	n, 4
n:
	.zero	4
	.globl	m
	.align 4
	.type	m, @object
	.size	m, 4
m:
	.zero	4
	.section	.text._ZNSt12_Vector_baseIiSaIiEE12_Vector_implD2Ev,"axG",@progbits,_ZNSt12_Vector_baseIiSaIiEE12_Vector_implD5Ev,comdat
	.align 2
	.weak	_ZNSt12_Vector_baseIiSaIiEE12_Vector_implD2Ev
	.type	_ZNSt12_Vector_baseIiSaIiEE12_Vector_implD2Ev, @function
_ZNSt12_Vector_baseIiSaIiEE12_Vector_implD2Ev:
.LFB9773:
	.cfi_startproc
	endbr64
	pushq	%rbp
	.cfi_def_cfa_offset 16
	.cfi_offset 6, -16
	movq	%rsp, %rbp
	.cfi_def_cfa_register 6
	subq	$32, %rsp
	movq	%rdi, -24(%rbp)
	movq	-24(%rbp), %rax
	movq	%rax, -8(%rbp)
	movq	-8(%rbp), %rax
	movq	%rax, %rdi
	call	_ZNSt15__new_allocatorIiED2Ev
	nop
	nop
	leave
	.cfi_def_cfa 7, 8
	ret
	.cfi_endproc
.LFE9773:
	.size	_ZNSt12_Vector_baseIiSaIiEE12_Vector_implD2Ev, .-_ZNSt12_Vector_baseIiSaIiEE12_Vector_implD2Ev
	.weak	_ZNSt12_Vector_baseIiSaIiEE12_Vector_implD1Ev
	.set	_ZNSt12_Vector_baseIiSaIiEE12_Vector_implD1Ev,_ZNSt12_Vector_baseIiSaIiEE12_Vector_implD2Ev
	.section	.text._ZNSt12_Vector_baseIiSaIiEEC2Ev,"axG",@progbits,_ZNSt12_Vector_baseIiSaIiEEC5Ev,comdat
	.align 2
	.weak	_ZNSt12_Vector_baseIiSaIiEEC2Ev
	.type	_ZNSt12_Vector_baseIiSaIiEEC2Ev, @function
_ZNSt12_Vector_baseIiSaIiEEC2Ev:
.LFB9775:
	.cfi_startproc
	endbr64
	pushq	%rbp
	.cfi_def_cfa_offset 16
	.cfi_offset 6, -16
	movq	%rsp, %rbp
	.cfi_def_cfa_register 6
	subq	$16, %rsp
	movq	%rdi, -8(%rbp)
	movq	-8(%rbp), %rax
	movq	%rax, %rdi
	call	_ZNSt12_Vector_baseIiSaIiEE12_Vector_implC1Ev
	nop
	leave
	.cfi_def_cfa 7, 8
	ret
	.cfi_endproc
.LFE9775:
	.size	_ZNSt12_Vector_baseIiSaIiEEC2Ev, .-_ZNSt12_Vector_baseIiSaIiEEC2Ev
	.weak	_ZNSt12_Vector_baseIiSaIiEEC1Ev
	.set	_ZNSt12_Vector_baseIiSaIiEEC1Ev,_ZNSt12_Vector_baseIiSaIiEEC2Ev
	.section	.text._ZNSt6vectorIiSaIiEEC2Ev,"axG",@progbits,_ZNSt6vectorIiSaIiEEC5Ev,comdat
	.align 2
	.weak	_ZNSt6vectorIiSaIiEEC2Ev
	.type	_ZNSt6vectorIiSaIiEEC2Ev, @function
_ZNSt6vectorIiSaIiEEC2Ev:
.LFB9777:
	.cfi_startproc
	endbr64
	pushq	%rbp
	.cfi_def_cfa_offset 16
	.cfi_offset 6, -16
	movq	%rsp, %rbp
	.cfi_def_cfa_register 6
	subq	$16, %rsp
	movq	%rdi, -8(%rbp)
	movq	-8(%rbp), %rax
	movq	%rax, %rdi
	call	_ZNSt12_Vector_baseIiSaIiEEC2Ev
	nop
	leave
	.cfi_def_cfa 7, 8
	ret
	.cfi_endproc
.LFE9777:
	.size	_ZNSt6vectorIiSaIiEEC2Ev, .-_ZNSt6vectorIiSaIiEEC2Ev
	.weak	_ZNSt6vectorIiSaIiEEC1Ev
	.set	_ZNSt6vectorIiSaIiEEC1Ev,_ZNSt6vectorIiSaIiEEC2Ev
	.globl	adj
	.bss
	.align 16
	.type	adj, @object
	.size	adj, 24
adj:
	.zero	24
	.globl	rev_adj
	.align 16
	.type	rev_adj, @object
	.size	rev_adj, 24
rev_adj:
	.zero	24
	.globl	Stack
	.align 32
	.type	Stack, @object
	.size	Stack, 80
Stack:
	.zero	80
	.globl	visited
	.align 32
	.type	visited, @object
	.size	visited, 40
visited:
	.zero	40
	.globl	cntComponents
	.align 4
	.type	cntComponents, @object
	.size	cntComponents, 4
cntComponents:
	.zero	4
	.section	.text._ZNSt8_Rb_treeIiSt4pairIKiSt6vectorIiSaIiEEESt10_Select1stIS5_ESt4lessIiESaIS5_EE13_Rb_tree_implIS9_Lb1EED2Ev,"axG",@progbits,_ZNSt8_Rb_treeIiSt4pairIKiSt6vectorIiSaIiEEESt10_Select1stIS5_ESt4lessIiESaIS5_EE13_Rb_tree_implIS9_Lb1EED5Ev,comdat
	.align 2
	.weak	_ZNSt8_Rb_treeIiSt4pairIKiSt6vectorIiSaIiEEESt10_Select1stIS5_ESt4lessIiESaIS5_EE13_Rb_tree_implIS9_Lb1EED2Ev
	.type	_ZNSt8_Rb_treeIiSt4pairIKiSt6vectorIiSaIiEEESt10_Select1stIS5_ESt4lessIiESaIS5_EE13_Rb_tree_implIS9_Lb1EED2Ev, @function
_ZNSt8_Rb_treeIiSt4pairIKiSt6vectorIiSaIiEEESt10_Select1stIS5_ESt4lessIiESaIS5_EE13_Rb_tree_implIS9_Lb1EED2Ev:
.LFB9786:
	.cfi_startproc
	endbr64
	pushq	%rbp
	.cfi_def_cfa_offset 16
	.cfi_offset 6, -16
	movq	%rsp, %rbp
	.cfi_def_cfa_register 6
	subq	$32, %rsp
	movq	%rdi, -24(%rbp)
	movq	-24(%rbp), %rax
	movq	%rax, -8(%rbp)
	movq	-8(%rbp), %rax
	movq	%rax, %rdi
	call	_ZNSt15__new_allocatorISt13_Rb_tree_nodeISt4pairIKiSt6vectorIiSaIiEEEEED2Ev
	nop
	nop
	leave
	.cfi_def_cfa 7, 8
	ret
	.cfi_endproc
.LFE9786:
	.size	_ZNSt8_Rb_treeIiSt4pairIKiSt6vectorIiSaIiEEESt10_Select1stIS5_ESt4lessIiESaIS5_EE13_Rb_tree_implIS9_Lb1EED2Ev, .-_ZNSt8_Rb_treeIiSt4pairIKiSt6vectorIiSaIiEEESt10_Select1stIS5_ESt4lessIiESaIS5_EE13_Rb_tree_implIS9_Lb1EED2Ev
	.weak	_ZNSt8_Rb_treeIiSt4pairIKiSt6vectorIiSaIiEEESt10_Select1stIS5_ESt4lessIiESaIS5_EE13_Rb_tree_implIS9_Lb1EED1Ev
	.set	_ZNSt8_Rb_treeIiSt4pairIKiSt6vectorIiSaIiEEESt10_Select1stIS5_ESt4lessIiESaIS5_EE13_Rb_tree_implIS9_Lb1EED1Ev,_ZNSt8_Rb_treeIiSt4pairIKiSt6vectorIiSaIiEEESt10_Select1stIS5_ESt4lessIiESaIS5_EE13_Rb_tree_implIS9_Lb1EED2Ev
	.section	.text._ZNSt8_Rb_treeIiSt4pairIKiSt6vectorIiSaIiEEESt10_Select1stIS5_ESt4lessIiESaIS5_EEC2Ev,"axG",@progbits,_ZNSt8_Rb_treeIiSt4pairIKiSt6vectorIiSaIiEEESt10_Select1stIS5_ESt4lessIiESaIS5_EEC5Ev,comdat
	.align 2
	.weak	_ZNSt8_Rb_treeIiSt4pairIKiSt6vectorIiSaIiEEESt10_Select1stIS5_ESt4lessIiESaIS5_EEC2Ev
	.type	_ZNSt8_Rb_treeIiSt4pairIKiSt6vectorIiSaIiEEESt10_Select1stIS5_ESt4lessIiESaIS5_EEC2Ev, @function
_ZNSt8_Rb_treeIiSt4pairIKiSt6vectorIiSaIiEEESt10_Select1stIS5_ESt4lessIiESaIS5_EEC2Ev:
.LFB9788:
	.cfi_startproc
	endbr64
	pushq	%rbp
	.cfi_def_cfa_offset 16
	.cfi_offset 6, -16
	movq	%rsp, %rbp
	.cfi_def_cfa_register 6
	subq	$16, %rsp
	movq	%rdi, -8(%rbp)
	movq	-8(%rbp), %rax
	movq	%rax, %rdi
	call	_ZNSt8_Rb_treeIiSt4pairIKiSt6vectorIiSaIiEEESt10_Select1stIS5_ESt4lessIiESaIS5_EE13_Rb_tree_implIS9_Lb1EEC1Ev
	nop
	leave
	.cfi_def_cfa 7, 8
	ret
	.cfi_endproc
.LFE9788:
	.size	_ZNSt8_Rb_treeIiSt4pairIKiSt6vectorIiSaIiEEESt10_Select1stIS5_ESt4lessIiESaIS5_EEC2Ev, .-_ZNSt8_Rb_treeIiSt4pairIKiSt6vectorIiSaIiEEESt10_Select1stIS5_ESt4lessIiESaIS5_EEC2Ev
	.weak	_ZNSt8_Rb_treeIiSt4pairIKiSt6vectorIiSaIiEEESt10_Select1stIS5_ESt4lessIiESaIS5_EEC1Ev
	.set	_ZNSt8_Rb_treeIiSt4pairIKiSt6vectorIiSaIiEEESt10_Select1stIS5_ESt4lessIiESaIS5_EEC1Ev,_ZNSt8_Rb_treeIiSt4pairIKiSt6vectorIiSaIiEEESt10_Select1stIS5_ESt4lessIiESaIS5_EEC2Ev
	.section	.text._ZNSt3mapIiSt6vectorIiSaIiEESt4lessIiESaISt4pairIKiS2_EEEC2Ev,"axG",@progbits,_ZNSt3mapIiSt6vectorIiSaIiEESt4lessIiESaISt4pairIKiS2_EEEC5Ev,comdat
	.align 2
	.weak	_ZNSt3mapIiSt6vectorIiSaIiEESt4lessIiESaISt4pairIKiS2_EEEC2Ev
	.type	_ZNSt3mapIiSt6vectorIiSaIiEESt4lessIiESaISt4pairIKiS2_EEEC2Ev, @function
_ZNSt3mapIiSt6vectorIiSaIiEESt4lessIiESaISt4pairIKiS2_EEEC2Ev:
.LFB9790:
	.cfi_startproc
	endbr64
	pushq	%rbp
	.cfi_def_cfa_offset 16
	.cfi_offset 6, -16
	movq	%rsp, %rbp
	.cfi_def_cfa_register 6
	subq	$16, %rsp
	movq	%rdi, -8(%rbp)
	movq	-8(%rbp), %rax
	movq	%rax, %rdi
	call	_ZNSt8_Rb_treeIiSt4pairIKiSt6vectorIiSaIiEEESt10_Select1stIS5_ESt4lessIiESaIS5_EEC1Ev
	nop
	leave
	.cfi_def_cfa 7, 8
	ret
	.cfi_endproc
.LFE9790:
	.size	_ZNSt3mapIiSt6vectorIiSaIiEESt4lessIiESaISt4pairIKiS2_EEEC2Ev, .-_ZNSt3mapIiSt6vectorIiSaIiEESt4lessIiESaISt4pairIKiS2_EEEC2Ev
	.weak	_ZNSt3mapIiSt6vectorIiSaIiEESt4lessIiESaISt4pairIKiS2_EEEC1Ev
	.set	_ZNSt3mapIiSt6vectorIiSaIiEESt4lessIiESaISt4pairIKiS2_EEEC1Ev,_ZNSt3mapIiSt6vectorIiSaIiEESt4lessIiESaISt4pairIKiS2_EEEC2Ev
	.globl	total
	.bss
	.align 32
	.type	total, @object
	.size	total, 48
total:
	.zero	48
	.text
	.globl	_Z5dfs_1i
	.type	_Z5dfs_1i, @function
_Z5dfs_1i:
.LFB9792:
	.cfi_startproc
	endbr64
	pushq	%rbp
	.cfi_def_cfa_offset 16
	.cfi_offset 6, -16
	movq	%rsp, %rbp
	.cfi_def_cfa_register 6
	subq	$80, %rsp
	movl	%edi, -68(%rbp)
	movq	%fs:40, %rax
	movq	%rax, -8(%rbp)
	xorl	%eax, %eax
	movl	-68(%rbp), %eax
	cltq
	movq	%rax, %rsi
	leaq	visited(%rip), %rax
	movq	%rax, %rdi
	call	_ZNSt6vectorIbSaIbEEixEm
	movq	%rax, -32(%rbp)
	movq	%rdx, -24(%rbp)
	leaq	-32(%rbp), %rax
	movl	$1, %esi
	movq	%rax, %rdi
	call	_ZNSt14_Bit_referenceaSEb
	movl	-68(%rbp), %eax
	cltq
	movq	%rax, %rsi
	leaq	adj(%rip), %rax
	movq	%rax, %rdi
	call	_ZNSt6vectorIS_IiSaIiEESaIS1_EEixEm
	movq	%rax, -48(%rbp)
	movq	-48(%rbp), %rax
	movq	%rax, %rdi
	call	_ZNSt6vectorIiSaIiEE5beginEv
	movq	%rax, -64(%rbp)
	movq	-48(%rbp), %rax
	movq	%rax, %rdi
	call	_ZNSt6vectorIiSaIiEE3endEv
	movq	%rax, -56(%rbp)
	jmp	.L50
.L52:
	leaq	-64(%rbp), %rax
	movq	%rax, %rdi
	call	_ZNK9__gnu_cxx17__normal_iteratorIPiSt6vectorIiSaIiEEEdeEv
	movq	%rax, -40(%rbp)
	movq	-40(%rbp), %rax
	movl	(%rax), %eax
	cltq
	movq	%rax, %rsi
	leaq	visited(%rip), %rax
	movq	%rax, %rdi
	call	_ZNSt6vectorIbSaIbEEixEm
	movq	%rax, -32(%rbp)
	movq	%rdx, -24(%rbp)
	leaq	-32(%rbp), %rax
	movq	%rax, %rdi
	call	_ZNKSt14_Bit_referencecvbEv
	xorl	$1, %eax
	testb	%al, %al
	je	.L51
	movq	-40(%rbp), %rax
	movl	(%rax), %eax
	movl	%eax, %edi
	call	_Z5dfs_1i
.L51:
	leaq	-64(%rbp), %rax
	movq	%rax, %rdi
	call	_ZN9__gnu_cxx17__normal_iteratorIPiSt6vectorIiSaIiEEEppEv
.L50:
	leaq	-56(%rbp), %rdx
	leaq	-64(%rbp), %rax
	movq	%rdx, %rsi
	movq	%rax, %rdi
	call	_ZN9__gnu_cxxneIPiSt6vectorIiSaIiEEEEbRKNS_17__normal_iteratorIT_T0_EESA_
	testb	%al, %al
	jne	.L52
	leaq	-68(%rbp), %rax
	movq	%rax, %rsi
	leaq	Stack(%rip), %rax
	movq	%rax, %rdi
	call	_ZNSt5stackIiSt5dequeIiSaIiEEE4pushERKi
	nop
	movq	-8(%rbp), %rax
	subq	%fs:40, %rax
	je	.L53
	call	__stack_chk_fail@PLT
.L53:
	leave
	.cfi_def_cfa 7, 8
	ret
	.cfi_endproc
.LFE9792:
	.size	_Z5dfs_1i, .-_Z5dfs_1i
	.globl	_Z5dfs_2i
	.type	_Z5dfs_2i, @function
_Z5dfs_2i:
.LFB9793:
	.cfi_startproc
	endbr64
	pushq	%rbp
	.cfi_def_cfa_offset 16
	.cfi_offset 6, -16
	movq	%rsp, %rbp
	.cfi_def_cfa_register 6
	subq	$80, %rsp
	movl	%edi, -68(%rbp)
	movq	%fs:40, %rax
	movq	%rax, -8(%rbp)
	xorl	%eax, %eax
	leaq	cntComponents(%rip), %rax
	movq	%rax, %rsi
	leaq	total(%rip), %rax
	movq	%rax, %rdi
	call	_ZNSt3mapIiSt6vectorIiSaIiEESt4lessIiESaISt4pairIKiS2_EEEixERS6_
	movq	%rax, %rdx
	leaq	-68(%rbp), %rax
	movq	%rax, %rsi
	movq	%rdx, %rdi
	call	_ZNSt6vectorIiSaIiEE9push_backERKi
	movl	-68(%rbp), %eax
	cltq
	movq	%rax, %rsi
	leaq	visited(%rip), %rax
	movq	%rax, %rdi
	call	_ZNSt6vectorIbSaIbEEixEm
	movq	%rax, -32(%rbp)
	movq	%rdx, -24(%rbp)
	leaq	-32(%rbp), %rax
	movl	$1, %esi
	movq	%rax, %rdi
	call	_ZNSt14_Bit_referenceaSEb
	movl	-68(%rbp), %eax
	cltq
	movq	%rax, %rsi
	leaq	rev_adj(%rip), %rax
	movq	%rax, %rdi
	call	_ZNSt6vectorIS_IiSaIiEESaIS1_EEixEm
	movq	%rax, -48(%rbp)
	movq	-48(%rbp), %rax
	movq	%rax, %rdi
	call	_ZNSt6vectorIiSaIiEE5beginEv
	movq	%rax, -64(%rbp)
	movq	-48(%rbp), %rax
	movq	%rax, %rdi
	call	_ZNSt6vectorIiSaIiEE3endEv
	movq	%rax, -56(%rbp)
	jmp	.L55
.L57:
	leaq	-64(%rbp), %rax
	movq	%rax, %rdi
	call	_ZNK9__gnu_cxx17__normal_iteratorIPiSt6vectorIiSaIiEEEdeEv
	movq	%rax, -40(%rbp)
	movq	-40(%rbp), %rax
	movl	(%rax), %eax
	cltq
	movq	%rax, %rsi
	leaq	visited(%rip), %rax
	movq	%rax, %rdi
	call	_ZNSt6vectorIbSaIbEEixEm
	movq	%rax, -32(%rbp)
	movq	%rdx, -24(%rbp)
	leaq	-32(%rbp), %rax
	movq	%rax, %rdi
	call	_ZNKSt14_Bit_referencecvbEv
	xorl	$1, %eax
	testb	%al, %al
	je	.L56
	movq	-40(%rbp), %rax
	movl	(%rax), %eax
	movl	%eax, %edi
	call	_Z5dfs_2i
.L56:
	leaq	-64(%rbp), %rax
	movq	%rax, %rdi
	call	_ZN9__gnu_cxx17__normal_iteratorIPiSt6vectorIiSaIiEEEppEv
.L55:
	leaq	-56(%rbp), %rdx
	leaq	-64(%rbp), %rax
	movq	%rdx, %rsi
	movq	%rax, %rdi
	call	_ZN9__gnu_cxxneIPiSt6vectorIiSaIiEEEEbRKNS_17__normal_iteratorIT_T0_EESA_
	testb	%al, %al
	jne	.L57
	nop
	movq	-8(%rbp), %rax
	subq	%fs:40, %rax
	je	.L58
	call	__stack_chk_fail@PLT
.L58:
	leave
	.cfi_def_cfa 7, 8
	ret
	.cfi_endproc
.LFE9793:
	.size	_Z5dfs_2i, .-_Z5dfs_2i
	.globl	_Z8Kosarajuv
	.type	_Z8Kosarajuv, @function
_Z8Kosarajuv:
.LFB9794:
	.cfi_startproc
	endbr64
	pushq	%rbp
	.cfi_def_cfa_offset 16
	.cfi_offset 6, -16
	movq	%rsp, %rbp
	.cfi_def_cfa_register 6
	subq	$48, %rsp
	movq	%fs:40, %rax
	movq	%rax, -8(%rbp)
	xorl	%eax, %eax
	movl	$0, -44(%rbp)
	jmp	.L60
.L62:
	movl	-44(%rbp), %eax
	cltq
	movq	%rax, %rsi
	leaq	visited(%rip), %rax
	movq	%rax, %rdi
	call	_ZNSt6vectorIbSaIbEEixEm
	movq	%rax, -32(%rbp)
	movq	%rdx, -24(%rbp)
	leaq	-32(%rbp), %rax
	movq	%rax, %rdi
	call	_ZNKSt14_Bit_referencecvbEv
	xorl	$1, %eax
	testb	%al, %al
	je	.L61
	movl	-44(%rbp), %eax
	movl	%eax, %edi
	call	_Z5dfs_1i
.L61:
	addl	$1, -44(%rbp)
.L60:
	movl	n(%rip), %eax
	cmpl	%eax, -44(%rbp)
	jl	.L62
	movl	$0, -40(%rbp)
	jmp	.L63
.L64:
	movl	-40(%rbp), %eax
	cltq
	movq	%rax, %rsi
	leaq	visited(%rip), %rax
	movq	%rax, %rdi
	call	_ZNSt6vectorIbSaIbEEixEm
	movq	%rax, -32(%rbp)
	movq	%rdx, -24(%rbp)
	leaq	-32(%rbp), %rax
	movl	$0, %esi
	movq	%rax, %rdi
	call	_ZNSt14_Bit_referenceaSEb
	addl	$1, -40(%rbp)
.L63:
	movl	n(%rip), %eax
	cmpl	%eax, -40(%rbp)
	jl	.L64
	jmp	.L66
.L67:
	leaq	Stack(%rip), %rax
	movq	%rax, %rdi
	call	_ZNSt5stackIiSt5dequeIiSaIiEEE3topEv
	movl	(%rax), %eax
	movl	%eax, -36(%rbp)
	leaq	Stack(%rip), %rax
	movq	%rax, %rdi
	call	_ZNSt5stackIiSt5dequeIiSaIiEEE3popEv
	movl	-36(%rbp), %eax
	cltq
	movq	%rax, %rsi
	leaq	visited(%rip), %rax
	movq	%rax, %rdi
	call	_ZNSt6vectorIbSaIbEEixEm
	movq	%rax, -32(%rbp)
	movq	%rdx, -24(%rbp)
	leaq	-32(%rbp), %rax
	movq	%rax, %rdi
	call	_ZNKSt14_Bit_referencecvbEv
	xorl	$1, %eax
	testb	%al, %al
	je	.L66
	movl	-36(%rbp), %eax
	movl	%eax, %edi
	call	_Z5dfs_2i
	movl	cntComponents(%rip), %eax
	addl	$1, %eax
	movl	%eax, cntComponents(%rip)
.L66:
	leaq	Stack(%rip), %rax
	movq	%rax, %rdi
	call	_ZNKSt5stackIiSt5dequeIiSaIiEEE5emptyEv
	xorl	$1, %eax
	testb	%al, %al
	jne	.L67
	nop
	movq	-8(%rbp), %rax
	subq	%fs:40, %rax
	je	.L68
	call	__stack_chk_fail@PLT
.L68:
	leave
	.cfi_def_cfa 7, 8
	ret
	.cfi_endproc
.LFE9794:
	.size	_Z8Kosarajuv, .-_Z8Kosarajuv
	.section	.rodata
.LC0:
	.string	"\n"
.LC1:
	.string	" "
	.text
	.globl	main
	.type	main, @function
main:
.LFB9795:
	.cfi_startproc
	endbr64
	pushq	%rbp
	.cfi_def_cfa_offset 16
	.cfi_offset 6, -16
	movq	%rsp, %rbp
	.cfi_def_cfa_register 6
	subq	$80, %rsp
	movq	%fs:40, %rax
	movq	%rax, -8(%rbp)
	xorl	%eax, %eax
	leaq	n(%rip), %rax
	movq	%rax, %rsi
	leaq	_ZSt3cin(%rip), %rax
	movq	%rax, %rdi
	call	_ZNSirsERi@PLT
	movq	%rax, %rdx
	leaq	m(%rip), %rax
	movq	%rax, %rsi
	movq	%rdx, %rdi
	call	_ZNSirsERi@PLT
	jmp	.L70
.L71:
	leaq	-56(%rbp), %rax
	movq	%rax, %rsi
	leaq	_ZSt3cin(%rip), %rax
	movq	%rax, %rdi
	call	_ZNSirsERi@PLT
	movq	%rax, %rdx
	leaq	-48(%rbp), %rax
	movq	%rax, %rsi
	movq	%rdx, %rdi
	call	_ZNSirsERi@PLT
	movl	-56(%rbp), %eax
	cltq
	movq	%rax, %rsi
	leaq	adj(%rip), %rax
	movq	%rax, %rdi
	call	_ZNSt6vectorIS_IiSaIiEESaIS1_EEixEm
	movq	%rax, %rdx
	leaq	-48(%rbp), %rax
	movq	%rax, %rsi
	movq	%rdx, %rdi
	call	_ZNSt6vectorIiSaIiEE9push_backERKi
	movl	-48(%rbp), %eax
	cltq
	movq	%rax, %rsi
	leaq	rev_adj(%rip), %rax
	movq	%rax, %rdi
	call	_ZNSt6vectorIS_IiSaIiEESaIS1_EEixEm
	movq	%rax, %rdx
	leaq	-56(%rbp), %rax
	movq	%rax, %rsi
	movq	%rdx, %rdi
	call	_ZNSt6vectorIiSaIiEE9push_backERKi
.L70:
	movl	m(%rip), %eax
	leal	-1(%rax), %edx
	movl	%edx, m(%rip)
	testl	%eax, %eax
	setne	%al
	testb	%al, %al
	jne	.L71
	call	_Z8Kosarajuv
	leaq	total(%rip), %rax
	movq	%rax, %rdi
	call	_ZNKSt3mapIiSt6vectorIiSaIiEESt4lessIiESaISt4pairIKiS2_EEE4sizeEv
	movq	%rax, %rsi
	leaq	_ZSt4cout(%rip), %rax
	movq	%rax, %rdi
	call	_ZNSolsEm@PLT
	movq	%rax, %rdx
	leaq	.LC0(%rip), %rax
	movq	%rax, %rsi
	movq	%rdx, %rdi
	call	_ZStlsISt11char_traitsIcEERSt13basic_ostreamIcT_ES5_PKc@PLT
	leaq	total(%rip), %rax
	movq	%rax, -40(%rbp)
	movq	-40(%rbp), %rax
	movq	%rax, %rdi
	call	_ZNSt3mapIiSt6vectorIiSaIiEESt4lessIiESaISt4pairIKiS2_EEE5beginEv
	movq	%rax, -72(%rbp)
	movq	-40(%rbp), %rax
	movq	%rax, %rdi
	call	_ZNSt3mapIiSt6vectorIiSaIiEESt4lessIiESaISt4pairIKiS2_EEE3endEv
	movq	%rax, -64(%rbp)
	jmp	.L72
.L75:
	leaq	-72(%rbp), %rax
	movq	%rax, %rdi
	call	_ZNKSt17_Rb_tree_iteratorISt4pairIKiSt6vectorIiSaIiEEEEdeEv
	movq	%rax, -32(%rbp)
	movq	-32(%rbp), %rax
	addq	$8, %rax
	movq	%rax, %rdi
	call	_ZNKSt6vectorIiSaIiEE4sizeEv
	movq	%rax, %rsi
	leaq	_ZSt4cout(%rip), %rax
	movq	%rax, %rdi
	call	_ZNSolsEm@PLT
	movq	%rax, %rdx
	leaq	.LC1(%rip), %rax
	movq	%rax, %rsi
	movq	%rdx, %rdi
	call	_ZStlsISt11char_traitsIcEERSt13basic_ostreamIcT_ES5_PKc@PLT
	movq	-32(%rbp), %rax
	addq	$8, %rax
	movq	%rax, -24(%rbp)
	movq	-24(%rbp), %rax
	movq	%rax, %rdi
	call	_ZNSt6vectorIiSaIiEE5beginEv
	movq	%rax, -56(%rbp)
	movq	-24(%rbp), %rax
	movq	%rax, %rdi
	call	_ZNSt6vectorIiSaIiEE3endEv
	movq	%rax, -48(%rbp)
	jmp	.L73
.L74:
	leaq	-56(%rbp), %rax
	movq	%rax, %rdi
	call	_ZNK9__gnu_cxx17__normal_iteratorIPiSt6vectorIiSaIiEEEdeEv
	movq	%rax, -16(%rbp)
	movq	-16(%rbp), %rax
	movl	(%rax), %eax
	movl	%eax, %esi
	leaq	_ZSt4cout(%rip), %rax
	movq	%rax, %rdi
	call	_ZNSolsEi@PLT
	movq	%rax, %rdx
	leaq	.LC1(%rip), %rax
	movq	%rax, %rsi
	movq	%rdx, %rdi
	call	_ZStlsISt11char_traitsIcEERSt13basic_ostreamIcT_ES5_PKc@PLT
	leaq	-56(%rbp), %rax
	movq	%rax, %rdi
	call	_ZN9__gnu_cxx17__normal_iteratorIPiSt6vectorIiSaIiEEEppEv
.L73:
	leaq	-48(%rbp), %rdx
	leaq	-56(%rbp), %rax
	movq	%rdx, %rsi
	movq	%rax, %rdi
	call	_ZN9__gnu_cxxneIPiSt6vectorIiSaIiEEEEbRKNS_17__normal_iteratorIT_T0_EESA_
	testb	%al, %al
	jne	.L74
	leaq	.LC0(%rip), %rax
	movq	%rax, %rsi
	leaq	_ZSt4cout(%rip), %rax
	movq	%rax, %rdi
	call	_ZStlsISt11char_traitsIcEERSt13basic_ostreamIcT_ES5_PKc@PLT
	leaq	-72(%rbp), %rax
	movq	%rax, %rdi
	call	_ZNSt17_Rb_tree_iteratorISt4pairIKiSt6vectorIiSaIiEEEEppEv
.L72:
	leaq	-64(%rbp), %rdx
	leaq	-72(%rbp), %rax
	movq	%rdx, %rsi
	movq	%rax, %rdi
	call	_ZStneRKSt17_Rb_tree_iteratorISt4pairIKiSt6vectorIiSaIiEEEES8_
	testb	%al, %al
	jne	.L75
	movl	$0, %eax
	movq	-8(%rbp), %rdx
	subq	%fs:40, %rdx
	je	.L77
	call	__stack_chk_fail@PLT
.L77:
	leave
	.cfi_def_cfa 7, 8
	ret
	.cfi_endproc
.LFE9795:
	.size	main, .-main
	.section	.text._ZSt3maxImERKT_S2_S2_,"axG",@progbits,_ZSt3maxImERKT_S2_S2_,comdat
	.weak	_ZSt3maxImERKT_S2_S2_
	.type	_ZSt3maxImERKT_S2_S2_, @function
_ZSt3maxImERKT_S2_S2_:
.LFB10046:
	.cfi_startproc
	endbr64
	pushq	%rbp
	.cfi_def_cfa_offset 16
	.cfi_offset 6, -16
	movq	%rsp, %rbp
	.cfi_def_cfa_register 6
	movq	%rdi, -8(%rbp)
	movq	%rsi, -16(%rbp)
	movq	-8(%rbp), %rax
	movq	(%rax), %rdx
	movq	-16(%rbp), %rax
	movq	(%rax), %rax
	cmpq	%rax, %rdx
	jnb	.L79
	movq	-16(%rbp), %rax
	jmp	.L80
.L79:
	movq	-8(%rbp), %rax
.L80:
	popq	%rbp
	.cfi_def_cfa 7, 8
	ret
	.cfi_endproc
.LFE10046:
	.size	_ZSt3maxImERKT_S2_S2_, .-_ZSt3maxImERKT_S2_S2_
	.section	.text._ZNSt12_Vector_baseIiSaIiEE12_Vector_implC2Ev,"axG",@progbits,_ZNSt12_Vector_baseIiSaIiEE12_Vector_implC5Ev,comdat
	.align 2
	.weak	_ZNSt12_Vector_baseIiSaIiEE12_Vector_implC2Ev
	.type	_ZNSt12_Vector_baseIiSaIiEE12_Vector_implC2Ev, @function
_ZNSt12_Vector_baseIiSaIiEE12_Vector_implC2Ev:
.LFB10483:
	.cfi_startproc
	endbr64
	pushq	%rbp
	.cfi_def_cfa_offset 16
	.cfi_offset 6, -16
	movq	%rsp, %rbp
	.cfi_def_cfa_register 6
	subq	$32, %rsp
	movq	%rdi, -24(%rbp)
	movq	-24(%rbp), %rax
	movq	%rax, -16(%rbp)
	movq	-16(%rbp), %rax
	movq	%rax, -8(%rbp)
	nop
	nop
	movq	-24(%rbp), %rax
	movq	%rax, %rdi
	call	_ZNSt12_Vector_baseIiSaIiEE17_Vector_impl_dataC2Ev
	nop
	leave
	.cfi_def_cfa 7, 8
	ret
	.cfi_endproc
.LFE10483:
	.size	_ZNSt12_Vector_baseIiSaIiEE12_Vector_implC2Ev, .-_ZNSt12_Vector_baseIiSaIiEE12_Vector_implC2Ev
	.weak	_ZNSt12_Vector_baseIiSaIiEE12_Vector_implC1Ev
	.set	_ZNSt12_Vector_baseIiSaIiEE12_Vector_implC1Ev,_ZNSt12_Vector_baseIiSaIiEE12_Vector_implC2Ev
	.section	.text._ZNSt12_Vector_baseIiSaIiEED2Ev,"axG",@progbits,_ZNSt12_Vector_baseIiSaIiEED5Ev,comdat
	.align 2
	.weak	_ZNSt12_Vector_baseIiSaIiEED2Ev
	.type	_ZNSt12_Vector_baseIiSaIiEED2Ev, @function
_ZNSt12_Vector_baseIiSaIiEED2Ev:
.LFB10489:
	.cfi_startproc
	.cfi_personality 0x9b,DW.ref.__gxx_personality_v0
	.cfi_lsda 0x1b,.LLSDA10489
	endbr64
	pushq	%rbp
	.cfi_def_cfa_offset 16
	.cfi_offset 6, -16
	movq	%rsp, %rbp
	.cfi_def_cfa_register 6
	subq	$16, %rsp
	movq	%rdi, -8(%rbp)
	movq	-8(%rbp), %rax
	movq	16(%rax), %rdx
	movq	-8(%rbp), %rax
	movq	(%rax), %rax
	subq	%rax, %rdx
	movq	%rdx, %rax
	sarq	$2, %rax
	movq	%rax, %rdx
	movq	-8(%rbp), %rax
	movq	(%rax), %rcx
	movq	-8(%rbp), %rax
	movq	%rcx, %rsi
	movq	%rax, %rdi
	call	_ZNSt12_Vector_baseIiSaIiEE13_M_deallocateEPim
	movq	-8(%rbp), %rax
	movq	%rax, %rdi
	call	_ZNSt12_Vector_baseIiSaIiEE12_Vector_implD1Ev
	nop
	leave
	.cfi_def_cfa 7, 8
	ret
	.cfi_endproc
.LFE10489:
	.globl	__gxx_personality_v0
	.section	.gcc_except_table._ZNSt12_Vector_baseIiSaIiEED2Ev,"aG",@progbits,_ZNSt12_Vector_baseIiSaIiEED5Ev,comdat
.LLSDA10489:
	.byte	0xff
	.byte	0xff
	.byte	0x1
	.uleb128 .LLSDACSE10489-.LLSDACSB10489
.LLSDACSB10489:
.LLSDACSE10489:
	.section	.text._ZNSt12_Vector_baseIiSaIiEED2Ev,"axG",@progbits,_ZNSt12_Vector_baseIiSaIiEED5Ev,comdat
	.size	_ZNSt12_Vector_baseIiSaIiEED2Ev, .-_ZNSt12_Vector_baseIiSaIiEED2Ev
	.weak	_ZNSt12_Vector_baseIiSaIiEED1Ev
	.set	_ZNSt12_Vector_baseIiSaIiEED1Ev,_ZNSt12_Vector_baseIiSaIiEED2Ev
	.section	.text._ZNSt6vectorIiSaIiEED2Ev,"axG",@progbits,_ZNSt6vectorIiSaIiEED5Ev,comdat
	.align 2
	.weak	_ZNSt6vectorIiSaIiEED2Ev
	.type	_ZNSt6vectorIiSaIiEED2Ev, @function
_ZNSt6vectorIiSaIiEED2Ev:
.LFB10492:
	.cfi_startproc
	.cfi_personality 0x9b,DW.ref.__gxx_personality_v0
	.cfi_lsda 0x1b,.LLSDA10492
	endbr64
	pushq	%rbp
	.cfi_def_cfa_offset 16
	.cfi_offset 6, -16
	movq	%rsp, %rbp
	.cfi_def_cfa_register 6
	subq	$48, %rsp
	movq	%rdi, -40(%rbp)
	movq	-40(%rbp), %rax
	movq	%rax, %rdi
	call	_ZNSt12_Vector_baseIiSaIiEE19_M_get_Tp_allocatorEv
	movq	-40(%rbp), %rdx
	movq	8(%rdx), %rdx
	movq	-40(%rbp), %rcx
	movq	(%rcx), %rcx
	movq	%rcx, -24(%rbp)
	movq	%rdx, -16(%rbp)
	movq	%rax, -8(%rbp)
	movq	-16(%rbp), %rdx
	movq	-24(%rbp), %rax
	movq	%rdx, %rsi
	movq	%rax, %rdi
	call	_ZSt8_DestroyIPiEvT_S1_
	nop
	movq	-40(%rbp), %rax
	movq	%rax, %rdi
	call	_ZNSt12_Vector_baseIiSaIiEED2Ev
	nop
	leave
	.cfi_def_cfa 7, 8
	ret
	.cfi_endproc
.LFE10492:
	.section	.gcc_except_table._ZNSt6vectorIiSaIiEED2Ev,"aG",@progbits,_ZNSt6vectorIiSaIiEED5Ev,comdat
.LLSDA10492:
	.byte	0xff
	.byte	0xff
	.byte	0x1
	.uleb128 .LLSDACSE10492-.LLSDACSB10492
.LLSDACSB10492:
.LLSDACSE10492:
	.section	.text._ZNSt6vectorIiSaIiEED2Ev,"axG",@progbits,_ZNSt6vectorIiSaIiEED5Ev,comdat
	.size	_ZNSt6vectorIiSaIiEED2Ev, .-_ZNSt6vectorIiSaIiEED2Ev
	.weak	_ZNSt6vectorIiSaIiEED1Ev
	.set	_ZNSt6vectorIiSaIiEED1Ev,_ZNSt6vectorIiSaIiEED2Ev
	.section	.text._ZNSt6vectorIS_IiSaIiEESaIS1_EEC2EmRKS1_RKS2_,"axG",@progbits,_ZNSt6vectorIS_IiSaIiEESaIS1_EEC5EmRKS1_RKS2_,comdat
	.align 2
	.weak	_ZNSt6vectorIS_IiSaIiEESaIS1_EEC2EmRKS1_RKS2_
	.type	_ZNSt6vectorIS_IiSaIiEESaIS1_EEC2EmRKS1_RKS2_, @function
_ZNSt6vectorIS_IiSaIiEESaIS1_EEC2EmRKS1_RKS2_:
.LFB10501:
	.cfi_startproc
	.cfi_personality 0x9b,DW.ref.__gxx_personality_v0
	.cfi_lsda 0x1b,.LLSDA10501
	endbr64
	pushq	%rbp
	.cfi_def_cfa_offset 16
	.cfi_offset 6, -16
	movq	%rsp, %rbp
	.cfi_def_cfa_register 6
	pushq	%rbx
	subq	$40, %rsp
	.cfi_offset 3, -24
	movq	%rdi, -24(%rbp)
	movq	%rsi, -32(%rbp)
	movq	%rdx, -40(%rbp)
	movq	%rcx, -48(%rbp)
	movq	-24(%rbp), %rbx
	movq	-48(%rbp), %rdx
	movq	-32(%rbp), %rax
	movq	%rdx, %rsi
	movq	%rax, %rdi
.LEHB0:
	call	_ZNSt6vectorIS_IiSaIiEESaIS1_EE17_S_check_init_lenEmRKS2_
	movq	%rax, %rcx
	movq	-48(%rbp), %rax
	movq	%rax, %rdx
	movq	%rcx, %rsi
	movq	%rbx, %rdi
	call	_ZNSt12_Vector_baseISt6vectorIiSaIiEESaIS2_EEC2EmRKS3_
.LEHE0:
	movq	-40(%rbp), %rdx
	movq	-32(%rbp), %rcx
	movq	-24(%rbp), %rax
	movq	%rcx, %rsi
	movq	%rax, %rdi
.LEHB1:
	call	_ZNSt6vectorIS_IiSaIiEESaIS1_EE18_M_fill_initializeEmRKS1_
.LEHE1:
	jmp	.L87
.L86:
	endbr64
	movq	%rax, %rbx
	movq	-24(%rbp), %rax
	movq	%rax, %rdi
	call	_ZNSt12_Vector_baseISt6vectorIiSaIiEESaIS2_EED2Ev
	movq	%rbx, %rax
	movq	%rax, %rdi
.LEHB2:
	call	_Unwind_Resume@PLT
.LEHE2:
.L87:
	movq	-8(%rbp), %rbx
	leave
	.cfi_def_cfa 7, 8
	ret
	.cfi_endproc
.LFE10501:
	.section	.gcc_except_table._ZNSt6vectorIS_IiSaIiEESaIS1_EEC2EmRKS1_RKS2_,"aG",@progbits,_ZNSt6vectorIS_IiSaIiEESaIS1_EEC5EmRKS1_RKS2_,comdat
.LLSDA10501:
	.byte	0xff
	.byte	0xff
	.byte	0x1
	.uleb128 .LLSDACSE10501-.LLSDACSB10501
.LLSDACSB10501:
	.uleb128 .LEHB0-.LFB10501
	.uleb128 .LEHE0-.LEHB0
	.uleb128 0
	.uleb128 0
	.uleb128 .LEHB1-.LFB10501
	.uleb128 .LEHE1-.LEHB1
	.uleb128 .L86-.LFB10501
	.uleb128 0
	.uleb128 .LEHB2-.LFB10501
	.uleb128 .LEHE2-.LEHB2
	.uleb128 0
	.uleb128 0
.LLSDACSE10501:
	.section	.text._ZNSt6vectorIS_IiSaIiEESaIS1_EEC2EmRKS1_RKS2_,"axG",@progbits,_ZNSt6vectorIS_IiSaIiEESaIS1_EEC5EmRKS1_RKS2_,comdat
	.size	_ZNSt6vectorIS_IiSaIiEESaIS1_EEC2EmRKS1_RKS2_, .-_ZNSt6vectorIS_IiSaIiEESaIS1_EEC2EmRKS1_RKS2_
	.weak	_ZNSt6vectorIS_IiSaIiEESaIS1_EEC1EmRKS1_RKS2_
	.set	_ZNSt6vectorIS_IiSaIiEESaIS1_EEC1EmRKS1_RKS2_,_ZNSt6vectorIS_IiSaIiEESaIS1_EEC2EmRKS1_RKS2_
	.section	.text._ZNSt5dequeIiSaIiEEC2Ev,"axG",@progbits,_ZNSt5dequeIiSaIiEEC5Ev,comdat
	.align 2
	.weak	_ZNSt5dequeIiSaIiEEC2Ev
	.type	_ZNSt5dequeIiSaIiEEC2Ev, @function
_ZNSt5dequeIiSaIiEEC2Ev:
.LFB10505:
	.cfi_startproc
	endbr64
	pushq	%rbp
	.cfi_def_cfa_offset 16
	.cfi_offset 6, -16
	movq	%rsp, %rbp
	.cfi_def_cfa_register 6
	subq	$16, %rsp
	movq	%rdi, -8(%rbp)
	movq	-8(%rbp), %rax
	movq	%rax, %rdi
	call	_ZNSt11_Deque_baseIiSaIiEEC2Ev
	nop
	leave
	.cfi_def_cfa 7, 8
	ret
	.cfi_endproc
.LFE10505:
	.size	_ZNSt5dequeIiSaIiEEC2Ev, .-_ZNSt5dequeIiSaIiEEC2Ev
	.weak	_ZNSt5dequeIiSaIiEEC1Ev
	.set	_ZNSt5dequeIiSaIiEEC1Ev,_ZNSt5dequeIiSaIiEEC2Ev
	.section	.text._ZNSt5stackIiSt5dequeIiSaIiEEEC2IS2_vEEv,"axG",@progbits,_ZNSt5stackIiSt5dequeIiSaIiEEEC5IS2_vEEv,comdat
	.align 2
	.weak	_ZNSt5stackIiSt5dequeIiSaIiEEEC2IS2_vEEv
	.type	_ZNSt5stackIiSt5dequeIiSaIiEEEC2IS2_vEEv, @function
_ZNSt5stackIiSt5dequeIiSaIiEEEC2IS2_vEEv:
.LFB10507:
	.cfi_startproc
	endbr64
	pushq	%rbp
	.cfi_def_cfa_offset 16
	.cfi_offset 6, -16
	movq	%rsp, %rbp
	.cfi_def_cfa_register 6
	subq	$16, %rsp
	movq	%rdi, -8(%rbp)
	movq	-8(%rbp), %rax
	pxor	%xmm0, %xmm0
	movups	%xmm0, (%rax)
	movups	%xmm0, 16(%rax)
	movups	%xmm0, 32(%rax)
	movups	%xmm0, 48(%rax)
	movups	%xmm0, 64(%rax)
	movq	-8(%rbp), %rax
	movq	%rax, %rdi
	call	_ZNSt5dequeIiSaIiEEC1Ev
	nop
	leave
	.cfi_def_cfa 7, 8
	ret
	.cfi_endproc
.LFE10507:
	.size	_ZNSt5stackIiSt5dequeIiSaIiEEEC2IS2_vEEv, .-_ZNSt5stackIiSt5dequeIiSaIiEEEC2IS2_vEEv
	.weak	_ZNSt5stackIiSt5dequeIiSaIiEEEC1IS2_vEEv
	.set	_ZNSt5stackIiSt5dequeIiSaIiEEEC1IS2_vEEv,_ZNSt5stackIiSt5dequeIiSaIiEEEC2IS2_vEEv
	.section	.text._ZNSt6vectorIbSaIbEEC2EmRKbRKS0_,"axG",@progbits,_ZNSt6vectorIbSaIbEEC5EmRKbRKS0_,comdat
	.align 2
	.weak	_ZNSt6vectorIbSaIbEEC2EmRKbRKS0_
	.type	_ZNSt6vectorIbSaIbEEC2EmRKbRKS0_, @function
_ZNSt6vectorIbSaIbEEC2EmRKbRKS0_:
.LFB10516:
	.cfi_startproc
	.cfi_personality 0x9b,DW.ref.__gxx_personality_v0
	.cfi_lsda 0x1b,.LLSDA10516
	endbr64
	pushq	%rbp
	.cfi_def_cfa_offset 16
	.cfi_offset 6, -16
	movq	%rsp, %rbp
	.cfi_def_cfa_register 6
	pushq	%rbx
	subq	$40, %rsp
	.cfi_offset 3, -24
	movq	%rdi, -24(%rbp)
	movq	%rsi, -32(%rbp)
	movq	%rdx, -40(%rbp)
	movq	%rcx, -48(%rbp)
	movq	-24(%rbp), %rax
	movq	-48(%rbp), %rdx
	movq	%rdx, %rsi
	movq	%rax, %rdi
	call	_ZNSt13_Bvector_baseISaIbEEC2ERKS0_
	movq	-32(%rbp), %rdx
	movq	-24(%rbp), %rax
	movq	%rdx, %rsi
	movq	%rax, %rdi
.LEHB3:
	call	_ZNSt6vectorIbSaIbEE13_M_initializeEm
.LEHE3:
	movq	-40(%rbp), %rax
	movzbl	(%rax), %eax
	movzbl	%al, %edx
	movq	-24(%rbp), %rax
	movl	%edx, %esi
	movq	%rax, %rdi
	call	_ZNSt6vectorIbSaIbEE19_M_initialize_valueEb
	jmp	.L93
.L92:
	endbr64
	movq	%rax, %rbx
	movq	-24(%rbp), %rax
	movq	%rax, %rdi
	call	_ZNSt13_Bvector_baseISaIbEED2Ev
	movq	%rbx, %rax
	movq	%rax, %rdi
.LEHB4:
	call	_Unwind_Resume@PLT
.LEHE4:
.L93:
	movq	-8(%rbp), %rbx
	leave
	.cfi_def_cfa 7, 8
	ret
	.cfi_endproc
.LFE10516:
	.section	.gcc_except_table._ZNSt6vectorIbSaIbEEC2EmRKbRKS0_,"aG",@progbits,_ZNSt6vectorIbSaIbEEC5EmRKbRKS0_,comdat
.LLSDA10516:
	.byte	0xff
	.byte	0xff
	.byte	0x1
	.uleb128 .LLSDACSE10516-.LLSDACSB10516
.LLSDACSB10516:
	.uleb128 .LEHB3-.LFB10516
	.uleb128 .LEHE3-.LEHB3
	.uleb128 .L92-.LFB10516
	.uleb128 0
	.uleb128 .LEHB4-.LFB10516
	.uleb128 .LEHE4-.LEHB4
	.uleb128 0
	.uleb128 0
.LLSDACSE10516:
	.section	.text._ZNSt6vectorIbSaIbEEC2EmRKbRKS0_,"axG",@progbits,_ZNSt6vectorIbSaIbEEC5EmRKbRKS0_,comdat
	.size	_ZNSt6vectorIbSaIbEEC2EmRKbRKS0_, .-_ZNSt6vectorIbSaIbEEC2EmRKbRKS0_
	.weak	_ZNSt6vectorIbSaIbEEC1EmRKbRKS0_
	.set	_ZNSt6vectorIbSaIbEEC1EmRKbRKS0_,_ZNSt6vectorIbSaIbEEC2EmRKbRKS0_
	.section	.text._ZNSt8_Rb_treeIiSt4pairIKiSt6vectorIiSaIiEEESt10_Select1stIS5_ESt4lessIiESaIS5_EE13_Rb_tree_implIS9_Lb1EEC2Ev,"axG",@progbits,_ZNSt8_Rb_treeIiSt4pairIKiSt6vectorIiSaIiEEESt10_Select1stIS5_ESt4lessIiESaIS5_EE13_Rb_tree_implIS9_Lb1EEC5Ev,comdat
	.align 2
	.weak	_ZNSt8_Rb_treeIiSt4pairIKiSt6vectorIiSaIiEEESt10_Select1stIS5_ESt4lessIiESaIS5_EE13_Rb_tree_implIS9_Lb1EEC2Ev
	.type	_ZNSt8_Rb_treeIiSt4pairIKiSt6vectorIiSaIiEEESt10_Select1stIS5_ESt4lessIiESaIS5_EE13_Rb_tree_implIS9_Lb1EEC2Ev, @function
_ZNSt8_Rb_treeIiSt4pairIKiSt6vectorIiSaIiEEESt10_Select1stIS5_ESt4lessIiESaIS5_EE13_Rb_tree_implIS9_Lb1EEC2Ev:
.LFB10519:
	.cfi_startproc
	endbr64
	pushq	%rbp
	.cfi_def_cfa_offset 16
	.cfi_offset 6, -16
	movq	%rsp, %rbp
	.cfi_def_cfa_register 6
	subq	$32, %rsp
	movq	%rdi, -24(%rbp)
	movq	-24(%rbp), %rax
	movq	%rax, -16(%rbp)
	movq	-16(%rbp), %rax
	movq	%rax, -8(%rbp)
	nop
	nop
	movq	-24(%rbp), %rax
	movq	%rax, %rdi
	call	_ZNSt20_Rb_tree_key_compareISt4lessIiEEC2Ev
	movq	-24(%rbp), %rax
	addq	$8, %rax
	movq	%rax, %rdi
	call	_ZNSt15_Rb_tree_headerC2Ev
	nop
	leave
	.cfi_def_cfa 7, 8
	ret
	.cfi_endproc
.LFE10519:
	.size	_ZNSt8_Rb_treeIiSt4pairIKiSt6vectorIiSaIiEEESt10_Select1stIS5_ESt4lessIiESaIS5_EE13_Rb_tree_implIS9_Lb1EEC2Ev, .-_ZNSt8_Rb_treeIiSt4pairIKiSt6vectorIiSaIiEEESt10_Select1stIS5_ESt4lessIiESaIS5_EE13_Rb_tree_implIS9_Lb1EEC2Ev
	.weak	_ZNSt8_Rb_treeIiSt4pairIKiSt6vectorIiSaIiEEESt10_Select1stIS5_ESt4lessIiESaIS5_EE13_Rb_tree_implIS9_Lb1EEC1Ev
	.set	_ZNSt8_Rb_treeIiSt4pairIKiSt6vectorIiSaIiEEESt10_Select1stIS5_ESt4lessIiESaIS5_EE13_Rb_tree_implIS9_Lb1EEC1Ev,_ZNSt8_Rb_treeIiSt4pairIKiSt6vectorIiSaIiEEESt10_Select1stIS5_ESt4lessIiESaIS5_EE13_Rb_tree_implIS9_Lb1EEC2Ev
	.section	.text._ZNSt8_Rb_treeIiSt4pairIKiSt6vectorIiSaIiEEESt10_Select1stIS5_ESt4lessIiESaIS5_EED2Ev,"axG",@progbits,_ZNSt8_Rb_treeIiSt4pairIKiSt6vectorIiSaIiEEESt10_Select1stIS5_ESt4lessIiESaIS5_EED5Ev,comdat
	.align 2
	.weak	_ZNSt8_Rb_treeIiSt4pairIKiSt6vectorIiSaIiEEESt10_Select1stIS5_ESt4lessIiESaIS5_EED2Ev
	.type	_ZNSt8_Rb_treeIiSt4pairIKiSt6vectorIiSaIiEEESt10_Select1stIS5_ESt4lessIiESaIS5_EED2Ev, @function
_ZNSt8_Rb_treeIiSt4pairIKiSt6vectorIiSaIiEEESt10_Select1stIS5_ESt4lessIiESaIS5_EED2Ev:
.LFB10525:
	.cfi_startproc
	.cfi_personality 0x9b,DW.ref.__gxx_personality_v0
	.cfi_lsda 0x1b,.LLSDA10525
	endbr64
	pushq	%rbp
	.cfi_def_cfa_offset 16
	.cfi_offset 6, -16
	movq	%rsp, %rbp
	.cfi_def_cfa_register 6
	subq	$16, %rsp
	movq	%rdi, -8(%rbp)
	movq	-8(%rbp), %rax
	movq	%rax, %rdi
	call	_ZNSt8_Rb_treeIiSt4pairIKiSt6vectorIiSaIiEEESt10_Select1stIS5_ESt4lessIiESaIS5_EE8_M_beginEv
	movq	%rax, %rdx
	movq	-8(%rbp), %rax
	movq	%rdx, %rsi
	movq	%rax, %rdi
	call	_ZNSt8_Rb_treeIiSt4pairIKiSt6vectorIiSaIiEEESt10_Select1stIS5_ESt4lessIiESaIS5_EE8_M_eraseEPSt13_Rb_tree_nodeIS5_E
	movq	-8(%rbp), %rax
	movq	%rax, %rdi
	call	_ZNSt8_Rb_treeIiSt4pairIKiSt6vectorIiSaIiEEESt10_Select1stIS5_ESt4lessIiESaIS5_EE13_Rb_tree_implIS9_Lb1EED1Ev
	nop
	leave
	.cfi_def_cfa 7, 8
	ret
	.cfi_endproc
.LFE10525:
	.section	.gcc_except_table._ZNSt8_Rb_treeIiSt4pairIKiSt6vectorIiSaIiEEESt10_Select1stIS5_ESt4lessIiESaIS5_EED2Ev,"aG",@progbits,_ZNSt8_Rb_treeIiSt4pairIKiSt6vectorIiSaIiEEESt10_Select1stIS5_ESt4lessIiESaIS5_EED5Ev,comdat
.LLSDA10525:
	.byte	0xff
	.byte	0xff
	.byte	0x1
	.uleb128 .LLSDACSE10525-.LLSDACSB10525
.LLSDACSB10525:
.LLSDACSE10525:
	.section	.text._ZNSt8_Rb_treeIiSt4pairIKiSt6vectorIiSaIiEEESt10_Select1stIS5_ESt4lessIiESaIS5_EED2Ev,"axG",@progbits,_ZNSt8_Rb_treeIiSt4pairIKiSt6vectorIiSaIiEEESt10_Select1stIS5_ESt4lessIiESaIS5_EED5Ev,comdat
	.size	_ZNSt8_Rb_treeIiSt4pairIKiSt6vectorIiSaIiEEESt10_Select1stIS5_ESt4lessIiESaIS5_EED2Ev, .-_ZNSt8_Rb_treeIiSt4pairIKiSt6vectorIiSaIiEEESt10_Select1stIS5_ESt4lessIiESaIS5_EED2Ev
	.weak	_ZNSt8_Rb_treeIiSt4pairIKiSt6vectorIiSaIiEEESt10_Select1stIS5_ESt4lessIiESaIS5_EED1Ev
	.set	_ZNSt8_Rb_treeIiSt4pairIKiSt6vectorIiSaIiEEESt10_Select1stIS5_ESt4lessIiESaIS5_EED1Ev,_ZNSt8_Rb_treeIiSt4pairIKiSt6vectorIiSaIiEEESt10_Select1stIS5_ESt4lessIiESaIS5_EED2Ev
	.section	.text._ZNSt6vectorIbSaIbEEixEm,"axG",@progbits,_ZNSt6vectorIbSaIbEEixEm,comdat
	.align 2
	.weak	_ZNSt6vectorIbSaIbEEixEm
	.type	_ZNSt6vectorIbSaIbEEixEm, @function
_ZNSt6vectorIbSaIbEEixEm:
.LFB10527:
	.cfi_startproc
	endbr64
	pushq	%rbp
	.cfi_def_cfa_offset 16
	.cfi_offset 6, -16
	movq	%rsp, %rbp
	.cfi_def_cfa_register 6
	subq	$48, %rsp
	movq	%rdi, -40(%rbp)
	movq	%rsi, -48(%rbp)
	movq	%fs:40, %rax
	movq	%rax, -8(%rbp)
	xorl	%eax, %eax
	movq	-40(%rbp), %rax
	movq	%rax, %rdi
	call	_ZNSt6vectorIbSaIbEE5beginEv
	movq	%rax, -32(%rbp)
	movq	%rdx, -24(%rbp)
	movq	-48(%rbp), %rdx
	leaq	-32(%rbp), %rax
	movq	%rdx, %rsi
	movq	%rax, %rdi
	call	_ZNKSt13_Bit_iteratorixEl
	movq	-8(%rbp), %rcx
	subq	%fs:40, %rcx
	je	.L98
	call	__stack_chk_fail@PLT
.L98:
	leave
	.cfi_def_cfa 7, 8
	ret
	.cfi_endproc
.LFE10527:
	.size	_ZNSt6vectorIbSaIbEEixEm, .-_ZNSt6vectorIbSaIbEEixEm
	.section	.text._ZNSt6vectorIS_IiSaIiEESaIS1_EEixEm,"axG",@progbits,_ZNSt6vectorIS_IiSaIiEESaIS1_EEixEm,comdat
	.align 2
	.weak	_ZNSt6vectorIS_IiSaIiEESaIS1_EEixEm
	.type	_ZNSt6vectorIS_IiSaIiEESaIS1_EEixEm, @function
_ZNSt6vectorIS_IiSaIiEESaIS1_EEixEm:
.LFB10528:
	.cfi_startproc
	endbr64
	pushq	%rbp
	.cfi_def_cfa_offset 16
	.cfi_offset 6, -16
	movq	%rsp, %rbp
	.cfi_def_cfa_register 6
	movq	%rdi, -8(%rbp)
	movq	%rsi, -16(%rbp)
	movq	-8(%rbp), %rax
	movq	(%rax), %rcx
	movq	-16(%rbp), %rdx
	movq	%rdx, %rax
	addq	%rax, %rax
	addq	%rdx, %rax
	salq	$3, %rax
	addq	%rcx, %rax
	popq	%rbp
	.cfi_def_cfa 7, 8
	ret
	.cfi_endproc
.LFE10528:
	.size	_ZNSt6vectorIS_IiSaIiEESaIS1_EEixEm, .-_ZNSt6vectorIS_IiSaIiEESaIS1_EEixEm
	.section	.text._ZNSt6vectorIiSaIiEE5beginEv,"axG",@progbits,_ZNSt6vectorIiSaIiEE5beginEv,comdat
	.align 2
	.weak	_ZNSt6vectorIiSaIiEE5beginEv
	.type	_ZNSt6vectorIiSaIiEE5beginEv, @function
_ZNSt6vectorIiSaIiEE5beginEv:
.LFB10529:
	.cfi_startproc
	endbr64
	pushq	%rbp
	.cfi_def_cfa_offset 16
	.cfi_offset 6, -16
	movq	%rsp, %rbp
	.cfi_def_cfa_register 6
	subq	$32, %rsp
	movq	%rdi, -24(%rbp)
	movq	%fs:40, %rax
	movq	%rax, -8(%rbp)
	xorl	%eax, %eax
	movq	-24(%rbp), %rdx
	leaq	-16(%rbp), %rax
	movq	%rdx, %rsi
	movq	%rax, %rdi
	call	_ZN9__gnu_cxx17__normal_iteratorIPiSt6vectorIiSaIiEEEC1ERKS1_
	movq	-16(%rbp), %rax
	movq	-8(%rbp), %rdx
	subq	%fs:40, %rdx
	je	.L103
	call	__stack_chk_fail@PLT
.L103:
	leave
	.cfi_def_cfa 7, 8
	ret
	.cfi_endproc
.LFE10529:
	.size	_ZNSt6vectorIiSaIiEE5beginEv, .-_ZNSt6vectorIiSaIiEE5beginEv
	.section	.text._ZNSt6vectorIiSaIiEE3endEv,"axG",@progbits,_ZNSt6vectorIiSaIiEE3endEv,comdat
	.align 2
	.weak	_ZNSt6vectorIiSaIiEE3endEv
	.type	_ZNSt6vectorIiSaIiEE3endEv, @function
_ZNSt6vectorIiSaIiEE3endEv:
.LFB10530:
	.cfi_startproc
	endbr64
	pushq	%rbp
	.cfi_def_cfa_offset 16
	.cfi_offset 6, -16
	movq	%rsp, %rbp
	.cfi_def_cfa_register 6
	subq	$32, %rsp
	movq	%rdi, -24(%rbp)
	movq	%fs:40, %rax
	movq	%rax, -8(%rbp)
	xorl	%eax, %eax
	movq	-24(%rbp), %rax
	leaq	8(%rax), %rdx
	leaq	-16(%rbp), %rax
	movq	%rdx, %rsi
	movq	%rax, %rdi
	call	_ZN9__gnu_cxx17__normal_iteratorIPiSt6vectorIiSaIiEEEC1ERKS1_
	movq	-16(%rbp), %rax
	movq	-8(%rbp), %rdx
	subq	%fs:40, %rdx
	je	.L106
	call	__stack_chk_fail@PLT
.L106:
	leave
	.cfi_def_cfa 7, 8
	ret
	.cfi_endproc
.LFE10530:
	.size	_ZNSt6vectorIiSaIiEE3endEv, .-_ZNSt6vectorIiSaIiEE3endEv
	.section	.text._ZN9__gnu_cxxneIPiSt6vectorIiSaIiEEEEbRKNS_17__normal_iteratorIT_T0_EESA_,"axG",@progbits,_ZN9__gnu_cxxneIPiSt6vectorIiSaIiEEEEbRKNS_17__normal_iteratorIT_T0_EESA_,comdat
	.weak	_ZN9__gnu_cxxneIPiSt6vectorIiSaIiEEEEbRKNS_17__normal_iteratorIT_T0_EESA_
	.type	_ZN9__gnu_cxxneIPiSt6vectorIiSaIiEEEEbRKNS_17__normal_iteratorIT_T0_EESA_, @function
_ZN9__gnu_cxxneIPiSt6vectorIiSaIiEEEEbRKNS_17__normal_iteratorIT_T0_EESA_:
.LFB10531:
	.cfi_startproc
	endbr64
	pushq	%rbp
	.cfi_def_cfa_offset 16
	.cfi_offset 6, -16
	movq	%rsp, %rbp
	.cfi_def_cfa_register 6
	pushq	%rbx
	subq	$24, %rsp
	.cfi_offset 3, -24
	movq	%rdi, -24(%rbp)
	movq	%rsi, -32(%rbp)
	movq	-24(%rbp), %rax
	movq	%rax, %rdi
	call	_ZNK9__gnu_cxx17__normal_iteratorIPiSt6vectorIiSaIiEEE4baseEv
	movq	(%rax), %rbx
	movq	-32(%rbp), %rax
	movq	%rax, %rdi
	call	_ZNK9__gnu_cxx17__normal_iteratorIPiSt6vectorIiSaIiEEE4baseEv
	movq	(%rax), %rax
	cmpq	%rax, %rbx
	setne	%al
	movq	-8(%rbp), %rbx
	leave
	.cfi_def_cfa 7, 8
	ret
	.cfi_endproc
.LFE10531:
	.size	_ZN9__gnu_cxxneIPiSt6vectorIiSaIiEEEEbRKNS_17__normal_iteratorIT_T0_EESA_, .-_ZN9__gnu_cxxneIPiSt6vectorIiSaIiEEEEbRKNS_17__normal_iteratorIT_T0_EESA_
	.section	.text._ZN9__gnu_cxx17__normal_iteratorIPiSt6vectorIiSaIiEEEppEv,"axG",@progbits,_ZN9__gnu_cxx17__normal_iteratorIPiSt6vectorIiSaIiEEEppEv,comdat
	.align 2
	.weak	_ZN9__gnu_cxx17__normal_iteratorIPiSt6vectorIiSaIiEEEppEv
	.type	_ZN9__gnu_cxx17__normal_iteratorIPiSt6vectorIiSaIiEEEppEv, @function
_ZN9__gnu_cxx17__normal_iteratorIPiSt6vectorIiSaIiEEEppEv:
.LFB10532:
	.cfi_startproc
	endbr64
	pushq	%rbp
	.cfi_def_cfa_offset 16
	.cfi_offset 6, -16
	movq	%rsp, %rbp
	.cfi_def_cfa_register 6
	movq	%rdi, -8(%rbp)
	movq	-8(%rbp), %rax
	movq	(%rax), %rax
	leaq	4(%rax), %rdx
	movq	-8(%rbp), %rax
	movq	%rdx, (%rax)
	movq	-8(%rbp), %rax
	popq	%rbp
	.cfi_def_cfa 7, 8
	ret
	.cfi_endproc
.LFE10532:
	.size	_ZN9__gnu_cxx17__normal_iteratorIPiSt6vectorIiSaIiEEEppEv, .-_ZN9__gnu_cxx17__normal_iteratorIPiSt6vectorIiSaIiEEEppEv
	.section	.text._ZNK9__gnu_cxx17__normal_iteratorIPiSt6vectorIiSaIiEEEdeEv,"axG",@progbits,_ZNK9__gnu_cxx17__normal_iteratorIPiSt6vectorIiSaIiEEEdeEv,comdat
	.align 2
	.weak	_ZNK9__gnu_cxx17__normal_iteratorIPiSt6vectorIiSaIiEEEdeEv
	.type	_ZNK9__gnu_cxx17__normal_iteratorIPiSt6vectorIiSaIiEEEdeEv, @function
_ZNK9__gnu_cxx17__normal_iteratorIPiSt6vectorIiSaIiEEEdeEv:
.LFB10533:
	.cfi_startproc
	endbr64
	pushq	%rbp
	.cfi_def_cfa_offset 16
	.cfi_offset 6, -16
	movq	%rsp, %rbp
	.cfi_def_cfa_register 6
	movq	%rdi, -8(%rbp)
	movq	-8(%rbp), %rax
	movq	(%rax), %rax
	popq	%rbp
	.cfi_def_cfa 7, 8
	ret
	.cfi_endproc
.LFE10533:
	.size	_ZNK9__gnu_cxx17__normal_iteratorIPiSt6vectorIiSaIiEEEdeEv, .-_ZNK9__gnu_cxx17__normal_iteratorIPiSt6vectorIiSaIiEEEdeEv
	.section	.text._ZNSt5stackIiSt5dequeIiSaIiEEE4pushERKi,"axG",@progbits,_ZNSt5stackIiSt5dequeIiSaIiEEE4pushERKi,comdat
	.align 2
	.weak	_ZNSt5stackIiSt5dequeIiSaIiEEE4pushERKi
	.type	_ZNSt5stackIiSt5dequeIiSaIiEEE4pushERKi, @function
_ZNSt5stackIiSt5dequeIiSaIiEEE4pushERKi:
.LFB10534:
	.cfi_startproc
	endbr64
	pushq	%rbp
	.cfi_def_cfa_offset 16
	.cfi_offset 6, -16
	movq	%rsp, %rbp
	.cfi_def_cfa_register 6
	subq	$16, %rsp
	movq	%rdi, -8(%rbp)
	movq	%rsi, -16(%rbp)
	movq	-8(%rbp), %rax
	movq	-16(%rbp), %rdx
	movq	%rdx, %rsi
	movq	%rax, %rdi
	call	_ZNSt5dequeIiSaIiEE9push_backERKi
	nop
	leave
	.cfi_def_cfa 7, 8
	ret
	.cfi_endproc
.LFE10534:
	.size	_ZNSt5stackIiSt5dequeIiSaIiEEE4pushERKi, .-_ZNSt5stackIiSt5dequeIiSaIiEEE4pushERKi
	.section	.text._ZNSt3mapIiSt6vectorIiSaIiEESt4lessIiESaISt4pairIKiS2_EEEixERS6_,"axG",@progbits,_ZNSt3mapIiSt6vectorIiSaIiEESt4lessIiESaISt4pairIKiS2_EEEixERS6_,comdat
	.align 2
	.weak	_ZNSt3mapIiSt6vectorIiSaIiEESt4lessIiESaISt4pairIKiS2_EEEixERS6_
	.type	_ZNSt3mapIiSt6vectorIiSaIiEESt4lessIiESaISt4pairIKiS2_EEEixERS6_, @function
_ZNSt3mapIiSt6vectorIiSaIiEESt4lessIiESaISt4pairIKiS2_EEEixERS6_:
.LFB10535:
	.cfi_startproc
	endbr64
	pushq	%rbp
	.cfi_def_cfa_offset 16
	.cfi_offset 6, -16
	movq	%rsp, %rbp
	.cfi_def_cfa_register 6
	pushq	%rbx
	subq	$72, %rsp
	.cfi_offset 3, -24
	movq	%rdi, -72(%rbp)
	movq	%rsi, -80(%rbp)
	movq	%fs:40, %rax
	movq	%rax, -24(%rbp)
	xorl	%eax, %eax
	movq	-80(%rbp), %rdx
	movq	-72(%rbp), %rax
	movq	%rdx, %rsi
	movq	%rax, %rdi
	call	_ZNSt3mapIiSt6vectorIiSaIiEESt4lessIiESaISt4pairIKiS2_EEE11lower_boundERS6_
	movq	%rax, -48(%rbp)
	movq	-72(%rbp), %rax
	movq	%rax, %rdi
	call	_ZNSt3mapIiSt6vectorIiSaIiEESt4lessIiESaISt4pairIKiS2_EEE3endEv
	movq	%rax, -32(%rbp)
	leaq	-32(%rbp), %rdx
	leaq	-48(%rbp), %rax
	movq	%rdx, %rsi
	movq	%rax, %rdi
	call	_ZSteqRKSt17_Rb_tree_iteratorISt4pairIKiSt6vectorIiSaIiEEEES8_
	testb	%al, %al
	jne	.L115
	movq	-72(%rbp), %rax
	movq	%rax, %rdi
	call	_ZNKSt3mapIiSt6vectorIiSaIiEESt4lessIiESaISt4pairIKiS2_EEE8key_compEv
	leaq	-48(%rbp), %rax
	movq	%rax, %rdi
	call	_ZNKSt17_Rb_tree_iteratorISt4pairIKiSt6vectorIiSaIiEEEEdeEv
	movq	%rax, %rdx
	movq	-80(%rbp), %rcx
	leaq	-40(%rbp), %rax
	movq	%rcx, %rsi
	movq	%rax, %rdi
	call	_ZNKSt4lessIiEclERKiS2_
	testb	%al, %al
	je	.L116
.L115:
	movl	$1, %eax
	jmp	.L117
.L116:
	movl	$0, %eax
.L117:
	testb	%al, %al
	je	.L118
	movq	-72(%rbp), %rbx
	movq	-80(%rbp), %rdx
	leaq	-40(%rbp), %rax
	movq	%rdx, %rsi
	movq	%rax, %rdi
	call	_ZNSt5tupleIJRKiEEC1ILb1ELb1EEES1_
	leaq	-48(%rbp), %rdx
	leaq	-32(%rbp), %rax
	movq	%rdx, %rsi
	movq	%rax, %rdi
	call	_ZNSt23_Rb_tree_const_iteratorISt4pairIKiSt6vectorIiSaIiEEEEC1ERKSt17_Rb_tree_iteratorIS5_E
	leaq	-49(%rbp), %rcx
	leaq	-40(%rbp), %rdx
	movq	-32(%rbp), %rax
	movq	%rcx, %r8
	movq	%rdx, %rcx
	leaq	_ZSt19piecewise_construct(%rip), %rdx
	movq	%rax, %rsi
	movq	%rbx, %rdi
	call	_ZNSt8_Rb_treeIiSt4pairIKiSt6vectorIiSaIiEEESt10_Select1stIS5_ESt4lessIiESaIS5_EE22_M_emplace_hint_uniqueIJRKSt21piecewise_construct_tSt5tupleIJRS1_EESG_IJEEEEESt17_Rb_tree_iteratorIS5_ESt23_Rb_tree_const_iteratorIS5_EDpOT_
	movq	%rax, -48(%rbp)
.L118:
	leaq	-48(%rbp), %rax
	movq	%rax, %rdi
	call	_ZNKSt17_Rb_tree_iteratorISt4pairIKiSt6vectorIiSaIiEEEEdeEv
	addq	$8, %rax
	movq	-24(%rbp), %rdx
	subq	%fs:40, %rdx
	je	.L120
	call	__stack_chk_fail@PLT
.L120:
	movq	-8(%rbp), %rbx
	leave
	.cfi_def_cfa 7, 8
	ret
	.cfi_endproc
.LFE10535:
	.size	_ZNSt3mapIiSt6vectorIiSaIiEESt4lessIiESaISt4pairIKiS2_EEEixERS6_, .-_ZNSt3mapIiSt6vectorIiSaIiEESt4lessIiESaISt4pairIKiS2_EEEixERS6_
	.section	.text._ZNSt6vectorIiSaIiEE9push_backERKi,"axG",@progbits,_ZNSt6vectorIiSaIiEE9push_backERKi,comdat
	.align 2
	.weak	_ZNSt6vectorIiSaIiEE9push_backERKi
	.type	_ZNSt6vectorIiSaIiEE9push_backERKi, @function
_ZNSt6vectorIiSaIiEE9push_backERKi:
.LFB10542:
	.cfi_startproc
	endbr64
	pushq	%rbp
	.cfi_def_cfa_offset 16
	.cfi_offset 6, -16
	movq	%rsp, %rbp
	.cfi_def_cfa_register 6
	pushq	%rbx
	subq	$72, %rsp
	.cfi_offset 3, -24
	movq	%rdi, -72(%rbp)
	movq	%rsi, -80(%rbp)
	movq	-72(%rbp), %rax
	movq	8(%rax), %rdx
	movq	-72(%rbp), %rax
	movq	16(%rax), %rax
	cmpq	%rax, %rdx
	je	.L122
	movq	-72(%rbp), %rax
	movq	8(%rax), %rax
	movq	-72(%rbp), %rdx
	movq	%rdx, -64(%rbp)
	movq	%rax, -56(%rbp)
	movq	-80(%rbp), %rax
	movq	%rax, -48(%rbp)
	movq	-48(%rbp), %rax
	movq	%rax, %rdi
	call	_ZSt7forwardIRKiEOT_RNSt16remove_referenceIS2_E4typeE
	movq	-64(%rbp), %rdx
	movq	%rdx, -40(%rbp)
	movq	-56(%rbp), %rdx
	movq	%rdx, -32(%rbp)
	movq	%rax, -24(%rbp)
	movq	-32(%rbp), %rax
	movq	%rax, %rsi
	movl	$4, %edi
	call	_ZnwmPv
	movq	%rax, %rbx
	movq	-24(%rbp), %rax
	movq	%rax, %rdi
	call	_ZSt7forwardIRKiEOT_RNSt16remove_referenceIS2_E4typeE
	movl	(%rax), %eax
	movl	%eax, (%rbx)
	nop
	nop
	movq	-72(%rbp), %rax
	movq	8(%rax), %rax
	leaq	4(%rax), %rdx
	movq	-72(%rbp), %rax
	movq	%rdx, 8(%rax)
	jmp	.L124
.L122:
	movq	-72(%rbp), %rax
	movq	%rax, %rdi
	call	_ZNSt6vectorIiSaIiEE3endEv
	movq	%rax, %rcx
	movq	-80(%rbp), %rdx
	movq	-72(%rbp), %rax
	movq	%rcx, %rsi
	movq	%rax, %rdi
	call	_ZNSt6vectorIiSaIiEE17_M_realloc_insertIJRKiEEEvN9__gnu_cxx17__normal_iteratorIPiS1_EEDpOT_
.L124:
	nop
	movq	-8(%rbp), %rbx
	leave
	.cfi_def_cfa 7, 8
	ret
	.cfi_endproc
.LFE10542:
	.size	_ZNSt6vectorIiSaIiEE9push_backERKi, .-_ZNSt6vectorIiSaIiEE9push_backERKi
	.section	.text._ZNKSt5stackIiSt5dequeIiSaIiEEE5emptyEv,"axG",@progbits,_ZNKSt5stackIiSt5dequeIiSaIiEEE5emptyEv,comdat
	.align 2
	.weak	_ZNKSt5stackIiSt5dequeIiSaIiEEE5emptyEv
	.type	_ZNKSt5stackIiSt5dequeIiSaIiEEE5emptyEv, @function
_ZNKSt5stackIiSt5dequeIiSaIiEEE5emptyEv:
.LFB10544:
	.cfi_startproc
	endbr64
	pushq	%rbp
	.cfi_def_cfa_offset 16
	.cfi_offset 6, -16
	movq	%rsp, %rbp
	.cfi_def_cfa_register 6
	subq	$16, %rsp
	movq	%rdi, -8(%rbp)
	movq	-8(%rbp), %rax
	movq	%rax, %rdi
	call	_ZNKSt5dequeIiSaIiEE5emptyEv
	leave
	.cfi_def_cfa 7, 8
	ret
	.cfi_endproc
.LFE10544:
	.size	_ZNKSt5stackIiSt5dequeIiSaIiEEE5emptyEv, .-_ZNKSt5stackIiSt5dequeIiSaIiEEE5emptyEv
	.section	.text._ZNSt5stackIiSt5dequeIiSaIiEEE3topEv,"axG",@progbits,_ZNSt5stackIiSt5dequeIiSaIiEEE3topEv,comdat
	.align 2
	.weak	_ZNSt5stackIiSt5dequeIiSaIiEEE3topEv
	.type	_ZNSt5stackIiSt5dequeIiSaIiEEE3topEv, @function
_ZNSt5stackIiSt5dequeIiSaIiEEE3topEv:
.LFB10545:
	.cfi_startproc
	endbr64
	pushq	%rbp
	.cfi_def_cfa_offset 16
	.cfi_offset 6, -16
	movq	%rsp, %rbp
	.cfi_def_cfa_register 6
	subq	$16, %rsp
	movq	%rdi, -8(%rbp)
	movq	-8(%rbp), %rax
	movq	%rax, %rdi
	call	_ZNSt5dequeIiSaIiEE4backEv
	leave
	.cfi_def_cfa 7, 8
	ret
	.cfi_endproc
.LFE10545:
	.size	_ZNSt5stackIiSt5dequeIiSaIiEEE3topEv, .-_ZNSt5stackIiSt5dequeIiSaIiEEE3topEv
	.section	.text._ZNSt5stackIiSt5dequeIiSaIiEEE3popEv,"axG",@progbits,_ZNSt5stackIiSt5dequeIiSaIiEEE3popEv,comdat
	.align 2
	.weak	_ZNSt5stackIiSt5dequeIiSaIiEEE3popEv
	.type	_ZNSt5stackIiSt5dequeIiSaIiEEE3popEv, @function
_ZNSt5stackIiSt5dequeIiSaIiEEE3popEv:
.LFB10546:
	.cfi_startproc
	endbr64
	pushq	%rbp
	.cfi_def_cfa_offset 16
	.cfi_offset 6, -16
	movq	%rsp, %rbp
	.cfi_def_cfa_register 6
	subq	$16, %rsp
	movq	%rdi, -8(%rbp)
	movq	-8(%rbp), %rax
	movq	%rax, %rdi
	call	_ZNSt5dequeIiSaIiEE8pop_backEv
	nop
	leave
	.cfi_def_cfa 7, 8
	ret
	.cfi_endproc
.LFE10546:
	.size	_ZNSt5stackIiSt5dequeIiSaIiEEE3popEv, .-_ZNSt5stackIiSt5dequeIiSaIiEEE3popEv
	.section	.text._ZNKSt3mapIiSt6vectorIiSaIiEESt4lessIiESaISt4pairIKiS2_EEE4sizeEv,"axG",@progbits,_ZNKSt3mapIiSt6vectorIiSaIiEESt4lessIiESaISt4pairIKiS2_EEE4sizeEv,comdat
	.align 2
	.weak	_ZNKSt3mapIiSt6vectorIiSaIiEESt4lessIiESaISt4pairIKiS2_EEE4sizeEv
	.type	_ZNKSt3mapIiSt6vectorIiSaIiEESt4lessIiESaISt4pairIKiS2_EEE4sizeEv, @function
_ZNKSt3mapIiSt6vectorIiSaIiEESt4lessIiESaISt4pairIKiS2_EEE4sizeEv:
.LFB10547:
	.cfi_startproc
	endbr64
	pushq	%rbp
	.cfi_def_cfa_offset 16
	.cfi_offset 6, -16
	movq	%rsp, %rbp
	.cfi_def_cfa_register 6
	subq	$16, %rsp
	movq	%rdi, -8(%rbp)
	movq	-8(%rbp), %rax
	movq	%rax, %rdi
	call	_ZNKSt8_Rb_treeIiSt4pairIKiSt6vectorIiSaIiEEESt10_Select1stIS5_ESt4lessIiESaIS5_EE4sizeEv
	leave
	.cfi_def_cfa 7, 8
	ret
	.cfi_endproc
.LFE10547:
	.size	_ZNKSt3mapIiSt6vectorIiSaIiEESt4lessIiESaISt4pairIKiS2_EEE4sizeEv, .-_ZNKSt3mapIiSt6vectorIiSaIiEESt4lessIiESaISt4pairIKiS2_EEE4sizeEv
	.section	.text._ZNSt3mapIiSt6vectorIiSaIiEESt4lessIiESaISt4pairIKiS2_EEE5beginEv,"axG",@progbits,_ZNSt3mapIiSt6vectorIiSaIiEESt4lessIiESaISt4pairIKiS2_EEE5beginEv,comdat
	.align 2
	.weak	_ZNSt3mapIiSt6vectorIiSaIiEESt4lessIiESaISt4pairIKiS2_EEE5beginEv
	.type	_ZNSt3mapIiSt6vectorIiSaIiEESt4lessIiESaISt4pairIKiS2_EEE5beginEv, @function
_ZNSt3mapIiSt6vectorIiSaIiEESt4lessIiESaISt4pairIKiS2_EEE5beginEv:
.LFB10550:
	.cfi_startproc
	endbr64
	pushq	%rbp
	.cfi_def_cfa_offset 16
	.cfi_offset 6, -16
	movq	%rsp, %rbp
	.cfi_def_cfa_register 6
	subq	$16, %rsp
	movq	%rdi, -8(%rbp)
	movq	-8(%rbp), %rax
	movq	%rax, %rdi
	call	_ZNSt8_Rb_treeIiSt4pairIKiSt6vectorIiSaIiEEESt10_Select1stIS5_ESt4lessIiESaIS5_EE5beginEv
	leave
	.cfi_def_cfa 7, 8
	ret
	.cfi_endproc
.LFE10550:
	.size	_ZNSt3mapIiSt6vectorIiSaIiEESt4lessIiESaISt4pairIKiS2_EEE5beginEv, .-_ZNSt3mapIiSt6vectorIiSaIiEESt4lessIiESaISt4pairIKiS2_EEE5beginEv
	.section	.text._ZNSt3mapIiSt6vectorIiSaIiEESt4lessIiESaISt4pairIKiS2_EEE3endEv,"axG",@progbits,_ZNSt3mapIiSt6vectorIiSaIiEESt4lessIiESaISt4pairIKiS2_EEE3endEv,comdat
	.align 2
	.weak	_ZNSt3mapIiSt6vectorIiSaIiEESt4lessIiESaISt4pairIKiS2_EEE3endEv
	.type	_ZNSt3mapIiSt6vectorIiSaIiEESt4lessIiESaISt4pairIKiS2_EEE3endEv, @function
_ZNSt3mapIiSt6vectorIiSaIiEESt4lessIiESaISt4pairIKiS2_EEE3endEv:
.LFB10551:
	.cfi_startproc
	endbr64
	pushq	%rbp
	.cfi_def_cfa_offset 16
	.cfi_offset 6, -16
	movq	%rsp, %rbp
	.cfi_def_cfa_register 6
	subq	$16, %rsp
	movq	%rdi, -8(%rbp)
	movq	-8(%rbp), %rax
	movq	%rax, %rdi
	call	_ZNSt8_Rb_treeIiSt4pairIKiSt6vectorIiSaIiEEESt10_Select1stIS5_ESt4lessIiESaIS5_EE3endEv
	leave
	.cfi_def_cfa 7, 8
	ret
	.cfi_endproc
.LFE10551:
	.size	_ZNSt3mapIiSt6vectorIiSaIiEESt4lessIiESaISt4pairIKiS2_EEE3endEv, .-_ZNSt3mapIiSt6vectorIiSaIiEESt4lessIiESaISt4pairIKiS2_EEE3endEv
	.section	.text._ZStneRKSt17_Rb_tree_iteratorISt4pairIKiSt6vectorIiSaIiEEEES8_,"axG",@progbits,_ZStneRKSt17_Rb_tree_iteratorISt4pairIKiSt6vectorIiSaIiEEEES8_,comdat
	.weak	_ZStneRKSt17_Rb_tree_iteratorISt4pairIKiSt6vectorIiSaIiEEEES8_
	.type	_ZStneRKSt17_Rb_tree_iteratorISt4pairIKiSt6vectorIiSaIiEEEES8_, @function
_ZStneRKSt17_Rb_tree_iteratorISt4pairIKiSt6vectorIiSaIiEEEES8_:
.LFB10552:
	.cfi_startproc
	endbr64
	pushq	%rbp
	.cfi_def_cfa_offset 16
	.cfi_offset 6, -16
	movq	%rsp, %rbp
	.cfi_def_cfa_register 6
	movq	%rdi, -8(%rbp)
	movq	%rsi, -16(%rbp)
	movq	-8(%rbp), %rax
	movq	(%rax), %rdx
	movq	-16(%rbp), %rax
	movq	(%rax), %rax
	cmpq	%rax, %rdx
	setne	%al
	popq	%rbp
	.cfi_def_cfa 7, 8
	ret
	.cfi_endproc
.LFE10552:
	.size	_ZStneRKSt17_Rb_tree_iteratorISt4pairIKiSt6vectorIiSaIiEEEES8_, .-_ZStneRKSt17_Rb_tree_iteratorISt4pairIKiSt6vectorIiSaIiEEEES8_
	.section	.text._ZNSt17_Rb_tree_iteratorISt4pairIKiSt6vectorIiSaIiEEEEppEv,"axG",@progbits,_ZNSt17_Rb_tree_iteratorISt4pairIKiSt6vectorIiSaIiEEEEppEv,comdat
	.align 2
	.weak	_ZNSt17_Rb_tree_iteratorISt4pairIKiSt6vectorIiSaIiEEEEppEv
	.type	_ZNSt17_Rb_tree_iteratorISt4pairIKiSt6vectorIiSaIiEEEEppEv, @function
_ZNSt17_Rb_tree_iteratorISt4pairIKiSt6vectorIiSaIiEEEEppEv:
.LFB10553:
	.cfi_startproc
	endbr64
	pushq	%rbp
	.cfi_def_cfa_offset 16
	.cfi_offset 6, -16
	movq	%rsp, %rbp
	.cfi_def_cfa_register 6
	subq	$16, %rsp
	movq	%rdi, -8(%rbp)
	movq	-8(%rbp), %rax
	movq	(%rax), %rax
	movq	%rax, %rdi
	call	_ZSt18_Rb_tree_incrementPSt18_Rb_tree_node_base@PLT
	movq	-8(%rbp), %rdx
	movq	%rax, (%rdx)
	movq	-8(%rbp), %rax
	leave
	.cfi_def_cfa 7, 8
	ret
	.cfi_endproc
.LFE10553:
	.size	_ZNSt17_Rb_tree_iteratorISt4pairIKiSt6vectorIiSaIiEEEEppEv, .-_ZNSt17_Rb_tree_iteratorISt4pairIKiSt6vectorIiSaIiEEEEppEv
	.section	.text._ZNKSt17_Rb_tree_iteratorISt4pairIKiSt6vectorIiSaIiEEEEdeEv,"axG",@progbits,_ZNKSt17_Rb_tree_iteratorISt4pairIKiSt6vectorIiSaIiEEEEdeEv,comdat
	.align 2
	.weak	_ZNKSt17_Rb_tree_iteratorISt4pairIKiSt6vectorIiSaIiEEEEdeEv
	.type	_ZNKSt17_Rb_tree_iteratorISt4pairIKiSt6vectorIiSaIiEEEEdeEv, @function
_ZNKSt17_Rb_tree_iteratorISt4pairIKiSt6vectorIiSaIiEEEEdeEv:
.LFB10554:
	.cfi_startproc
	endbr64
	pushq	%rbp
	.cfi_def_cfa_offset 16
	.cfi_offset 6, -16
	movq	%rsp, %rbp
	.cfi_def_cfa_register 6
	subq	$16, %rsp
	movq	%rdi, -8(%rbp)
	movq	-8(%rbp), %rax
	movq	(%rax), %rax
	movq	%rax, %rdi
	call	_ZNSt13_Rb_tree_nodeISt4pairIKiSt6vectorIiSaIiEEEE9_M_valptrEv
	leave
	.cfi_def_cfa 7, 8
	ret
	.cfi_endproc
.LFE10554:
	.size	_ZNKSt17_Rb_tree_iteratorISt4pairIKiSt6vectorIiSaIiEEEEdeEv, .-_ZNKSt17_Rb_tree_iteratorISt4pairIKiSt6vectorIiSaIiEEEEdeEv
	.section	.text._ZNKSt6vectorIiSaIiEE4sizeEv,"axG",@progbits,_ZNKSt6vectorIiSaIiEE4sizeEv,comdat
	.align 2
	.weak	_ZNKSt6vectorIiSaIiEE4sizeEv
	.type	_ZNKSt6vectorIiSaIiEE4sizeEv, @function
_ZNKSt6vectorIiSaIiEE4sizeEv:
.LFB10555:
	.cfi_startproc
	endbr64
	pushq	%rbp
	.cfi_def_cfa_offset 16
	.cfi_offset 6, -16
	movq	%rsp, %rbp
	.cfi_def_cfa_register 6
	movq	%rdi, -8(%rbp)
	movq	-8(%rbp), %rax
	movq	8(%rax), %rdx
	movq	-8(%rbp), %rax
	movq	(%rax), %rax
	subq	%rax, %rdx
	movq	%rdx, %rax
	sarq	$2, %rax
	popq	%rbp
	.cfi_def_cfa 7, 8
	ret
	.cfi_endproc
.LFE10555:
	.size	_ZNKSt6vectorIiSaIiEE4sizeEv, .-_ZNKSt6vectorIiSaIiEE4sizeEv
	.section	.text._ZNSt15__new_allocatorImED2Ev,"axG",@progbits,_ZNSt15__new_allocatorImED5Ev,comdat
	.align 2
	.weak	_ZNSt15__new_allocatorImED2Ev
	.type	_ZNSt15__new_allocatorImED2Ev, @function
_ZNSt15__new_allocatorImED2Ev:
.LFB10869:
	.cfi_startproc
	endbr64
	pushq	%rbp
	.cfi_def_cfa_offset 16
	.cfi_offset 6, -16
	movq	%rsp, %rbp
	.cfi_def_cfa_register 6
	movq	%rdi, -8(%rbp)
	nop
	popq	%rbp
	.cfi_def_cfa 7, 8
	ret
	.cfi_endproc
.LFE10869:
	.size	_ZNSt15__new_allocatorImED2Ev, .-_ZNSt15__new_allocatorImED2Ev
	.weak	_ZNSt15__new_allocatorImED1Ev
	.set	_ZNSt15__new_allocatorImED1Ev,_ZNSt15__new_allocatorImED2Ev
	.section	.text._ZNSt12_Vector_baseIiSaIiEE17_Vector_impl_dataC2Ev,"axG",@progbits,_ZNSt12_Vector_baseIiSaIiEE17_Vector_impl_dataC5Ev,comdat
	.align 2
	.weak	_ZNSt12_Vector_baseIiSaIiEE17_Vector_impl_dataC2Ev
	.type	_ZNSt12_Vector_baseIiSaIiEE17_Vector_impl_dataC2Ev, @function
_ZNSt12_Vector_baseIiSaIiEE17_Vector_impl_dataC2Ev:
.LFB10983:
	.cfi_startproc
	endbr64
	pushq	%rbp
	.cfi_def_cfa_offset 16
	.cfi_offset 6, -16
	movq	%rsp, %rbp
	.cfi_def_cfa_register 6
	movq	%rdi, -8(%rbp)
	movq	-8(%rbp), %rax
	movq	$0, (%rax)
	movq	-8(%rbp), %rax
	movq	$0, 8(%rax)
	movq	-8(%rbp), %rax
	movq	$0, 16(%rax)
	nop
	popq	%rbp
	.cfi_def_cfa 7, 8
	ret
	.cfi_endproc
.LFE10983:
	.size	_ZNSt12_Vector_baseIiSaIiEE17_Vector_impl_dataC2Ev, .-_ZNSt12_Vector_baseIiSaIiEE17_Vector_impl_dataC2Ev
	.weak	_ZNSt12_Vector_baseIiSaIiEE17_Vector_impl_dataC1Ev
	.set	_ZNSt12_Vector_baseIiSaIiEE17_Vector_impl_dataC1Ev,_ZNSt12_Vector_baseIiSaIiEE17_Vector_impl_dataC2Ev
	.section	.text._ZNSt15__new_allocatorIiED2Ev,"axG",@progbits,_ZNSt15__new_allocatorIiED5Ev,comdat
	.align 2
	.weak	_ZNSt15__new_allocatorIiED2Ev
	.type	_ZNSt15__new_allocatorIiED2Ev, @function
_ZNSt15__new_allocatorIiED2Ev:
.LFB10986:
	.cfi_startproc
	endbr64
	pushq	%rbp
	.cfi_def_cfa_offset 16
	.cfi_offset 6, -16
	movq	%rsp, %rbp
	.cfi_def_cfa_register 6
	movq	%rdi, -8(%rbp)
	nop
	popq	%rbp
	.cfi_def_cfa 7, 8
	ret
	.cfi_endproc
.LFE10986:
	.size	_ZNSt15__new_allocatorIiED2Ev, .-_ZNSt15__new_allocatorIiED2Ev
	.weak	_ZNSt15__new_allocatorIiED1Ev
	.set	_ZNSt15__new_allocatorIiED1Ev,_ZNSt15__new_allocatorIiED2Ev
	.section	.text._ZNSt12_Vector_baseIiSaIiEE13_M_deallocateEPim,"axG",@progbits,_ZNSt12_Vector_baseIiSaIiEE13_M_deallocateEPim,comdat
	.align 2
	.weak	_ZNSt12_Vector_baseIiSaIiEE13_M_deallocateEPim
	.type	_ZNSt12_Vector_baseIiSaIiEE13_M_deallocateEPim, @function
_ZNSt12_Vector_baseIiSaIiEE13_M_deallocateEPim:
.LFB10988:
	.cfi_startproc
	endbr64
	pushq	%rbp
	.cfi_def_cfa_offset 16
	.cfi_offset 6, -16
	movq	%rsp, %rbp
	.cfi_def_cfa_register 6
	subq	$64, %rsp
	movq	%rdi, -40(%rbp)
	movq	%rsi, -48(%rbp)
	movq	%rdx, -56(%rbp)
	cmpq	$0, -48(%rbp)
	je	.L149
	movq	-40(%rbp), %rax
	movq	%rax, -24(%rbp)
	movq	-48(%rbp), %rax
	movq	%rax, -16(%rbp)
	movq	-56(%rbp), %rax
	movq	%rax, -8(%rbp)
	movq	-8(%rbp), %rdx
	movq	-16(%rbp), %rcx
	movq	-24(%rbp), %rax
	movq	%rcx, %rsi
	movq	%rax, %rdi
	call	_ZNSt15__new_allocatorIiE10deallocateEPim
	nop
.L149:
	nop
	leave
	.cfi_def_cfa 7, 8
	ret
	.cfi_endproc
.LFE10988:
	.size	_ZNSt12_Vector_baseIiSaIiEE13_M_deallocateEPim, .-_ZNSt12_Vector_baseIiSaIiEE13_M_deallocateEPim
	.section	.text._ZNSt12_Vector_baseIiSaIiEE19_M_get_Tp_allocatorEv,"axG",@progbits,_ZNSt12_Vector_baseIiSaIiEE19_M_get_Tp_allocatorEv,comdat
	.align 2
	.weak	_ZNSt12_Vector_baseIiSaIiEE19_M_get_Tp_allocatorEv
	.type	_ZNSt12_Vector_baseIiSaIiEE19_M_get_Tp_allocatorEv, @function
_ZNSt12_Vector_baseIiSaIiEE19_M_get_Tp_allocatorEv:
.LFB10989:
	.cfi_startproc
	endbr64
	pushq	%rbp
	.cfi_def_cfa_offset 16
	.cfi_offset 6, -16
	movq	%rsp, %rbp
	.cfi_def_cfa_register 6
	movq	%rdi, -8(%rbp)
	movq	-8(%rbp), %rax
	popq	%rbp
	.cfi_def_cfa 7, 8
	ret
	.cfi_endproc
.LFE10989:
	.size	_ZNSt12_Vector_baseIiSaIiEE19_M_get_Tp_allocatorEv, .-_ZNSt12_Vector_baseIiSaIiEE19_M_get_Tp_allocatorEv
	.section	.text._ZNSt15__new_allocatorISt6vectorIiSaIiEEED2Ev,"axG",@progbits,_ZNSt15__new_allocatorISt6vectorIiSaIiEEED5Ev,comdat
	.align 2
	.weak	_ZNSt15__new_allocatorISt6vectorIiSaIiEEED2Ev
	.type	_ZNSt15__new_allocatorISt6vectorIiSaIiEEED2Ev, @function
_ZNSt15__new_allocatorISt6vectorIiSaIiEEED2Ev:
.LFB10995:
	.cfi_startproc
	endbr64
	pushq	%rbp
	.cfi_def_cfa_offset 16
	.cfi_offset 6, -16
	movq	%rsp, %rbp
	.cfi_def_cfa_register 6
	movq	%rdi, -8(%rbp)
	nop
	popq	%rbp
	.cfi_def_cfa 7, 8
	ret
	.cfi_endproc
.LFE10995:
	.size	_ZNSt15__new_allocatorISt6vectorIiSaIiEEED2Ev, .-_ZNSt15__new_allocatorISt6vectorIiSaIiEEED2Ev
	.weak	_ZNSt15__new_allocatorISt6vectorIiSaIiEEED1Ev
	.set	_ZNSt15__new_allocatorISt6vectorIiSaIiEEED1Ev,_ZNSt15__new_allocatorISt6vectorIiSaIiEEED2Ev
	.section	.rodata
	.align 8
.LC2:
	.string	"cannot create std::vector larger than max_size()"
	.section	.text._ZNSt6vectorIS_IiSaIiEESaIS1_EE17_S_check_init_lenEmRKS2_,"axG",@progbits,_ZNSt6vectorIS_IiSaIiEESaIS1_EE17_S_check_init_lenEmRKS2_,comdat
	.weak	_ZNSt6vectorIS_IiSaIiEESaIS1_EE17_S_check_init_lenEmRKS2_
	.type	_ZNSt6vectorIS_IiSaIiEESaIS1_EE17_S_check_init_lenEmRKS2_, @function
_ZNSt6vectorIS_IiSaIiEESaIS1_EE17_S_check_init_lenEmRKS2_:
.LFB10997:
	.cfi_startproc
	endbr64
	pushq	%rbp
	.cfi_def_cfa_offset 16
	.cfi_offset 6, -16
	movq	%rsp, %rbp
	.cfi_def_cfa_register 6
	pushq	%rbx
	subq	$72, %rsp
	.cfi_offset 3, -24
	movq	%rdi, -72(%rbp)
	movq	%rsi, -80(%rbp)
	movq	%fs:40, %rax
	movq	%rax, -24(%rbp)
	xorl	%eax, %eax
	movq	-80(%rbp), %rax
	movq	%rax, -48(%rbp)
	leaq	-49(%rbp), %rax
	movq	%rax, -40(%rbp)
	movq	-48(%rbp), %rax
	movq	%rax, -32(%rbp)
	nop
	nop
	leaq	-49(%rbp), %rax
	movq	%rax, %rdi
	call	_ZNSt6vectorIS_IiSaIiEESaIS1_EE11_S_max_sizeERKS2_
	cmpq	-72(%rbp), %rax
	setb	%bl
	leaq	-49(%rbp), %rax
	movq	%rax, %rdi
	call	_ZNSt15__new_allocatorISt6vectorIiSaIiEEED2Ev
	nop
	testb	%bl, %bl
	je	.L154
	movq	-24(%rbp), %rax
	subq	%fs:40, %rax
	je	.L155
	call	__stack_chk_fail@PLT
.L155:
	leaq	.LC2(%rip), %rax
	movq	%rax, %rdi
	call	_ZSt20__throw_length_errorPKc@PLT
.L154:
	movq	-72(%rbp), %rax
	movq	-24(%rbp), %rdx
	subq	%fs:40, %rdx
	je	.L157
	call	__stack_chk_fail@PLT
.L157:
	movq	-8(%rbp), %rbx
	leave
	.cfi_def_cfa 7, 8
	ret
	.cfi_endproc
.LFE10997:
	.size	_ZNSt6vectorIS_IiSaIiEESaIS1_EE17_S_check_init_lenEmRKS2_, .-_ZNSt6vectorIS_IiSaIiEESaIS1_EE17_S_check_init_lenEmRKS2_
	.section	.text._ZNSt12_Vector_baseISt6vectorIiSaIiEESaIS2_EE12_Vector_implD2Ev,"axG",@progbits,_ZNSt12_Vector_baseISt6vectorIiSaIiEESaIS2_EE12_Vector_implD5Ev,comdat
	.align 2
	.weak	_ZNSt12_Vector_baseISt6vectorIiSaIiEESaIS2_EE12_Vector_implD2Ev
	.type	_ZNSt12_Vector_baseISt6vectorIiSaIiEESaIS2_EE12_Vector_implD2Ev, @function
_ZNSt12_Vector_baseISt6vectorIiSaIiEESaIS2_EE12_Vector_implD2Ev:
.LFB11000:
	.cfi_startproc
	endbr64
	pushq	%rbp
	.cfi_def_cfa_offset 16
	.cfi_offset 6, -16
	movq	%rsp, %rbp
	.cfi_def_cfa_register 6
	subq	$32, %rsp
	movq	%rdi, -24(%rbp)
	movq	-24(%rbp), %rax
	movq	%rax, -8(%rbp)
	movq	-8(%rbp), %rax
	movq	%rax, %rdi
	call	_ZNSt15__new_allocatorISt6vectorIiSaIiEEED2Ev
	nop
	nop
	leave
	.cfi_def_cfa 7, 8
	ret
	.cfi_endproc
.LFE11000:
	.size	_ZNSt12_Vector_baseISt6vectorIiSaIiEESaIS2_EE12_Vector_implD2Ev, .-_ZNSt12_Vector_baseISt6vectorIiSaIiEESaIS2_EE12_Vector_implD2Ev
	.weak	_ZNSt12_Vector_baseISt6vectorIiSaIiEESaIS2_EE12_Vector_implD1Ev
	.set	_ZNSt12_Vector_baseISt6vectorIiSaIiEESaIS2_EE12_Vector_implD1Ev,_ZNSt12_Vector_baseISt6vectorIiSaIiEESaIS2_EE12_Vector_implD2Ev
	.section	.text._ZNSt12_Vector_baseISt6vectorIiSaIiEESaIS2_EEC2EmRKS3_,"axG",@progbits,_ZNSt12_Vector_baseISt6vectorIiSaIiEESaIS2_EEC5EmRKS3_,comdat
	.align 2
	.weak	_ZNSt12_Vector_baseISt6vectorIiSaIiEESaIS2_EEC2EmRKS3_
	.type	_ZNSt12_Vector_baseISt6vectorIiSaIiEESaIS2_EEC2EmRKS3_, @function
_ZNSt12_Vector_baseISt6vectorIiSaIiEESaIS2_EEC2EmRKS3_:
.LFB11002:
	.cfi_startproc
	.cfi_personality 0x9b,DW.ref.__gxx_personality_v0
	.cfi_lsda 0x1b,.LLSDA11002
	endbr64
	pushq	%rbp
	.cfi_def_cfa_offset 16
	.cfi_offset 6, -16
	movq	%rsp, %rbp
	.cfi_def_cfa_register 6
	pushq	%rbx
	subq	$40, %rsp
	.cfi_offset 3, -24
	movq	%rdi, -24(%rbp)
	movq	%rsi, -32(%rbp)
	movq	%rdx, -40(%rbp)
	movq	-24(%rbp), %rax
	movq	-40(%rbp), %rdx
	movq	%rdx, %rsi
	movq	%rax, %rdi
	call	_ZNSt12_Vector_baseISt6vectorIiSaIiEESaIS2_EE12_Vector_implC1ERKS3_
	movq	-32(%rbp), %rdx
	movq	-24(%rbp), %rax
	movq	%rdx, %rsi
	movq	%rax, %rdi
.LEHB5:
	call	_ZNSt12_Vector_baseISt6vectorIiSaIiEESaIS2_EE17_M_create_storageEm
.LEHE5:
	jmp	.L162
.L161:
	endbr64
	movq	%rax, %rbx
	movq	-24(%rbp), %rax
	movq	%rax, %rdi
	call	_ZNSt12_Vector_baseISt6vectorIiSaIiEESaIS2_EE12_Vector_implD1Ev
	movq	%rbx, %rax
	movq	%rax, %rdi
.LEHB6:
	call	_Unwind_Resume@PLT
.LEHE6:
.L162:
	movq	-8(%rbp), %rbx
	leave
	.cfi_def_cfa 7, 8
	ret
	.cfi_endproc
.LFE11002:
	.section	.gcc_except_table._ZNSt12_Vector_baseISt6vectorIiSaIiEESaIS2_EEC2EmRKS3_,"aG",@progbits,_ZNSt12_Vector_baseISt6vectorIiSaIiEESaIS2_EEC5EmRKS3_,comdat
.LLSDA11002:
	.byte	0xff
	.byte	0xff
	.byte	0x1
	.uleb128 .LLSDACSE11002-.LLSDACSB11002
.LLSDACSB11002:
	.uleb128 .LEHB5-.LFB11002
	.uleb128 .LEHE5-.LEHB5
	.uleb128 .L161-.LFB11002
	.uleb128 0
	.uleb128 .LEHB6-.LFB11002
	.uleb128 .LEHE6-.LEHB6
	.uleb128 0
	.uleb128 0
.LLSDACSE11002:
	.section	.text._ZNSt12_Vector_baseISt6vectorIiSaIiEESaIS2_EEC2EmRKS3_,"axG",@progbits,_ZNSt12_Vector_baseISt6vectorIiSaIiEESaIS2_EEC5EmRKS3_,comdat
	.size	_ZNSt12_Vector_baseISt6vectorIiSaIiEESaIS2_EEC2EmRKS3_, .-_ZNSt12_Vector_baseISt6vectorIiSaIiEESaIS2_EEC2EmRKS3_
	.weak	_ZNSt12_Vector_baseISt6vectorIiSaIiEESaIS2_EEC1EmRKS3_
	.set	_ZNSt12_Vector_baseISt6vectorIiSaIiEESaIS2_EEC1EmRKS3_,_ZNSt12_Vector_baseISt6vectorIiSaIiEESaIS2_EEC2EmRKS3_
	.section	.text._ZNSt12_Vector_baseISt6vectorIiSaIiEESaIS2_EED2Ev,"axG",@progbits,_ZNSt12_Vector_baseISt6vectorIiSaIiEESaIS2_EED5Ev,comdat
	.align 2
	.weak	_ZNSt12_Vector_baseISt6vectorIiSaIiEESaIS2_EED2Ev
	.type	_ZNSt12_Vector_baseISt6vectorIiSaIiEESaIS2_EED2Ev, @function
_ZNSt12_Vector_baseISt6vectorIiSaIiEESaIS2_EED2Ev:
.LFB11005:
	.cfi_startproc
	.cfi_personality 0x9b,DW.ref.__gxx_personality_v0
	.cfi_lsda 0x1b,.LLSDA11005
	endbr64
	pushq	%rbp
	.cfi_def_cfa_offset 16
	.cfi_offset 6, -16
	movq	%rsp, %rbp
	.cfi_def_cfa_register 6
	subq	$16, %rsp
	movq	%rdi, -8(%rbp)
	movq	-8(%rbp), %rax
	movq	16(%rax), %rdx
	movq	-8(%rbp), %rax
	movq	(%rax), %rax
	subq	%rax, %rdx
	sarq	$3, %rdx
	movabsq	$-6148914691236517205, %rax
	imulq	%rdx, %rax
	movq	%rax, %rdx
	movq	-8(%rbp), %rax
	movq	(%rax), %rcx
	movq	-8(%rbp), %rax
	movq	%rcx, %rsi
	movq	%rax, %rdi
	call	_ZNSt12_Vector_baseISt6vectorIiSaIiEESaIS2_EE13_M_deallocateEPS2_m
	movq	-8(%rbp), %rax
	movq	%rax, %rdi
	call	_ZNSt12_Vector_baseISt6vectorIiSaIiEESaIS2_EE12_Vector_implD1Ev
	nop
	leave
	.cfi_def_cfa 7, 8
	ret
	.cfi_endproc
.LFE11005:
	.section	.gcc_except_table._ZNSt12_Vector_baseISt6vectorIiSaIiEESaIS2_EED2Ev,"aG",@progbits,_ZNSt12_Vector_baseISt6vectorIiSaIiEESaIS2_EED5Ev,comdat
.LLSDA11005:
	.byte	0xff
	.byte	0xff
	.byte	0x1
	.uleb128 .LLSDACSE11005-.LLSDACSB11005
.LLSDACSB11005:
.LLSDACSE11005:
	.section	.text._ZNSt12_Vector_baseISt6vectorIiSaIiEESaIS2_EED2Ev,"axG",@progbits,_ZNSt12_Vector_baseISt6vectorIiSaIiEESaIS2_EED5Ev,comdat
	.size	_ZNSt12_Vector_baseISt6vectorIiSaIiEESaIS2_EED2Ev, .-_ZNSt12_Vector_baseISt6vectorIiSaIiEESaIS2_EED2Ev
	.weak	_ZNSt12_Vector_baseISt6vectorIiSaIiEESaIS2_EED1Ev
	.set	_ZNSt12_Vector_baseISt6vectorIiSaIiEESaIS2_EED1Ev,_ZNSt12_Vector_baseISt6vectorIiSaIiEESaIS2_EED2Ev
	.section	.text._ZNSt6vectorIS_IiSaIiEESaIS1_EE18_M_fill_initializeEmRKS1_,"axG",@progbits,_ZNSt6vectorIS_IiSaIiEESaIS1_EE18_M_fill_initializeEmRKS1_,comdat
	.align 2
	.weak	_ZNSt6vectorIS_IiSaIiEESaIS1_EE18_M_fill_initializeEmRKS1_
	.type	_ZNSt6vectorIS_IiSaIiEESaIS1_EE18_M_fill_initializeEmRKS1_, @function
_ZNSt6vectorIS_IiSaIiEESaIS1_EE18_M_fill_initializeEmRKS1_:
.LFB11007:
	.cfi_startproc
	endbr64
	pushq	%rbp
	.cfi_def_cfa_offset 16
	.cfi_offset 6, -16
	movq	%rsp, %rbp
	.cfi_def_cfa_register 6
	subq	$32, %rsp
	movq	%rdi, -8(%rbp)
	movq	%rsi, -16(%rbp)
	movq	%rdx, -24(%rbp)
	movq	-8(%rbp), %rax
	movq	%rax, %rdi
	call	_ZNSt12_Vector_baseISt6vectorIiSaIiEESaIS2_EE19_M_get_Tp_allocatorEv
	movq	%rax, %rcx
	movq	-8(%rbp), %rax
	movq	(%rax), %rax
	movq	-24(%rbp), %rdx
	movq	-16(%rbp), %rsi
	movq	%rax, %rdi
	call	_ZSt24__uninitialized_fill_n_aIPSt6vectorIiSaIiEEmS2_S2_ET_S4_T0_RKT1_RSaIT2_E
	movq	-8(%rbp), %rdx
	movq	%rax, 8(%rdx)
	nop
	leave
	.cfi_def_cfa 7, 8
	ret
	.cfi_endproc
.LFE11007:
	.size	_ZNSt6vectorIS_IiSaIiEESaIS1_EE18_M_fill_initializeEmRKS1_, .-_ZNSt6vectorIS_IiSaIiEESaIS1_EE18_M_fill_initializeEmRKS1_
	.section	.text._ZNSt11_Deque_baseIiSaIiEE11_Deque_implD2Ev,"axG",@progbits,_ZNSt11_Deque_baseIiSaIiEE11_Deque_implD5Ev,comdat
	.align 2
	.weak	_ZNSt11_Deque_baseIiSaIiEE11_Deque_implD2Ev
	.type	_ZNSt11_Deque_baseIiSaIiEE11_Deque_implD2Ev, @function
_ZNSt11_Deque_baseIiSaIiEE11_Deque_implD2Ev:
.LFB11010:
	.cfi_startproc
	endbr64
	pushq	%rbp
	.cfi_def_cfa_offset 16
	.cfi_offset 6, -16
	movq	%rsp, %rbp
	.cfi_def_cfa_register 6
	subq	$32, %rsp
	movq	%rdi, -24(%rbp)
	movq	-24(%rbp), %rax
	movq	%rax, -8(%rbp)
	movq	-8(%rbp), %rax
	movq	%rax, %rdi
	call	_ZNSt15__new_allocatorIiED2Ev
	nop
	nop
	leave
	.cfi_def_cfa 7, 8
	ret
	.cfi_endproc
.LFE11010:
	.size	_ZNSt11_Deque_baseIiSaIiEE11_Deque_implD2Ev, .-_ZNSt11_Deque_baseIiSaIiEE11_Deque_implD2Ev
	.weak	_ZNSt11_Deque_baseIiSaIiEE11_Deque_implD1Ev
	.set	_ZNSt11_Deque_baseIiSaIiEE11_Deque_implD1Ev,_ZNSt11_Deque_baseIiSaIiEE11_Deque_implD2Ev
	.section	.text._ZNSt11_Deque_baseIiSaIiEEC2Ev,"axG",@progbits,_ZNSt11_Deque_baseIiSaIiEEC5Ev,comdat
	.align 2
	.weak	_ZNSt11_Deque_baseIiSaIiEEC2Ev
	.type	_ZNSt11_Deque_baseIiSaIiEEC2Ev, @function
_ZNSt11_Deque_baseIiSaIiEEC2Ev:
.LFB11012:
	.cfi_startproc
	.cfi_personality 0x9b,DW.ref.__gxx_personality_v0
	.cfi_lsda 0x1b,.LLSDA11012
	endbr64
	pushq	%rbp
	.cfi_def_cfa_offset 16
	.cfi_offset 6, -16
	movq	%rsp, %rbp
	.cfi_def_cfa_register 6
	pushq	%rbx
	subq	$24, %rsp
	.cfi_offset 3, -24
	movq	%rdi, -24(%rbp)
	movq	-24(%rbp), %rax
	movq	%rax, %rdi
	call	_ZNSt11_Deque_baseIiSaIiEE11_Deque_implC1Ev
	movq	-24(%rbp), %rax
	movl	$0, %esi
	movq	%rax, %rdi
.LEHB7:
	call	_ZNSt11_Deque_baseIiSaIiEE17_M_initialize_mapEm
.LEHE7:
	jmp	.L169
.L168:
	endbr64
	movq	%rax, %rbx
	movq	-24(%rbp), %rax
	movq	%rax, %rdi
	call	_ZNSt11_Deque_baseIiSaIiEE11_Deque_implD1Ev
	movq	%rbx, %rax
	movq	%rax, %rdi
.LEHB8:
	call	_Unwind_Resume@PLT
.LEHE8:
.L169:
	movq	-8(%rbp), %rbx
	leave
	.cfi_def_cfa 7, 8
	ret
	.cfi_endproc
.LFE11012:
	.section	.gcc_except_table._ZNSt11_Deque_baseIiSaIiEEC2Ev,"aG",@progbits,_ZNSt11_Deque_baseIiSaIiEEC5Ev,comdat
.LLSDA11012:
	.byte	0xff
	.byte	0xff
	.byte	0x1
	.uleb128 .LLSDACSE11012-.LLSDACSB11012
.LLSDACSB11012:
	.uleb128 .LEHB7-.LFB11012
	.uleb128 .LEHE7-.LEHB7
	.uleb128 .L168-.LFB11012
	.uleb128 0
	.uleb128 .LEHB8-.LFB11012
	.uleb128 .LEHE8-.LEHB8
	.uleb128 0
	.uleb128 0
.LLSDACSE11012:
	.section	.text._ZNSt11_Deque_baseIiSaIiEEC2Ev,"axG",@progbits,_ZNSt11_Deque_baseIiSaIiEEC5Ev,comdat
	.size	_ZNSt11_Deque_baseIiSaIiEEC2Ev, .-_ZNSt11_Deque_baseIiSaIiEEC2Ev
	.weak	_ZNSt11_Deque_baseIiSaIiEEC1Ev
	.set	_ZNSt11_Deque_baseIiSaIiEEC1Ev,_ZNSt11_Deque_baseIiSaIiEEC2Ev
	.section	.text._ZNSt11_Deque_baseIiSaIiEED2Ev,"axG",@progbits,_ZNSt11_Deque_baseIiSaIiEED5Ev,comdat
	.align 2
	.weak	_ZNSt11_Deque_baseIiSaIiEED2Ev
	.type	_ZNSt11_Deque_baseIiSaIiEED2Ev, @function
_ZNSt11_Deque_baseIiSaIiEED2Ev:
.LFB11015:
	.cfi_startproc
	endbr64
	pushq	%rbp
	.cfi_def_cfa_offset 16
	.cfi_offset 6, -16
	movq	%rsp, %rbp
	.cfi_def_cfa_register 6
	subq	$16, %rsp
	movq	%rdi, -8(%rbp)
	movq	-8(%rbp), %rax
	movq	(%rax), %rax
	testq	%rax, %rax
	je	.L171
	movq	-8(%rbp), %rax
	movq	72(%rax), %rax
	leaq	8(%rax), %rdx
	movq	-8(%rbp), %rax
	movq	40(%rax), %rcx
	movq	-8(%rbp), %rax
	movq	%rcx, %rsi
	movq	%rax, %rdi
	call	_ZNSt11_Deque_baseIiSaIiEE16_M_destroy_nodesEPPiS3_
	movq	-8(%rbp), %rax
	movq	8(%rax), %rdx
	movq	-8(%rbp), %rax
	movq	(%rax), %rcx
	movq	-8(%rbp), %rax
	movq	%rcx, %rsi
	movq	%rax, %rdi
	call	_ZNSt11_Deque_baseIiSaIiEE17_M_deallocate_mapEPPim
.L171:
	movq	-8(%rbp), %rax
	movq	%rax, %rdi
	call	_ZNSt11_Deque_baseIiSaIiEE11_Deque_implD1Ev
	nop
	leave
	.cfi_def_cfa 7, 8
	ret
	.cfi_endproc
.LFE11015:
	.size	_ZNSt11_Deque_baseIiSaIiEED2Ev, .-_ZNSt11_Deque_baseIiSaIiEED2Ev
	.weak	_ZNSt11_Deque_baseIiSaIiEED1Ev
	.set	_ZNSt11_Deque_baseIiSaIiEED1Ev,_ZNSt11_Deque_baseIiSaIiEED2Ev
	.section	.text._ZNSt5dequeIiSaIiEED2Ev,"axG",@progbits,_ZNSt5dequeIiSaIiEED5Ev,comdat
	.align 2
	.weak	_ZNSt5dequeIiSaIiEED2Ev
	.type	_ZNSt5dequeIiSaIiEED2Ev, @function
_ZNSt5dequeIiSaIiEED2Ev:
.LFB11018:
	.cfi_startproc
	.cfi_personality 0x9b,DW.ref.__gxx_personality_v0
	.cfi_lsda 0x1b,.LLSDA11018
	endbr64
	pushq	%rbp
	.cfi_def_cfa_offset 16
	.cfi_offset 6, -16
	movq	%rsp, %rbp
	.cfi_def_cfa_register 6
	pushq	%rbx
	subq	$104, %rsp
	.cfi_offset 3, -24
	movq	%rdi, -104(%rbp)
	movq	%fs:40, %rax
	movq	%rax, -24(%rbp)
	xorl	%eax, %eax
	movq	-104(%rbp), %rax
	movq	%rax, %rdi
	call	_ZNSt11_Deque_baseIiSaIiEE19_M_get_Tp_allocatorEv
	movq	%rax, %rbx
	leaq	-64(%rbp), %rax
	movq	-104(%rbp), %rdx
	movq	%rdx, %rsi
	movq	%rax, %rdi
	call	_ZNSt5dequeIiSaIiEE3endEv
	leaq	-96(%rbp), %rax
	movq	-104(%rbp), %rdx
	movq	%rdx, %rsi
	movq	%rax, %rdi
	call	_ZNSt5dequeIiSaIiEE5beginEv
	leaq	-64(%rbp), %rdx
	leaq	-96(%rbp), %rsi
	movq	-104(%rbp), %rax
	movq	%rbx, %rcx
	movq	%rax, %rdi
	call	_ZNSt5dequeIiSaIiEE15_M_destroy_dataESt15_Deque_iteratorIiRiPiES5_RKS0_
	movq	-104(%rbp), %rax
	movq	%rax, %rdi
	call	_ZNSt11_Deque_baseIiSaIiEED2Ev
	nop
	movq	-24(%rbp), %rax
	subq	%fs:40, %rax
	je	.L173
	call	__stack_chk_fail@PLT
.L173:
	movq	-8(%rbp), %rbx
	leave
	.cfi_def_cfa 7, 8
	ret
	.cfi_endproc
.LFE11018:
	.section	.gcc_except_table._ZNSt5dequeIiSaIiEED2Ev,"aG",@progbits,_ZNSt5dequeIiSaIiEED5Ev,comdat
.LLSDA11018:
	.byte	0xff
	.byte	0xff
	.byte	0x1
	.uleb128 .LLSDACSE11018-.LLSDACSB11018
.LLSDACSB11018:
.LLSDACSE11018:
	.section	.text._ZNSt5dequeIiSaIiEED2Ev,"axG",@progbits,_ZNSt5dequeIiSaIiEED5Ev,comdat
	.size	_ZNSt5dequeIiSaIiEED2Ev, .-_ZNSt5dequeIiSaIiEED2Ev
	.weak	_ZNSt5dequeIiSaIiEED1Ev
	.set	_ZNSt5dequeIiSaIiEED1Ev,_ZNSt5dequeIiSaIiEED2Ev
	.section	.text._ZNSt15__new_allocatorIbED2Ev,"axG",@progbits,_ZNSt15__new_allocatorIbED5Ev,comdat
	.align 2
	.weak	_ZNSt15__new_allocatorIbED2Ev
	.type	_ZNSt15__new_allocatorIbED2Ev, @function
_ZNSt15__new_allocatorIbED2Ev:
.LFB11024:
	.cfi_startproc
	endbr64
	pushq	%rbp
	.cfi_def_cfa_offset 16
	.cfi_offset 6, -16
	movq	%rsp, %rbp
	.cfi_def_cfa_register 6
	movq	%rdi, -8(%rbp)
	nop
	popq	%rbp
	.cfi_def_cfa 7, 8
	ret
	.cfi_endproc
.LFE11024:
	.size	_ZNSt15__new_allocatorIbED2Ev, .-_ZNSt15__new_allocatorIbED2Ev
	.weak	_ZNSt15__new_allocatorIbED1Ev
	.set	_ZNSt15__new_allocatorIbED1Ev,_ZNSt15__new_allocatorIbED2Ev
	.section	.text._ZNSt13_Bvector_baseISaIbEE13_Bvector_implD2Ev,"axG",@progbits,_ZNSt13_Bvector_baseISaIbEE13_Bvector_implD5Ev,comdat
	.align 2
	.weak	_ZNSt13_Bvector_baseISaIbEE13_Bvector_implD2Ev
	.type	_ZNSt13_Bvector_baseISaIbEE13_Bvector_implD2Ev, @function
_ZNSt13_Bvector_baseISaIbEE13_Bvector_implD2Ev:
.LFB11028:
	.cfi_startproc
	endbr64
	pushq	%rbp
	.cfi_def_cfa_offset 16
	.cfi_offset 6, -16
	movq	%rsp, %rbp
	.cfi_def_cfa_register 6
	subq	$32, %rsp
	movq	%rdi, -24(%rbp)
	movq	-24(%rbp), %rax
	movq	%rax, -8(%rbp)
	movq	-8(%rbp), %rax
	movq	%rax, %rdi
	call	_ZNSt15__new_allocatorImED2Ev
	nop
	nop
	leave
	.cfi_def_cfa 7, 8
	ret
	.cfi_endproc
.LFE11028:
	.size	_ZNSt13_Bvector_baseISaIbEE13_Bvector_implD2Ev, .-_ZNSt13_Bvector_baseISaIbEE13_Bvector_implD2Ev
	.weak	_ZNSt13_Bvector_baseISaIbEE13_Bvector_implD1Ev
	.set	_ZNSt13_Bvector_baseISaIbEE13_Bvector_implD1Ev,_ZNSt13_Bvector_baseISaIbEE13_Bvector_implD2Ev
	.section	.text._ZNSt13_Bvector_baseISaIbEEC2ERKS0_,"axG",@progbits,_ZNSt13_Bvector_baseISaIbEEC5ERKS0_,comdat
	.align 2
	.weak	_ZNSt13_Bvector_baseISaIbEEC2ERKS0_
	.type	_ZNSt13_Bvector_baseISaIbEEC2ERKS0_, @function
_ZNSt13_Bvector_baseISaIbEEC2ERKS0_:
.LFB11030:
	.cfi_startproc
	endbr64
	pushq	%rbp
	.cfi_def_cfa_offset 16
	.cfi_offset 6, -16
	movq	%rsp, %rbp
	.cfi_def_cfa_register 6
	subq	$48, %rsp
	movq	%rdi, -40(%rbp)
	movq	%rsi, -48(%rbp)
	movq	%fs:40, %rax
	movq	%rax, -8(%rbp)
	xorl	%eax, %eax
	movq	-40(%rbp), %rax
	movq	-48(%rbp), %rdx
	movq	%rdx, -24(%rbp)
	leaq	-25(%rbp), %rdx
	movq	%rdx, -16(%rbp)
	nop
	nop
	leaq	-25(%rbp), %rdx
	movq	%rdx, %rsi
	movq	%rax, %rdi
	call	_ZNSt13_Bvector_baseISaIbEE13_Bvector_implC1ERKSaImE
	leaq	-25(%rbp), %rax
	movq	%rax, %rdi
	call	_ZNSt15__new_allocatorImED2Ev
	nop
	nop
	movq	-8(%rbp), %rax
	subq	%fs:40, %rax
	je	.L177
	call	__stack_chk_fail@PLT
.L177:
	leave
	.cfi_def_cfa 7, 8
	ret
	.cfi_endproc
.LFE11030:
	.size	_ZNSt13_Bvector_baseISaIbEEC2ERKS0_, .-_ZNSt13_Bvector_baseISaIbEEC2ERKS0_
	.weak	_ZNSt13_Bvector_baseISaIbEEC1ERKS0_
	.set	_ZNSt13_Bvector_baseISaIbEEC1ERKS0_,_ZNSt13_Bvector_baseISaIbEEC2ERKS0_
	.section	.text._ZNSt13_Bvector_baseISaIbEED2Ev,"axG",@progbits,_ZNSt13_Bvector_baseISaIbEED5Ev,comdat
	.align 2
	.weak	_ZNSt13_Bvector_baseISaIbEED2Ev
	.type	_ZNSt13_Bvector_baseISaIbEED2Ev, @function
_ZNSt13_Bvector_baseISaIbEED2Ev:
.LFB11033:
	.cfi_startproc
	.cfi_personality 0x9b,DW.ref.__gxx_personality_v0
	.cfi_lsda 0x1b,.LLSDA11033
	endbr64
	pushq	%rbp
	.cfi_def_cfa_offset 16
	.cfi_offset 6, -16
	movq	%rsp, %rbp
	.cfi_def_cfa_register 6
	subq	$16, %rsp
	movq	%rdi, -8(%rbp)
	movq	-8(%rbp), %rax
	movq	%rax, %rdi
	call	_ZNSt13_Bvector_baseISaIbEE13_M_deallocateEv
	movq	-8(%rbp), %rax
	movq	%rax, %rdi
	call	_ZNSt13_Bvector_baseISaIbEE13_Bvector_implD1Ev
	nop
	leave
	.cfi_def_cfa 7, 8
	ret
	.cfi_endproc
.LFE11033:
	.section	.gcc_except_table._ZNSt13_Bvector_baseISaIbEED2Ev,"aG",@progbits,_ZNSt13_Bvector_baseISaIbEED5Ev,comdat
.LLSDA11033:
	.byte	0xff
	.byte	0xff
	.byte	0x1
	.uleb128 .LLSDACSE11033-.LLSDACSB11033
.LLSDACSB11033:
.LLSDACSE11033:
	.section	.text._ZNSt13_Bvector_baseISaIbEED2Ev,"axG",@progbits,_ZNSt13_Bvector_baseISaIbEED5Ev,comdat
	.size	_ZNSt13_Bvector_baseISaIbEED2Ev, .-_ZNSt13_Bvector_baseISaIbEED2Ev
	.weak	_ZNSt13_Bvector_baseISaIbEED1Ev
	.set	_ZNSt13_Bvector_baseISaIbEED1Ev,_ZNSt13_Bvector_baseISaIbEED2Ev
	.section	.text._ZNSt6vectorIbSaIbEE13_M_initializeEm,"axG",@progbits,_ZNSt6vectorIbSaIbEE13_M_initializeEm,comdat
	.align 2
	.weak	_ZNSt6vectorIbSaIbEE13_M_initializeEm
	.type	_ZNSt6vectorIbSaIbEE13_M_initializeEm, @function
_ZNSt6vectorIbSaIbEE13_M_initializeEm:
.LFB11035:
	.cfi_startproc
	endbr64
	pushq	%rbp
	.cfi_def_cfa_offset 16
	.cfi_offset 6, -16
	movq	%rsp, %rbp
	.cfi_def_cfa_register 6
	subq	$80, %rsp
	movq	%rdi, -72(%rbp)
	movq	%rsi, -80(%rbp)
	movq	%fs:40, %rax
	movq	%rax, -8(%rbp)
	xorl	%eax, %eax
	cmpq	$0, -80(%rbp)
	je	.L182
	movq	-72(%rbp), %rax
	movq	-80(%rbp), %rdx
	movq	%rdx, %rsi
	movq	%rax, %rdi
	call	_ZNSt13_Bvector_baseISaIbEE11_M_allocateEm
	movq	%rax, -56(%rbp)
	movq	-80(%rbp), %rax
	movq	%rax, %rdi
	call	_ZNSt13_Bvector_baseISaIbEE8_S_nwordEm
	leaq	0(,%rax,8), %rdx
	movq	-56(%rbp), %rax
	addq	%rax, %rdx
	movq	-72(%rbp), %rax
	movq	%rdx, 32(%rax)
	movq	-56(%rbp), %rax
	movq	%rax, %rdi
	call	_ZSt11__addressofImEPT_RS0_
	movq	%rax, %rcx
	leaq	-48(%rbp), %rax
	movl	$0, %edx
	movq	%rcx, %rsi
	movq	%rax, %rdi
	call	_ZNSt13_Bit_iteratorC1EPmj
	movq	-72(%rbp), %rax
	movq	-48(%rbp), %rdx
	movq	%rdx, (%rax)
	movl	-40(%rbp), %edx
	movl	%edx, 8(%rax)
	movq	-80(%rbp), %rdx
	leaq	-48(%rbp), %rax
	movq	%rdx, %rsi
	movq	%rax, %rdi
	call	_ZStplRKSt13_Bit_iteratorl
	movq	%rax, -32(%rbp)
	movq	%rdx, -24(%rbp)
	movq	-72(%rbp), %rax
	movq	-32(%rbp), %rdx
	movq	%rdx, 16(%rax)
	movl	-24(%rbp), %edx
	movl	%edx, 24(%rax)
.L182:
	nop
	movq	-8(%rbp), %rax
	subq	%fs:40, %rax
	je	.L181
	call	__stack_chk_fail@PLT
.L181:
	leave
	.cfi_def_cfa 7, 8
	ret
	.cfi_endproc
.LFE11035:
	.size	_ZNSt6vectorIbSaIbEE13_M_initializeEm, .-_ZNSt6vectorIbSaIbEE13_M_initializeEm
	.section	.text._ZNSt6vectorIbSaIbEE19_M_initialize_valueEb,"axG",@progbits,_ZNSt6vectorIbSaIbEE19_M_initialize_valueEb,comdat
	.align 2
	.weak	_ZNSt6vectorIbSaIbEE19_M_initialize_valueEb
	.type	_ZNSt6vectorIbSaIbEE19_M_initialize_valueEb, @function
_ZNSt6vectorIbSaIbEE19_M_initialize_valueEb:
.LFB11036:
	.cfi_startproc
	endbr64
	pushq	%rbp
	.cfi_def_cfa_offset 16
	.cfi_offset 6, -16
	movq	%rsp, %rbp
	.cfi_def_cfa_register 6
	pushq	%rbx
	subq	$40, %rsp
	.cfi_offset 3, -24
	movq	%rdi, -40(%rbp)
	movl	%esi, %eax
	movb	%al, -44(%rbp)
	movq	-40(%rbp), %rax
	movq	(%rax), %rax
	movq	%rax, -24(%rbp)
	cmpq	$0, -24(%rbp)
	je	.L185
	movzbl	-44(%rbp), %ebx
	movq	-40(%rbp), %rax
	movq	%rax, %rdi
	call	_ZNKSt13_Bvector_baseISaIbEE13_Bvector_impl11_M_end_addrEv
	subq	-24(%rbp), %rax
	sarq	$3, %rax
	movq	%rax, %rcx
	movq	-24(%rbp), %rax
	movl	%ebx, %edx
	movq	%rcx, %rsi
	movq	%rax, %rdi
	call	_ZSt16__fill_bvector_nPmmb
.L185:
	nop
	movq	-8(%rbp), %rbx
	leave
	.cfi_def_cfa 7, 8
	ret
	.cfi_endproc
.LFE11036:
	.size	_ZNSt6vectorIbSaIbEE19_M_initialize_valueEb, .-_ZNSt6vectorIbSaIbEE19_M_initialize_valueEb
	.section	.text._ZNSt20_Rb_tree_key_compareISt4lessIiEEC2Ev,"axG",@progbits,_ZNSt20_Rb_tree_key_compareISt4lessIiEEC5Ev,comdat
	.align 2
	.weak	_ZNSt20_Rb_tree_key_compareISt4lessIiEEC2Ev
	.type	_ZNSt20_Rb_tree_key_compareISt4lessIiEEC2Ev, @function
_ZNSt20_Rb_tree_key_compareISt4lessIiEEC2Ev:
.LFB11041:
	.cfi_startproc
	endbr64
	pushq	%rbp
	.cfi_def_cfa_offset 16
	.cfi_offset 6, -16
	movq	%rsp, %rbp
	.cfi_def_cfa_register 6
	movq	%rdi, -8(%rbp)
	nop
	popq	%rbp
	.cfi_def_cfa 7, 8
	ret
	.cfi_endproc
.LFE11041:
	.size	_ZNSt20_Rb_tree_key_compareISt4lessIiEEC2Ev, .-_ZNSt20_Rb_tree_key_compareISt4lessIiEEC2Ev
	.weak	_ZNSt20_Rb_tree_key_compareISt4lessIiEEC1Ev
	.set	_ZNSt20_Rb_tree_key_compareISt4lessIiEEC1Ev,_ZNSt20_Rb_tree_key_compareISt4lessIiEEC2Ev
	.section	.text._ZNSt15__new_allocatorISt13_Rb_tree_nodeISt4pairIKiSt6vectorIiSaIiEEEEED2Ev,"axG",@progbits,_ZNSt15__new_allocatorISt13_Rb_tree_nodeISt4pairIKiSt6vectorIiSaIiEEEEED5Ev,comdat
	.align 2
	.weak	_ZNSt15__new_allocatorISt13_Rb_tree_nodeISt4pairIKiSt6vectorIiSaIiEEEEED2Ev
	.type	_ZNSt15__new_allocatorISt13_Rb_tree_nodeISt4pairIKiSt6vectorIiSaIiEEEEED2Ev, @function
_ZNSt15__new_allocatorISt13_Rb_tree_nodeISt4pairIKiSt6vectorIiSaIiEEEEED2Ev:
.LFB11044:
	.cfi_startproc
	endbr64
	pushq	%rbp
	.cfi_def_cfa_offset 16
	.cfi_offset 6, -16
	movq	%rsp, %rbp
	.cfi_def_cfa_register 6
	movq	%rdi, -8(%rbp)
	nop
	popq	%rbp
	.cfi_def_cfa 7, 8
	ret
	.cfi_endproc
.LFE11044:
	.size	_ZNSt15__new_allocatorISt13_Rb_tree_nodeISt4pairIKiSt6vectorIiSaIiEEEEED2Ev, .-_ZNSt15__new_allocatorISt13_Rb_tree_nodeISt4pairIKiSt6vectorIiSaIiEEEEED2Ev
	.weak	_ZNSt15__new_allocatorISt13_Rb_tree_nodeISt4pairIKiSt6vectorIiSaIiEEEEED1Ev
	.set	_ZNSt15__new_allocatorISt13_Rb_tree_nodeISt4pairIKiSt6vectorIiSaIiEEEEED1Ev,_ZNSt15__new_allocatorISt13_Rb_tree_nodeISt4pairIKiSt6vectorIiSaIiEEEEED2Ev
	.section	.text._ZNSt8_Rb_treeIiSt4pairIKiSt6vectorIiSaIiEEESt10_Select1stIS5_ESt4lessIiESaIS5_EE8_M_eraseEPSt13_Rb_tree_nodeIS5_E,"axG",@progbits,_ZNSt8_Rb_treeIiSt4pairIKiSt6vectorIiSaIiEEESt10_Select1stIS5_ESt4lessIiESaIS5_EE8_M_eraseEPSt13_Rb_tree_nodeIS5_E,comdat
	.align 2
	.weak	_ZNSt8_Rb_treeIiSt4pairIKiSt6vectorIiSaIiEEESt10_Select1stIS5_ESt4lessIiESaIS5_EE8_M_eraseEPSt13_Rb_tree_nodeIS5_E
	.type	_ZNSt8_Rb_treeIiSt4pairIKiSt6vectorIiSaIiEEESt10_Select1stIS5_ESt4lessIiESaIS5_EE8_M_eraseEPSt13_Rb_tree_nodeIS5_E, @function
_ZNSt8_Rb_treeIiSt4pairIKiSt6vectorIiSaIiEEESt10_Select1stIS5_ESt4lessIiESaIS5_EE8_M_eraseEPSt13_Rb_tree_nodeIS5_E:
.LFB11046:
	.cfi_startproc
	endbr64
	pushq	%rbp
	.cfi_def_cfa_offset 16
	.cfi_offset 6, -16
	movq	%rsp, %rbp
	.cfi_def_cfa_register 6
	subq	$32, %rsp
	movq	%rdi, -24(%rbp)
	movq	%rsi, -32(%rbp)
	jmp	.L189
.L190:
	movq	-32(%rbp), %rax
	movq	%rax, %rdi
	call	_ZNSt8_Rb_treeIiSt4pairIKiSt6vectorIiSaIiEEESt10_Select1stIS5_ESt4lessIiESaIS5_EE8_S_rightEPSt18_Rb_tree_node_base
	movq	%rax, %rdx
	movq	-24(%rbp), %rax
	movq	%rdx, %rsi
	movq	%rax, %rdi
	call	_ZNSt8_Rb_treeIiSt4pairIKiSt6vectorIiSaIiEEESt10_Select1stIS5_ESt4lessIiESaIS5_EE8_M_eraseEPSt13_Rb_tree_nodeIS5_E
	movq	-32(%rbp), %rax
	movq	%rax, %rdi
	call	_ZNSt8_Rb_treeIiSt4pairIKiSt6vectorIiSaIiEEESt10_Select1stIS5_ESt4lessIiESaIS5_EE7_S_leftEPSt18_Rb_tree_node_base
	movq	%rax, -8(%rbp)
	movq	-32(%rbp), %rdx
	movq	-24(%rbp), %rax
	movq	%rdx, %rsi
	movq	%rax, %rdi
	call	_ZNSt8_Rb_treeIiSt4pairIKiSt6vectorIiSaIiEEESt10_Select1stIS5_ESt4lessIiESaIS5_EE12_M_drop_nodeEPSt13_Rb_tree_nodeIS5_E
	movq	-8(%rbp), %rax
	movq	%rax, -32(%rbp)
.L189:
	cmpq	$0, -32(%rbp)
	jne	.L190
	nop
	nop
	leave
	.cfi_def_cfa 7, 8
	ret
	.cfi_endproc
.LFE11046:
	.size	_ZNSt8_Rb_treeIiSt4pairIKiSt6vectorIiSaIiEEESt10_Select1stIS5_ESt4lessIiESaIS5_EE8_M_eraseEPSt13_Rb_tree_nodeIS5_E, .-_ZNSt8_Rb_treeIiSt4pairIKiSt6vectorIiSaIiEEESt10_Select1stIS5_ESt4lessIiESaIS5_EE8_M_eraseEPSt13_Rb_tree_nodeIS5_E
	.section	.text._ZNSt8_Rb_treeIiSt4pairIKiSt6vectorIiSaIiEEESt10_Select1stIS5_ESt4lessIiESaIS5_EE8_M_beginEv,"axG",@progbits,_ZNSt8_Rb_treeIiSt4pairIKiSt6vectorIiSaIiEEESt10_Select1stIS5_ESt4lessIiESaIS5_EE8_M_beginEv,comdat
	.align 2
	.weak	_ZNSt8_Rb_treeIiSt4pairIKiSt6vectorIiSaIiEEESt10_Select1stIS5_ESt4lessIiESaIS5_EE8_M_beginEv
	.type	_ZNSt8_Rb_treeIiSt4pairIKiSt6vectorIiSaIiEEESt10_Select1stIS5_ESt4lessIiESaIS5_EE8_M_beginEv, @function
_ZNSt8_Rb_treeIiSt4pairIKiSt6vectorIiSaIiEEESt10_Select1stIS5_ESt4lessIiESaIS5_EE8_M_beginEv:
.LFB11047:
	.cfi_startproc
	endbr64
	pushq	%rbp
	.cfi_def_cfa_offset 16
	.cfi_offset 6, -16
	movq	%rsp, %rbp
	.cfi_def_cfa_register 6
	subq	$16, %rsp
	movq	%rdi, -8(%rbp)
	movq	-8(%rbp), %rax
	movq	%rax, %rdi
	call	_ZNKSt8_Rb_treeIiSt4pairIKiSt6vectorIiSaIiEEESt10_Select1stIS5_ESt4lessIiESaIS5_EE9_M_mbeginEv
	leave
	.cfi_def_cfa 7, 8
	ret
	.cfi_endproc
.LFE11047:
	.size	_ZNSt8_Rb_treeIiSt4pairIKiSt6vectorIiSaIiEEESt10_Select1stIS5_ESt4lessIiESaIS5_EE8_M_beginEv, .-_ZNSt8_Rb_treeIiSt4pairIKiSt6vectorIiSaIiEEESt10_Select1stIS5_ESt4lessIiESaIS5_EE8_M_beginEv
	.section	.text._ZNSt6vectorIbSaIbEE5beginEv,"axG",@progbits,_ZNSt6vectorIbSaIbEE5beginEv,comdat
	.align 2
	.weak	_ZNSt6vectorIbSaIbEE5beginEv
	.type	_ZNSt6vectorIbSaIbEE5beginEv, @function
_ZNSt6vectorIbSaIbEE5beginEv:
.LFB11048:
	.cfi_startproc
	endbr64
	pushq	%rbp
	.cfi_def_cfa_offset 16
	.cfi_offset 6, -16
	movq	%rsp, %rbp
	.cfi_def_cfa_register 6
	subq	$80, %rsp
	movq	%rdi, -56(%rbp)
	movq	%fs:40, %rax
	movq	%rax, -8(%rbp)
	xorl	%eax, %eax
	movq	-56(%rbp), %rax
	movq	(%rax), %rcx
	leaq	-48(%rbp), %rax
	movl	$0, %edx
	movq	%rcx, %rsi
	movq	%rax, %rdi
	call	_ZNSt13_Bit_iteratorC1EPmj
	movq	-48(%rbp), %rax
	movq	-40(%rbp), %rdx
	movq	%rax, -32(%rbp)
	movq	%rdx, -24(%rbp)
	movq	-32(%rbp), %rax
	movq	-24(%rbp), %rdx
	movq	-8(%rbp), %rcx
	subq	%fs:40, %rcx
	je	.L195
	call	__stack_chk_fail@PLT
.L195:
	leave
	.cfi_def_cfa 7, 8
	ret
	.cfi_endproc
.LFE11048:
	.size	_ZNSt6vectorIbSaIbEE5beginEv, .-_ZNSt6vectorIbSaIbEE5beginEv
	.section	.text._ZN9__gnu_cxx17__normal_iteratorIPiSt6vectorIiSaIiEEEC2ERKS1_,"axG",@progbits,_ZN9__gnu_cxx17__normal_iteratorIPiSt6vectorIiSaIiEEEC5ERKS1_,comdat
	.align 2
	.weak	_ZN9__gnu_cxx17__normal_iteratorIPiSt6vectorIiSaIiEEEC2ERKS1_
	.type	_ZN9__gnu_cxx17__normal_iteratorIPiSt6vectorIiSaIiEEEC2ERKS1_, @function
_ZN9__gnu_cxx17__normal_iteratorIPiSt6vectorIiSaIiEEEC2ERKS1_:
.LFB11050:
	.cfi_startproc
	endbr64
	pushq	%rbp
	.cfi_def_cfa_offset 16
	.cfi_offset 6, -16
	movq	%rsp, %rbp
	.cfi_def_cfa_register 6
	movq	%rdi, -8(%rbp)
	movq	%rsi, -16(%rbp)
	movq	-16(%rbp), %rax
	movq	(%rax), %rdx
	movq	-8(%rbp), %rax
	movq	%rdx, (%rax)
	nop
	popq	%rbp
	.cfi_def_cfa 7, 8
	ret
	.cfi_endproc
.LFE11050:
	.size	_ZN9__gnu_cxx17__normal_iteratorIPiSt6vectorIiSaIiEEEC2ERKS1_, .-_ZN9__gnu_cxx17__normal_iteratorIPiSt6vectorIiSaIiEEEC2ERKS1_
	.weak	_ZN9__gnu_cxx17__normal_iteratorIPiSt6vectorIiSaIiEEEC1ERKS1_
	.set	_ZN9__gnu_cxx17__normal_iteratorIPiSt6vectorIiSaIiEEEC1ERKS1_,_ZN9__gnu_cxx17__normal_iteratorIPiSt6vectorIiSaIiEEEC2ERKS1_
	.section	.text._ZNK9__gnu_cxx17__normal_iteratorIPiSt6vectorIiSaIiEEE4baseEv,"axG",@progbits,_ZNK9__gnu_cxx17__normal_iteratorIPiSt6vectorIiSaIiEEE4baseEv,comdat
	.align 2
	.weak	_ZNK9__gnu_cxx17__normal_iteratorIPiSt6vectorIiSaIiEEE4baseEv
	.type	_ZNK9__gnu_cxx17__normal_iteratorIPiSt6vectorIiSaIiEEE4baseEv, @function
_ZNK9__gnu_cxx17__normal_iteratorIPiSt6vectorIiSaIiEEE4baseEv:
.LFB11052:
	.cfi_startproc
	endbr64
	pushq	%rbp
	.cfi_def_cfa_offset 16
	.cfi_offset 6, -16
	movq	%rsp, %rbp
	.cfi_def_cfa_register 6
	movq	%rdi, -8(%rbp)
	movq	-8(%rbp), %rax
	popq	%rbp
	.cfi_def_cfa 7, 8
	ret
	.cfi_endproc
.LFE11052:
	.size	_ZNK9__gnu_cxx17__normal_iteratorIPiSt6vectorIiSaIiEEE4baseEv, .-_ZNK9__gnu_cxx17__normal_iteratorIPiSt6vectorIiSaIiEEE4baseEv
	.section	.text._ZNSt5dequeIiSaIiEE9push_backERKi,"axG",@progbits,_ZNSt5dequeIiSaIiEE9push_backERKi,comdat
	.align 2
	.weak	_ZNSt5dequeIiSaIiEE9push_backERKi
	.type	_ZNSt5dequeIiSaIiEE9push_backERKi, @function
_ZNSt5dequeIiSaIiEE9push_backERKi:
.LFB11053:
	.cfi_startproc
	endbr64
	pushq	%rbp
	.cfi_def_cfa_offset 16
	.cfi_offset 6, -16
	movq	%rsp, %rbp
	.cfi_def_cfa_register 6
	pushq	%rbx
	subq	$72, %rsp
	.cfi_offset 3, -24
	movq	%rdi, -72(%rbp)
	movq	%rsi, -80(%rbp)
	movq	-72(%rbp), %rax
	movq	48(%rax), %rdx
	movq	-72(%rbp), %rax
	movq	64(%rax), %rax
	subq	$4, %rax
	cmpq	%rax, %rdx
	je	.L200
	movq	-72(%rbp), %rax
	movq	48(%rax), %rax
	movq	-72(%rbp), %rdx
	movq	%rdx, -64(%rbp)
	movq	%rax, -56(%rbp)
	movq	-80(%rbp), %rax
	movq	%rax, -48(%rbp)
	movq	-48(%rbp), %rax
	movq	%rax, %rdi
	call	_ZSt7forwardIRKiEOT_RNSt16remove_referenceIS2_E4typeE
	movq	-64(%rbp), %rdx
	movq	%rdx, -40(%rbp)
	movq	-56(%rbp), %rdx
	movq	%rdx, -32(%rbp)
	movq	%rax, -24(%rbp)
	movq	-32(%rbp), %rax
	movq	%rax, %rsi
	movl	$4, %edi
	call	_ZnwmPv
	movq	%rax, %rbx
	movq	-24(%rbp), %rax
	movq	%rax, %rdi
	call	_ZSt7forwardIRKiEOT_RNSt16remove_referenceIS2_E4typeE
	movl	(%rax), %eax
	movl	%eax, (%rbx)
	nop
	nop
	movq	-72(%rbp), %rax
	movq	48(%rax), %rax
	leaq	4(%rax), %rdx
	movq	-72(%rbp), %rax
	movq	%rdx, 48(%rax)
	jmp	.L202
.L200:
	movq	-80(%rbp), %rdx
	movq	-72(%rbp), %rax
	movq	%rdx, %rsi
	movq	%rax, %rdi
	call	_ZNSt5dequeIiSaIiEE16_M_push_back_auxIJRKiEEEvDpOT_
.L202:
	nop
	movq	-8(%rbp), %rbx
	leave
	.cfi_def_cfa 7, 8
	ret
	.cfi_endproc
.LFE11053:
	.size	_ZNSt5dequeIiSaIiEE9push_backERKi, .-_ZNSt5dequeIiSaIiEE9push_backERKi
	.section	.text._ZNSt3mapIiSt6vectorIiSaIiEESt4lessIiESaISt4pairIKiS2_EEE11lower_boundERS6_,"axG",@progbits,_ZNSt3mapIiSt6vectorIiSaIiEESt4lessIiESaISt4pairIKiS2_EEE11lower_boundERS6_,comdat
	.align 2
	.weak	_ZNSt3mapIiSt6vectorIiSaIiEESt4lessIiESaISt4pairIKiS2_EEE11lower_boundERS6_
	.type	_ZNSt3mapIiSt6vectorIiSaIiEESt4lessIiESaISt4pairIKiS2_EEE11lower_boundERS6_, @function
_ZNSt3mapIiSt6vectorIiSaIiEESt4lessIiESaISt4pairIKiS2_EEE11lower_boundERS6_:
.LFB11054:
	.cfi_startproc
	endbr64
	pushq	%rbp
	.cfi_def_cfa_offset 16
	.cfi_offset 6, -16
	movq	%rsp, %rbp
	.cfi_def_cfa_register 6
	subq	$16, %rsp
	movq	%rdi, -8(%rbp)
	movq	%rsi, -16(%rbp)
	movq	-8(%rbp), %rax
	movq	-16(%rbp), %rdx
	movq	%rdx, %rsi
	movq	%rax, %rdi
	call	_ZNSt8_Rb_treeIiSt4pairIKiSt6vectorIiSaIiEEESt10_Select1stIS5_ESt4lessIiESaIS5_EE11lower_boundERS1_
	leave
	.cfi_def_cfa 7, 8
	ret
	.cfi_endproc
.LFE11054:
	.size	_ZNSt3mapIiSt6vectorIiSaIiEESt4lessIiESaISt4pairIKiS2_EEE11lower_boundERS6_, .-_ZNSt3mapIiSt6vectorIiSaIiEESt4lessIiESaISt4pairIKiS2_EEE11lower_boundERS6_
	.section	.text._ZSteqRKSt17_Rb_tree_iteratorISt4pairIKiSt6vectorIiSaIiEEEES8_,"axG",@progbits,_ZSteqRKSt17_Rb_tree_iteratorISt4pairIKiSt6vectorIiSaIiEEEES8_,comdat
	.weak	_ZSteqRKSt17_Rb_tree_iteratorISt4pairIKiSt6vectorIiSaIiEEEES8_
	.type	_ZSteqRKSt17_Rb_tree_iteratorISt4pairIKiSt6vectorIiSaIiEEEES8_, @function
_ZSteqRKSt17_Rb_tree_iteratorISt4pairIKiSt6vectorIiSaIiEEEES8_:
.LFB11055:
	.cfi_startproc
	endbr64
	pushq	%rbp
	.cfi_def_cfa_offset 16
	.cfi_offset 6, -16
	movq	%rsp, %rbp
	.cfi_def_cfa_register 6
	movq	%rdi, -8(%rbp)
	movq	%rsi, -16(%rbp)
	movq	-8(%rbp), %rax
	movq	(%rax), %rdx
	movq	-16(%rbp), %rax
	movq	(%rax), %rax
	cmpq	%rax, %rdx
	sete	%al
	popq	%rbp
	.cfi_def_cfa 7, 8
	ret
	.cfi_endproc
.LFE11055:
	.size	_ZSteqRKSt17_Rb_tree_iteratorISt4pairIKiSt6vectorIiSaIiEEEES8_, .-_ZSteqRKSt17_Rb_tree_iteratorISt4pairIKiSt6vectorIiSaIiEEEES8_
	.section	.text._ZNKSt3mapIiSt6vectorIiSaIiEESt4lessIiESaISt4pairIKiS2_EEE8key_compEv,"axG",@progbits,_ZNKSt3mapIiSt6vectorIiSaIiEESt4lessIiESaISt4pairIKiS2_EEE8key_compEv,comdat
	.align 2
	.weak	_ZNKSt3mapIiSt6vectorIiSaIiEESt4lessIiESaISt4pairIKiS2_EEE8key_compEv
	.type	_ZNKSt3mapIiSt6vectorIiSaIiEESt4lessIiESaISt4pairIKiS2_EEE8key_compEv, @function
_ZNKSt3mapIiSt6vectorIiSaIiEESt4lessIiESaISt4pairIKiS2_EEE8key_compEv:
.LFB11056:
	.cfi_startproc
	endbr64
	pushq	%rbp
	.cfi_def_cfa_offset 16
	.cfi_offset 6, -16
	movq	%rsp, %rbp
	.cfi_def_cfa_register 6
	subq	$16, %rsp
	movq	%rdi, -8(%rbp)
	movq	-8(%rbp), %rax
	movq	%rax, %rdi
	call	_ZNKSt8_Rb_treeIiSt4pairIKiSt6vectorIiSaIiEEESt10_Select1stIS5_ESt4lessIiESaIS5_EE8key_compEv
	nop
	leave
	.cfi_def_cfa 7, 8
	ret
	.cfi_endproc
.LFE11056:
	.size	_ZNKSt3mapIiSt6vectorIiSaIiEESt4lessIiESaISt4pairIKiS2_EEE8key_compEv, .-_ZNKSt3mapIiSt6vectorIiSaIiEESt4lessIiESaISt4pairIKiS2_EEE8key_compEv
	.section	.text._ZNKSt4lessIiEclERKiS2_,"axG",@progbits,_ZNKSt4lessIiEclERKiS2_,comdat
	.align 2
	.weak	_ZNKSt4lessIiEclERKiS2_
	.type	_ZNKSt4lessIiEclERKiS2_, @function
_ZNKSt4lessIiEclERKiS2_:
.LFB11057:
	.cfi_startproc
	endbr64
	pushq	%rbp
	.cfi_def_cfa_offset 16
	.cfi_offset 6, -16
	movq	%rsp, %rbp
	.cfi_def_cfa_register 6
	movq	%rdi, -8(%rbp)
	movq	%rsi, -16(%rbp)
	movq	%rdx, -24(%rbp)
	movq	-16(%rbp), %rax
	movl	(%rax), %edx
	movq	-24(%rbp), %rax
	movl	(%rax), %eax
	cmpl	%eax, %edx
	setl	%al
	popq	%rbp
	.cfi_def_cfa 7, 8
	ret
	.cfi_endproc
.LFE11057:
	.size	_ZNKSt4lessIiEclERKiS2_, .-_ZNKSt4lessIiEclERKiS2_
	.section	.text._ZNSt5tupleIJRKiEEC2ILb1ELb1EEES1_,"axG",@progbits,_ZNSt5tupleIJRKiEEC5ILb1ELb1EEES1_,comdat
	.align 2
	.weak	_ZNSt5tupleIJRKiEEC2ILb1ELb1EEES1_
	.type	_ZNSt5tupleIJRKiEEC2ILb1ELb1EEES1_, @function
_ZNSt5tupleIJRKiEEC2ILb1ELb1EEES1_:
.LFB11059:
	.cfi_startproc
	.cfi_personality 0x9b,DW.ref.__gxx_personality_v0
	.cfi_lsda 0x1b,.LLSDA11059
	endbr64
	pushq	%rbp
	.cfi_def_cfa_offset 16
	.cfi_offset 6, -16
	movq	%rsp, %rbp
	.cfi_def_cfa_register 6
	subq	$16, %rsp
	movq	%rdi, -8(%rbp)
	movq	%rsi, -16(%rbp)
	movq	-8(%rbp), %rax
	movq	-16(%rbp), %rdx
	movq	%rdx, %rsi
	movq	%rax, %rdi
	call	_ZNSt11_Tuple_implILm0EJRKiEEC2ES1_
	nop
	leave
	.cfi_def_cfa 7, 8
	ret
	.cfi_endproc
.LFE11059:
	.section	.gcc_except_table._ZNSt5tupleIJRKiEEC2ILb1ELb1EEES1_,"aG",@progbits,_ZNSt5tupleIJRKiEEC5ILb1ELb1EEES1_,comdat
.LLSDA11059:
	.byte	0xff
	.byte	0xff
	.byte	0x1
	.uleb128 .LLSDACSE11059-.LLSDACSB11059
.LLSDACSB11059:
.LLSDACSE11059:
	.section	.text._ZNSt5tupleIJRKiEEC2ILb1ELb1EEES1_,"axG",@progbits,_ZNSt5tupleIJRKiEEC5ILb1ELb1EEES1_,comdat
	.size	_ZNSt5tupleIJRKiEEC2ILb1ELb1EEES1_, .-_ZNSt5tupleIJRKiEEC2ILb1ELb1EEES1_
	.weak	_ZNSt5tupleIJRKiEEC1ILb1ELb1EEES1_
	.set	_ZNSt5tupleIJRKiEEC1ILb1ELb1EEES1_,_ZNSt5tupleIJRKiEEC2ILb1ELb1EEES1_
	.section	.text._ZNSt23_Rb_tree_const_iteratorISt4pairIKiSt6vectorIiSaIiEEEEC2ERKSt17_Rb_tree_iteratorIS5_E,"axG",@progbits,_ZNSt23_Rb_tree_const_iteratorISt4pairIKiSt6vectorIiSaIiEEEEC5ERKSt17_Rb_tree_iteratorIS5_E,comdat
	.align 2
	.weak	_ZNSt23_Rb_tree_const_iteratorISt4pairIKiSt6vectorIiSaIiEEEEC2ERKSt17_Rb_tree_iteratorIS5_E
	.type	_ZNSt23_Rb_tree_const_iteratorISt4pairIKiSt6vectorIiSaIiEEEEC2ERKSt17_Rb_tree_iteratorIS5_E, @function
_ZNSt23_Rb_tree_const_iteratorISt4pairIKiSt6vectorIiSaIiEEEEC2ERKSt17_Rb_tree_iteratorIS5_E:
.LFB11062:
	.cfi_startproc
	endbr64
	pushq	%rbp
	.cfi_def_cfa_offset 16
	.cfi_offset 6, -16
	movq	%rsp, %rbp
	.cfi_def_cfa_register 6
	movq	%rdi, -8(%rbp)
	movq	%rsi, -16(%rbp)
	movq	-16(%rbp), %rax
	movq	(%rax), %rdx
	movq	-8(%rbp), %rax
	movq	%rdx, (%rax)
	nop
	popq	%rbp
	.cfi_def_cfa 7, 8
	ret
	.cfi_endproc
.LFE11062:
	.size	_ZNSt23_Rb_tree_const_iteratorISt4pairIKiSt6vectorIiSaIiEEEEC2ERKSt17_Rb_tree_iteratorIS5_E, .-_ZNSt23_Rb_tree_const_iteratorISt4pairIKiSt6vectorIiSaIiEEEEC2ERKSt17_Rb_tree_iteratorIS5_E
	.weak	_ZNSt23_Rb_tree_const_iteratorISt4pairIKiSt6vectorIiSaIiEEEEC1ERKSt17_Rb_tree_iteratorIS5_E
	.set	_ZNSt23_Rb_tree_const_iteratorISt4pairIKiSt6vectorIiSaIiEEEEC1ERKSt17_Rb_tree_iteratorIS5_E,_ZNSt23_Rb_tree_const_iteratorISt4pairIKiSt6vectorIiSaIiEEEEC2ERKSt17_Rb_tree_iteratorIS5_E
	.section	.text._ZNSt8_Rb_treeIiSt4pairIKiSt6vectorIiSaIiEEESt10_Select1stIS5_ESt4lessIiESaIS5_EE22_M_emplace_hint_uniqueIJRKSt21piecewise_construct_tSt5tupleIJRS1_EESG_IJEEEEESt17_Rb_tree_iteratorIS5_ESt23_Rb_tree_const_iteratorIS5_EDpOT_,"axG",@progbits,_ZNSt8_Rb_treeIiSt4pairIKiSt6vectorIiSaIiEEESt10_Select1stIS5_ESt4lessIiESaIS5_EE22_M_emplace_hint_uniqueIJRKSt21piecewise_construct_tSt5tupleIJRS1_EESG_IJEEEEESt17_Rb_tree_iteratorIS5_ESt23_Rb_tree_const_iteratorIS5_EDpOT_,comdat
	.align 2
	.weak	_ZNSt8_Rb_treeIiSt4pairIKiSt6vectorIiSaIiEEESt10_Select1stIS5_ESt4lessIiESaIS5_EE22_M_emplace_hint_uniqueIJRKSt21piecewise_construct_tSt5tupleIJRS1_EESG_IJEEEEESt17_Rb_tree_iteratorIS5_ESt23_Rb_tree_const_iteratorIS5_EDpOT_
	.type	_ZNSt8_Rb_treeIiSt4pairIKiSt6vectorIiSaIiEEESt10_Select1stIS5_ESt4lessIiESaIS5_EE22_M_emplace_hint_uniqueIJRKSt21piecewise_construct_tSt5tupleIJRS1_EESG_IJEEEEESt17_Rb_tree_iteratorIS5_ESt23_Rb_tree_const_iteratorIS5_EDpOT_, @function
_ZNSt8_Rb_treeIiSt4pairIKiSt6vectorIiSaIiEEESt10_Select1stIS5_ESt4lessIiESaIS5_EE22_M_emplace_hint_uniqueIJRKSt21piecewise_construct_tSt5tupleIJRS1_EESG_IJEEEEESt17_Rb_tree_iteratorIS5_ESt23_Rb_tree_const_iteratorIS5_EDpOT_:
.LFB11064:
	.cfi_startproc
	.cfi_personality 0x9b,DW.ref.__gxx_personality_v0
	.cfi_lsda 0x1b,.LLSDA11064
	endbr64
	pushq	%rbp
	.cfi_def_cfa_offset 16
	.cfi_offset 6, -16
	movq	%rsp, %rbp
	.cfi_def_cfa_register 6
	pushq	%r12
	pushq	%rbx
	subq	$112, %rsp
	.cfi_offset 12, -24
	.cfi_offset 3, -32
	movq	%rdi, -88(%rbp)
	movq	%rsi, -96(%rbp)
	movq	%rdx, -104(%rbp)
	movq	%rcx, -112(%rbp)
	movq	%r8, -120(%rbp)
	movq	%fs:40, %rax
	movq	%rax, -24(%rbp)
	xorl	%eax, %eax
	movq	-120(%rbp), %rax
	movq	%rax, %rdi
	call	_ZSt7forwardISt5tupleIJEEEOT_RNSt16remove_referenceIS2_E4typeE
	movq	%rax, %r12
	movq	-112(%rbp), %rax
	movq	%rax, %rdi
	call	_ZSt7forwardISt5tupleIJRKiEEEOT_RNSt16remove_referenceIS4_E4typeE
	movq	%rax, %rbx
	movq	-104(%rbp), %rax
	movq	%rax, %rdi
	call	_ZSt7forwardIRKSt21piecewise_construct_tEOT_RNSt16remove_referenceIS3_E4typeE
	movq	%rax, %rdx
	movq	-88(%rbp), %rsi
	leaq	-64(%rbp), %rax
	movq	%r12, %r8
	movq	%rbx, %rcx
	movq	%rax, %rdi
.LEHB9:
	call	_ZNSt8_Rb_treeIiSt4pairIKiSt6vectorIiSaIiEEESt10_Select1stIS5_ESt4lessIiESaIS5_EE10_Auto_nodeC1IJRKSt21piecewise_construct_tSt5tupleIJRS1_EESH_IJEEEEERSB_DpOT_
.LEHE9:
	leaq	-64(%rbp), %rax
	movq	%rax, %rdi
.LEHB10:
	call	_ZNKSt8_Rb_treeIiSt4pairIKiSt6vectorIiSaIiEEESt10_Select1stIS5_ESt4lessIiESaIS5_EE10_Auto_node6_M_keyEv
	movq	%rax, %rdx
	movq	-96(%rbp), %rcx
	movq	-88(%rbp), %rax
	movq	%rcx, %rsi
	movq	%rax, %rdi
	call	_ZNSt8_Rb_treeIiSt4pairIKiSt6vectorIiSaIiEEESt10_Select1stIS5_ESt4lessIiESaIS5_EE29_M_get_insert_hint_unique_posESt23_Rb_tree_const_iteratorIS5_ERS1_
	movq	%rax, -48(%rbp)
	movq	%rdx, -40(%rbp)
	movq	-40(%rbp), %rax
	testq	%rax, %rax
	je	.L214
	movq	-48(%rbp), %rcx
	movq	-40(%rbp), %rdx
	leaq	-64(%rbp), %rax
	movq	%rcx, %rsi
	movq	%rax, %rdi
	call	_ZNSt8_Rb_treeIiSt4pairIKiSt6vectorIiSaIiEEESt10_Select1stIS5_ESt4lessIiESaIS5_EE10_Auto_node9_M_insertES0_IPSt18_Rb_tree_node_baseSE_E
.LEHE10:
	movq	%rax, %rbx
	jmp	.L215
.L214:
	movq	-48(%rbp), %rdx
	leaq	-72(%rbp), %rax
	movq	%rdx, %rsi
	movq	%rax, %rdi
	call	_ZNSt17_Rb_tree_iteratorISt4pairIKiSt6vectorIiSaIiEEEEC1EPSt18_Rb_tree_node_base
	movq	-72(%rbp), %rbx
.L215:
	leaq	-64(%rbp), %rax
	movq	%rax, %rdi
	call	_ZNSt8_Rb_treeIiSt4pairIKiSt6vectorIiSaIiEEESt10_Select1stIS5_ESt4lessIiESaIS5_EE10_Auto_nodeD1Ev
	movq	%rbx, %rax
	movq	-24(%rbp), %rdx
	subq	%fs:40, %rdx
	je	.L219
	jmp	.L221
.L220:
	endbr64
	movq	%rax, %rbx
	leaq	-64(%rbp), %rax
	movq	%rax, %rdi
	call	_ZNSt8_Rb_treeIiSt4pairIKiSt6vectorIiSaIiEEESt10_Select1stIS5_ESt4lessIiESaIS5_EE10_Auto_nodeD1Ev
	movq	%rbx, %rax
	movq	-24(%rbp), %rdx
	subq	%fs:40, %rdx
	je	.L218
	call	__stack_chk_fail@PLT
.L218:
	movq	%rax, %rdi
.LEHB11:
	call	_Unwind_Resume@PLT
.LEHE11:
.L221:
	call	__stack_chk_fail@PLT
.L219:
	addq	$112, %rsp
	popq	%rbx
	popq	%r12
	popq	%rbp
	.cfi_def_cfa 7, 8
	ret
	.cfi_endproc
.LFE11064:
	.section	.gcc_except_table._ZNSt8_Rb_treeIiSt4pairIKiSt6vectorIiSaIiEEESt10_Select1stIS5_ESt4lessIiESaIS5_EE22_M_emplace_hint_uniqueIJRKSt21piecewise_construct_tSt5tupleIJRS1_EESG_IJEEEEESt17_Rb_tree_iteratorIS5_ESt23_Rb_tree_const_iteratorIS5_EDpOT_,"aG",@progbits,_ZNSt8_Rb_treeIiSt4pairIKiSt6vectorIiSaIiEEESt10_Select1stIS5_ESt4lessIiESaIS5_EE22_M_emplace_hint_uniqueIJRKSt21piecewise_construct_tSt5tupleIJRS1_EESG_IJEEEEESt17_Rb_tree_iteratorIS5_ESt23_Rb_tree_const_iteratorIS5_EDpOT_,comdat
.LLSDA11064:
	.byte	0xff
	.byte	0xff
	.byte	0x1
	.uleb128 .LLSDACSE11064-.LLSDACSB11064
.LLSDACSB11064:
	.uleb128 .LEHB9-.LFB11064
	.uleb128 .LEHE9-.LEHB9
	.uleb128 0
	.uleb128 0
	.uleb128 .LEHB10-.LFB11064
	.uleb128 .LEHE10-.LEHB10
	.uleb128 .L220-.LFB11064
	.uleb128 0
	.uleb128 .LEHB11-.LFB11064
	.uleb128 .LEHE11-.LEHB11
	.uleb128 0
	.uleb128 0
.LLSDACSE11064:
	.section	.text._ZNSt8_Rb_treeIiSt4pairIKiSt6vectorIiSaIiEEESt10_Select1stIS5_ESt4lessIiESaIS5_EE22_M_emplace_hint_uniqueIJRKSt21piecewise_construct_tSt5tupleIJRS1_EESG_IJEEEEESt17_Rb_tree_iteratorIS5_ESt23_Rb_tree_const_iteratorIS5_EDpOT_,"axG",@progbits,_ZNSt8_Rb_treeIiSt4pairIKiSt6vectorIiSaIiEEESt10_Select1stIS5_ESt4lessIiESaIS5_EE22_M_emplace_hint_uniqueIJRKSt21piecewise_construct_tSt5tupleIJRS1_EESG_IJEEEEESt17_Rb_tree_iteratorIS5_ESt23_Rb_tree_const_iteratorIS5_EDpOT_,comdat
	.size	_ZNSt8_Rb_treeIiSt4pairIKiSt6vectorIiSaIiEEESt10_Select1stIS5_ESt4lessIiESaIS5_EE22_M_emplace_hint_uniqueIJRKSt21piecewise_construct_tSt5tupleIJRS1_EESG_IJEEEEESt17_Rb_tree_iteratorIS5_ESt23_Rb_tree_const_iteratorIS5_EDpOT_, .-_ZNSt8_Rb_treeIiSt4pairIKiSt6vectorIiSaIiEEESt10_Select1stIS5_ESt4lessIiESaIS5_EE22_M_emplace_hint_uniqueIJRKSt21piecewise_construct_tSt5tupleIJRS1_EESG_IJEEEEESt17_Rb_tree_iteratorIS5_ESt23_Rb_tree_const_iteratorIS5_EDpOT_
	.section	.rodata
.LC3:
	.string	"vector::_M_realloc_insert"
	.section	.text._ZNSt6vectorIiSaIiEE17_M_realloc_insertIJRKiEEEvN9__gnu_cxx17__normal_iteratorIPiS1_EEDpOT_,"axG",@progbits,_ZNSt6vectorIiSaIiEE17_M_realloc_insertIJRKiEEEvN9__gnu_cxx17__normal_iteratorIPiS1_EEDpOT_,comdat
	.align 2
	.weak	_ZNSt6vectorIiSaIiEE17_M_realloc_insertIJRKiEEEvN9__gnu_cxx17__normal_iteratorIPiS1_EEDpOT_
	.type	_ZNSt6vectorIiSaIiEE17_M_realloc_insertIJRKiEEEvN9__gnu_cxx17__normal_iteratorIPiS1_EEDpOT_, @function
_ZNSt6vectorIiSaIiEE17_M_realloc_insertIJRKiEEEvN9__gnu_cxx17__normal_iteratorIPiS1_EEDpOT_:
.LFB11070:
	.cfi_startproc
	endbr64
	pushq	%rbp
	.cfi_def_cfa_offset 16
	.cfi_offset 6, -16
	movq	%rsp, %rbp
	.cfi_def_cfa_register 6
	pushq	%rbx
	subq	$152, %rsp
	.cfi_offset 3, -24
	movq	%rdi, -136(%rbp)
	movq	%rsi, -144(%rbp)
	movq	%rdx, -152(%rbp)
	movq	%fs:40, %rax
	movq	%rax, -24(%rbp)
	xorl	%eax, %eax
	movq	-136(%rbp), %rax
	leaq	.LC3(%rip), %rdx
	movl	$1, %esi
	movq	%rax, %rdi
	call	_ZNKSt6vectorIiSaIiEE12_M_check_lenEmPKc
	movq	%rax, -120(%rbp)
	movq	-136(%rbp), %rax
	movq	(%rax), %rax
	movq	%rax, -112(%rbp)
	movq	-136(%rbp), %rax
	movq	8(%rax), %rax
	movq	%rax, -104(%rbp)
	movq	-136(%rbp), %rax
	movq	%rax, %rdi
	call	_ZNSt6vectorIiSaIiEE5beginEv
	movq	%rax, -128(%rbp)
	leaq	-128(%rbp), %rdx
	leaq	-144(%rbp), %rax
	movq	%rdx, %rsi
	movq	%rax, %rdi
	call	_ZN9__gnu_cxxmiIPiSt6vectorIiSaIiEEEENS_17__normal_iteratorIT_T0_E15difference_typeERKS8_SB_
	movq	%rax, -96(%rbp)
	movq	-136(%rbp), %rax
	movq	-120(%rbp), %rdx
	movq	%rdx, %rsi
	movq	%rax, %rdi
	call	_ZNSt12_Vector_baseIiSaIiEE11_M_allocateEm
	movq	%rax, -88(%rbp)
	movq	-88(%rbp), %rax
	movq	%rax, -80(%rbp)
	movq	-152(%rbp), %rax
	movq	%rax, %rdi
	call	_ZSt7forwardIRKiEOT_RNSt16remove_referenceIS2_E4typeE
	movq	-96(%rbp), %rdx
	leaq	0(,%rdx,4), %rcx
	movq	-88(%rbp), %rdx
	addq	%rdx, %rcx
	movq	-136(%rbp), %rdx
	movq	%rdx, -72(%rbp)
	movq	%rcx, -64(%rbp)
	movq	%rax, -56(%rbp)
	movq	-56(%rbp), %rax
	movq	%rax, %rdi
	call	_ZSt7forwardIRKiEOT_RNSt16remove_referenceIS2_E4typeE
	movq	-72(%rbp), %rdx
	movq	%rdx, -48(%rbp)
	movq	-64(%rbp), %rdx
	movq	%rdx, -40(%rbp)
	movq	%rax, -32(%rbp)
	movq	-40(%rbp), %rax
	movq	%rax, %rsi
	movl	$4, %edi
	call	_ZnwmPv
	movq	%rax, %rbx
	movq	-32(%rbp), %rax
	movq	%rax, %rdi
	call	_ZSt7forwardIRKiEOT_RNSt16remove_referenceIS2_E4typeE
	movl	(%rax), %eax
	movl	%eax, (%rbx)
	nop
	nop
	movq	$0, -80(%rbp)
	movq	-136(%rbp), %rax
	movq	%rax, %rdi
	call	_ZNSt12_Vector_baseIiSaIiEE19_M_get_Tp_allocatorEv
	movq	%rax, %rbx
	leaq	-144(%rbp), %rax
	movq	%rax, %rdi
	call	_ZNK9__gnu_cxx17__normal_iteratorIPiSt6vectorIiSaIiEEE4baseEv
	movq	(%rax), %rsi
	movq	-88(%rbp), %rdx
	movq	-112(%rbp), %rax
	movq	%rbx, %rcx
	movq	%rax, %rdi
	call	_ZNSt6vectorIiSaIiEE11_S_relocateEPiS2_S2_RS0_
	movq	%rax, -80(%rbp)
	addq	$4, -80(%rbp)
	movq	-136(%rbp), %rax
	movq	%rax, %rdi
	call	_ZNSt12_Vector_baseIiSaIiEE19_M_get_Tp_allocatorEv
	movq	%rax, %rbx
	leaq	-144(%rbp), %rax
	movq	%rax, %rdi
	call	_ZNK9__gnu_cxx17__normal_iteratorIPiSt6vectorIiSaIiEEE4baseEv
	movq	(%rax), %rax
	movq	-80(%rbp), %rdx
	movq	-104(%rbp), %rsi
	movq	%rbx, %rcx
	movq	%rax, %rdi
	call	_ZNSt6vectorIiSaIiEE11_S_relocateEPiS2_S2_RS0_
	movq	%rax, -80(%rbp)
	movq	-136(%rbp), %rax
	movq	-136(%rbp), %rdx
	movq	16(%rdx), %rdx
	subq	-112(%rbp), %rdx
	sarq	$2, %rdx
	movq	-112(%rbp), %rcx
	movq	%rcx, %rsi
	movq	%rax, %rdi
	call	_ZNSt12_Vector_baseIiSaIiEE13_M_deallocateEPim
	movq	-136(%rbp), %rax
	movq	-88(%rbp), %rdx
	movq	%rdx, (%rax)
	movq	-136(%rbp), %rax
	movq	-80(%rbp), %rdx
	movq	%rdx, 8(%rax)
	movq	-120(%rbp), %rax
	leaq	0(,%rax,4), %rdx
	movq	-88(%rbp), %rax
	addq	%rax, %rdx
	movq	-136(%rbp), %rax
	movq	%rdx, 16(%rax)
	nop
	movq	-24(%rbp), %rax
	subq	%fs:40, %rax
	je	.L223
	call	__stack_chk_fail@PLT
.L223:
	movq	-8(%rbp), %rbx
	leave
	.cfi_def_cfa 7, 8
	ret
	.cfi_endproc
.LFE11070:
	.size	_ZNSt6vectorIiSaIiEE17_M_realloc_insertIJRKiEEEvN9__gnu_cxx17__normal_iteratorIPiS1_EEDpOT_, .-_ZNSt6vectorIiSaIiEE17_M_realloc_insertIJRKiEEEvN9__gnu_cxx17__normal_iteratorIPiS1_EEDpOT_
	.section	.text._ZNKSt5dequeIiSaIiEE5emptyEv,"axG",@progbits,_ZNKSt5dequeIiSaIiEE5emptyEv,comdat
	.align 2
	.weak	_ZNKSt5dequeIiSaIiEE5emptyEv
	.type	_ZNKSt5dequeIiSaIiEE5emptyEv, @function
_ZNKSt5dequeIiSaIiEE5emptyEv:
.LFB11074:
	.cfi_startproc
	endbr64
	pushq	%rbp
	.cfi_def_cfa_offset 16
	.cfi_offset 6, -16
	movq	%rsp, %rbp
	.cfi_def_cfa_register 6
	subq	$16, %rsp
	movq	%rdi, -8(%rbp)
	movq	-8(%rbp), %rax
	leaq	16(%rax), %rdx
	movq	-8(%rbp), %rax
	addq	$48, %rax
	movq	%rdx, %rsi
	movq	%rax, %rdi
	call	_ZSteqRKSt15_Deque_iteratorIiRiPiES4_
	leave
	.cfi_def_cfa 7, 8
	ret
	.cfi_endproc
.LFE11074:
	.size	_ZNKSt5dequeIiSaIiEE5emptyEv, .-_ZNKSt5dequeIiSaIiEE5emptyEv
	.section	.text._ZNSt5dequeIiSaIiEE4backEv,"axG",@progbits,_ZNSt5dequeIiSaIiEE4backEv,comdat
	.align 2
	.weak	_ZNSt5dequeIiSaIiEE4backEv
	.type	_ZNSt5dequeIiSaIiEE4backEv, @function
_ZNSt5dequeIiSaIiEE4backEv:
.LFB11075:
	.cfi_startproc
	endbr64
	pushq	%rbp
	.cfi_def_cfa_offset 16
	.cfi_offset 6, -16
	movq	%rsp, %rbp
	.cfi_def_cfa_register 6
	subq	$64, %rsp
	movq	%rdi, -56(%rbp)
	movq	%fs:40, %rax
	movq	%rax, -8(%rbp)
	xorl	%eax, %eax
	leaq	-48(%rbp), %rax
	movq	-56(%rbp), %rdx
	movq	%rdx, %rsi
	movq	%rax, %rdi
	call	_ZNSt5dequeIiSaIiEE3endEv
	leaq	-48(%rbp), %rax
	movq	%rax, %rdi
	call	_ZNSt15_Deque_iteratorIiRiPiEmmEv
	leaq	-48(%rbp), %rax
	movq	%rax, %rdi
	call	_ZNKSt15_Deque_iteratorIiRiPiEdeEv
	movq	-8(%rbp), %rdx
	subq	%fs:40, %rdx
	je	.L228
	call	__stack_chk_fail@PLT
.L228:
	leave
	.cfi_def_cfa 7, 8
	ret
	.cfi_endproc
.LFE11075:
	.size	_ZNSt5dequeIiSaIiEE4backEv, .-_ZNSt5dequeIiSaIiEE4backEv
	.section	.text._ZNSt5dequeIiSaIiEE8pop_backEv,"axG",@progbits,_ZNSt5dequeIiSaIiEE8pop_backEv,comdat
	.align 2
	.weak	_ZNSt5dequeIiSaIiEE8pop_backEv
	.type	_ZNSt5dequeIiSaIiEE8pop_backEv, @function
_ZNSt5dequeIiSaIiEE8pop_backEv:
.LFB11076:
	.cfi_startproc
	endbr64
	pushq	%rbp
	.cfi_def_cfa_offset 16
	.cfi_offset 6, -16
	movq	%rsp, %rbp
	.cfi_def_cfa_register 6
	pushq	%rbx
	subq	$56, %rsp
	.cfi_offset 3, -24
	movq	%rdi, -56(%rbp)
	movq	-56(%rbp), %rax
	movq	48(%rax), %rdx
	movq	-56(%rbp), %rax
	movq	56(%rax), %rax
	cmpq	%rax, %rdx
	je	.L230
	movq	-56(%rbp), %rax
	movq	48(%rax), %rax
	leaq	-4(%rax), %rdx
	movq	-56(%rbp), %rax
	movq	%rdx, 48(%rax)
	movq	-56(%rbp), %rax
	movq	48(%rax), %rbx
	movq	-56(%rbp), %rax
	movq	%rax, %rdi
	call	_ZNSt11_Deque_baseIiSaIiEE19_M_get_Tp_allocatorEv
	movq	%rax, -48(%rbp)
	movq	%rbx, -40(%rbp)
	movq	-48(%rbp), %rax
	movq	%rax, -32(%rbp)
	movq	-40(%rbp), %rax
	movq	%rax, -24(%rbp)
	nop
	jmp	.L231
.L230:
	movq	-56(%rbp), %rax
	movq	%rax, %rdi
	call	_ZNSt5dequeIiSaIiEE15_M_pop_back_auxEv
	nop
.L231:
	nop
	movq	-8(%rbp), %rbx
	leave
	.cfi_def_cfa 7, 8
	ret
	.cfi_endproc
.LFE11076:
	.size	_ZNSt5dequeIiSaIiEE8pop_backEv, .-_ZNSt5dequeIiSaIiEE8pop_backEv
	.section	.text._ZNKSt8_Rb_treeIiSt4pairIKiSt6vectorIiSaIiEEESt10_Select1stIS5_ESt4lessIiESaIS5_EE4sizeEv,"axG",@progbits,_ZNKSt8_Rb_treeIiSt4pairIKiSt6vectorIiSaIiEEESt10_Select1stIS5_ESt4lessIiESaIS5_EE4sizeEv,comdat
	.align 2
	.weak	_ZNKSt8_Rb_treeIiSt4pairIKiSt6vectorIiSaIiEEESt10_Select1stIS5_ESt4lessIiESaIS5_EE4sizeEv
	.type	_ZNKSt8_Rb_treeIiSt4pairIKiSt6vectorIiSaIiEEESt10_Select1stIS5_ESt4lessIiESaIS5_EE4sizeEv, @function
_ZNKSt8_Rb_treeIiSt4pairIKiSt6vectorIiSaIiEEESt10_Select1stIS5_ESt4lessIiESaIS5_EE4sizeEv:
.LFB11077:
	.cfi_startproc
	endbr64
	pushq	%rbp
	.cfi_def_cfa_offset 16
	.cfi_offset 6, -16
	movq	%rsp, %rbp
	.cfi_def_cfa_register 6
	movq	%rdi, -8(%rbp)
	movq	-8(%rbp), %rax
	movq	40(%rax), %rax
	popq	%rbp
	.cfi_def_cfa 7, 8
	ret
	.cfi_endproc
.LFE11077:
	.size	_ZNKSt8_Rb_treeIiSt4pairIKiSt6vectorIiSaIiEEESt10_Select1stIS5_ESt4lessIiESaIS5_EE4sizeEv, .-_ZNKSt8_Rb_treeIiSt4pairIKiSt6vectorIiSaIiEEESt10_Select1stIS5_ESt4lessIiESaIS5_EE4sizeEv
	.section	.text._ZNSt8_Rb_treeIiSt4pairIKiSt6vectorIiSaIiEEESt10_Select1stIS5_ESt4lessIiESaIS5_EE5beginEv,"axG",@progbits,_ZNSt8_Rb_treeIiSt4pairIKiSt6vectorIiSaIiEEESt10_Select1stIS5_ESt4lessIiESaIS5_EE5beginEv,comdat
	.align 2
	.weak	_ZNSt8_Rb_treeIiSt4pairIKiSt6vectorIiSaIiEEESt10_Select1stIS5_ESt4lessIiESaIS5_EE5beginEv
	.type	_ZNSt8_Rb_treeIiSt4pairIKiSt6vectorIiSaIiEEESt10_Select1stIS5_ESt4lessIiESaIS5_EE5beginEv, @function
_ZNSt8_Rb_treeIiSt4pairIKiSt6vectorIiSaIiEEESt10_Select1stIS5_ESt4lessIiESaIS5_EE5beginEv:
.LFB11079:
	.cfi_startproc
	endbr64
	pushq	%rbp
	.cfi_def_cfa_offset 16
	.cfi_offset 6, -16
	movq	%rsp, %rbp
	.cfi_def_cfa_register 6
	subq	$32, %rsp
	movq	%rdi, -24(%rbp)
	movq	%fs:40, %rax
	movq	%rax, -8(%rbp)
	xorl	%eax, %eax
	movq	-24(%rbp), %rax
	movq	24(%rax), %rdx
	leaq	-16(%rbp), %rax
	movq	%rdx, %rsi
	movq	%rax, %rdi
	call	_ZNSt17_Rb_tree_iteratorISt4pairIKiSt6vectorIiSaIiEEEEC1EPSt18_Rb_tree_node_base
	movq	-16(%rbp), %rax
	movq	-8(%rbp), %rdx
	subq	%fs:40, %rdx
	je	.L236
	call	__stack_chk_fail@PLT
.L236:
	leave
	.cfi_def_cfa 7, 8
	ret
	.cfi_endproc
.LFE11079:
	.size	_ZNSt8_Rb_treeIiSt4pairIKiSt6vectorIiSaIiEEESt10_Select1stIS5_ESt4lessIiESaIS5_EE5beginEv, .-_ZNSt8_Rb_treeIiSt4pairIKiSt6vectorIiSaIiEEESt10_Select1stIS5_ESt4lessIiESaIS5_EE5beginEv
	.section	.text._ZNSt8_Rb_treeIiSt4pairIKiSt6vectorIiSaIiEEESt10_Select1stIS5_ESt4lessIiESaIS5_EE3endEv,"axG",@progbits,_ZNSt8_Rb_treeIiSt4pairIKiSt6vectorIiSaIiEEESt10_Select1stIS5_ESt4lessIiESaIS5_EE3endEv,comdat
	.align 2
	.weak	_ZNSt8_Rb_treeIiSt4pairIKiSt6vectorIiSaIiEEESt10_Select1stIS5_ESt4lessIiESaIS5_EE3endEv
	.type	_ZNSt8_Rb_treeIiSt4pairIKiSt6vectorIiSaIiEEESt10_Select1stIS5_ESt4lessIiESaIS5_EE3endEv, @function
_ZNSt8_Rb_treeIiSt4pairIKiSt6vectorIiSaIiEEESt10_Select1stIS5_ESt4lessIiESaIS5_EE3endEv:
.LFB11080:
	.cfi_startproc
	endbr64
	pushq	%rbp
	.cfi_def_cfa_offset 16
	.cfi_offset 6, -16
	movq	%rsp, %rbp
	.cfi_def_cfa_register 6
	subq	$32, %rsp
	movq	%rdi, -24(%rbp)
	movq	%fs:40, %rax
	movq	%rax, -8(%rbp)
	xorl	%eax, %eax
	movq	-24(%rbp), %rax
	leaq	8(%rax), %rdx
	leaq	-16(%rbp), %rax
	movq	%rdx, %rsi
	movq	%rax, %rdi
	call	_ZNSt17_Rb_tree_iteratorISt4pairIKiSt6vectorIiSaIiEEEEC1EPSt18_Rb_tree_node_base
	movq	-16(%rbp), %rax
	movq	-8(%rbp), %rdx
	subq	%fs:40, %rdx
	je	.L239
	call	__stack_chk_fail@PLT
.L239:
	leave
	.cfi_def_cfa 7, 8
	ret
	.cfi_endproc
.LFE11080:
	.size	_ZNSt8_Rb_treeIiSt4pairIKiSt6vectorIiSaIiEEESt10_Select1stIS5_ESt4lessIiESaIS5_EE3endEv, .-_ZNSt8_Rb_treeIiSt4pairIKiSt6vectorIiSaIiEEESt10_Select1stIS5_ESt4lessIiESaIS5_EE3endEv
	.section	.text._ZNSt13_Rb_tree_nodeISt4pairIKiSt6vectorIiSaIiEEEE9_M_valptrEv,"axG",@progbits,_ZNSt13_Rb_tree_nodeISt4pairIKiSt6vectorIiSaIiEEEE9_M_valptrEv,comdat
	.align 2
	.weak	_ZNSt13_Rb_tree_nodeISt4pairIKiSt6vectorIiSaIiEEEE9_M_valptrEv
	.type	_ZNSt13_Rb_tree_nodeISt4pairIKiSt6vectorIiSaIiEEEE9_M_valptrEv, @function
_ZNSt13_Rb_tree_nodeISt4pairIKiSt6vectorIiSaIiEEEE9_M_valptrEv:
.LFB11081:
	.cfi_startproc
	endbr64
	pushq	%rbp
	.cfi_def_cfa_offset 16
	.cfi_offset 6, -16
	movq	%rsp, %rbp
	.cfi_def_cfa_register 6
	subq	$16, %rsp
	movq	%rdi, -8(%rbp)
	movq	-8(%rbp), %rax
	addq	$32, %rax
	movq	%rax, %rdi
	call	_ZN9__gnu_cxx16__aligned_membufISt4pairIKiSt6vectorIiSaIiEEEE6_M_ptrEv
	leave
	.cfi_def_cfa 7, 8
	ret
	.cfi_endproc
.LFE11081:
	.size	_ZNSt13_Rb_tree_nodeISt4pairIKiSt6vectorIiSaIiEEEE9_M_valptrEv, .-_ZNSt13_Rb_tree_nodeISt4pairIKiSt6vectorIiSaIiEEEE9_M_valptrEv
	.section	.text._ZSt8_DestroyIPiEvT_S1_,"axG",@progbits,_ZSt8_DestroyIPiEvT_S1_,comdat
	.weak	_ZSt8_DestroyIPiEvT_S1_
	.type	_ZSt8_DestroyIPiEvT_S1_, @function
_ZSt8_DestroyIPiEvT_S1_:
.LFB11297:
	.cfi_startproc
	endbr64
	pushq	%rbp
	.cfi_def_cfa_offset 16
	.cfi_offset 6, -16
	movq	%rsp, %rbp
	.cfi_def_cfa_register 6
	subq	$16, %rsp
	movq	%rdi, -8(%rbp)
	movq	%rsi, -16(%rbp)
	movq	-16(%rbp), %rdx
	movq	-8(%rbp), %rax
	movq	%rdx, %rsi
	movq	%rax, %rdi
	call	_ZNSt12_Destroy_auxILb1EE9__destroyIPiEEvT_S3_
	nop
	leave
	.cfi_def_cfa 7, 8
	ret
	.cfi_endproc
.LFE11297:
	.size	_ZSt8_DestroyIPiEvT_S1_, .-_ZSt8_DestroyIPiEvT_S1_
	.section	.text._ZNSt6vectorIS_IiSaIiEESaIS1_EE11_S_max_sizeERKS2_,"axG",@progbits,_ZNSt6vectorIS_IiSaIiEESaIS1_EE11_S_max_sizeERKS2_,comdat
	.weak	_ZNSt6vectorIS_IiSaIiEESaIS1_EE11_S_max_sizeERKS2_
	.type	_ZNSt6vectorIS_IiSaIiEESaIS1_EE11_S_max_sizeERKS2_, @function
_ZNSt6vectorIS_IiSaIiEESaIS1_EE11_S_max_sizeERKS2_:
.LFB11298:
	.cfi_startproc
	endbr64
	pushq	%rbp
	.cfi_def_cfa_offset 16
	.cfi_offset 6, -16
	movq	%rsp, %rbp
	.cfi_def_cfa_register 6
	subq	$64, %rsp
	movq	%rdi, -56(%rbp)
	movq	%fs:40, %rax
	movq	%rax, -8(%rbp)
	xorl	%eax, %eax
	movabsq	$384307168202282325, %rax
	movq	%rax, -48(%rbp)
	movq	-56(%rbp), %rax
	movq	%rax, -32(%rbp)
	movq	-32(%rbp), %rax
	movq	%rax, -24(%rbp)
	movq	-24(%rbp), %rax
	movq	%rax, -16(%rbp)
	movabsq	$384307168202282325, %rax
	nop
	nop
	movq	%rax, -40(%rbp)
	leaq	-40(%rbp), %rdx
	leaq	-48(%rbp), %rax
	movq	%rdx, %rsi
	movq	%rax, %rdi
	call	_ZSt3minImERKT_S2_S2_
	movq	(%rax), %rax
	movq	-8(%rbp), %rdx
	subq	%fs:40, %rdx
	je	.L248
	call	__stack_chk_fail@PLT
.L248:
	leave
	.cfi_def_cfa 7, 8
	ret
	.cfi_endproc
.LFE11298:
	.size	_ZNSt6vectorIS_IiSaIiEESaIS1_EE11_S_max_sizeERKS2_, .-_ZNSt6vectorIS_IiSaIiEESaIS1_EE11_S_max_sizeERKS2_
	.section	.text._ZNSt12_Vector_baseISt6vectorIiSaIiEESaIS2_EE12_Vector_implC2ERKS3_,"axG",@progbits,_ZNSt12_Vector_baseISt6vectorIiSaIiEESaIS2_EE12_Vector_implC5ERKS3_,comdat
	.align 2
	.weak	_ZNSt12_Vector_baseISt6vectorIiSaIiEESaIS2_EE12_Vector_implC2ERKS3_
	.type	_ZNSt12_Vector_baseISt6vectorIiSaIiEESaIS2_EE12_Vector_implC2ERKS3_, @function
_ZNSt12_Vector_baseISt6vectorIiSaIiEESaIS2_EE12_Vector_implC2ERKS3_:
.LFB11303:
	.cfi_startproc
	endbr64
	pushq	%rbp
	.cfi_def_cfa_offset 16
	.cfi_offset 6, -16
	movq	%rsp, %rbp
	.cfi_def_cfa_register 6
	subq	$48, %rsp
	movq	%rdi, -40(%rbp)
	movq	%rsi, -48(%rbp)
	movq	-40(%rbp), %rax
	movq	%rax, -32(%rbp)
	movq	-48(%rbp), %rax
	movq	%rax, -24(%rbp)
	movq	-32(%rbp), %rax
	movq	%rax, -16(%rbp)
	movq	-24(%rbp), %rax
	movq	%rax, -8(%rbp)
	nop
	nop
	movq	-40(%rbp), %rax
	movq	%rax, %rdi
	call	_ZNSt12_Vector_baseISt6vectorIiSaIiEESaIS2_EE17_Vector_impl_dataC2Ev
	nop
	leave
	.cfi_def_cfa 7, 8
	ret
	.cfi_endproc
.LFE11303:
	.size	_ZNSt12_Vector_baseISt6vectorIiSaIiEESaIS2_EE12_Vector_implC2ERKS3_, .-_ZNSt12_Vector_baseISt6vectorIiSaIiEESaIS2_EE12_Vector_implC2ERKS3_
	.weak	_ZNSt12_Vector_baseISt6vectorIiSaIiEESaIS2_EE12_Vector_implC1ERKS3_
	.set	_ZNSt12_Vector_baseISt6vectorIiSaIiEESaIS2_EE12_Vector_implC1ERKS3_,_ZNSt12_Vector_baseISt6vectorIiSaIiEESaIS2_EE12_Vector_implC2ERKS3_
	.section	.text._ZNSt12_Vector_baseISt6vectorIiSaIiEESaIS2_EE17_M_create_storageEm,"axG",@progbits,_ZNSt12_Vector_baseISt6vectorIiSaIiEESaIS2_EE17_M_create_storageEm,comdat
	.align 2
	.weak	_ZNSt12_Vector_baseISt6vectorIiSaIiEESaIS2_EE17_M_create_storageEm
	.type	_ZNSt12_Vector_baseISt6vectorIiSaIiEESaIS2_EE17_M_create_storageEm, @function
_ZNSt12_Vector_baseISt6vectorIiSaIiEESaIS2_EE17_M_create_storageEm:
.LFB11305:
	.cfi_startproc
	endbr64
	pushq	%rbp
	.cfi_def_cfa_offset 16
	.cfi_offset 6, -16
	movq	%rsp, %rbp
	.cfi_def_cfa_register 6
	subq	$16, %rsp
	movq	%rdi, -8(%rbp)
	movq	%rsi, -16(%rbp)
	movq	-16(%rbp), %rdx
	movq	-8(%rbp), %rax
	movq	%rdx, %rsi
	movq	%rax, %rdi
	call	_ZNSt12_Vector_baseISt6vectorIiSaIiEESaIS2_EE11_M_allocateEm
	movq	-8(%rbp), %rdx
	movq	%rax, (%rdx)
	movq	-8(%rbp), %rax
	movq	(%rax), %rdx
	movq	-8(%rbp), %rax
	movq	%rdx, 8(%rax)
	movq	-8(%rbp), %rax
	movq	(%rax), %rcx
	movq	-16(%rbp), %rdx
	movq	%rdx, %rax
	addq	%rax, %rax
	addq	%rdx, %rax
	salq	$3, %rax
	leaq	(%rcx,%rax), %rdx
	movq	-8(%rbp), %rax
	movq	%rdx, 16(%rax)
	nop
	leave
	.cfi_def_cfa 7, 8
	ret
	.cfi_endproc
.LFE11305:
	.size	_ZNSt12_Vector_baseISt6vectorIiSaIiEESaIS2_EE17_M_create_storageEm, .-_ZNSt12_Vector_baseISt6vectorIiSaIiEESaIS2_EE17_M_create_storageEm
	.section	.text._ZNSt12_Vector_baseISt6vectorIiSaIiEESaIS2_EE13_M_deallocateEPS2_m,"axG",@progbits,_ZNSt12_Vector_baseISt6vectorIiSaIiEESaIS2_EE13_M_deallocateEPS2_m,comdat
	.align 2
	.weak	_ZNSt12_Vector_baseISt6vectorIiSaIiEESaIS2_EE13_M_deallocateEPS2_m
	.type	_ZNSt12_Vector_baseISt6vectorIiSaIiEESaIS2_EE13_M_deallocateEPS2_m, @function
_ZNSt12_Vector_baseISt6vectorIiSaIiEESaIS2_EE13_M_deallocateEPS2_m:
.LFB11306:
	.cfi_startproc
	endbr64
	pushq	%rbp
	.cfi_def_cfa_offset 16
	.cfi_offset 6, -16
	movq	%rsp, %rbp
	.cfi_def_cfa_register 6
	subq	$64, %rsp
	movq	%rdi, -40(%rbp)
	movq	%rsi, -48(%rbp)
	movq	%rdx, -56(%rbp)
	cmpq	$0, -48(%rbp)
	je	.L253
	movq	-40(%rbp), %rax
	movq	%rax, -24(%rbp)
	movq	-48(%rbp), %rax
	movq	%rax, -16(%rbp)
	movq	-56(%rbp), %rax
	movq	%rax, -8(%rbp)
	movq	-8(%rbp), %rdx
	movq	-16(%rbp), %rcx
	movq	-24(%rbp), %rax
	movq	%rcx, %rsi
	movq	%rax, %rdi
	call	_ZNSt15__new_allocatorISt6vectorIiSaIiEEE10deallocateEPS2_m
	nop
.L253:
	nop
	leave
	.cfi_def_cfa 7, 8
	ret
	.cfi_endproc
.LFE11306:
	.size	_ZNSt12_Vector_baseISt6vectorIiSaIiEESaIS2_EE13_M_deallocateEPS2_m, .-_ZNSt12_Vector_baseISt6vectorIiSaIiEESaIS2_EE13_M_deallocateEPS2_m
	.section	.text._ZNSt12_Vector_baseISt6vectorIiSaIiEESaIS2_EE19_M_get_Tp_allocatorEv,"axG",@progbits,_ZNSt12_Vector_baseISt6vectorIiSaIiEESaIS2_EE19_M_get_Tp_allocatorEv,comdat
	.align 2
	.weak	_ZNSt12_Vector_baseISt6vectorIiSaIiEESaIS2_EE19_M_get_Tp_allocatorEv
	.type	_ZNSt12_Vector_baseISt6vectorIiSaIiEESaIS2_EE19_M_get_Tp_allocatorEv, @function
_ZNSt12_Vector_baseISt6vectorIiSaIiEESaIS2_EE19_M_get_Tp_allocatorEv:
.LFB11307:
	.cfi_startproc
	endbr64
	pushq	%rbp
	.cfi_def_cfa_offset 16
	.cfi_offset 6, -16
	movq	%rsp, %rbp
	.cfi_def_cfa_register 6
	movq	%rdi, -8(%rbp)
	movq	-8(%rbp), %rax
	popq	%rbp
	.cfi_def_cfa 7, 8
	ret
	.cfi_endproc
.LFE11307:
	.size	_ZNSt12_Vector_baseISt6vectorIiSaIiEESaIS2_EE19_M_get_Tp_allocatorEv, .-_ZNSt12_Vector_baseISt6vectorIiSaIiEESaIS2_EE19_M_get_Tp_allocatorEv
	.section	.text._ZSt24__uninitialized_fill_n_aIPSt6vectorIiSaIiEEmS2_S2_ET_S4_T0_RKT1_RSaIT2_E,"axG",@progbits,_ZSt24__uninitialized_fill_n_aIPSt6vectorIiSaIiEEmS2_S2_ET_S4_T0_RKT1_RSaIT2_E,comdat
	.weak	_ZSt24__uninitialized_fill_n_aIPSt6vectorIiSaIiEEmS2_S2_ET_S4_T0_RKT1_RSaIT2_E
	.type	_ZSt24__uninitialized_fill_n_aIPSt6vectorIiSaIiEEmS2_S2_ET_S4_T0_RKT1_RSaIT2_E, @function
_ZSt24__uninitialized_fill_n_aIPSt6vectorIiSaIiEEmS2_S2_ET_S4_T0_RKT1_RSaIT2_E:
.LFB11308:
	.cfi_startproc
	endbr64
	pushq	%rbp
	.cfi_def_cfa_offset 16
	.cfi_offset 6, -16
	movq	%rsp, %rbp
	.cfi_def_cfa_register 6
	subq	$32, %rsp
	movq	%rdi, -8(%rbp)
	movq	%rsi, -16(%rbp)
	movq	%rdx, -24(%rbp)
	movq	%rcx, -32(%rbp)
	movq	-24(%rbp), %rdx
	movq	-16(%rbp), %rcx
	movq	-8(%rbp), %rax
	movq	%rcx, %rsi
	movq	%rax, %rdi
	call	_ZSt20uninitialized_fill_nIPSt6vectorIiSaIiEEmS2_ET_S4_T0_RKT1_
	leave
	.cfi_def_cfa 7, 8
	ret
	.cfi_endproc
.LFE11308:
	.size	_ZSt24__uninitialized_fill_n_aIPSt6vectorIiSaIiEEmS2_S2_ET_S4_T0_RKT1_RSaIT2_E, .-_ZSt24__uninitialized_fill_n_aIPSt6vectorIiSaIiEEmS2_S2_ET_S4_T0_RKT1_RSaIT2_E
	.section	.text._ZNSt11_Deque_baseIiSaIiEE11_Deque_implC2Ev,"axG",@progbits,_ZNSt11_Deque_baseIiSaIiEE11_Deque_implC5Ev,comdat
	.align 2
	.weak	_ZNSt11_Deque_baseIiSaIiEE11_Deque_implC2Ev
	.type	_ZNSt11_Deque_baseIiSaIiEE11_Deque_implC2Ev, @function
_ZNSt11_Deque_baseIiSaIiEE11_Deque_implC2Ev:
.LFB11310:
	.cfi_startproc
	endbr64
	pushq	%rbp
	.cfi_def_cfa_offset 16
	.cfi_offset 6, -16
	movq	%rsp, %rbp
	.cfi_def_cfa_register 6
	subq	$32, %rsp
	movq	%rdi, -24(%rbp)
	movq	-24(%rbp), %rax
	movq	%rax, -16(%rbp)
	movq	-16(%rbp), %rax
	movq	%rax, -8(%rbp)
	nop
	nop
	movq	-24(%rbp), %rax
	movq	%rax, %rdi
	call	_ZNSt11_Deque_baseIiSaIiEE16_Deque_impl_dataC2Ev
	nop
	leave
	.cfi_def_cfa 7, 8
	ret
	.cfi_endproc
.LFE11310:
	.size	_ZNSt11_Deque_baseIiSaIiEE11_Deque_implC2Ev, .-_ZNSt11_Deque_baseIiSaIiEE11_Deque_implC2Ev
	.weak	_ZNSt11_Deque_baseIiSaIiEE11_Deque_implC1Ev
	.set	_ZNSt11_Deque_baseIiSaIiEE11_Deque_implC1Ev,_ZNSt11_Deque_baseIiSaIiEE11_Deque_implC2Ev
	.section	.text._ZNSt11_Deque_baseIiSaIiEE17_M_initialize_mapEm,"axG",@progbits,_ZNSt11_Deque_baseIiSaIiEE17_M_initialize_mapEm,comdat
	.align 2
	.weak	_ZNSt11_Deque_baseIiSaIiEE17_M_initialize_mapEm
	.type	_ZNSt11_Deque_baseIiSaIiEE17_M_initialize_mapEm, @function
_ZNSt11_Deque_baseIiSaIiEE17_M_initialize_mapEm:
.LFB11312:
	.cfi_startproc
	.cfi_personality 0x9b,DW.ref.__gxx_personality_v0
	.cfi_lsda 0x1b,.LLSDA11312
	endbr64
	pushq	%rbp
	.cfi_def_cfa_offset 16
	.cfi_offset 6, -16
	movq	%rsp, %rbp
	.cfi_def_cfa_register 6
	pushq	%rbx
	subq	$72, %rsp
	.cfi_offset 3, -24
	movq	%rdi, -72(%rbp)
	movq	%rsi, -80(%rbp)
	movq	%fs:40, %rax
	movq	%rax, -24(%rbp)
	xorl	%eax, %eax
	movl	$4, %edi
	call	_ZSt16__deque_buf_sizem
	movq	%rax, %rbx
	movq	-80(%rbp), %rax
	movl	$0, %edx
	divq	%rbx
	addq	$1, %rax
	movq	%rax, -48(%rbp)
	movq	-48(%rbp), %rax
	addq	$2, %rax
	movq	%rax, -56(%rbp)
	movq	$8, -64(%rbp)
	leaq	-56(%rbp), %rdx
	leaq	-64(%rbp), %rax
	movq	%rdx, %rsi
	movq	%rax, %rdi
	call	_ZSt3maxImERKT_S2_S2_
	movq	(%rax), %rdx
	movq	-72(%rbp), %rax
	movq	%rdx, 8(%rax)
	movq	-72(%rbp), %rax
	movq	8(%rax), %rdx
	movq	-72(%rbp), %rax
	movq	%rdx, %rsi
	movq	%rax, %rdi
.LEHB12:
	call	_ZNSt11_Deque_baseIiSaIiEE15_M_allocate_mapEm
.LEHE12:
	movq	-72(%rbp), %rdx
	movq	%rax, (%rdx)
	movq	-72(%rbp), %rax
	movq	(%rax), %rdx
	movq	-72(%rbp), %rax
	movq	8(%rax), %rax
	subq	-48(%rbp), %rax
	shrq	%rax
	salq	$3, %rax
	addq	%rdx, %rax
	movq	%rax, -40(%rbp)
	movq	-48(%rbp), %rax
	leaq	0(,%rax,8), %rdx
	movq	-40(%rbp), %rax
	addq	%rdx, %rax
	movq	%rax, -32(%rbp)
	movq	-32(%rbp), %rdx
	movq	-40(%rbp), %rcx
	movq	-72(%rbp), %rax
	movq	%rcx, %rsi
	movq	%rax, %rdi
.LEHB13:
	call	_ZNSt11_Deque_baseIiSaIiEE15_M_create_nodesEPPiS3_
.LEHE13:
	movq	-72(%rbp), %rax
	leaq	16(%rax), %rdx
	movq	-40(%rbp), %rax
	movq	%rax, %rsi
	movq	%rdx, %rdi
	call	_ZNSt15_Deque_iteratorIiRiPiE11_M_set_nodeEPS1_
	movq	-72(%rbp), %rax
	addq	$48, %rax
	movq	-32(%rbp), %rdx
	subq	$8, %rdx
	movq	%rdx, %rsi
	movq	%rax, %rdi
	call	_ZNSt15_Deque_iteratorIiRiPiE11_M_set_nodeEPS1_
	movq	-72(%rbp), %rax
	movq	24(%rax), %rdx
	movq	-72(%rbp), %rax
	movq	%rdx, 16(%rax)
	movq	-72(%rbp), %rax
	movq	56(%rax), %rbx
	movl	$4, %edi
	call	_ZSt16__deque_buf_sizem
	movq	%rax, %rcx
	movq	-80(%rbp), %rax
	movl	$0, %edx
	divq	%rcx
	movq	%rdx, %rcx
	movq	%rcx, %rax
	salq	$2, %rax
	leaq	(%rbx,%rax), %rdx
	movq	-72(%rbp), %rax
	movq	%rdx, 48(%rax)
	nop
	movq	-24(%rbp), %rax
	subq	%fs:40, %rax
	je	.L264
	jmp	.L267
.L265:
	endbr64
	movq	%rax, %rdi
	call	__cxa_begin_catch@PLT
	movq	-72(%rbp), %rax
	movq	8(%rax), %rdx
	movq	-72(%rbp), %rax
	movq	(%rax), %rcx
	movq	-72(%rbp), %rax
	movq	%rcx, %rsi
	movq	%rax, %rdi
	call	_ZNSt11_Deque_baseIiSaIiEE17_M_deallocate_mapEPPim
	movq	-72(%rbp), %rax
	movq	$0, (%rax)
	movq	-72(%rbp), %rax
	movq	$0, 8(%rax)
	movq	-24(%rbp), %rax
	subq	%fs:40, %rax
	je	.L261
	call	__stack_chk_fail@PLT
.L261:
.LEHB14:
	call	__cxa_rethrow@PLT
.LEHE14:
.L266:
	endbr64
	movq	%rax, %rbx
	call	__cxa_end_catch@PLT
	movq	%rbx, %rax
	movq	-24(%rbp), %rdx
	subq	%fs:40, %rdx
	je	.L263
	call	__stack_chk_fail@PLT
.L263:
	movq	%rax, %rdi
.LEHB15:
	call	_Unwind_Resume@PLT
.LEHE15:
.L267:
	call	__stack_chk_fail@PLT
.L264:
	movq	-8(%rbp), %rbx
	leave
	.cfi_def_cfa 7, 8
	ret
	.cfi_endproc
.LFE11312:
	.section	.gcc_except_table._ZNSt11_Deque_baseIiSaIiEE17_M_initialize_mapEm,"aG",@progbits,_ZNSt11_Deque_baseIiSaIiEE17_M_initialize_mapEm,comdat
	.align 4
.LLSDA11312:
	.byte	0xff
	.byte	0x9b
	.uleb128 .LLSDATT11312-.LLSDATTD11312
.LLSDATTD11312:
	.byte	0x1
	.uleb128 .LLSDACSE11312-.LLSDACSB11312
.LLSDACSB11312:
	.uleb128 .LEHB12-.LFB11312
	.uleb128 .LEHE12-.LEHB12
	.uleb128 0
	.uleb128 0
	.uleb128 .LEHB13-.LFB11312
	.uleb128 .LEHE13-.LEHB13
	.uleb128 .L265-.LFB11312
	.uleb128 0x1
	.uleb128 .LEHB14-.LFB11312
	.uleb128 .LEHE14-.LEHB14
	.uleb128 .L266-.LFB11312
	.uleb128 0
	.uleb128 .LEHB15-.LFB11312
	.uleb128 .LEHE15-.LEHB15
	.uleb128 0
	.uleb128 0
.LLSDACSE11312:
	.byte	0x1
	.byte	0
	.align 4
	.long	0

.LLSDATT11312:
	.section	.text._ZNSt11_Deque_baseIiSaIiEE17_M_initialize_mapEm,"axG",@progbits,_ZNSt11_Deque_baseIiSaIiEE17_M_initialize_mapEm,comdat
	.size	_ZNSt11_Deque_baseIiSaIiEE17_M_initialize_mapEm, .-_ZNSt11_Deque_baseIiSaIiEE17_M_initialize_mapEm
	.section	.text._ZNSt11_Deque_baseIiSaIiEE16_M_destroy_nodesEPPiS3_,"axG",@progbits,_ZNSt11_Deque_baseIiSaIiEE16_M_destroy_nodesEPPiS3_,comdat
	.align 2
	.weak	_ZNSt11_Deque_baseIiSaIiEE16_M_destroy_nodesEPPiS3_
	.type	_ZNSt11_Deque_baseIiSaIiEE16_M_destroy_nodesEPPiS3_, @function
_ZNSt11_Deque_baseIiSaIiEE16_M_destroy_nodesEPPiS3_:
.LFB11313:
	.cfi_startproc
	endbr64
	pushq	%rbp
	.cfi_def_cfa_offset 16
	.cfi_offset 6, -16
	movq	%rsp, %rbp
	.cfi_def_cfa_register 6
	subq	$48, %rsp
	movq	%rdi, -24(%rbp)
	movq	%rsi, -32(%rbp)
	movq	%rdx, -40(%rbp)
	movq	-32(%rbp), %rax
	movq	%rax, -8(%rbp)
	jmp	.L269
.L270:
	movq	-8(%rbp), %rax
	movq	(%rax), %rdx
	movq	-24(%rbp), %rax
	movq	%rdx, %rsi
	movq	%rax, %rdi
	call	_ZNSt11_Deque_baseIiSaIiEE18_M_deallocate_nodeEPi
	addq	$8, -8(%rbp)
.L269:
	movq	-8(%rbp), %rax
	cmpq	-40(%rbp), %rax
	jb	.L270
	nop
	nop
	leave
	.cfi_def_cfa 7, 8
	ret
	.cfi_endproc
.LFE11313:
	.size	_ZNSt11_Deque_baseIiSaIiEE16_M_destroy_nodesEPPiS3_, .-_ZNSt11_Deque_baseIiSaIiEE16_M_destroy_nodesEPPiS3_
	.section	.text._ZNSt11_Deque_baseIiSaIiEE17_M_deallocate_mapEPPim,"axG",@progbits,_ZNSt11_Deque_baseIiSaIiEE17_M_deallocate_mapEPPim,comdat
	.align 2
	.weak	_ZNSt11_Deque_baseIiSaIiEE17_M_deallocate_mapEPPim
	.type	_ZNSt11_Deque_baseIiSaIiEE17_M_deallocate_mapEPPim, @function
_ZNSt11_Deque_baseIiSaIiEE17_M_deallocate_mapEPPim:
.LFB11314:
	.cfi_startproc
	endbr64
	pushq	%rbp
	.cfi_def_cfa_offset 16
	.cfi_offset 6, -16
	movq	%rsp, %rbp
	.cfi_def_cfa_register 6
	subq	$64, %rsp
	movq	%rdi, -40(%rbp)
	movq	%rsi, -48(%rbp)
	movq	%rdx, -56(%rbp)
	movq	%fs:40, %rax
	movq	%rax, -8(%rbp)
	xorl	%eax, %eax
	leaq	-25(%rbp), %rax
	movq	-40(%rbp), %rdx
	movq	%rdx, %rsi
	movq	%rax, %rdi
	call	_ZNKSt11_Deque_baseIiSaIiEE20_M_get_map_allocatorEv
	movq	-48(%rbp), %rax
	movq	%rax, -24(%rbp)
	movq	-56(%rbp), %rax
	movq	%rax, -16(%rbp)
	movq	-16(%rbp), %rdx
	movq	-24(%rbp), %rcx
	leaq	-25(%rbp), %rax
	movq	%rcx, %rsi
	movq	%rax, %rdi
	call	_ZNSt15__new_allocatorIPiE10deallocateEPS0_m
	nop
	leaq	-25(%rbp), %rax
	movq	%rax, %rdi
	call	_ZNSt15__new_allocatorIPiED2Ev
	nop
	nop
	movq	-8(%rbp), %rax
	subq	%fs:40, %rax
	je	.L272
	call	__stack_chk_fail@PLT
.L272:
	leave
	.cfi_def_cfa 7, 8
	ret
	.cfi_endproc
.LFE11314:
	.size	_ZNSt11_Deque_baseIiSaIiEE17_M_deallocate_mapEPPim, .-_ZNSt11_Deque_baseIiSaIiEE17_M_deallocate_mapEPPim
	.section	.text._ZNSt5dequeIiSaIiEE5beginEv,"axG",@progbits,_ZNSt5dequeIiSaIiEE5beginEv,comdat
	.align 2
	.weak	_ZNSt5dequeIiSaIiEE5beginEv
	.type	_ZNSt5dequeIiSaIiEE5beginEv, @function
_ZNSt5dequeIiSaIiEE5beginEv:
.LFB11315:
	.cfi_startproc
	endbr64
	pushq	%rbp
	.cfi_def_cfa_offset 16
	.cfi_offset 6, -16
	movq	%rsp, %rbp
	.cfi_def_cfa_register 6
	subq	$16, %rsp
	movq	%rdi, -8(%rbp)
	movq	%rsi, -16(%rbp)
	movq	-16(%rbp), %rax
	leaq	16(%rax), %rdx
	movq	-8(%rbp), %rax
	movq	%rdx, %rsi
	movq	%rax, %rdi
	call	_ZNSt15_Deque_iteratorIiRiPiEC1ERKS2_
	movq	-8(%rbp), %rax
	leave
	.cfi_def_cfa 7, 8
	ret
	.cfi_endproc
.LFE11315:
	.size	_ZNSt5dequeIiSaIiEE5beginEv, .-_ZNSt5dequeIiSaIiEE5beginEv
	.section	.text._ZNSt5dequeIiSaIiEE3endEv,"axG",@progbits,_ZNSt5dequeIiSaIiEE3endEv,comdat
	.align 2
	.weak	_ZNSt5dequeIiSaIiEE3endEv
	.type	_ZNSt5dequeIiSaIiEE3endEv, @function
_ZNSt5dequeIiSaIiEE3endEv:
.LFB11316:
	.cfi_startproc
	endbr64
	pushq	%rbp
	.cfi_def_cfa_offset 16
	.cfi_offset 6, -16
	movq	%rsp, %rbp
	.cfi_def_cfa_register 6
	subq	$16, %rsp
	movq	%rdi, -8(%rbp)
	movq	%rsi, -16(%rbp)
	movq	-16(%rbp), %rax
	leaq	48(%rax), %rdx
	movq	-8(%rbp), %rax
	movq	%rdx, %rsi
	movq	%rax, %rdi
	call	_ZNSt15_Deque_iteratorIiRiPiEC1ERKS2_
	movq	-8(%rbp), %rax
	leave
	.cfi_def_cfa 7, 8
	ret
	.cfi_endproc
.LFE11316:
	.size	_ZNSt5dequeIiSaIiEE3endEv, .-_ZNSt5dequeIiSaIiEE3endEv
	.section	.text._ZNSt11_Deque_baseIiSaIiEE19_M_get_Tp_allocatorEv,"axG",@progbits,_ZNSt11_Deque_baseIiSaIiEE19_M_get_Tp_allocatorEv,comdat
	.align 2
	.weak	_ZNSt11_Deque_baseIiSaIiEE19_M_get_Tp_allocatorEv
	.type	_ZNSt11_Deque_baseIiSaIiEE19_M_get_Tp_allocatorEv, @function
_ZNSt11_Deque_baseIiSaIiEE19_M_get_Tp_allocatorEv:
.LFB11317:
	.cfi_startproc
	endbr64
	pushq	%rbp
	.cfi_def_cfa_offset 16
	.cfi_offset 6, -16
	movq	%rsp, %rbp
	.cfi_def_cfa_register 6
	movq	%rdi, -8(%rbp)
	movq	-8(%rbp), %rax
	popq	%rbp
	.cfi_def_cfa 7, 8
	ret
	.cfi_endproc
.LFE11317:
	.size	_ZNSt11_Deque_baseIiSaIiEE19_M_get_Tp_allocatorEv, .-_ZNSt11_Deque_baseIiSaIiEE19_M_get_Tp_allocatorEv
	.section	.text._ZNSt5dequeIiSaIiEE15_M_destroy_dataESt15_Deque_iteratorIiRiPiES5_RKS0_,"axG",@progbits,_ZNSt5dequeIiSaIiEE15_M_destroy_dataESt15_Deque_iteratorIiRiPiES5_RKS0_,comdat
	.align 2
	.weak	_ZNSt5dequeIiSaIiEE15_M_destroy_dataESt15_Deque_iteratorIiRiPiES5_RKS0_
	.type	_ZNSt5dequeIiSaIiEE15_M_destroy_dataESt15_Deque_iteratorIiRiPiES5_RKS0_, @function
_ZNSt5dequeIiSaIiEE15_M_destroy_dataESt15_Deque_iteratorIiRiPiES5_RKS0_:
.LFB11318:
	.cfi_startproc
	endbr64
	pushq	%rbp
	.cfi_def_cfa_offset 16
	.cfi_offset 6, -16
	movq	%rsp, %rbp
	.cfi_def_cfa_register 6
	subq	$80, %rsp
	movq	%rdi, -56(%rbp)
	movq	%rsi, -64(%rbp)
	movq	%rdx, -72(%rbp)
	movq	%rcx, -80(%rbp)
	movq	%fs:40, %rax
	movq	%rax, -8(%rbp)
	xorl	%eax, %eax
	nop
	movq	-8(%rbp), %rax
	subq	%fs:40, %rax
	je	.L280
	call	__stack_chk_fail@PLT
.L280:
	leave
	.cfi_def_cfa 7, 8
	ret
	.cfi_endproc
.LFE11318:
	.size	_ZNSt5dequeIiSaIiEE15_M_destroy_dataESt15_Deque_iteratorIiRiPiES5_RKS0_, .-_ZNSt5dequeIiSaIiEE15_M_destroy_dataESt15_Deque_iteratorIiRiPiES5_RKS0_
	.section	.text._ZNSt13_Bvector_baseISaIbEE13_Bvector_implC2ERKSaImE,"axG",@progbits,_ZNSt13_Bvector_baseISaIbEE13_Bvector_implC5ERKSaImE,comdat
	.align 2
	.weak	_ZNSt13_Bvector_baseISaIbEE13_Bvector_implC2ERKSaImE
	.type	_ZNSt13_Bvector_baseISaIbEE13_Bvector_implC2ERKSaImE, @function
_ZNSt13_Bvector_baseISaIbEE13_Bvector_implC2ERKSaImE:
.LFB11323:
	.cfi_startproc
	endbr64
	pushq	%rbp
	.cfi_def_cfa_offset 16
	.cfi_offset 6, -16
	movq	%rsp, %rbp
	.cfi_def_cfa_register 6
	subq	$48, %rsp
	movq	%rdi, -40(%rbp)
	movq	%rsi, -48(%rbp)
	movq	-40(%rbp), %rax
	movq	%rax, -32(%rbp)
	movq	-48(%rbp), %rax
	movq	%rax, -24(%rbp)
	movq	-32(%rbp), %rax
	movq	%rax, -16(%rbp)
	movq	-24(%rbp), %rax
	movq	%rax, -8(%rbp)
	nop
	nop
	movq	-40(%rbp), %rax
	movq	%rax, %rdi
	call	_ZNSt13_Bvector_baseISaIbEE18_Bvector_impl_dataC2Ev
	nop
	leave
	.cfi_def_cfa 7, 8
	ret
	.cfi_endproc
.LFE11323:
	.size	_ZNSt13_Bvector_baseISaIbEE13_Bvector_implC2ERKSaImE, .-_ZNSt13_Bvector_baseISaIbEE13_Bvector_implC2ERKSaImE
	.weak	_ZNSt13_Bvector_baseISaIbEE13_Bvector_implC1ERKSaImE
	.set	_ZNSt13_Bvector_baseISaIbEE13_Bvector_implC1ERKSaImE,_ZNSt13_Bvector_baseISaIbEE13_Bvector_implC2ERKSaImE
	.section	.text._ZNSt13_Bvector_baseISaIbEE13_M_deallocateEv,"axG",@progbits,_ZNSt13_Bvector_baseISaIbEE13_M_deallocateEv,comdat
	.align 2
	.weak	_ZNSt13_Bvector_baseISaIbEE13_M_deallocateEv
	.type	_ZNSt13_Bvector_baseISaIbEE13_M_deallocateEv, @function
_ZNSt13_Bvector_baseISaIbEE13_M_deallocateEv:
.LFB11325:
	.cfi_startproc
	endbr64
	pushq	%rbp
	.cfi_def_cfa_offset 16
	.cfi_offset 6, -16
	movq	%rsp, %rbp
	.cfi_def_cfa_register 6
	subq	$48, %rsp
	movq	%rdi, -40(%rbp)
	movq	-40(%rbp), %rax
	movq	(%rax), %rax
	testq	%rax, %rax
	je	.L284
	movq	-40(%rbp), %rax
	movq	%rax, %rdi
	call	_ZNKSt13_Bvector_baseISaIbEE13_Bvector_impl11_M_end_addrEv
	movq	%rax, %rdx
	movq	-40(%rbp), %rax
	movq	(%rax), %rax
	subq	%rax, %rdx
	movq	%rdx, %rax
	sarq	$3, %rax
	movq	%rax, -32(%rbp)
	movq	-40(%rbp), %rax
	movq	32(%rax), %rax
	movq	-32(%rbp), %rdx
	salq	$3, %rdx
	negq	%rdx
	addq	%rax, %rdx
	movq	-40(%rbp), %rax
	movq	%rax, -24(%rbp)
	movq	%rdx, -16(%rbp)
	movq	-32(%rbp), %rax
	movq	%rax, -8(%rbp)
	movq	-8(%rbp), %rdx
	movq	-16(%rbp), %rcx
	movq	-24(%rbp), %rax
	movq	%rcx, %rsi
	movq	%rax, %rdi
	call	_ZNSt15__new_allocatorImE10deallocateEPmm
	nop
	movq	-40(%rbp), %rax
	movq	%rax, %rdi
	call	_ZNSt13_Bvector_baseISaIbEE18_Bvector_impl_data8_M_resetEv
.L284:
	nop
	leave
	.cfi_def_cfa 7, 8
	ret
	.cfi_endproc
.LFE11325:
	.size	_ZNSt13_Bvector_baseISaIbEE13_M_deallocateEv, .-_ZNSt13_Bvector_baseISaIbEE13_M_deallocateEv
	.section	.text._ZNSt13_Bvector_baseISaIbEE11_M_allocateEm,"axG",@progbits,_ZNSt13_Bvector_baseISaIbEE11_M_allocateEm,comdat
	.align 2
	.weak	_ZNSt13_Bvector_baseISaIbEE11_M_allocateEm
	.type	_ZNSt13_Bvector_baseISaIbEE11_M_allocateEm, @function
_ZNSt13_Bvector_baseISaIbEE11_M_allocateEm:
.LFB11326:
	.cfi_startproc
	endbr64
	pushq	%rbp
	.cfi_def_cfa_offset 16
	.cfi_offset 6, -16
	movq	%rsp, %rbp
	.cfi_def_cfa_register 6
	subq	$48, %rsp
	movq	%rdi, -40(%rbp)
	movq	%rsi, -48(%rbp)
	movq	-48(%rbp), %rax
	movq	%rax, %rdi
	call	_ZNSt13_Bvector_baseISaIbEE8_S_nwordEm
	movq	-40(%rbp), %rdx
	movq	%rdx, -16(%rbp)
	movq	%rax, -8(%rbp)
	movq	-8(%rbp), %rcx
	movq	-16(%rbp), %rax
	movl	$0, %edx
	movq	%rcx, %rsi
	movq	%rax, %rdi
	call	_ZNSt15__new_allocatorImE8allocateEmPKv
	nop
	movq	%rax, -24(%rbp)
	movq	-24(%rbp), %rax
	leave
	.cfi_def_cfa 7, 8
	ret
	.cfi_endproc
.LFE11326:
	.size	_ZNSt13_Bvector_baseISaIbEE11_M_allocateEm, .-_ZNSt13_Bvector_baseISaIbEE11_M_allocateEm
	.section	.text._ZNSt13_Bvector_baseISaIbEE8_S_nwordEm,"axG",@progbits,_ZNSt13_Bvector_baseISaIbEE8_S_nwordEm,comdat
	.weak	_ZNSt13_Bvector_baseISaIbEE8_S_nwordEm
	.type	_ZNSt13_Bvector_baseISaIbEE8_S_nwordEm, @function
_ZNSt13_Bvector_baseISaIbEE8_S_nwordEm:
.LFB11327:
	.cfi_startproc
	endbr64
	pushq	%rbp
	.cfi_def_cfa_offset 16
	.cfi_offset 6, -16
	movq	%rsp, %rbp
	.cfi_def_cfa_register 6
	movq	%rdi, -8(%rbp)
	movq	-8(%rbp), %rax
	addq	$63, %rax
	shrq	$6, %rax
	popq	%rbp
	.cfi_def_cfa 7, 8
	ret
	.cfi_endproc
.LFE11327:
	.size	_ZNSt13_Bvector_baseISaIbEE8_S_nwordEm, .-_ZNSt13_Bvector_baseISaIbEE8_S_nwordEm
	.section	.text._ZSt11__addressofImEPT_RS0_,"axG",@progbits,_ZSt11__addressofImEPT_RS0_,comdat
	.weak	_ZSt11__addressofImEPT_RS0_
	.type	_ZSt11__addressofImEPT_RS0_, @function
_ZSt11__addressofImEPT_RS0_:
.LFB11328:
	.cfi_startproc
	endbr64
	pushq	%rbp
	.cfi_def_cfa_offset 16
	.cfi_offset 6, -16
	movq	%rsp, %rbp
	.cfi_def_cfa_register 6
	movq	%rdi, -8(%rbp)
	movq	-8(%rbp), %rax
	popq	%rbp
	.cfi_def_cfa 7, 8
	ret
	.cfi_endproc
.LFE11328:
	.size	_ZSt11__addressofImEPT_RS0_, .-_ZSt11__addressofImEPT_RS0_
	.section	.text._ZNKSt13_Bvector_baseISaIbEE13_Bvector_impl11_M_end_addrEv,"axG",@progbits,_ZNKSt13_Bvector_baseISaIbEE13_Bvector_impl11_M_end_addrEv,comdat
	.align 2
	.weak	_ZNKSt13_Bvector_baseISaIbEE13_Bvector_impl11_M_end_addrEv
	.type	_ZNKSt13_Bvector_baseISaIbEE13_Bvector_impl11_M_end_addrEv, @function
_ZNKSt13_Bvector_baseISaIbEE13_Bvector_impl11_M_end_addrEv:
.LFB11329:
	.cfi_startproc
	endbr64
	pushq	%rbp
	.cfi_def_cfa_offset 16
	.cfi_offset 6, -16
	movq	%rsp, %rbp
	.cfi_def_cfa_register 6
	subq	$16, %rsp
	movq	%rdi, -8(%rbp)
	movq	-8(%rbp), %rax
	movq	32(%rax), %rax
	testq	%rax, %rax
	je	.L293
	movq	-8(%rbp), %rax
	movq	32(%rax), %rax
	subq	$8, %rax
	movq	%rax, %rdi
	call	_ZSt11__addressofImEPT_RS0_
	addq	$8, %rax
	jmp	.L294
.L293:
	movl	$0, %eax
.L294:
	leave
	.cfi_def_cfa 7, 8
	ret
	.cfi_endproc
.LFE11329:
	.size	_ZNKSt13_Bvector_baseISaIbEE13_Bvector_impl11_M_end_addrEv, .-_ZNKSt13_Bvector_baseISaIbEE13_Bvector_impl11_M_end_addrEv
	.section	.text._ZNSt8_Rb_treeIiSt4pairIKiSt6vectorIiSaIiEEESt10_Select1stIS5_ESt4lessIiESaIS5_EE8_S_rightEPSt18_Rb_tree_node_base,"axG",@progbits,_ZNSt8_Rb_treeIiSt4pairIKiSt6vectorIiSaIiEEESt10_Select1stIS5_ESt4lessIiESaIS5_EE8_S_rightEPSt18_Rb_tree_node_base,comdat
	.weak	_ZNSt8_Rb_treeIiSt4pairIKiSt6vectorIiSaIiEEESt10_Select1stIS5_ESt4lessIiESaIS5_EE8_S_rightEPSt18_Rb_tree_node_base
	.type	_ZNSt8_Rb_treeIiSt4pairIKiSt6vectorIiSaIiEEESt10_Select1stIS5_ESt4lessIiESaIS5_EE8_S_rightEPSt18_Rb_tree_node_base, @function
_ZNSt8_Rb_treeIiSt4pairIKiSt6vectorIiSaIiEEESt10_Select1stIS5_ESt4lessIiESaIS5_EE8_S_rightEPSt18_Rb_tree_node_base:
.LFB11333:
	.cfi_startproc
	endbr64
	pushq	%rbp
	.cfi_def_cfa_offset 16
	.cfi_offset 6, -16
	movq	%rsp, %rbp
	.cfi_def_cfa_register 6
	movq	%rdi, -8(%rbp)
	movq	-8(%rbp), %rax
	movq	24(%rax), %rax
	popq	%rbp
	.cfi_def_cfa 7, 8
	ret
	.cfi_endproc
.LFE11333:
	.size	_ZNSt8_Rb_treeIiSt4pairIKiSt6vectorIiSaIiEEESt10_Select1stIS5_ESt4lessIiESaIS5_EE8_S_rightEPSt18_Rb_tree_node_base, .-_ZNSt8_Rb_treeIiSt4pairIKiSt6vectorIiSaIiEEESt10_Select1stIS5_ESt4lessIiESaIS5_EE8_S_rightEPSt18_Rb_tree_node_base
	.section	.text._ZNSt8_Rb_treeIiSt4pairIKiSt6vectorIiSaIiEEESt10_Select1stIS5_ESt4lessIiESaIS5_EE7_S_leftEPSt18_Rb_tree_node_base,"axG",@progbits,_ZNSt8_Rb_treeIiSt4pairIKiSt6vectorIiSaIiEEESt10_Select1stIS5_ESt4lessIiESaIS5_EE7_S_leftEPSt18_Rb_tree_node_base,comdat
	.weak	_ZNSt8_Rb_treeIiSt4pairIKiSt6vectorIiSaIiEEESt10_Select1stIS5_ESt4lessIiESaIS5_EE7_S_leftEPSt18_Rb_tree_node_base
	.type	_ZNSt8_Rb_treeIiSt4pairIKiSt6vectorIiSaIiEEESt10_Select1stIS5_ESt4lessIiESaIS5_EE7_S_leftEPSt18_Rb_tree_node_base, @function
_ZNSt8_Rb_treeIiSt4pairIKiSt6vectorIiSaIiEEESt10_Select1stIS5_ESt4lessIiESaIS5_EE7_S_leftEPSt18_Rb_tree_node_base:
.LFB11334:
	.cfi_startproc
	endbr64
	pushq	%rbp
	.cfi_def_cfa_offset 16
	.cfi_offset 6, -16
	movq	%rsp, %rbp
	.cfi_def_cfa_register 6
	movq	%rdi, -8(%rbp)
	movq	-8(%rbp), %rax
	movq	16(%rax), %rax
	popq	%rbp
	.cfi_def_cfa 7, 8
	ret
	.cfi_endproc
.LFE11334:
	.size	_ZNSt8_Rb_treeIiSt4pairIKiSt6vectorIiSaIiEEESt10_Select1stIS5_ESt4lessIiESaIS5_EE7_S_leftEPSt18_Rb_tree_node_base, .-_ZNSt8_Rb_treeIiSt4pairIKiSt6vectorIiSaIiEEESt10_Select1stIS5_ESt4lessIiESaIS5_EE7_S_leftEPSt18_Rb_tree_node_base
	.section	.text._ZNSt8_Rb_treeIiSt4pairIKiSt6vectorIiSaIiEEESt10_Select1stIS5_ESt4lessIiESaIS5_EE12_M_drop_nodeEPSt13_Rb_tree_nodeIS5_E,"axG",@progbits,_ZNSt8_Rb_treeIiSt4pairIKiSt6vectorIiSaIiEEESt10_Select1stIS5_ESt4lessIiESaIS5_EE12_M_drop_nodeEPSt13_Rb_tree_nodeIS5_E,comdat
	.align 2
	.weak	_ZNSt8_Rb_treeIiSt4pairIKiSt6vectorIiSaIiEEESt10_Select1stIS5_ESt4lessIiESaIS5_EE12_M_drop_nodeEPSt13_Rb_tree_nodeIS5_E
	.type	_ZNSt8_Rb_treeIiSt4pairIKiSt6vectorIiSaIiEEESt10_Select1stIS5_ESt4lessIiESaIS5_EE12_M_drop_nodeEPSt13_Rb_tree_nodeIS5_E, @function
_ZNSt8_Rb_treeIiSt4pairIKiSt6vectorIiSaIiEEESt10_Select1stIS5_ESt4lessIiESaIS5_EE12_M_drop_nodeEPSt13_Rb_tree_nodeIS5_E:
.LFB11335:
	.cfi_startproc
	endbr64
	pushq	%rbp
	.cfi_def_cfa_offset 16
	.cfi_offset 6, -16
	movq	%rsp, %rbp
	.cfi_def_cfa_register 6
	subq	$16, %rsp
	movq	%rdi, -8(%rbp)
	movq	%rsi, -16(%rbp)
	movq	-16(%rbp), %rdx
	movq	-8(%rbp), %rax
	movq	%rdx, %rsi
	movq	%rax, %rdi
	call	_ZNSt8_Rb_treeIiSt4pairIKiSt6vectorIiSaIiEEESt10_Select1stIS5_ESt4lessIiESaIS5_EE15_M_destroy_nodeEPSt13_Rb_tree_nodeIS5_E
	movq	-16(%rbp), %rdx
	movq	-8(%rbp), %rax
	movq	%rdx, %rsi
	movq	%rax, %rdi
	call	_ZNSt8_Rb_treeIiSt4pairIKiSt6vectorIiSaIiEEESt10_Select1stIS5_ESt4lessIiESaIS5_EE11_M_put_nodeEPSt13_Rb_tree_nodeIS5_E
	nop
	leave
	.cfi_def_cfa 7, 8
	ret
	.cfi_endproc
.LFE11335:
	.size	_ZNSt8_Rb_treeIiSt4pairIKiSt6vectorIiSaIiEEESt10_Select1stIS5_ESt4lessIiESaIS5_EE12_M_drop_nodeEPSt13_Rb_tree_nodeIS5_E, .-_ZNSt8_Rb_treeIiSt4pairIKiSt6vectorIiSaIiEEESt10_Select1stIS5_ESt4lessIiESaIS5_EE12_M_drop_nodeEPSt13_Rb_tree_nodeIS5_E
	.section	.text._ZNKSt8_Rb_treeIiSt4pairIKiSt6vectorIiSaIiEEESt10_Select1stIS5_ESt4lessIiESaIS5_EE9_M_mbeginEv,"axG",@progbits,_ZNKSt8_Rb_treeIiSt4pairIKiSt6vectorIiSaIiEEESt10_Select1stIS5_ESt4lessIiESaIS5_EE9_M_mbeginEv,comdat
	.align 2
	.weak	_ZNKSt8_Rb_treeIiSt4pairIKiSt6vectorIiSaIiEEESt10_Select1stIS5_ESt4lessIiESaIS5_EE9_M_mbeginEv
	.type	_ZNKSt8_Rb_treeIiSt4pairIKiSt6vectorIiSaIiEEESt10_Select1stIS5_ESt4lessIiESaIS5_EE9_M_mbeginEv, @function
_ZNKSt8_Rb_treeIiSt4pairIKiSt6vectorIiSaIiEEESt10_Select1stIS5_ESt4lessIiESaIS5_EE9_M_mbeginEv:
.LFB11336:
	.cfi_startproc
	endbr64
	pushq	%rbp
	.cfi_def_cfa_offset 16
	.cfi_offset 6, -16
	movq	%rsp, %rbp
	.cfi_def_cfa_register 6
	movq	%rdi, -8(%rbp)
	movq	-8(%rbp), %rax
	movq	16(%rax), %rax
	popq	%rbp
	.cfi_def_cfa 7, 8
	ret
	.cfi_endproc
.LFE11336:
	.size	_ZNKSt8_Rb_treeIiSt4pairIKiSt6vectorIiSaIiEEESt10_Select1stIS5_ESt4lessIiESaIS5_EE9_M_mbeginEv, .-_ZNKSt8_Rb_treeIiSt4pairIKiSt6vectorIiSaIiEEESt10_Select1stIS5_ESt4lessIiESaIS5_EE9_M_mbeginEv
	.section	.rodata
	.align 8
.LC4:
	.string	"cannot create std::deque larger than max_size()"
	.section	.text._ZNSt5dequeIiSaIiEE16_M_push_back_auxIJRKiEEEvDpOT_,"axG",@progbits,_ZNSt5dequeIiSaIiEE16_M_push_back_auxIJRKiEEEvDpOT_,comdat
	.align 2
	.weak	_ZNSt5dequeIiSaIiEE16_M_push_back_auxIJRKiEEEvDpOT_
	.type	_ZNSt5dequeIiSaIiEE16_M_push_back_auxIJRKiEEEvDpOT_, @function
_ZNSt5dequeIiSaIiEE16_M_push_back_auxIJRKiEEEvDpOT_:
.LFB11337:
	.cfi_startproc
	endbr64
	pushq	%rbp
	.cfi_def_cfa_offset 16
	.cfi_offset 6, -16
	movq	%rsp, %rbp
	.cfi_def_cfa_register 6
	pushq	%rbx
	subq	$72, %rsp
	.cfi_offset 3, -24
	movq	%rdi, -72(%rbp)
	movq	%rsi, -80(%rbp)
	movq	-72(%rbp), %rax
	movq	%rax, %rdi
	call	_ZNKSt5dequeIiSaIiEE4sizeEv
	movq	%rax, %rbx
	movq	-72(%rbp), %rax
	movq	%rax, %rdi
	call	_ZNKSt5dequeIiSaIiEE8max_sizeEv
	cmpq	%rax, %rbx
	sete	%al
	testb	%al, %al
	je	.L303
	leaq	.LC4(%rip), %rax
	movq	%rax, %rdi
	call	_ZSt20__throw_length_errorPKc@PLT
.L303:
	movq	-72(%rbp), %rax
	movl	$1, %esi
	movq	%rax, %rdi
	call	_ZNSt5dequeIiSaIiEE22_M_reserve_map_at_backEm
	movq	-72(%rbp), %rax
	movq	-72(%rbp), %rdx
	movq	72(%rdx), %rdx
	leaq	8(%rdx), %rbx
	movq	%rax, %rdi
	call	_ZNSt11_Deque_baseIiSaIiEE16_M_allocate_nodeEv
	movq	%rax, (%rbx)
	movq	-80(%rbp), %rax
	movq	%rax, %rdi
	call	_ZSt7forwardIRKiEOT_RNSt16remove_referenceIS2_E4typeE
	movq	-72(%rbp), %rdx
	movq	48(%rdx), %rdx
	movq	-72(%rbp), %rcx
	movq	%rcx, -64(%rbp)
	movq	%rdx, -56(%rbp)
	movq	%rax, -48(%rbp)
	movq	-48(%rbp), %rax
	movq	%rax, %rdi
	call	_ZSt7forwardIRKiEOT_RNSt16remove_referenceIS2_E4typeE
	movq	-64(%rbp), %rdx
	movq	%rdx, -40(%rbp)
	movq	-56(%rbp), %rdx
	movq	%rdx, -32(%rbp)
	movq	%rax, -24(%rbp)
	movq	-32(%rbp), %rax
	movq	%rax, %rsi
	movl	$4, %edi
	call	_ZnwmPv
	movq	%rax, %rbx
	movq	-24(%rbp), %rax
	movq	%rax, %rdi
	call	_ZSt7forwardIRKiEOT_RNSt16remove_referenceIS2_E4typeE
	movl	(%rax), %eax
	movl	%eax, (%rbx)
	nop
	nop
	movq	-72(%rbp), %rax
	addq	$48, %rax
	movq	-72(%rbp), %rdx
	movq	72(%rdx), %rdx
	addq	$8, %rdx
	movq	%rdx, %rsi
	movq	%rax, %rdi
	call	_ZNSt15_Deque_iteratorIiRiPiE11_M_set_nodeEPS1_
	movq	-72(%rbp), %rax
	movq	56(%rax), %rdx
	movq	-72(%rbp), %rax
	movq	%rdx, 48(%rax)
	nop
	movq	-8(%rbp), %rbx
	leave
	.cfi_def_cfa 7, 8
	ret
	.cfi_endproc
.LFE11337:
	.size	_ZNSt5dequeIiSaIiEE16_M_push_back_auxIJRKiEEEvDpOT_, .-_ZNSt5dequeIiSaIiEE16_M_push_back_auxIJRKiEEEvDpOT_
	.section	.text._ZNSt8_Rb_treeIiSt4pairIKiSt6vectorIiSaIiEEESt10_Select1stIS5_ESt4lessIiESaIS5_EE11lower_boundERS1_,"axG",@progbits,_ZNSt8_Rb_treeIiSt4pairIKiSt6vectorIiSaIiEEESt10_Select1stIS5_ESt4lessIiESaIS5_EE11lower_boundERS1_,comdat
	.align 2
	.weak	_ZNSt8_Rb_treeIiSt4pairIKiSt6vectorIiSaIiEEESt10_Select1stIS5_ESt4lessIiESaIS5_EE11lower_boundERS1_
	.type	_ZNSt8_Rb_treeIiSt4pairIKiSt6vectorIiSaIiEEESt10_Select1stIS5_ESt4lessIiESaIS5_EE11lower_boundERS1_, @function
_ZNSt8_Rb_treeIiSt4pairIKiSt6vectorIiSaIiEEESt10_Select1stIS5_ESt4lessIiESaIS5_EE11lower_boundERS1_:
.LFB11338:
	.cfi_startproc
	endbr64
	pushq	%rbp
	.cfi_def_cfa_offset 16
	.cfi_offset 6, -16
	movq	%rsp, %rbp
	.cfi_def_cfa_register 6
	pushq	%rbx
	subq	$24, %rsp
	.cfi_offset 3, -24
	movq	%rdi, -24(%rbp)
	movq	%rsi, -32(%rbp)
	movq	-24(%rbp), %rax
	movq	%rax, %rdi
	call	_ZNSt8_Rb_treeIiSt4pairIKiSt6vectorIiSaIiEEESt10_Select1stIS5_ESt4lessIiESaIS5_EE6_M_endEv
	movq	%rax, %rbx
	movq	-24(%rbp), %rax
	movq	%rax, %rdi
	call	_ZNSt8_Rb_treeIiSt4pairIKiSt6vectorIiSaIiEEESt10_Select1stIS5_ESt4lessIiESaIS5_EE8_M_beginEv
	movq	%rax, %rsi
	movq	-32(%rbp), %rdx
	movq	-24(%rbp), %rax
	movq	%rdx, %rcx
	movq	%rbx, %rdx
	movq	%rax, %rdi
	call	_ZNSt8_Rb_treeIiSt4pairIKiSt6vectorIiSaIiEEESt10_Select1stIS5_ESt4lessIiESaIS5_EE14_M_lower_boundEPSt13_Rb_tree_nodeIS5_EPSt18_Rb_tree_node_baseRS1_
	movq	-8(%rbp), %rbx
	leave
	.cfi_def_cfa 7, 8
	ret
	.cfi_endproc
.LFE11338:
	.size	_ZNSt8_Rb_treeIiSt4pairIKiSt6vectorIiSaIiEEESt10_Select1stIS5_ESt4lessIiESaIS5_EE11lower_boundERS1_, .-_ZNSt8_Rb_treeIiSt4pairIKiSt6vectorIiSaIiEEESt10_Select1stIS5_ESt4lessIiESaIS5_EE11lower_boundERS1_
	.section	.text._ZNKSt8_Rb_treeIiSt4pairIKiSt6vectorIiSaIiEEESt10_Select1stIS5_ESt4lessIiESaIS5_EE8key_compEv,"axG",@progbits,_ZNKSt8_Rb_treeIiSt4pairIKiSt6vectorIiSaIiEEESt10_Select1stIS5_ESt4lessIiESaIS5_EE8key_compEv,comdat
	.align 2
	.weak	_ZNKSt8_Rb_treeIiSt4pairIKiSt6vectorIiSaIiEEESt10_Select1stIS5_ESt4lessIiESaIS5_EE8key_compEv
	.type	_ZNKSt8_Rb_treeIiSt4pairIKiSt6vectorIiSaIiEEESt10_Select1stIS5_ESt4lessIiESaIS5_EE8key_compEv, @function
_ZNKSt8_Rb_treeIiSt4pairIKiSt6vectorIiSaIiEEESt10_Select1stIS5_ESt4lessIiESaIS5_EE8key_compEv:
.LFB11339:
	.cfi_startproc
	endbr64
	pushq	%rbp
	.cfi_def_cfa_offset 16
	.cfi_offset 6, -16
	movq	%rsp, %rbp
	.cfi_def_cfa_register 6
	movq	%rdi, -8(%rbp)
	nop
	popq	%rbp
	.cfi_def_cfa 7, 8
	ret
	.cfi_endproc
.LFE11339:
	.size	_ZNKSt8_Rb_treeIiSt4pairIKiSt6vectorIiSaIiEEESt10_Select1stIS5_ESt4lessIiESaIS5_EE8key_compEv, .-_ZNKSt8_Rb_treeIiSt4pairIKiSt6vectorIiSaIiEEESt10_Select1stIS5_ESt4lessIiESaIS5_EE8key_compEv
	.section	.text._ZNSt11_Tuple_implILm0EJRKiEEC2ES1_,"axG",@progbits,_ZNSt11_Tuple_implILm0EJRKiEEC5ES1_,comdat
	.align 2
	.weak	_ZNSt11_Tuple_implILm0EJRKiEEC2ES1_
	.type	_ZNSt11_Tuple_implILm0EJRKiEEC2ES1_, @function
_ZNSt11_Tuple_implILm0EJRKiEEC2ES1_:
.LFB11341:
	.cfi_startproc
	endbr64
	pushq	%rbp
	.cfi_def_cfa_offset 16
	.cfi_offset 6, -16
	movq	%rsp, %rbp
	.cfi_def_cfa_register 6
	subq	$16, %rsp
	movq	%rdi, -8(%rbp)
	movq	%rsi, -16(%rbp)
	movq	-8(%rbp), %rax
	movq	-16(%rbp), %rdx
	movq	%rdx, %rsi
	movq	%rax, %rdi
	call	_ZNSt10_Head_baseILm0ERKiLb0EEC2ES1_
	nop
	leave
	.cfi_def_cfa 7, 8
	ret
	.cfi_endproc
.LFE11341:
	.size	_ZNSt11_Tuple_implILm0EJRKiEEC2ES1_, .-_ZNSt11_Tuple_implILm0EJRKiEEC2ES1_
	.weak	_ZNSt11_Tuple_implILm0EJRKiEEC1ES1_
	.set	_ZNSt11_Tuple_implILm0EJRKiEEC1ES1_,_ZNSt11_Tuple_implILm0EJRKiEEC2ES1_
	.section	.text._ZSt7forwardIRKSt21piecewise_construct_tEOT_RNSt16remove_referenceIS3_E4typeE,"axG",@progbits,_ZSt7forwardIRKSt21piecewise_construct_tEOT_RNSt16remove_referenceIS3_E4typeE,comdat
	.weak	_ZSt7forwardIRKSt21piecewise_construct_tEOT_RNSt16remove_referenceIS3_E4typeE
	.type	_ZSt7forwardIRKSt21piecewise_construct_tEOT_RNSt16remove_referenceIS3_E4typeE, @function
_ZSt7forwardIRKSt21piecewise_construct_tEOT_RNSt16remove_referenceIS3_E4typeE:
.LFB11343:
	.cfi_startproc
	endbr64
	pushq	%rbp
	.cfi_def_cfa_offset 16
	.cfi_offset 6, -16
	movq	%rsp, %rbp
	.cfi_def_cfa_register 6
	movq	%rdi, -8(%rbp)
	movq	-8(%rbp), %rax
	popq	%rbp
	.cfi_def_cfa 7, 8
	ret
	.cfi_endproc
.LFE11343:
	.size	_ZSt7forwardIRKSt21piecewise_construct_tEOT_RNSt16remove_referenceIS3_E4typeE, .-_ZSt7forwardIRKSt21piecewise_construct_tEOT_RNSt16remove_referenceIS3_E4typeE
	.section	.text._ZSt7forwardISt5tupleIJRKiEEEOT_RNSt16remove_referenceIS4_E4typeE,"axG",@progbits,_ZSt7forwardISt5tupleIJRKiEEEOT_RNSt16remove_referenceIS4_E4typeE,comdat
	.weak	_ZSt7forwardISt5tupleIJRKiEEEOT_RNSt16remove_referenceIS4_E4typeE
	.type	_ZSt7forwardISt5tupleIJRKiEEEOT_RNSt16remove_referenceIS4_E4typeE, @function
_ZSt7forwardISt5tupleIJRKiEEEOT_RNSt16remove_referenceIS4_E4typeE:
.LFB11344:
	.cfi_startproc
	endbr64
	pushq	%rbp
	.cfi_def_cfa_offset 16
	.cfi_offset 6, -16
	movq	%rsp, %rbp
	.cfi_def_cfa_register 6
	movq	%rdi, -8(%rbp)
	movq	-8(%rbp), %rax
	popq	%rbp
	.cfi_def_cfa 7, 8
	ret
	.cfi_endproc
.LFE11344:
	.size	_ZSt7forwardISt5tupleIJRKiEEEOT_RNSt16remove_referenceIS4_E4typeE, .-_ZSt7forwardISt5tupleIJRKiEEEOT_RNSt16remove_referenceIS4_E4typeE
	.section	.text._ZSt7forwardISt5tupleIJEEEOT_RNSt16remove_referenceIS2_E4typeE,"axG",@progbits,_ZSt7forwardISt5tupleIJEEEOT_RNSt16remove_referenceIS2_E4typeE,comdat
	.weak	_ZSt7forwardISt5tupleIJEEEOT_RNSt16remove_referenceIS2_E4typeE
	.type	_ZSt7forwardISt5tupleIJEEEOT_RNSt16remove_referenceIS2_E4typeE, @function
_ZSt7forwardISt5tupleIJEEEOT_RNSt16remove_referenceIS2_E4typeE:
.LFB11345:
	.cfi_startproc
	endbr64
	pushq	%rbp
	.cfi_def_cfa_offset 16
	.cfi_offset 6, -16
	movq	%rsp, %rbp
	.cfi_def_cfa_register 6
	movq	%rdi, -8(%rbp)
	movq	-8(%rbp), %rax
	popq	%rbp
	.cfi_def_cfa 7, 8
	ret
	.cfi_endproc
.LFE11345:
	.size	_ZSt7forwardISt5tupleIJEEEOT_RNSt16remove_referenceIS2_E4typeE, .-_ZSt7forwardISt5tupleIJEEEOT_RNSt16remove_referenceIS2_E4typeE
	.section	.text._ZNSt8_Rb_treeIiSt4pairIKiSt6vectorIiSaIiEEESt10_Select1stIS5_ESt4lessIiESaIS5_EE10_Auto_nodeC2IJRKSt21piecewise_construct_tSt5tupleIJRS1_EESH_IJEEEEERSB_DpOT_,"axG",@progbits,_ZNSt8_Rb_treeIiSt4pairIKiSt6vectorIiSaIiEEESt10_Select1stIS5_ESt4lessIiESaIS5_EE10_Auto_nodeC5IJRKSt21piecewise_construct_tSt5tupleIJRS1_EESH_IJEEEEERSB_DpOT_,comdat
	.align 2
	.weak	_ZNSt8_Rb_treeIiSt4pairIKiSt6vectorIiSaIiEEESt10_Select1stIS5_ESt4lessIiESaIS5_EE10_Auto_nodeC2IJRKSt21piecewise_construct_tSt5tupleIJRS1_EESH_IJEEEEERSB_DpOT_
	.type	_ZNSt8_Rb_treeIiSt4pairIKiSt6vectorIiSaIiEEESt10_Select1stIS5_ESt4lessIiESaIS5_EE10_Auto_nodeC2IJRKSt21piecewise_construct_tSt5tupleIJRS1_EESH_IJEEEEERSB_DpOT_, @function
_ZNSt8_Rb_treeIiSt4pairIKiSt6vectorIiSaIiEEESt10_Select1stIS5_ESt4lessIiESaIS5_EE10_Auto_nodeC2IJRKSt21piecewise_construct_tSt5tupleIJRS1_EESH_IJEEEEERSB_DpOT_:
.LFB11347:
	.cfi_startproc
	endbr64
	pushq	%rbp
	.cfi_def_cfa_offset 16
	.cfi_offset 6, -16
	movq	%rsp, %rbp
	.cfi_def_cfa_register 6
	pushq	%r12
	pushq	%rbx
	subq	$48, %rsp
	.cfi_offset 12, -24
	.cfi_offset 3, -32
	movq	%rdi, -24(%rbp)
	movq	%rsi, -32(%rbp)
	movq	%rdx, -40(%rbp)
	movq	%rcx, -48(%rbp)
	movq	%r8, -56(%rbp)
	movq	-24(%rbp), %rax
	movq	-32(%rbp), %rdx
	movq	%rdx, (%rax)
	movq	-56(%rbp), %rax
	movq	%rax, %rdi
	call	_ZSt7forwardISt5tupleIJEEEOT_RNSt16remove_referenceIS2_E4typeE
	movq	%rax, %r12
	movq	-48(%rbp), %rax
	movq	%rax, %rdi
	call	_ZSt7forwardISt5tupleIJRKiEEEOT_RNSt16remove_referenceIS4_E4typeE
	movq	%rax, %rbx
	movq	-40(%rbp), %rax
	movq	%rax, %rdi
	call	_ZSt7forwardIRKSt21piecewise_construct_tEOT_RNSt16remove_referenceIS3_E4typeE
	movq	%rax, %rsi
	movq	-32(%rbp), %rax
	movq	%r12, %rcx
	movq	%rbx, %rdx
	movq	%rax, %rdi
	call	_ZNSt8_Rb_treeIiSt4pairIKiSt6vectorIiSaIiEEESt10_Select1stIS5_ESt4lessIiESaIS5_EE14_M_create_nodeIJRKSt21piecewise_construct_tSt5tupleIJRS1_EESG_IJEEEEEPSt13_Rb_tree_nodeIS5_EDpOT_
	movq	-24(%rbp), %rdx
	movq	%rax, 8(%rdx)
	nop
	addq	$48, %rsp
	popq	%rbx
	popq	%r12
	popq	%rbp
	.cfi_def_cfa 7, 8
	ret
	.cfi_endproc
.LFE11347:
	.size	_ZNSt8_Rb_treeIiSt4pairIKiSt6vectorIiSaIiEEESt10_Select1stIS5_ESt4lessIiESaIS5_EE10_Auto_nodeC2IJRKSt21piecewise_construct_tSt5tupleIJRS1_EESH_IJEEEEERSB_DpOT_, .-_ZNSt8_Rb_treeIiSt4pairIKiSt6vectorIiSaIiEEESt10_Select1stIS5_ESt4lessIiESaIS5_EE10_Auto_nodeC2IJRKSt21piecewise_construct_tSt5tupleIJRS1_EESH_IJEEEEERSB_DpOT_
	.weak	_ZNSt8_Rb_treeIiSt4pairIKiSt6vectorIiSaIiEEESt10_Select1stIS5_ESt4lessIiESaIS5_EE10_Auto_nodeC1IJRKSt21piecewise_construct_tSt5tupleIJRS1_EESH_IJEEEEERSB_DpOT_
	.set	_ZNSt8_Rb_treeIiSt4pairIKiSt6vectorIiSaIiEEESt10_Select1stIS5_ESt4lessIiESaIS5_EE10_Auto_nodeC1IJRKSt21piecewise_construct_tSt5tupleIJRS1_EESH_IJEEEEERSB_DpOT_,_ZNSt8_Rb_treeIiSt4pairIKiSt6vectorIiSaIiEEESt10_Select1stIS5_ESt4lessIiESaIS5_EE10_Auto_nodeC2IJRKSt21piecewise_construct_tSt5tupleIJRS1_EESH_IJEEEEERSB_DpOT_
	.section	.text._ZNSt8_Rb_treeIiSt4pairIKiSt6vectorIiSaIiEEESt10_Select1stIS5_ESt4lessIiESaIS5_EE10_Auto_nodeD2Ev,"axG",@progbits,_ZNSt8_Rb_treeIiSt4pairIKiSt6vectorIiSaIiEEESt10_Select1stIS5_ESt4lessIiESaIS5_EE10_Auto_nodeD5Ev,comdat
	.align 2
	.weak	_ZNSt8_Rb_treeIiSt4pairIKiSt6vectorIiSaIiEEESt10_Select1stIS5_ESt4lessIiESaIS5_EE10_Auto_nodeD2Ev
	.type	_ZNSt8_Rb_treeIiSt4pairIKiSt6vectorIiSaIiEEESt10_Select1stIS5_ESt4lessIiESaIS5_EE10_Auto_nodeD2Ev, @function
_ZNSt8_Rb_treeIiSt4pairIKiSt6vectorIiSaIiEEESt10_Select1stIS5_ESt4lessIiESaIS5_EE10_Auto_nodeD2Ev:
.LFB11350:
	.cfi_startproc
	endbr64
	pushq	%rbp
	.cfi_def_cfa_offset 16
	.cfi_offset 6, -16
	movq	%rsp, %rbp
	.cfi_def_cfa_register 6
	subq	$16, %rsp
	movq	%rdi, -8(%rbp)
	movq	-8(%rbp), %rax
	movq	8(%rax), %rax
	testq	%rax, %rax
	je	.L318
	movq	-8(%rbp), %rax
	movq	(%rax), %rax
	movq	-8(%rbp), %rdx
	movq	8(%rdx), %rdx
	movq	%rdx, %rsi
	movq	%rax, %rdi
	call	_ZNSt8_Rb_treeIiSt4pairIKiSt6vectorIiSaIiEEESt10_Select1stIS5_ESt4lessIiESaIS5_EE12_M_drop_nodeEPSt13_Rb_tree_nodeIS5_E
.L318:
	nop
	leave
	.cfi_def_cfa 7, 8
	ret
	.cfi_endproc
.LFE11350:
	.size	_ZNSt8_Rb_treeIiSt4pairIKiSt6vectorIiSaIiEEESt10_Select1stIS5_ESt4lessIiESaIS5_EE10_Auto_nodeD2Ev, .-_ZNSt8_Rb_treeIiSt4pairIKiSt6vectorIiSaIiEEESt10_Select1stIS5_ESt4lessIiESaIS5_EE10_Auto_nodeD2Ev
	.weak	_ZNSt8_Rb_treeIiSt4pairIKiSt6vectorIiSaIiEEESt10_Select1stIS5_ESt4lessIiESaIS5_EE10_Auto_nodeD1Ev
	.set	_ZNSt8_Rb_treeIiSt4pairIKiSt6vectorIiSaIiEEESt10_Select1stIS5_ESt4lessIiESaIS5_EE10_Auto_nodeD1Ev,_ZNSt8_Rb_treeIiSt4pairIKiSt6vectorIiSaIiEEESt10_Select1stIS5_ESt4lessIiESaIS5_EE10_Auto_nodeD2Ev
	.section	.text._ZNSt8_Rb_treeIiSt4pairIKiSt6vectorIiSaIiEEESt10_Select1stIS5_ESt4lessIiESaIS5_EE29_M_get_insert_hint_unique_posESt23_Rb_tree_const_iteratorIS5_ERS1_,"axG",@progbits,_ZNSt8_Rb_treeIiSt4pairIKiSt6vectorIiSaIiEEESt10_Select1stIS5_ESt4lessIiESaIS5_EE29_M_get_insert_hint_unique_posESt23_Rb_tree_const_iteratorIS5_ERS1_,comdat
	.align 2
	.weak	_ZNSt8_Rb_treeIiSt4pairIKiSt6vectorIiSaIiEEESt10_Select1stIS5_ESt4lessIiESaIS5_EE29_M_get_insert_hint_unique_posESt23_Rb_tree_const_iteratorIS5_ERS1_
	.type	_ZNSt8_Rb_treeIiSt4pairIKiSt6vectorIiSaIiEEESt10_Select1stIS5_ESt4lessIiESaIS5_EE29_M_get_insert_hint_unique_posESt23_Rb_tree_const_iteratorIS5_ERS1_, @function
_ZNSt8_Rb_treeIiSt4pairIKiSt6vectorIiSaIiEEESt10_Select1stIS5_ESt4lessIiESaIS5_EE29_M_get_insert_hint_unique_posESt23_Rb_tree_const_iteratorIS5_ERS1_:
.LFB11352:
	.cfi_startproc
	endbr64
	pushq	%rbp
	.cfi_def_cfa_offset 16
	.cfi_offset 6, -16
	movq	%rsp, %rbp
	.cfi_def_cfa_register 6
	pushq	%rbx
	subq	$104, %rsp
	.cfi_offset 3, -24
	movq	%rdi, -88(%rbp)
	movq	%rsi, -96(%rbp)
	movq	%rdx, -104(%rbp)
	movq	%fs:40, %rax
	movq	%rax, -24(%rbp)
	xorl	%eax, %eax
	leaq	-96(%rbp), %rax
	movq	%rax, %rdi
	call	_ZNKSt23_Rb_tree_const_iteratorISt4pairIKiSt6vectorIiSaIiEEEE13_M_const_castEv
	movq	%rax, -72(%rbp)
	movq	-72(%rbp), %rbx
	movq	-88(%rbp), %rax
	movq	%rax, %rdi
	call	_ZNSt8_Rb_treeIiSt4pairIKiSt6vectorIiSaIiEEESt10_Select1stIS5_ESt4lessIiESaIS5_EE6_M_endEv
	cmpq	%rax, %rbx
	sete	%al
	testb	%al, %al
	je	.L320
	movq	-88(%rbp), %rax
	movq	%rax, %rdi
	call	_ZNKSt8_Rb_treeIiSt4pairIKiSt6vectorIiSaIiEEESt10_Select1stIS5_ESt4lessIiESaIS5_EE4sizeEv
	testq	%rax, %rax
	je	.L321
	movq	-88(%rbp), %rbx
	movq	-88(%rbp), %rax
	movq	%rax, %rdi
	call	_ZNSt8_Rb_treeIiSt4pairIKiSt6vectorIiSaIiEEESt10_Select1stIS5_ESt4lessIiESaIS5_EE12_M_rightmostEv
	movq	(%rax), %rax
	movq	%rax, %rdi
	call	_ZNSt8_Rb_treeIiSt4pairIKiSt6vectorIiSaIiEEESt10_Select1stIS5_ESt4lessIiESaIS5_EE6_S_keyEPKSt18_Rb_tree_node_base
	movq	%rax, %rcx
	movq	-104(%rbp), %rax
	movq	%rax, %rdx
	movq	%rcx, %rsi
	movq	%rbx, %rdi
	call	_ZNKSt4lessIiEclERKiS2_
	testb	%al, %al
	je	.L321
	movl	$1, %eax
	jmp	.L322
.L321:
	movl	$0, %eax
.L322:
	testb	%al, %al
	je	.L323
	movq	-88(%rbp), %rax
	movq	%rax, %rdi
	call	_ZNSt8_Rb_treeIiSt4pairIKiSt6vectorIiSaIiEEESt10_Select1stIS5_ESt4lessIiESaIS5_EE12_M_rightmostEv
	movq	%rax, %rdx
	movq	$0, -56(%rbp)
	leaq	-56(%rbp), %rcx
	leaq	-48(%rbp), %rax
	movq	%rcx, %rsi
	movq	%rax, %rdi
	call	_ZNSt4pairIPSt18_Rb_tree_node_baseS1_EC1IS1_S1_Lb1EEERKS1_S5_
	movq	-48(%rbp), %rax
	movq	-40(%rbp), %rdx
	jmp	.L335
.L323:
	movq	-104(%rbp), %rdx
	movq	-88(%rbp), %rax
	movq	%rdx, %rsi
	movq	%rax, %rdi
	call	_ZNSt8_Rb_treeIiSt4pairIKiSt6vectorIiSaIiEEESt10_Select1stIS5_ESt4lessIiESaIS5_EE24_M_get_insert_unique_posERS1_
	jmp	.L335
.L320:
	movq	-88(%rbp), %rbx
	movq	-72(%rbp), %rax
	movq	%rax, %rdi
	call	_ZNSt8_Rb_treeIiSt4pairIKiSt6vectorIiSaIiEEESt10_Select1stIS5_ESt4lessIiESaIS5_EE6_S_keyEPKSt18_Rb_tree_node_base
	movq	%rax, %rdx
	movq	-104(%rbp), %rax
	movq	%rax, %rsi
	movq	%rbx, %rdi
	call	_ZNKSt4lessIiEclERKiS2_
	testb	%al, %al
	je	.L325
	movq	-72(%rbp), %rax
	movq	%rax, -64(%rbp)
	movq	-72(%rbp), %rbx
	movq	-88(%rbp), %rax
	movq	%rax, %rdi
	call	_ZNSt8_Rb_treeIiSt4pairIKiSt6vectorIiSaIiEEESt10_Select1stIS5_ESt4lessIiESaIS5_EE11_M_leftmostEv
	movq	(%rax), %rax
	cmpq	%rax, %rbx
	sete	%al
	testb	%al, %al
	je	.L326
	movq	-88(%rbp), %rax
	movq	%rax, %rdi
	call	_ZNSt8_Rb_treeIiSt4pairIKiSt6vectorIiSaIiEEESt10_Select1stIS5_ESt4lessIiESaIS5_EE11_M_leftmostEv
	movq	%rax, %rbx
	movq	-88(%rbp), %rax
	movq	%rax, %rdi
	call	_ZNSt8_Rb_treeIiSt4pairIKiSt6vectorIiSaIiEEESt10_Select1stIS5_ESt4lessIiESaIS5_EE11_M_leftmostEv
	movq	%rax, %rcx
	leaq	-48(%rbp), %rax
	movq	%rbx, %rdx
	movq	%rcx, %rsi
	movq	%rax, %rdi
	call	_ZNSt4pairIPSt18_Rb_tree_node_baseS1_EC1IRS1_S4_Lb1EEEOT_OT0_
	movq	-48(%rbp), %rax
	movq	-40(%rbp), %rdx
	jmp	.L335
.L326:
	movq	-88(%rbp), %rbx
	leaq	-64(%rbp), %rax
	movq	%rax, %rdi
	call	_ZNSt17_Rb_tree_iteratorISt4pairIKiSt6vectorIiSaIiEEEEmmEv
	movq	(%rax), %rax
	movq	%rax, %rdi
	call	_ZNSt8_Rb_treeIiSt4pairIKiSt6vectorIiSaIiEEESt10_Select1stIS5_ESt4lessIiESaIS5_EE6_S_keyEPKSt18_Rb_tree_node_base
	movq	%rax, %rcx
	movq	-104(%rbp), %rax
	movq	%rax, %rdx
	movq	%rcx, %rsi
	movq	%rbx, %rdi
	call	_ZNKSt4lessIiEclERKiS2_
	testb	%al, %al
	je	.L328
	movq	-64(%rbp), %rax
	movq	%rax, %rdi
	call	_ZNSt8_Rb_treeIiSt4pairIKiSt6vectorIiSaIiEEESt10_Select1stIS5_ESt4lessIiESaIS5_EE8_S_rightEPSt18_Rb_tree_node_base
	testq	%rax, %rax
	sete	%al
	testb	%al, %al
	je	.L329
	movq	$0, -56(%rbp)
	leaq	-64(%rbp), %rdx
	leaq	-56(%rbp), %rcx
	leaq	-48(%rbp), %rax
	movq	%rcx, %rsi
	movq	%rax, %rdi
	call	_ZNSt4pairIPSt18_Rb_tree_node_baseS1_EC1IS1_S1_Lb1EEERKS1_S5_
	movq	-48(%rbp), %rax
	movq	-40(%rbp), %rdx
	jmp	.L335
.L329:
	leaq	-72(%rbp), %rdx
	leaq	-72(%rbp), %rcx
	leaq	-48(%rbp), %rax
	movq	%rcx, %rsi
	movq	%rax, %rdi
	call	_ZNSt4pairIPSt18_Rb_tree_node_baseS1_EC1IRS1_S4_Lb1EEEOT_OT0_
	movq	-48(%rbp), %rax
	movq	-40(%rbp), %rdx
	jmp	.L335
.L328:
	movq	-104(%rbp), %rdx
	movq	-88(%rbp), %rax
	movq	%rdx, %rsi
	movq	%rax, %rdi
	call	_ZNSt8_Rb_treeIiSt4pairIKiSt6vectorIiSaIiEEESt10_Select1stIS5_ESt4lessIiESaIS5_EE24_M_get_insert_unique_posERS1_
	jmp	.L335
.L325:
	movq	-88(%rbp), %rbx
	movq	-72(%rbp), %rax
	movq	%rax, %rdi
	call	_ZNSt8_Rb_treeIiSt4pairIKiSt6vectorIiSaIiEEESt10_Select1stIS5_ESt4lessIiESaIS5_EE6_S_keyEPKSt18_Rb_tree_node_base
	movq	%rax, %rcx
	movq	-104(%rbp), %rax
	movq	%rax, %rdx
	movq	%rcx, %rsi
	movq	%rbx, %rdi
	call	_ZNKSt4lessIiEclERKiS2_
	testb	%al, %al
	je	.L330
	movq	-72(%rbp), %rax
	movq	%rax, -64(%rbp)
	movq	-72(%rbp), %rbx
	movq	-88(%rbp), %rax
	movq	%rax, %rdi
	call	_ZNSt8_Rb_treeIiSt4pairIKiSt6vectorIiSaIiEEESt10_Select1stIS5_ESt4lessIiESaIS5_EE12_M_rightmostEv
	movq	(%rax), %rax
	cmpq	%rax, %rbx
	sete	%al
	testb	%al, %al
	je	.L331
	movq	-88(%rbp), %rax
	movq	%rax, %rdi
	call	_ZNSt8_Rb_treeIiSt4pairIKiSt6vectorIiSaIiEEESt10_Select1stIS5_ESt4lessIiESaIS5_EE12_M_rightmostEv
	movq	%rax, %rdx
	movq	$0, -56(%rbp)
	leaq	-56(%rbp), %rcx
	leaq	-48(%rbp), %rax
	movq	%rcx, %rsi
	movq	%rax, %rdi
	call	_ZNSt4pairIPSt18_Rb_tree_node_baseS1_EC1IS1_S1_Lb1EEERKS1_S5_
	movq	-48(%rbp), %rax
	movq	-40(%rbp), %rdx
	jmp	.L335
.L331:
	movq	-88(%rbp), %rbx
	leaq	-64(%rbp), %rax
	movq	%rax, %rdi
	call	_ZNSt17_Rb_tree_iteratorISt4pairIKiSt6vectorIiSaIiEEEEppEv
	movq	(%rax), %rax
	movq	%rax, %rdi
	call	_ZNSt8_Rb_treeIiSt4pairIKiSt6vectorIiSaIiEEESt10_Select1stIS5_ESt4lessIiESaIS5_EE6_S_keyEPKSt18_Rb_tree_node_base
	movq	%rax, %rdx
	movq	-104(%rbp), %rax
	movq	%rax, %rsi
	movq	%rbx, %rdi
	call	_ZNKSt4lessIiEclERKiS2_
	testb	%al, %al
	je	.L333
	movq	-72(%rbp), %rax
	movq	%rax, %rdi
	call	_ZNSt8_Rb_treeIiSt4pairIKiSt6vectorIiSaIiEEESt10_Select1stIS5_ESt4lessIiESaIS5_EE8_S_rightEPSt18_Rb_tree_node_base
	testq	%rax, %rax
	sete	%al
	testb	%al, %al
	je	.L334
	movq	$0, -56(%rbp)
	leaq	-72(%rbp), %rdx
	leaq	-56(%rbp), %rcx
	leaq	-48(%rbp), %rax
	movq	%rcx, %rsi
	movq	%rax, %rdi
	call	_ZNSt4pairIPSt18_Rb_tree_node_baseS1_EC1IS1_S1_Lb1EEERKS1_S5_
	movq	-48(%rbp), %rax
	movq	-40(%rbp), %rdx
	jmp	.L335
.L334:
	leaq	-64(%rbp), %rdx
	leaq	-64(%rbp), %rcx
	leaq	-48(%rbp), %rax
	movq	%rcx, %rsi
	movq	%rax, %rdi
	call	_ZNSt4pairIPSt18_Rb_tree_node_baseS1_EC1IRS1_S4_Lb1EEEOT_OT0_
	movq	-48(%rbp), %rax
	movq	-40(%rbp), %rdx
	jmp	.L335
.L333:
	movq	-104(%rbp), %rdx
	movq	-88(%rbp), %rax
	movq	%rdx, %rsi
	movq	%rax, %rdi
	call	_ZNSt8_Rb_treeIiSt4pairIKiSt6vectorIiSaIiEEESt10_Select1stIS5_ESt4lessIiESaIS5_EE24_M_get_insert_unique_posERS1_
	jmp	.L335
.L330:
	movq	$0, -56(%rbp)
	leaq	-56(%rbp), %rdx
	leaq	-72(%rbp), %rcx
	leaq	-48(%rbp), %rax
	movq	%rcx, %rsi
	movq	%rax, %rdi
	call	_ZNSt4pairIPSt18_Rb_tree_node_baseS1_EC1IS1_S1_Lb1EEERKS1_S5_
	movq	-48(%rbp), %rax
	movq	-40(%rbp), %rdx
.L335:
	movq	-24(%rbp), %rcx
	subq	%fs:40, %rcx
	je	.L336
	call	__stack_chk_fail@PLT
.L336:
	movq	-8(%rbp), %rbx
	leave
	.cfi_def_cfa 7, 8
	ret
	.cfi_endproc
.LFE11352:
	.size	_ZNSt8_Rb_treeIiSt4pairIKiSt6vectorIiSaIiEEESt10_Select1stIS5_ESt4lessIiESaIS5_EE29_M_get_insert_hint_unique_posESt23_Rb_tree_const_iteratorIS5_ERS1_, .-_ZNSt8_Rb_treeIiSt4pairIKiSt6vectorIiSaIiEEESt10_Select1stIS5_ESt4lessIiESaIS5_EE29_M_get_insert_hint_unique_posESt23_Rb_tree_const_iteratorIS5_ERS1_
	.section	.text._ZNKSt8_Rb_treeIiSt4pairIKiSt6vectorIiSaIiEEESt10_Select1stIS5_ESt4lessIiESaIS5_EE10_Auto_node6_M_keyEv,"axG",@progbits,_ZNKSt8_Rb_treeIiSt4pairIKiSt6vectorIiSaIiEEESt10_Select1stIS5_ESt4lessIiESaIS5_EE10_Auto_node6_M_keyEv,comdat
	.align 2
	.weak	_ZNKSt8_Rb_treeIiSt4pairIKiSt6vectorIiSaIiEEESt10_Select1stIS5_ESt4lessIiESaIS5_EE10_Auto_node6_M_keyEv
	.type	_ZNKSt8_Rb_treeIiSt4pairIKiSt6vectorIiSaIiEEESt10_Select1stIS5_ESt4lessIiESaIS5_EE10_Auto_node6_M_keyEv, @function
_ZNKSt8_Rb_treeIiSt4pairIKiSt6vectorIiSaIiEEESt10_Select1stIS5_ESt4lessIiESaIS5_EE10_Auto_node6_M_keyEv:
.LFB11361:
	.cfi_startproc
	endbr64
	pushq	%rbp
	.cfi_def_cfa_offset 16
	.cfi_offset 6, -16
	movq	%rsp, %rbp
	.cfi_def_cfa_register 6
	subq	$16, %rsp
	movq	%rdi, -8(%rbp)
	movq	-8(%rbp), %rax
	movq	8(%rax), %rax
	movq	%rax, %rdi
	call	_ZNSt8_Rb_treeIiSt4pairIKiSt6vectorIiSaIiEEESt10_Select1stIS5_ESt4lessIiESaIS5_EE6_S_keyEPKSt13_Rb_tree_nodeIS5_E
	leave
	.cfi_def_cfa 7, 8
	ret
	.cfi_endproc
.LFE11361:
	.size	_ZNKSt8_Rb_treeIiSt4pairIKiSt6vectorIiSaIiEEESt10_Select1stIS5_ESt4lessIiESaIS5_EE10_Auto_node6_M_keyEv, .-_ZNKSt8_Rb_treeIiSt4pairIKiSt6vectorIiSaIiEEESt10_Select1stIS5_ESt4lessIiESaIS5_EE10_Auto_node6_M_keyEv
	.section	.text._ZNSt8_Rb_treeIiSt4pairIKiSt6vectorIiSaIiEEESt10_Select1stIS5_ESt4lessIiESaIS5_EE10_Auto_node9_M_insertES0_IPSt18_Rb_tree_node_baseSE_E,"axG",@progbits,_ZNSt8_Rb_treeIiSt4pairIKiSt6vectorIiSaIiEEESt10_Select1stIS5_ESt4lessIiESaIS5_EE10_Auto_node9_M_insertES0_IPSt18_Rb_tree_node_baseSE_E,comdat
	.align 2
	.weak	_ZNSt8_Rb_treeIiSt4pairIKiSt6vectorIiSaIiEEESt10_Select1stIS5_ESt4lessIiESaIS5_EE10_Auto_node9_M_insertES0_IPSt18_Rb_tree_node_baseSE_E
	.type	_ZNSt8_Rb_treeIiSt4pairIKiSt6vectorIiSaIiEEESt10_Select1stIS5_ESt4lessIiESaIS5_EE10_Auto_node9_M_insertES0_IPSt18_Rb_tree_node_baseSE_E, @function
_ZNSt8_Rb_treeIiSt4pairIKiSt6vectorIiSaIiEEESt10_Select1stIS5_ESt4lessIiESaIS5_EE10_Auto_node9_M_insertES0_IPSt18_Rb_tree_node_baseSE_E:
.LFB11362:
	.cfi_startproc
	endbr64
	pushq	%rbp
	.cfi_def_cfa_offset 16
	.cfi_offset 6, -16
	movq	%rsp, %rbp
	.cfi_def_cfa_register 6
	subq	$48, %rsp
	movq	%rdi, -24(%rbp)
	movq	%rdx, %rcx
	movq	%rsi, %rax
	movq	%rdi, %rdx
	movq	%rcx, %rdx
	movq	%rax, -48(%rbp)
	movq	%rdx, -40(%rbp)
	movq	%fs:40, %rax
	movq	%rax, -8(%rbp)
	xorl	%eax, %eax
	movq	-24(%rbp), %rax
	movq	(%rax), %rax
	movq	-24(%rbp), %rdx
	movq	8(%rdx), %rcx
	movq	-40(%rbp), %rdx
	movq	-48(%rbp), %rsi
	movq	%rax, %rdi
	call	_ZNSt8_Rb_treeIiSt4pairIKiSt6vectorIiSaIiEEESt10_Select1stIS5_ESt4lessIiESaIS5_EE14_M_insert_nodeEPSt18_Rb_tree_node_baseSD_PSt13_Rb_tree_nodeIS5_E
	movq	%rax, -16(%rbp)
	movq	-24(%rbp), %rax
	movq	$0, 8(%rax)
	movq	-16(%rbp), %rax
	movq	-8(%rbp), %rdx
	subq	%fs:40, %rdx
	je	.L341
	call	__stack_chk_fail@PLT
.L341:
	leave
	.cfi_def_cfa 7, 8
	ret
	.cfi_endproc
.LFE11362:
	.size	_ZNSt8_Rb_treeIiSt4pairIKiSt6vectorIiSaIiEEESt10_Select1stIS5_ESt4lessIiESaIS5_EE10_Auto_node9_M_insertES0_IPSt18_Rb_tree_node_baseSE_E, .-_ZNSt8_Rb_treeIiSt4pairIKiSt6vectorIiSaIiEEESt10_Select1stIS5_ESt4lessIiESaIS5_EE10_Auto_node9_M_insertES0_IPSt18_Rb_tree_node_baseSE_E
	.section	.text._ZNSt17_Rb_tree_iteratorISt4pairIKiSt6vectorIiSaIiEEEEC2EPSt18_Rb_tree_node_base,"axG",@progbits,_ZNSt17_Rb_tree_iteratorISt4pairIKiSt6vectorIiSaIiEEEEC5EPSt18_Rb_tree_node_base,comdat
	.align 2
	.weak	_ZNSt17_Rb_tree_iteratorISt4pairIKiSt6vectorIiSaIiEEEEC2EPSt18_Rb_tree_node_base
	.type	_ZNSt17_Rb_tree_iteratorISt4pairIKiSt6vectorIiSaIiEEEEC2EPSt18_Rb_tree_node_base, @function
_ZNSt17_Rb_tree_iteratorISt4pairIKiSt6vectorIiSaIiEEEEC2EPSt18_Rb_tree_node_base:
.LFB11364:
	.cfi_startproc
	endbr64
	pushq	%rbp
	.cfi_def_cfa_offset 16
	.cfi_offset 6, -16
	movq	%rsp, %rbp
	.cfi_def_cfa_register 6
	movq	%rdi, -8(%rbp)
	movq	%rsi, -16(%rbp)
	movq	-8(%rbp), %rax
	movq	-16(%rbp), %rdx
	movq	%rdx, (%rax)
	nop
	popq	%rbp
	.cfi_def_cfa 7, 8
	ret
	.cfi_endproc
.LFE11364:
	.size	_ZNSt17_Rb_tree_iteratorISt4pairIKiSt6vectorIiSaIiEEEEC2EPSt18_Rb_tree_node_base, .-_ZNSt17_Rb_tree_iteratorISt4pairIKiSt6vectorIiSaIiEEEEC2EPSt18_Rb_tree_node_base
	.weak	_ZNSt17_Rb_tree_iteratorISt4pairIKiSt6vectorIiSaIiEEEEC1EPSt18_Rb_tree_node_base
	.set	_ZNSt17_Rb_tree_iteratorISt4pairIKiSt6vectorIiSaIiEEEEC1EPSt18_Rb_tree_node_base,_ZNSt17_Rb_tree_iteratorISt4pairIKiSt6vectorIiSaIiEEEEC2EPSt18_Rb_tree_node_base
	.section	.text._ZSt7forwardIRKiEOT_RNSt16remove_referenceIS2_E4typeE,"axG",@progbits,_ZSt7forwardIRKiEOT_RNSt16remove_referenceIS2_E4typeE,comdat
	.weak	_ZSt7forwardIRKiEOT_RNSt16remove_referenceIS2_E4typeE
	.type	_ZSt7forwardIRKiEOT_RNSt16remove_referenceIS2_E4typeE, @function
_ZSt7forwardIRKiEOT_RNSt16remove_referenceIS2_E4typeE:
.LFB11366:
	.cfi_startproc
	endbr64
	pushq	%rbp
	.cfi_def_cfa_offset 16
	.cfi_offset 6, -16
	movq	%rsp, %rbp
	.cfi_def_cfa_register 6
	movq	%rdi, -8(%rbp)
	movq	-8(%rbp), %rax
	popq	%rbp
	.cfi_def_cfa 7, 8
	ret
	.cfi_endproc
.LFE11366:
	.size	_ZSt7forwardIRKiEOT_RNSt16remove_referenceIS2_E4typeE, .-_ZSt7forwardIRKiEOT_RNSt16remove_referenceIS2_E4typeE
	.section	.text._ZNKSt6vectorIiSaIiEE12_M_check_lenEmPKc,"axG",@progbits,_ZNKSt6vectorIiSaIiEE12_M_check_lenEmPKc,comdat
	.align 2
	.weak	_ZNKSt6vectorIiSaIiEE12_M_check_lenEmPKc
	.type	_ZNKSt6vectorIiSaIiEE12_M_check_lenEmPKc, @function
_ZNKSt6vectorIiSaIiEE12_M_check_lenEmPKc:
.LFB11368:
	.cfi_startproc
	endbr64
	pushq	%rbp
	.cfi_def_cfa_offset 16
	.cfi_offset 6, -16
	movq	%rsp, %rbp
	.cfi_def_cfa_register 6
	pushq	%rbx
	subq	$72, %rsp
	.cfi_offset 3, -24
	movq	%rdi, -56(%rbp)
	movq	%rsi, -64(%rbp)
	movq	%rdx, -72(%rbp)
	movq	%fs:40, %rax
	movq	%rax, -24(%rbp)
	xorl	%eax, %eax
	movq	-56(%rbp), %rax
	movq	%rax, %rdi
	call	_ZNKSt6vectorIiSaIiEE8max_sizeEv
	movq	%rax, %rbx
	movq	-56(%rbp), %rax
	movq	%rax, %rdi
	call	_ZNKSt6vectorIiSaIiEE4sizeEv
	subq	%rax, %rbx
	movq	%rbx, %rdx
	movq	-64(%rbp), %rax
	cmpq	%rax, %rdx
	setb	%al
	testb	%al, %al
	je	.L346
	movq	-24(%rbp), %rax
	subq	%fs:40, %rax
	je	.L347
	call	__stack_chk_fail@PLT
.L347:
	movq	-72(%rbp), %rax
	movq	%rax, %rdi
	call	_ZSt20__throw_length_errorPKc@PLT
.L346:
	movq	-56(%rbp), %rax
	movq	%rax, %rdi
	call	_ZNKSt6vectorIiSaIiEE4sizeEv
	movq	%rax, %rbx
	movq	-56(%rbp), %rax
	movq	%rax, %rdi
	call	_ZNKSt6vectorIiSaIiEE4sizeEv
	movq	%rax, -40(%rbp)
	leaq	-64(%rbp), %rdx
	leaq	-40(%rbp), %rax
	movq	%rdx, %rsi
	movq	%rax, %rdi
	call	_ZSt3maxImERKT_S2_S2_
	movq	(%rax), %rax
	addq	%rbx, %rax
	movq	%rax, -32(%rbp)
	movq	-56(%rbp), %rax
	movq	%rax, %rdi
	call	_ZNKSt6vectorIiSaIiEE4sizeEv
	cmpq	%rax, -32(%rbp)
	jb	.L348
	movq	-56(%rbp), %rax
	movq	%rax, %rdi
	call	_ZNKSt6vectorIiSaIiEE8max_sizeEv
	cmpq	-32(%rbp), %rax
	jnb	.L349
.L348:
	movq	-56(%rbp), %rax
	movq	%rax, %rdi
	call	_ZNKSt6vectorIiSaIiEE8max_sizeEv
	jmp	.L350
.L349:
	movq	-32(%rbp), %rax
.L350:
	movq	-24(%rbp), %rdx
	subq	%fs:40, %rdx
	je	.L352
	call	__stack_chk_fail@PLT
.L352:
	movq	-8(%rbp), %rbx
	leave
	.cfi_def_cfa 7, 8
	ret
	.cfi_endproc
.LFE11368:
	.size	_ZNKSt6vectorIiSaIiEE12_M_check_lenEmPKc, .-_ZNKSt6vectorIiSaIiEE12_M_check_lenEmPKc
	.section	.text._ZN9__gnu_cxxmiIPiSt6vectorIiSaIiEEEENS_17__normal_iteratorIT_T0_E15difference_typeERKS8_SB_,"axG",@progbits,_ZN9__gnu_cxxmiIPiSt6vectorIiSaIiEEEENS_17__normal_iteratorIT_T0_E15difference_typeERKS8_SB_,comdat
	.weak	_ZN9__gnu_cxxmiIPiSt6vectorIiSaIiEEEENS_17__normal_iteratorIT_T0_E15difference_typeERKS8_SB_
	.type	_ZN9__gnu_cxxmiIPiSt6vectorIiSaIiEEEENS_17__normal_iteratorIT_T0_E15difference_typeERKS8_SB_, @function
_ZN9__gnu_cxxmiIPiSt6vectorIiSaIiEEEENS_17__normal_iteratorIT_T0_E15difference_typeERKS8_SB_:
.LFB11369:
	.cfi_startproc
	endbr64
	pushq	%rbp
	.cfi_def_cfa_offset 16
	.cfi_offset 6, -16
	movq	%rsp, %rbp
	.cfi_def_cfa_register 6
	pushq	%rbx
	subq	$24, %rsp
	.cfi_offset 3, -24
	movq	%rdi, -24(%rbp)
	movq	%rsi, -32(%rbp)
	movq	-24(%rbp), %rax
	movq	%rax, %rdi
	call	_ZNK9__gnu_cxx17__normal_iteratorIPiSt6vectorIiSaIiEEE4baseEv
	movq	(%rax), %rbx
	movq	-32(%rbp), %rax
	movq	%rax, %rdi
	call	_ZNK9__gnu_cxx17__normal_iteratorIPiSt6vectorIiSaIiEEE4baseEv
	movq	(%rax), %rax
	movq	%rbx, %rdx
	subq	%rax, %rdx
	movq	%rdx, %rax
	sarq	$2, %rax
	movq	-8(%rbp), %rbx
	leave
	.cfi_def_cfa 7, 8
	ret
	.cfi_endproc
.LFE11369:
	.size	_ZN9__gnu_cxxmiIPiSt6vectorIiSaIiEEEENS_17__normal_iteratorIT_T0_E15difference_typeERKS8_SB_, .-_ZN9__gnu_cxxmiIPiSt6vectorIiSaIiEEEENS_17__normal_iteratorIT_T0_E15difference_typeERKS8_SB_
	.section	.text._ZNSt12_Vector_baseIiSaIiEE11_M_allocateEm,"axG",@progbits,_ZNSt12_Vector_baseIiSaIiEE11_M_allocateEm,comdat
	.align 2
	.weak	_ZNSt12_Vector_baseIiSaIiEE11_M_allocateEm
	.type	_ZNSt12_Vector_baseIiSaIiEE11_M_allocateEm, @function
_ZNSt12_Vector_baseIiSaIiEE11_M_allocateEm:
.LFB11370:
	.cfi_startproc
	endbr64
	pushq	%rbp
	.cfi_def_cfa_offset 16
	.cfi_offset 6, -16
	movq	%rsp, %rbp
	.cfi_def_cfa_register 6
	subq	$32, %rsp
	movq	%rdi, -24(%rbp)
	movq	%rsi, -32(%rbp)
	cmpq	$0, -32(%rbp)
	je	.L356
	movq	-24(%rbp), %rax
	movq	%rax, -16(%rbp)
	movq	-32(%rbp), %rax
	movq	%rax, -8(%rbp)
	movq	-8(%rbp), %rcx
	movq	-16(%rbp), %rax
	movl	$0, %edx
	movq	%rcx, %rsi
	movq	%rax, %rdi
	call	_ZNSt15__new_allocatorIiE8allocateEmPKv
	nop
	jmp	.L358
.L356:
	movl	$0, %eax
.L358:
	leave
	.cfi_def_cfa 7, 8
	ret
	.cfi_endproc
.LFE11370:
	.size	_ZNSt12_Vector_baseIiSaIiEE11_M_allocateEm, .-_ZNSt12_Vector_baseIiSaIiEE11_M_allocateEm
	.section	.text._ZNSt6vectorIiSaIiEE11_S_relocateEPiS2_S2_RS0_,"axG",@progbits,_ZNSt6vectorIiSaIiEE11_S_relocateEPiS2_S2_RS0_,comdat
	.weak	_ZNSt6vectorIiSaIiEE11_S_relocateEPiS2_S2_RS0_
	.type	_ZNSt6vectorIiSaIiEE11_S_relocateEPiS2_S2_RS0_, @function
_ZNSt6vectorIiSaIiEE11_S_relocateEPiS2_S2_RS0_:
.LFB11371:
	.cfi_startproc
	endbr64
	pushq	%rbp
	.cfi_def_cfa_offset 16
	.cfi_offset 6, -16
	movq	%rsp, %rbp
	.cfi_def_cfa_register 6
	subq	$32, %rsp
	movq	%rdi, -8(%rbp)
	movq	%rsi, -16(%rbp)
	movq	%rdx, -24(%rbp)
	movq	%rcx, -32(%rbp)
	movq	-32(%rbp), %rcx
	movq	-24(%rbp), %rdx
	movq	-16(%rbp), %rsi
	movq	-8(%rbp), %rax
	movq	%rax, %rdi
	call	_ZSt12__relocate_aIPiS0_SaIiEET0_T_S3_S2_RT1_
	leave
	.cfi_def_cfa 7, 8
	ret
	.cfi_endproc
.LFE11371:
	.size	_ZNSt6vectorIiSaIiEE11_S_relocateEPiS2_S2_RS0_, .-_ZNSt6vectorIiSaIiEE11_S_relocateEPiS2_S2_RS0_
	.section	.text._ZSteqRKSt15_Deque_iteratorIiRiPiES4_,"axG",@progbits,_ZSteqRKSt15_Deque_iteratorIiRiPiES4_,comdat
	.weak	_ZSteqRKSt15_Deque_iteratorIiRiPiES4_
	.type	_ZSteqRKSt15_Deque_iteratorIiRiPiES4_, @function
_ZSteqRKSt15_Deque_iteratorIiRiPiES4_:
.LFB11373:
	.cfi_startproc
	endbr64
	pushq	%rbp
	.cfi_def_cfa_offset 16
	.cfi_offset 6, -16
	movq	%rsp, %rbp
	.cfi_def_cfa_register 6
	movq	%rdi, -8(%rbp)
	movq	%rsi, -16(%rbp)
	movq	-8(%rbp), %rax
	movq	(%rax), %rdx
	movq	-16(%rbp), %rax
	movq	(%rax), %rax
	cmpq	%rax, %rdx
	sete	%al
	popq	%rbp
	.cfi_def_cfa 7, 8
	ret
	.cfi_endproc
.LFE11373:
	.size	_ZSteqRKSt15_Deque_iteratorIiRiPiES4_, .-_ZSteqRKSt15_Deque_iteratorIiRiPiES4_
	.section	.text._ZNSt15_Deque_iteratorIiRiPiEmmEv,"axG",@progbits,_ZNSt15_Deque_iteratorIiRiPiEmmEv,comdat
	.align 2
	.weak	_ZNSt15_Deque_iteratorIiRiPiEmmEv
	.type	_ZNSt15_Deque_iteratorIiRiPiEmmEv, @function
_ZNSt15_Deque_iteratorIiRiPiEmmEv:
.LFB11374:
	.cfi_startproc
	endbr64
	pushq	%rbp
	.cfi_def_cfa_offset 16
	.cfi_offset 6, -16
	movq	%rsp, %rbp
	.cfi_def_cfa_register 6
	subq	$16, %rsp
	movq	%rdi, -8(%rbp)
	movq	-8(%rbp), %rax
	movq	(%rax), %rdx
	movq	-8(%rbp), %rax
	movq	8(%rax), %rax
	cmpq	%rax, %rdx
	jne	.L365
	movq	-8(%rbp), %rax
	movq	24(%rax), %rax
	leaq	-8(%rax), %rdx
	movq	-8(%rbp), %rax
	movq	%rdx, %rsi
	movq	%rax, %rdi
	call	_ZNSt15_Deque_iteratorIiRiPiE11_M_set_nodeEPS1_
	movq	-8(%rbp), %rax
	movq	16(%rax), %rdx
	movq	-8(%rbp), %rax
	movq	%rdx, (%rax)
.L365:
	movq	-8(%rbp), %rax
	movq	(%rax), %rax
	leaq	-4(%rax), %rdx
	movq	-8(%rbp), %rax
	movq	%rdx, (%rax)
	movq	-8(%rbp), %rax
	leave
	.cfi_def_cfa 7, 8
	ret
	.cfi_endproc
.LFE11374:
	.size	_ZNSt15_Deque_iteratorIiRiPiEmmEv, .-_ZNSt15_Deque_iteratorIiRiPiEmmEv
	.section	.text._ZNKSt15_Deque_iteratorIiRiPiEdeEv,"axG",@progbits,_ZNKSt15_Deque_iteratorIiRiPiEdeEv,comdat
	.align 2
	.weak	_ZNKSt15_Deque_iteratorIiRiPiEdeEv
	.type	_ZNKSt15_Deque_iteratorIiRiPiEdeEv, @function
_ZNKSt15_Deque_iteratorIiRiPiEdeEv:
.LFB11375:
	.cfi_startproc
	endbr64
	pushq	%rbp
	.cfi_def_cfa_offset 16
	.cfi_offset 6, -16
	movq	%rsp, %rbp
	.cfi_def_cfa_register 6
	movq	%rdi, -8(%rbp)
	movq	-8(%rbp), %rax
	movq	(%rax), %rax
	popq	%rbp
	.cfi_def_cfa 7, 8
	ret
	.cfi_endproc
.LFE11375:
	.size	_ZNKSt15_Deque_iteratorIiRiPiEdeEv, .-_ZNKSt15_Deque_iteratorIiRiPiEdeEv
	.section	.text._ZNSt5dequeIiSaIiEE15_M_pop_back_auxEv,"axG",@progbits,_ZNSt5dequeIiSaIiEE15_M_pop_back_auxEv,comdat
	.align 2
	.weak	_ZNSt5dequeIiSaIiEE15_M_pop_back_auxEv
	.type	_ZNSt5dequeIiSaIiEE15_M_pop_back_auxEv, @function
_ZNSt5dequeIiSaIiEE15_M_pop_back_auxEv:
.LFB11376:
	.cfi_startproc
	endbr64
	pushq	%rbp
	.cfi_def_cfa_offset 16
	.cfi_offset 6, -16
	movq	%rsp, %rbp
	.cfi_def_cfa_register 6
	pushq	%rbx
	subq	$56, %rsp
	.cfi_offset 3, -24
	movq	%rdi, -56(%rbp)
	movq	-56(%rbp), %rax
	movq	-56(%rbp), %rdx
	movq	56(%rdx), %rdx
	movq	%rdx, %rsi
	movq	%rax, %rdi
	call	_ZNSt11_Deque_baseIiSaIiEE18_M_deallocate_nodeEPi
	movq	-56(%rbp), %rax
	addq	$48, %rax
	movq	-56(%rbp), %rdx
	movq	72(%rdx), %rdx
	subq	$8, %rdx
	movq	%rdx, %rsi
	movq	%rax, %rdi
	call	_ZNSt15_Deque_iteratorIiRiPiE11_M_set_nodeEPS1_
	movq	-56(%rbp), %rax
	movq	64(%rax), %rax
	leaq	-4(%rax), %rdx
	movq	-56(%rbp), %rax
	movq	%rdx, 48(%rax)
	movq	-56(%rbp), %rax
	movq	48(%rax), %rbx
	movq	-56(%rbp), %rax
	movq	%rax, %rdi
	call	_ZNSt11_Deque_baseIiSaIiEE19_M_get_Tp_allocatorEv
	movq	%rax, -48(%rbp)
	movq	%rbx, -40(%rbp)
	movq	-48(%rbp), %rax
	movq	%rax, -32(%rbp)
	movq	-40(%rbp), %rax
	movq	%rax, -24(%rbp)
	nop
	nop
	nop
	movq	-8(%rbp), %rbx
	leave
	.cfi_def_cfa 7, 8
	ret
	.cfi_endproc
.LFE11376:
	.size	_ZNSt5dequeIiSaIiEE15_M_pop_back_auxEv, .-_ZNSt5dequeIiSaIiEE15_M_pop_back_auxEv
	.section	.text._ZN9__gnu_cxx16__aligned_membufISt4pairIKiSt6vectorIiSaIiEEEE6_M_ptrEv,"axG",@progbits,_ZN9__gnu_cxx16__aligned_membufISt4pairIKiSt6vectorIiSaIiEEEE6_M_ptrEv,comdat
	.align 2
	.weak	_ZN9__gnu_cxx16__aligned_membufISt4pairIKiSt6vectorIiSaIiEEEE6_M_ptrEv
	.type	_ZN9__gnu_cxx16__aligned_membufISt4pairIKiSt6vectorIiSaIiEEEE6_M_ptrEv, @function
_ZN9__gnu_cxx16__aligned_membufISt4pairIKiSt6vectorIiSaIiEEEE6_M_ptrEv:
.LFB11378:
	.cfi_startproc
	endbr64
	pushq	%rbp
	.cfi_def_cfa_offset 16
	.cfi_offset 6, -16
	movq	%rsp, %rbp
	.cfi_def_cfa_register 6
	subq	$16, %rsp
	movq	%rdi, -8(%rbp)
	movq	-8(%rbp), %rax
	movq	%rax, %rdi
	call	_ZN9__gnu_cxx16__aligned_membufISt4pairIKiSt6vectorIiSaIiEEEE7_M_addrEv
	leave
	.cfi_def_cfa 7, 8
	ret
	.cfi_endproc
.LFE11378:
	.size	_ZN9__gnu_cxx16__aligned_membufISt4pairIKiSt6vectorIiSaIiEEEE6_M_ptrEv, .-_ZN9__gnu_cxx16__aligned_membufISt4pairIKiSt6vectorIiSaIiEEEE6_M_ptrEv
	.section	.text._ZNSt15__new_allocatorImE10deallocateEPmm,"axG",@progbits,_ZNSt15__new_allocatorImE10deallocateEPmm,comdat
	.align 2
	.weak	_ZNSt15__new_allocatorImE10deallocateEPmm
	.type	_ZNSt15__new_allocatorImE10deallocateEPmm, @function
_ZNSt15__new_allocatorImE10deallocateEPmm:
.LFB11491:
	.cfi_startproc
	endbr64
	pushq	%rbp
	.cfi_def_cfa_offset 16
	.cfi_offset 6, -16
	movq	%rsp, %rbp
	.cfi_def_cfa_register 6
	subq	$32, %rsp
	movq	%rdi, -8(%rbp)
	movq	%rsi, -16(%rbp)
	movq	%rdx, -24(%rbp)
	movq	-24(%rbp), %rax
	leaq	0(,%rax,8), %rdx
	movq	-16(%rbp), %rax
	movq	%rdx, %rsi
	movq	%rax, %rdi
	call	_ZdlPvm@PLT
	leave
	.cfi_def_cfa 7, 8
	ret
	.cfi_endproc
.LFE11491:
	.size	_ZNSt15__new_allocatorImE10deallocateEPmm, .-_ZNSt15__new_allocatorImE10deallocateEPmm
	.section	.text._ZNSt15__new_allocatorIiE10deallocateEPim,"axG",@progbits,_ZNSt15__new_allocatorIiE10deallocateEPim,comdat
	.align 2
	.weak	_ZNSt15__new_allocatorIiE10deallocateEPim
	.type	_ZNSt15__new_allocatorIiE10deallocateEPim, @function
_ZNSt15__new_allocatorIiE10deallocateEPim:
.LFB11525:
	.cfi_startproc
	endbr64
	pushq	%rbp
	.cfi_def_cfa_offset 16
	.cfi_offset 6, -16
	movq	%rsp, %rbp
	.cfi_def_cfa_register 6
	subq	$32, %rsp
	movq	%rdi, -8(%rbp)
	movq	%rsi, -16(%rbp)
	movq	%rdx, -24(%rbp)
	movq	-24(%rbp), %rax
	leaq	0(,%rax,4), %rdx
	movq	-16(%rbp), %rax
	movq	%rdx, %rsi
	movq	%rax, %rdi
	call	_ZdlPvm@PLT
	leave
	.cfi_def_cfa 7, 8
	ret
	.cfi_endproc
.LFE11525:
	.size	_ZNSt15__new_allocatorIiE10deallocateEPim, .-_ZNSt15__new_allocatorIiE10deallocateEPim
	.section	.text._ZNSt12_Destroy_auxILb1EE9__destroyIPiEEvT_S3_,"axG",@progbits,_ZNSt12_Destroy_auxILb1EE9__destroyIPiEEvT_S3_,comdat
	.weak	_ZNSt12_Destroy_auxILb1EE9__destroyIPiEEvT_S3_
	.type	_ZNSt12_Destroy_auxILb1EE9__destroyIPiEEvT_S3_, @function
_ZNSt12_Destroy_auxILb1EE9__destroyIPiEEvT_S3_:
.LFB11526:
	.cfi_startproc
	endbr64
	pushq	%rbp
	.cfi_def_cfa_offset 16
	.cfi_offset 6, -16
	movq	%rsp, %rbp
	.cfi_def_cfa_register 6
	movq	%rdi, -8(%rbp)
	movq	%rsi, -16(%rbp)
	nop
	popq	%rbp
	.cfi_def_cfa 7, 8
	ret
	.cfi_endproc
.LFE11526:
	.size	_ZNSt12_Destroy_auxILb1EE9__destroyIPiEEvT_S3_, .-_ZNSt12_Destroy_auxILb1EE9__destroyIPiEEvT_S3_
	.section	.text._ZNSt12_Vector_baseISt6vectorIiSaIiEESaIS2_EE17_Vector_impl_dataC2Ev,"axG",@progbits,_ZNSt12_Vector_baseISt6vectorIiSaIiEESaIS2_EE17_Vector_impl_dataC5Ev,comdat
	.align 2
	.weak	_ZNSt12_Vector_baseISt6vectorIiSaIiEESaIS2_EE17_Vector_impl_dataC2Ev
	.type	_ZNSt12_Vector_baseISt6vectorIiSaIiEESaIS2_EE17_Vector_impl_dataC2Ev, @function
_ZNSt12_Vector_baseISt6vectorIiSaIiEESaIS2_EE17_Vector_impl_dataC2Ev:
.LFB11532:
	.cfi_startproc
	endbr64
	pushq	%rbp
	.cfi_def_cfa_offset 16
	.cfi_offset 6, -16
	movq	%rsp, %rbp
	.cfi_def_cfa_register 6
	movq	%rdi, -8(%rbp)
	movq	-8(%rbp), %rax
	movq	$0, (%rax)
	movq	-8(%rbp), %rax
	movq	$0, 8(%rax)
	movq	-8(%rbp), %rax
	movq	$0, 16(%rax)
	nop
	popq	%rbp
	.cfi_def_cfa 7, 8
	ret
	.cfi_endproc
.LFE11532:
	.size	_ZNSt12_Vector_baseISt6vectorIiSaIiEESaIS2_EE17_Vector_impl_dataC2Ev, .-_ZNSt12_Vector_baseISt6vectorIiSaIiEESaIS2_EE17_Vector_impl_dataC2Ev
	.weak	_ZNSt12_Vector_baseISt6vectorIiSaIiEESaIS2_EE17_Vector_impl_dataC1Ev
	.set	_ZNSt12_Vector_baseISt6vectorIiSaIiEESaIS2_EE17_Vector_impl_dataC1Ev,_ZNSt12_Vector_baseISt6vectorIiSaIiEESaIS2_EE17_Vector_impl_dataC2Ev
	.section	.text._ZNSt12_Vector_baseISt6vectorIiSaIiEESaIS2_EE11_M_allocateEm,"axG",@progbits,_ZNSt12_Vector_baseISt6vectorIiSaIiEESaIS2_EE11_M_allocateEm,comdat
	.align 2
	.weak	_ZNSt12_Vector_baseISt6vectorIiSaIiEESaIS2_EE11_M_allocateEm
	.type	_ZNSt12_Vector_baseISt6vectorIiSaIiEESaIS2_EE11_M_allocateEm, @function
_ZNSt12_Vector_baseISt6vectorIiSaIiEESaIS2_EE11_M_allocateEm:
.LFB11534:
	.cfi_startproc
	endbr64
	pushq	%rbp
	.cfi_def_cfa_offset 16
	.cfi_offset 6, -16
	movq	%rsp, %rbp
	.cfi_def_cfa_register 6
	subq	$32, %rsp
	movq	%rdi, -24(%rbp)
	movq	%rsi, -32(%rbp)
	cmpq	$0, -32(%rbp)
	je	.L379
	movq	-24(%rbp), %rax
	movq	%rax, -16(%rbp)
	movq	-32(%rbp), %rax
	movq	%rax, -8(%rbp)
	movq	-8(%rbp), %rcx
	movq	-16(%rbp), %rax
	movl	$0, %edx
	movq	%rcx, %rsi
	movq	%rax, %rdi
	call	_ZNSt15__new_allocatorISt6vectorIiSaIiEEE8allocateEmPKv
	nop
	jmp	.L381
.L379:
	movl	$0, %eax
.L381:
	leave
	.cfi_def_cfa 7, 8
	ret
	.cfi_endproc
.LFE11534:
	.size	_ZNSt12_Vector_baseISt6vectorIiSaIiEESaIS2_EE11_M_allocateEm, .-_ZNSt12_Vector_baseISt6vectorIiSaIiEESaIS2_EE11_M_allocateEm
	.section	.text._ZSt20uninitialized_fill_nIPSt6vectorIiSaIiEEmS2_ET_S4_T0_RKT1_,"axG",@progbits,_ZSt20uninitialized_fill_nIPSt6vectorIiSaIiEEmS2_ET_S4_T0_RKT1_,comdat
	.weak	_ZSt20uninitialized_fill_nIPSt6vectorIiSaIiEEmS2_ET_S4_T0_RKT1_
	.type	_ZSt20uninitialized_fill_nIPSt6vectorIiSaIiEEmS2_ET_S4_T0_RKT1_, @function
_ZSt20uninitialized_fill_nIPSt6vectorIiSaIiEEmS2_ET_S4_T0_RKT1_:
.LFB11536:
	.cfi_startproc
	endbr64
	pushq	%rbp
	.cfi_def_cfa_offset 16
	.cfi_offset 6, -16
	movq	%rsp, %rbp
	.cfi_def_cfa_register 6
	subq	$48, %rsp
	movq	%rdi, -24(%rbp)
	movq	%rsi, -32(%rbp)
	movq	%rdx, -40(%rbp)
	movb	$0, -1(%rbp)
	movq	-40(%rbp), %rdx
	movq	-32(%rbp), %rcx
	movq	-24(%rbp), %rax
	movq	%rcx, %rsi
	movq	%rax, %rdi
	call	_ZNSt22__uninitialized_fill_nILb0EE15__uninit_fill_nIPSt6vectorIiSaIiEEmS4_EET_S6_T0_RKT1_
	leave
	.cfi_def_cfa 7, 8
	ret
	.cfi_endproc
.LFE11536:
	.size	_ZSt20uninitialized_fill_nIPSt6vectorIiSaIiEEmS2_ET_S4_T0_RKT1_, .-_ZSt20uninitialized_fill_nIPSt6vectorIiSaIiEEmS2_ET_S4_T0_RKT1_
	.section	.text._ZNSt11_Deque_baseIiSaIiEE16_Deque_impl_dataC2Ev,"axG",@progbits,_ZNSt11_Deque_baseIiSaIiEE16_Deque_impl_dataC5Ev,comdat
	.align 2
	.weak	_ZNSt11_Deque_baseIiSaIiEE16_Deque_impl_dataC2Ev
	.type	_ZNSt11_Deque_baseIiSaIiEE16_Deque_impl_dataC2Ev, @function
_ZNSt11_Deque_baseIiSaIiEE16_Deque_impl_dataC2Ev:
.LFB11540:
	.cfi_startproc
	endbr64
	pushq	%rbp
	.cfi_def_cfa_offset 16
	.cfi_offset 6, -16
	movq	%rsp, %rbp
	.cfi_def_cfa_register 6
	subq	$16, %rsp
	movq	%rdi, -8(%rbp)
	movq	-8(%rbp), %rax
	movq	$0, (%rax)
	movq	-8(%rbp), %rax
	movq	$0, 8(%rax)
	movq	-8(%rbp), %rax
	addq	$16, %rax
	movq	%rax, %rdi
	call	_ZNSt15_Deque_iteratorIiRiPiEC1Ev
	movq	-8(%rbp), %rax
	addq	$48, %rax
	movq	%rax, %rdi
	call	_ZNSt15_Deque_iteratorIiRiPiEC1Ev
	nop
	leave
	.cfi_def_cfa 7, 8
	ret
	.cfi_endproc
.LFE11540:
	.size	_ZNSt11_Deque_baseIiSaIiEE16_Deque_impl_dataC2Ev, .-_ZNSt11_Deque_baseIiSaIiEE16_Deque_impl_dataC2Ev
	.weak	_ZNSt11_Deque_baseIiSaIiEE16_Deque_impl_dataC1Ev
	.set	_ZNSt11_Deque_baseIiSaIiEE16_Deque_impl_dataC1Ev,_ZNSt11_Deque_baseIiSaIiEE16_Deque_impl_dataC2Ev
	.section	.text._ZNSt11_Deque_baseIiSaIiEE15_M_allocate_mapEm,"axG",@progbits,_ZNSt11_Deque_baseIiSaIiEE15_M_allocate_mapEm,comdat
	.align 2
	.weak	_ZNSt11_Deque_baseIiSaIiEE15_M_allocate_mapEm
	.type	_ZNSt11_Deque_baseIiSaIiEE15_M_allocate_mapEm, @function
_ZNSt11_Deque_baseIiSaIiEE15_M_allocate_mapEm:
.LFB11542:
	.cfi_startproc
	.cfi_personality 0x9b,DW.ref.__gxx_personality_v0
	.cfi_lsda 0x1b,.LLSDA11542
	endbr64
	pushq	%rbp
	.cfi_def_cfa_offset 16
	.cfi_offset 6, -16
	movq	%rsp, %rbp
	.cfi_def_cfa_register 6
	pushq	%rbx
	subq	$56, %rsp
	.cfi_offset 3, -24
	movq	%rdi, -56(%rbp)
	movq	%rsi, -64(%rbp)
	movq	%fs:40, %rax
	movq	%rax, -24(%rbp)
	xorl	%eax, %eax
	leaq	-33(%rbp), %rax
	movq	-56(%rbp), %rdx
	movq	%rdx, %rsi
	movq	%rax, %rdi
	call	_ZNKSt11_Deque_baseIiSaIiEE20_M_get_map_allocatorEv
	movq	-64(%rbp), %rax
	movq	%rax, -32(%rbp)
	movq	-32(%rbp), %rcx
	leaq	-33(%rbp), %rax
	movl	$0, %edx
	movq	%rcx, %rsi
	movq	%rax, %rdi
.LEHB16:
	call	_ZNSt15__new_allocatorIPiE8allocateEmPKv
.LEHE16:
	movq	%rax, %rbx
	nop
	nop
	leaq	-33(%rbp), %rax
	movq	%rax, %rdi
	call	_ZNSt15__new_allocatorIPiED2Ev
	nop
	movq	%rbx, %rax
	movq	-24(%rbp), %rdx
	subq	%fs:40, %rdx
	je	.L391
	jmp	.L393
.L392:
	endbr64
	movq	%rax, %rbx
	leaq	-33(%rbp), %rax
	movq	%rax, %rdi
	call	_ZNSt15__new_allocatorIPiED2Ev
	nop
	movq	%rbx, %rax
	movq	-24(%rbp), %rdx
	subq	%fs:40, %rdx
	je	.L390
	call	__stack_chk_fail@PLT
.L390:
	movq	%rax, %rdi
.LEHB17:
	call	_Unwind_Resume@PLT
.LEHE17:
.L393:
	call	__stack_chk_fail@PLT
.L391:
	movq	-8(%rbp), %rbx
	leave
	.cfi_def_cfa 7, 8
	ret
	.cfi_endproc
.LFE11542:
	.section	.gcc_except_table._ZNSt11_Deque_baseIiSaIiEE15_M_allocate_mapEm,"aG",@progbits,_ZNSt11_Deque_baseIiSaIiEE15_M_allocate_mapEm,comdat
.LLSDA11542:
	.byte	0xff
	.byte	0xff
	.byte	0x1
	.uleb128 .LLSDACSE11542-.LLSDACSB11542
.LLSDACSB11542:
	.uleb128 .LEHB16-.LFB11542
	.uleb128 .LEHE16-.LEHB16
	.uleb128 .L392-.LFB11542
	.uleb128 0
	.uleb128 .LEHB17-.LFB11542
	.uleb128 .LEHE17-.LEHB17
	.uleb128 0
	.uleb128 0
.LLSDACSE11542:
	.section	.text._ZNSt11_Deque_baseIiSaIiEE15_M_allocate_mapEm,"axG",@progbits,_ZNSt11_Deque_baseIiSaIiEE15_M_allocate_mapEm,comdat
	.size	_ZNSt11_Deque_baseIiSaIiEE15_M_allocate_mapEm, .-_ZNSt11_Deque_baseIiSaIiEE15_M_allocate_mapEm
	.section	.text._ZNSt11_Deque_baseIiSaIiEE15_M_create_nodesEPPiS3_,"axG",@progbits,_ZNSt11_Deque_baseIiSaIiEE15_M_create_nodesEPPiS3_,comdat
	.align 2
	.weak	_ZNSt11_Deque_baseIiSaIiEE15_M_create_nodesEPPiS3_
	.type	_ZNSt11_Deque_baseIiSaIiEE15_M_create_nodesEPPiS3_, @function
_ZNSt11_Deque_baseIiSaIiEE15_M_create_nodesEPPiS3_:
.LFB11543:
	.cfi_startproc
	.cfi_personality 0x9b,DW.ref.__gxx_personality_v0
	.cfi_lsda 0x1b,.LLSDA11543
	endbr64
	pushq	%rbp
	.cfi_def_cfa_offset 16
	.cfi_offset 6, -16
	movq	%rsp, %rbp
	.cfi_def_cfa_register 6
	pushq	%rbx
	subq	$56, %rsp
	.cfi_offset 3, -24
	movq	%rdi, -40(%rbp)
	movq	%rsi, -48(%rbp)
	movq	%rdx, -56(%rbp)
	movq	-48(%rbp), %rax
	movq	%rax, -24(%rbp)
	jmp	.L395
.L396:
	movq	-40(%rbp), %rax
	movq	%rax, %rdi
.LEHB18:
	call	_ZNSt11_Deque_baseIiSaIiEE16_M_allocate_nodeEv
.LEHE18:
	movq	-24(%rbp), %rdx
	movq	%rax, (%rdx)
	addq	$8, -24(%rbp)
.L395:
	movq	-24(%rbp), %rax
	cmpq	-56(%rbp), %rax
	jb	.L396
	jmp	.L401
.L399:
	endbr64
	movq	%rax, %rdi
	call	__cxa_begin_catch@PLT
	movq	-24(%rbp), %rdx
	movq	-48(%rbp), %rcx
	movq	-40(%rbp), %rax
	movq	%rcx, %rsi
	movq	%rax, %rdi
	call	_ZNSt11_Deque_baseIiSaIiEE16_M_destroy_nodesEPPiS3_
.LEHB19:
	call	__cxa_rethrow@PLT
.LEHE19:
.L400:
	endbr64
	movq	%rax, %rbx
	call	__cxa_end_catch@PLT
	movq	%rbx, %rax
	movq	%rax, %rdi
.LEHB20:
	call	_Unwind_Resume@PLT
.LEHE20:
.L401:
	movq	-8(%rbp), %rbx
	leave
	.cfi_def_cfa 7, 8
	ret
	.cfi_endproc
.LFE11543:
	.section	.gcc_except_table._ZNSt11_Deque_baseIiSaIiEE15_M_create_nodesEPPiS3_,"aG",@progbits,_ZNSt11_Deque_baseIiSaIiEE15_M_create_nodesEPPiS3_,comdat
	.align 4
.LLSDA11543:
	.byte	0xff
	.byte	0x9b
	.uleb128 .LLSDATT11543-.LLSDATTD11543
.LLSDATTD11543:
	.byte	0x1
	.uleb128 .LLSDACSE11543-.LLSDACSB11543
.LLSDACSB11543:
	.uleb128 .LEHB18-.LFB11543
	.uleb128 .LEHE18-.LEHB18
	.uleb128 .L399-.LFB11543
	.uleb128 0x1
	.uleb128 .LEHB19-.LFB11543
	.uleb128 .LEHE19-.LEHB19
	.uleb128 .L400-.LFB11543
	.uleb128 0
	.uleb128 .LEHB20-.LFB11543
	.uleb128 .LEHE20-.LEHB20
	.uleb128 0
	.uleb128 0
.LLSDACSE11543:
	.byte	0x1
	.byte	0
	.align 4
	.long	0

.LLSDATT11543:
	.section	.text._ZNSt11_Deque_baseIiSaIiEE15_M_create_nodesEPPiS3_,"axG",@progbits,_ZNSt11_Deque_baseIiSaIiEE15_M_create_nodesEPPiS3_,comdat
	.size	_ZNSt11_Deque_baseIiSaIiEE15_M_create_nodesEPPiS3_, .-_ZNSt11_Deque_baseIiSaIiEE15_M_create_nodesEPPiS3_
	.section	.text._ZNSt15_Deque_iteratorIiRiPiE11_M_set_nodeEPS1_,"axG",@progbits,_ZNSt15_Deque_iteratorIiRiPiE11_M_set_nodeEPS1_,comdat
	.align 2
	.weak	_ZNSt15_Deque_iteratorIiRiPiE11_M_set_nodeEPS1_
	.type	_ZNSt15_Deque_iteratorIiRiPiE11_M_set_nodeEPS1_, @function
_ZNSt15_Deque_iteratorIiRiPiE11_M_set_nodeEPS1_:
.LFB11544:
	.cfi_startproc
	endbr64
	pushq	%rbp
	.cfi_def_cfa_offset 16
	.cfi_offset 6, -16
	movq	%rsp, %rbp
	.cfi_def_cfa_register 6
	pushq	%rbx
	subq	$24, %rsp
	.cfi_offset 3, -24
	movq	%rdi, -24(%rbp)
	movq	%rsi, -32(%rbp)
	movq	-24(%rbp), %rax
	movq	-32(%rbp), %rdx
	movq	%rdx, 24(%rax)
	movq	-32(%rbp), %rax
	movq	(%rax), %rdx
	movq	-24(%rbp), %rax
	movq	%rdx, 8(%rax)
	movq	-24(%rbp), %rax
	movq	8(%rax), %rbx
	call	_ZNSt15_Deque_iteratorIiRiPiE14_S_buffer_sizeEv
	salq	$2, %rax
	leaq	(%rbx,%rax), %rdx
	movq	-24(%rbp), %rax
	movq	%rdx, 16(%rax)
	nop
	movq	-8(%rbp), %rbx
	leave
	.cfi_def_cfa 7, 8
	ret
	.cfi_endproc
.LFE11544:
	.size	_ZNSt15_Deque_iteratorIiRiPiE11_M_set_nodeEPS1_, .-_ZNSt15_Deque_iteratorIiRiPiE11_M_set_nodeEPS1_
	.section	.text._ZNSt11_Deque_baseIiSaIiEE18_M_deallocate_nodeEPi,"axG",@progbits,_ZNSt11_Deque_baseIiSaIiEE18_M_deallocate_nodeEPi,comdat
	.align 2
	.weak	_ZNSt11_Deque_baseIiSaIiEE18_M_deallocate_nodeEPi
	.type	_ZNSt11_Deque_baseIiSaIiEE18_M_deallocate_nodeEPi, @function
_ZNSt11_Deque_baseIiSaIiEE18_M_deallocate_nodeEPi:
.LFB11545:
	.cfi_startproc
	endbr64
	pushq	%rbp
	.cfi_def_cfa_offset 16
	.cfi_offset 6, -16
	movq	%rsp, %rbp
	.cfi_def_cfa_register 6
	subq	$48, %rsp
	movq	%rdi, -40(%rbp)
	movq	%rsi, -48(%rbp)
	movl	$4, %edi
	call	_ZSt16__deque_buf_sizem
	movq	-40(%rbp), %rdx
	movq	%rdx, -24(%rbp)
	movq	-48(%rbp), %rdx
	movq	%rdx, -16(%rbp)
	movq	%rax, -8(%rbp)
	movq	-8(%rbp), %rdx
	movq	-16(%rbp), %rcx
	movq	-24(%rbp), %rax
	movq	%rcx, %rsi
	movq	%rax, %rdi
	call	_ZNSt15__new_allocatorIiE10deallocateEPim
	nop
	nop
	leave
	.cfi_def_cfa 7, 8
	ret
	.cfi_endproc
.LFE11545:
	.size	_ZNSt11_Deque_baseIiSaIiEE18_M_deallocate_nodeEPi, .-_ZNSt11_Deque_baseIiSaIiEE18_M_deallocate_nodeEPi
	.section	.text._ZNKSt11_Deque_baseIiSaIiEE20_M_get_map_allocatorEv,"axG",@progbits,_ZNKSt11_Deque_baseIiSaIiEE20_M_get_map_allocatorEv,comdat
	.align 2
	.weak	_ZNKSt11_Deque_baseIiSaIiEE20_M_get_map_allocatorEv
	.type	_ZNKSt11_Deque_baseIiSaIiEE20_M_get_map_allocatorEv, @function
_ZNKSt11_Deque_baseIiSaIiEE20_M_get_map_allocatorEv:
.LFB11546:
	.cfi_startproc
	endbr64
	pushq	%rbp
	.cfi_def_cfa_offset 16
	.cfi_offset 6, -16
	movq	%rsp, %rbp
	.cfi_def_cfa_register 6
	subq	$48, %rsp
	movq	%rdi, -40(%rbp)
	movq	%rsi, -48(%rbp)
	movq	-48(%rbp), %rax
	movq	%rax, %rdi
	call	_ZNKSt11_Deque_baseIiSaIiEE19_M_get_Tp_allocatorEv
	movq	-40(%rbp), %rdx
	movq	%rdx, -24(%rbp)
	movq	%rax, -16(%rbp)
	movq	-24(%rbp), %rax
	movq	%rax, -8(%rbp)
	nop
	nop
	nop
	movq	-40(%rbp), %rax
	leave
	.cfi_def_cfa 7, 8
	ret
	.cfi_endproc
.LFE11546:
	.size	_ZNKSt11_Deque_baseIiSaIiEE20_M_get_map_allocatorEv, .-_ZNKSt11_Deque_baseIiSaIiEE20_M_get_map_allocatorEv
	.section	.text._ZNSt15_Deque_iteratorIiRiPiEC2ERKS2_,"axG",@progbits,_ZNSt15_Deque_iteratorIiRiPiEC5ERKS2_,comdat
	.align 2
	.weak	_ZNSt15_Deque_iteratorIiRiPiEC2ERKS2_
	.type	_ZNSt15_Deque_iteratorIiRiPiEC2ERKS2_, @function
_ZNSt15_Deque_iteratorIiRiPiEC2ERKS2_:
.LFB11552:
	.cfi_startproc
	endbr64
	pushq	%rbp
	.cfi_def_cfa_offset 16
	.cfi_offset 6, -16
	movq	%rsp, %rbp
	.cfi_def_cfa_register 6
	movq	%rdi, -8(%rbp)
	movq	%rsi, -16(%rbp)
	movq	-16(%rbp), %rax
	movq	(%rax), %rdx
	movq	-8(%rbp), %rax
	movq	%rdx, (%rax)
	movq	-16(%rbp), %rax
	movq	8(%rax), %rdx
	movq	-8(%rbp), %rax
	movq	%rdx, 8(%rax)
	movq	-16(%rbp), %rax
	movq	16(%rax), %rdx
	movq	-8(%rbp), %rax
	movq	%rdx, 16(%rax)
	movq	-16(%rbp), %rax
	movq	24(%rax), %rdx
	movq	-8(%rbp), %rax
	movq	%rdx, 24(%rax)
	nop
	popq	%rbp
	.cfi_def_cfa 7, 8
	ret
	.cfi_endproc
.LFE11552:
	.size	_ZNSt15_Deque_iteratorIiRiPiEC2ERKS2_, .-_ZNSt15_Deque_iteratorIiRiPiEC2ERKS2_
	.weak	_ZNSt15_Deque_iteratorIiRiPiEC1ERKS2_
	.set	_ZNSt15_Deque_iteratorIiRiPiEC1ERKS2_,_ZNSt15_Deque_iteratorIiRiPiEC2ERKS2_
	.section	.text._ZNSt13_Bvector_baseISaIbEE18_Bvector_impl_dataC2Ev,"axG",@progbits,_ZNSt13_Bvector_baseISaIbEE18_Bvector_impl_dataC5Ev,comdat
	.align 2
	.weak	_ZNSt13_Bvector_baseISaIbEE18_Bvector_impl_dataC2Ev
	.type	_ZNSt13_Bvector_baseISaIbEE18_Bvector_impl_dataC2Ev, @function
_ZNSt13_Bvector_baseISaIbEE18_Bvector_impl_dataC2Ev:
.LFB11559:
	.cfi_startproc
	endbr64
	pushq	%rbp
	.cfi_def_cfa_offset 16
	.cfi_offset 6, -16
	movq	%rsp, %rbp
	.cfi_def_cfa_register 6
	subq	$16, %rsp
	movq	%rdi, -8(%rbp)
	movq	-8(%rbp), %rax
	movq	%rax, %rdi
	call	_ZNSt13_Bit_iteratorC1Ev
	movq	-8(%rbp), %rax
	addq	$16, %rax
	movq	%rax, %rdi
	call	_ZNSt13_Bit_iteratorC1Ev
	movq	-8(%rbp), %rax
	movq	$0, 32(%rax)
	nop
	leave
	.cfi_def_cfa 7, 8
	ret
	.cfi_endproc
.LFE11559:
	.size	_ZNSt13_Bvector_baseISaIbEE18_Bvector_impl_dataC2Ev, .-_ZNSt13_Bvector_baseISaIbEE18_Bvector_impl_dataC2Ev
	.weak	_ZNSt13_Bvector_baseISaIbEE18_Bvector_impl_dataC1Ev
	.set	_ZNSt13_Bvector_baseISaIbEE18_Bvector_impl_dataC1Ev,_ZNSt13_Bvector_baseISaIbEE18_Bvector_impl_dataC2Ev
	.section	.text._ZNSt13_Bvector_baseISaIbEE18_Bvector_impl_data8_M_resetEv,"axG",@progbits,_ZNSt13_Bvector_baseISaIbEE18_Bvector_impl_data8_M_resetEv,comdat
	.align 2
	.weak	_ZNSt13_Bvector_baseISaIbEE18_Bvector_impl_data8_M_resetEv
	.type	_ZNSt13_Bvector_baseISaIbEE18_Bvector_impl_data8_M_resetEv, @function
_ZNSt13_Bvector_baseISaIbEE18_Bvector_impl_data8_M_resetEv:
.LFB11561:
	.cfi_startproc
	endbr64
	pushq	%rbp
	.cfi_def_cfa_offset 16
	.cfi_offset 6, -16
	movq	%rsp, %rbp
	.cfi_def_cfa_register 6
	pushq	%rbx
	subq	$72, %rsp
	.cfi_offset 3, -24
	movq	%rdi, -72(%rbp)
	movq	%fs:40, %rax
	movq	%rax, -24(%rbp)
	xorl	%eax, %eax
	leaq	-64(%rbp), %rax
	movq	%rax, %rdi
	call	_ZNSt13_Bvector_baseISaIbEE18_Bvector_impl_dataC1Ev
	leaq	-64(%rbp), %rdx
	movq	-72(%rbp), %rax
	movq	(%rdx), %rcx
	movq	8(%rdx), %rbx
	movq	%rcx, (%rax)
	movq	%rbx, 8(%rax)
	movq	16(%rdx), %rcx
	movq	24(%rdx), %rbx
	movq	%rcx, 16(%rax)
	movq	%rbx, 24(%rax)
	movq	32(%rdx), %rdx
	movq	%rdx, 32(%rax)
	nop
	movq	-24(%rbp), %rax
	subq	%fs:40, %rax
	je	.L409
	call	__stack_chk_fail@PLT
.L409:
	movq	-8(%rbp), %rbx
	leave
	.cfi_def_cfa 7, 8
	ret
	.cfi_endproc
.LFE11561:
	.size	_ZNSt13_Bvector_baseISaIbEE18_Bvector_impl_data8_M_resetEv, .-_ZNSt13_Bvector_baseISaIbEE18_Bvector_impl_data8_M_resetEv
	.section	.text._ZNSt8_Rb_treeIiSt4pairIKiSt6vectorIiSaIiEEESt10_Select1stIS5_ESt4lessIiESaIS5_EE15_M_destroy_nodeEPSt13_Rb_tree_nodeIS5_E,"axG",@progbits,_ZNSt8_Rb_treeIiSt4pairIKiSt6vectorIiSaIiEEESt10_Select1stIS5_ESt4lessIiESaIS5_EE15_M_destroy_nodeEPSt13_Rb_tree_nodeIS5_E,comdat
	.align 2
	.weak	_ZNSt8_Rb_treeIiSt4pairIKiSt6vectorIiSaIiEEESt10_Select1stIS5_ESt4lessIiESaIS5_EE15_M_destroy_nodeEPSt13_Rb_tree_nodeIS5_E
	.type	_ZNSt8_Rb_treeIiSt4pairIKiSt6vectorIiSaIiEEESt10_Select1stIS5_ESt4lessIiESaIS5_EE15_M_destroy_nodeEPSt13_Rb_tree_nodeIS5_E, @function
_ZNSt8_Rb_treeIiSt4pairIKiSt6vectorIiSaIiEEESt10_Select1stIS5_ESt4lessIiESaIS5_EE15_M_destroy_nodeEPSt13_Rb_tree_nodeIS5_E:
.LFB11563:
	.cfi_startproc
	endbr64
	pushq	%rbp
	.cfi_def_cfa_offset 16
	.cfi_offset 6, -16
	movq	%rsp, %rbp
	.cfi_def_cfa_register 6
	pushq	%rbx
	subq	$56, %rsp
	.cfi_offset 3, -24
	movq	%rdi, -56(%rbp)
	movq	%rsi, -64(%rbp)
	movq	-64(%rbp), %rax
	movq	%rax, %rdi
	call	_ZNSt13_Rb_tree_nodeISt4pairIKiSt6vectorIiSaIiEEEE9_M_valptrEv
	movq	%rax, %rbx
	movq	-56(%rbp), %rax
	movq	%rax, %rdi
	call	_ZNSt8_Rb_treeIiSt4pairIKiSt6vectorIiSaIiEEESt10_Select1stIS5_ESt4lessIiESaIS5_EE21_M_get_Node_allocatorEv
	movq	%rax, -48(%rbp)
	movq	%rbx, -40(%rbp)
	movq	-48(%rbp), %rax
	movq	%rax, -32(%rbp)
	movq	-40(%rbp), %rax
	movq	%rax, -24(%rbp)
	movq	-24(%rbp), %rax
	movq	%rax, %rdi
	call	_ZNSt4pairIKiSt6vectorIiSaIiEEED1Ev
	nop
	nop
	nop
	movq	-8(%rbp), %rbx
	leave
	.cfi_def_cfa 7, 8
	ret
	.cfi_endproc
.LFE11563:
	.size	_ZNSt8_Rb_treeIiSt4pairIKiSt6vectorIiSaIiEEESt10_Select1stIS5_ESt4lessIiESaIS5_EE15_M_destroy_nodeEPSt13_Rb_tree_nodeIS5_E, .-_ZNSt8_Rb_treeIiSt4pairIKiSt6vectorIiSaIiEEESt10_Select1stIS5_ESt4lessIiESaIS5_EE15_M_destroy_nodeEPSt13_Rb_tree_nodeIS5_E
	.section	.text._ZNSt8_Rb_treeIiSt4pairIKiSt6vectorIiSaIiEEESt10_Select1stIS5_ESt4lessIiESaIS5_EE11_M_put_nodeEPSt13_Rb_tree_nodeIS5_E,"axG",@progbits,_ZNSt8_Rb_treeIiSt4pairIKiSt6vectorIiSaIiEEESt10_Select1stIS5_ESt4lessIiESaIS5_EE11_M_put_nodeEPSt13_Rb_tree_nodeIS5_E,comdat
	.align 2
	.weak	_ZNSt8_Rb_treeIiSt4pairIKiSt6vectorIiSaIiEEESt10_Select1stIS5_ESt4lessIiESaIS5_EE11_M_put_nodeEPSt13_Rb_tree_nodeIS5_E
	.type	_ZNSt8_Rb_treeIiSt4pairIKiSt6vectorIiSaIiEEESt10_Select1stIS5_ESt4lessIiESaIS5_EE11_M_put_nodeEPSt13_Rb_tree_nodeIS5_E, @function
_ZNSt8_Rb_treeIiSt4pairIKiSt6vectorIiSaIiEEESt10_Select1stIS5_ESt4lessIiESaIS5_EE11_M_put_nodeEPSt13_Rb_tree_nodeIS5_E:
.LFB11565:
	.cfi_startproc
	endbr64
	pushq	%rbp
	.cfi_def_cfa_offset 16
	.cfi_offset 6, -16
	movq	%rsp, %rbp
	.cfi_def_cfa_register 6
	subq	$48, %rsp
	movq	%rdi, -40(%rbp)
	movq	%rsi, -48(%rbp)
	movq	-40(%rbp), %rax
	movq	%rax, %rdi
	call	_ZNSt8_Rb_treeIiSt4pairIKiSt6vectorIiSaIiEEESt10_Select1stIS5_ESt4lessIiESaIS5_EE21_M_get_Node_allocatorEv
	movq	%rax, -24(%rbp)
	movq	-48(%rbp), %rax
	movq	%rax, -16(%rbp)
	movq	$1, -8(%rbp)
	movq	-8(%rbp), %rdx
	movq	-16(%rbp), %rcx
	movq	-24(%rbp), %rax
	movq	%rcx, %rsi
	movq	%rax, %rdi
	call	_ZNSt15__new_allocatorISt13_Rb_tree_nodeISt4pairIKiSt6vectorIiSaIiEEEEE10deallocateEPS7_m
	nop
	nop
	leave
	.cfi_def_cfa 7, 8
	ret
	.cfi_endproc
.LFE11565:
	.size	_ZNSt8_Rb_treeIiSt4pairIKiSt6vectorIiSaIiEEESt10_Select1stIS5_ESt4lessIiESaIS5_EE11_M_put_nodeEPSt13_Rb_tree_nodeIS5_E, .-_ZNSt8_Rb_treeIiSt4pairIKiSt6vectorIiSaIiEEESt10_Select1stIS5_ESt4lessIiESaIS5_EE11_M_put_nodeEPSt13_Rb_tree_nodeIS5_E
	.section	.text._ZNKSt5dequeIiSaIiEE4sizeEv,"axG",@progbits,_ZNKSt5dequeIiSaIiEE4sizeEv,comdat
	.align 2
	.weak	_ZNKSt5dequeIiSaIiEE4sizeEv
	.type	_ZNKSt5dequeIiSaIiEE4sizeEv, @function
_ZNKSt5dequeIiSaIiEE4sizeEv:
.LFB11566:
	.cfi_startproc
	endbr64
	pushq	%rbp
	.cfi_def_cfa_offset 16
	.cfi_offset 6, -16
	movq	%rsp, %rbp
	.cfi_def_cfa_register 6
	subq	$16, %rsp
	movq	%rdi, -8(%rbp)
	movq	-8(%rbp), %rax
	leaq	16(%rax), %rdx
	movq	-8(%rbp), %rax
	addq	$48, %rax
	movq	%rdx, %rsi
	movq	%rax, %rdi
	call	_ZStmiRKSt15_Deque_iteratorIiRiPiES4_
	leave
	.cfi_def_cfa 7, 8
	ret
	.cfi_endproc
.LFE11566:
	.size	_ZNKSt5dequeIiSaIiEE4sizeEv, .-_ZNKSt5dequeIiSaIiEE4sizeEv
	.section	.text._ZNKSt5dequeIiSaIiEE8max_sizeEv,"axG",@progbits,_ZNKSt5dequeIiSaIiEE8max_sizeEv,comdat
	.align 2
	.weak	_ZNKSt5dequeIiSaIiEE8max_sizeEv
	.type	_ZNKSt5dequeIiSaIiEE8max_sizeEv, @function
_ZNKSt5dequeIiSaIiEE8max_sizeEv:
.LFB11567:
	.cfi_startproc
	endbr64
	pushq	%rbp
	.cfi_def_cfa_offset 16
	.cfi_offset 6, -16
	movq	%rsp, %rbp
	.cfi_def_cfa_register 6
	subq	$16, %rsp
	movq	%rdi, -8(%rbp)
	movq	-8(%rbp), %rax
	movq	%rax, %rdi
	call	_ZNKSt11_Deque_baseIiSaIiEE19_M_get_Tp_allocatorEv
	movq	%rax, %rdi
	call	_ZNSt5dequeIiSaIiEE11_S_max_sizeERKS0_
	leave
	.cfi_def_cfa 7, 8
	ret
	.cfi_endproc
.LFE11567:
	.size	_ZNKSt5dequeIiSaIiEE8max_sizeEv, .-_ZNKSt5dequeIiSaIiEE8max_sizeEv
	.section	.text._ZNSt5dequeIiSaIiEE22_M_reserve_map_at_backEm,"axG",@progbits,_ZNSt5dequeIiSaIiEE22_M_reserve_map_at_backEm,comdat
	.align 2
	.weak	_ZNSt5dequeIiSaIiEE22_M_reserve_map_at_backEm
	.type	_ZNSt5dequeIiSaIiEE22_M_reserve_map_at_backEm, @function
_ZNSt5dequeIiSaIiEE22_M_reserve_map_at_backEm:
.LFB11568:
	.cfi_startproc
	endbr64
	pushq	%rbp
	.cfi_def_cfa_offset 16
	.cfi_offset 6, -16
	movq	%rsp, %rbp
	.cfi_def_cfa_register 6
	subq	$16, %rsp
	movq	%rdi, -8(%rbp)
	movq	%rsi, -16(%rbp)
	movq	-16(%rbp), %rax
	leaq	1(%rax), %rdx
	movq	-8(%rbp), %rax
	movq	8(%rax), %rcx
	movq	-8(%rbp), %rax
	movq	72(%rax), %rsi
	movq	-8(%rbp), %rax
	movq	(%rax), %rax
	subq	%rax, %rsi
	movq	%rsi, %rax
	sarq	$3, %rax
	movq	%rax, %rsi
	movq	%rcx, %rax
	subq	%rsi, %rax
	cmpq	%rdx, %rax
	jnb	.L418
	movq	-16(%rbp), %rcx
	movq	-8(%rbp), %rax
	movl	$0, %edx
	movq	%rcx, %rsi
	movq	%rax, %rdi
	call	_ZNSt5dequeIiSaIiEE17_M_reallocate_mapEmb
.L418:
	nop
	leave
	.cfi_def_cfa 7, 8
	ret
	.cfi_endproc
.LFE11568:
	.size	_ZNSt5dequeIiSaIiEE22_M_reserve_map_at_backEm, .-_ZNSt5dequeIiSaIiEE22_M_reserve_map_at_backEm
	.section	.text._ZNSt11_Deque_baseIiSaIiEE16_M_allocate_nodeEv,"axG",@progbits,_ZNSt11_Deque_baseIiSaIiEE16_M_allocate_nodeEv,comdat
	.align 2
	.weak	_ZNSt11_Deque_baseIiSaIiEE16_M_allocate_nodeEv
	.type	_ZNSt11_Deque_baseIiSaIiEE16_M_allocate_nodeEv, @function
_ZNSt11_Deque_baseIiSaIiEE16_M_allocate_nodeEv:
.LFB11569:
	.cfi_startproc
	endbr64
	pushq	%rbp
	.cfi_def_cfa_offset 16
	.cfi_offset 6, -16
	movq	%rsp, %rbp
	.cfi_def_cfa_register 6
	subq	$32, %rsp
	movq	%rdi, -24(%rbp)
	movl	$4, %edi
	call	_ZSt16__deque_buf_sizem
	movq	-24(%rbp), %rdx
	movq	%rdx, -16(%rbp)
	movq	%rax, -8(%rbp)
	movq	-8(%rbp), %rcx
	movq	-16(%rbp), %rax
	movl	$0, %edx
	movq	%rcx, %rsi
	movq	%rax, %rdi
	call	_ZNSt15__new_allocatorIiE8allocateEmPKv
	nop
	leave
	.cfi_def_cfa 7, 8
	ret
	.cfi_endproc
.LFE11569:
	.size	_ZNSt11_Deque_baseIiSaIiEE16_M_allocate_nodeEv, .-_ZNSt11_Deque_baseIiSaIiEE16_M_allocate_nodeEv
	.section	.text._ZNSt8_Rb_treeIiSt4pairIKiSt6vectorIiSaIiEEESt10_Select1stIS5_ESt4lessIiESaIS5_EE6_M_endEv,"axG",@progbits,_ZNSt8_Rb_treeIiSt4pairIKiSt6vectorIiSaIiEEESt10_Select1stIS5_ESt4lessIiESaIS5_EE6_M_endEv,comdat
	.align 2
	.weak	_ZNSt8_Rb_treeIiSt4pairIKiSt6vectorIiSaIiEEESt10_Select1stIS5_ESt4lessIiESaIS5_EE6_M_endEv
	.type	_ZNSt8_Rb_treeIiSt4pairIKiSt6vectorIiSaIiEEESt10_Select1stIS5_ESt4lessIiESaIS5_EE6_M_endEv, @function
_ZNSt8_Rb_treeIiSt4pairIKiSt6vectorIiSaIiEEESt10_Select1stIS5_ESt4lessIiESaIS5_EE6_M_endEv:
.LFB11570:
	.cfi_startproc
	endbr64
	pushq	%rbp
	.cfi_def_cfa_offset 16
	.cfi_offset 6, -16
	movq	%rsp, %rbp
	.cfi_def_cfa_register 6
	movq	%rdi, -8(%rbp)
	movq	-8(%rbp), %rax
	addq	$8, %rax
	popq	%rbp
	.cfi_def_cfa 7, 8
	ret
	.cfi_endproc
.LFE11570:
	.size	_ZNSt8_Rb_treeIiSt4pairIKiSt6vectorIiSaIiEEESt10_Select1stIS5_ESt4lessIiESaIS5_EE6_M_endEv, .-_ZNSt8_Rb_treeIiSt4pairIKiSt6vectorIiSaIiEEESt10_Select1stIS5_ESt4lessIiESaIS5_EE6_M_endEv
	.section	.text._ZNSt8_Rb_treeIiSt4pairIKiSt6vectorIiSaIiEEESt10_Select1stIS5_ESt4lessIiESaIS5_EE14_M_lower_boundEPSt13_Rb_tree_nodeIS5_EPSt18_Rb_tree_node_baseRS1_,"axG",@progbits,_ZNSt8_Rb_treeIiSt4pairIKiSt6vectorIiSaIiEEESt10_Select1stIS5_ESt4lessIiESaIS5_EE14_M_lower_boundEPSt13_Rb_tree_nodeIS5_EPSt18_Rb_tree_node_baseRS1_,comdat
	.align 2
	.weak	_ZNSt8_Rb_treeIiSt4pairIKiSt6vectorIiSaIiEEESt10_Select1stIS5_ESt4lessIiESaIS5_EE14_M_lower_boundEPSt13_Rb_tree_nodeIS5_EPSt18_Rb_tree_node_baseRS1_
	.type	_ZNSt8_Rb_treeIiSt4pairIKiSt6vectorIiSaIiEEESt10_Select1stIS5_ESt4lessIiESaIS5_EE14_M_lower_boundEPSt13_Rb_tree_nodeIS5_EPSt18_Rb_tree_node_baseRS1_, @function
_ZNSt8_Rb_treeIiSt4pairIKiSt6vectorIiSaIiEEESt10_Select1stIS5_ESt4lessIiESaIS5_EE14_M_lower_boundEPSt13_Rb_tree_nodeIS5_EPSt18_Rb_tree_node_baseRS1_:
.LFB11571:
	.cfi_startproc
	endbr64
	pushq	%rbp
	.cfi_def_cfa_offset 16
	.cfi_offset 6, -16
	movq	%rsp, %rbp
	.cfi_def_cfa_register 6
	pushq	%rbx
	subq	$56, %rsp
	.cfi_offset 3, -24
	movq	%rdi, -40(%rbp)
	movq	%rsi, -48(%rbp)
	movq	%rdx, -56(%rbp)
	movq	%rcx, -64(%rbp)
	movq	%fs:40, %rax
	movq	%rax, -24(%rbp)
	xorl	%eax, %eax
	jmp	.L425
.L428:
	movq	-40(%rbp), %rbx
	movq	-48(%rbp), %rax
	movq	%rax, %rdi
	call	_ZNSt8_Rb_treeIiSt4pairIKiSt6vectorIiSaIiEEESt10_Select1stIS5_ESt4lessIiESaIS5_EE6_S_keyEPKSt13_Rb_tree_nodeIS5_E
	movq	%rax, %rcx
	movq	-64(%rbp), %rax
	movq	%rax, %rdx
	movq	%rcx, %rsi
	movq	%rbx, %rdi
	call	_ZNKSt4lessIiEclERKiS2_
	xorl	$1, %eax
	testb	%al, %al
	je	.L426
	movq	-48(%rbp), %rax
	movq	%rax, -56(%rbp)
	movq	-48(%rbp), %rax
	movq	%rax, %rdi
	call	_ZNSt8_Rb_treeIiSt4pairIKiSt6vectorIiSaIiEEESt10_Select1stIS5_ESt4lessIiESaIS5_EE7_S_leftEPSt18_Rb_tree_node_base
	movq	%rax, -48(%rbp)
	jmp	.L425
.L426:
	movq	-48(%rbp), %rax
	movq	%rax, %rdi
	call	_ZNSt8_Rb_treeIiSt4pairIKiSt6vectorIiSaIiEEESt10_Select1stIS5_ESt4lessIiESaIS5_EE8_S_rightEPSt18_Rb_tree_node_base
	movq	%rax, -48(%rbp)
.L425:
	cmpq	$0, -48(%rbp)
	jne	.L428
	movq	-56(%rbp), %rdx
	leaq	-32(%rbp), %rax
	movq	%rdx, %rsi
	movq	%rax, %rdi
	call	_ZNSt17_Rb_tree_iteratorISt4pairIKiSt6vectorIiSaIiEEEEC1EPSt18_Rb_tree_node_base
	movq	-32(%rbp), %rax
	movq	-24(%rbp), %rdx
	subq	%fs:40, %rdx
	je	.L430
	call	__stack_chk_fail@PLT
.L430:
	movq	-8(%rbp), %rbx
	leave
	.cfi_def_cfa 7, 8
	ret
	.cfi_endproc
.LFE11571:
	.size	_ZNSt8_Rb_treeIiSt4pairIKiSt6vectorIiSaIiEEESt10_Select1stIS5_ESt4lessIiESaIS5_EE14_M_lower_boundEPSt13_Rb_tree_nodeIS5_EPSt18_Rb_tree_node_baseRS1_, .-_ZNSt8_Rb_treeIiSt4pairIKiSt6vectorIiSaIiEEESt10_Select1stIS5_ESt4lessIiESaIS5_EE14_M_lower_boundEPSt13_Rb_tree_nodeIS5_EPSt18_Rb_tree_node_baseRS1_
	.section	.text._ZNSt10_Head_baseILm0ERKiLb0EEC2ES1_,"axG",@progbits,_ZNSt10_Head_baseILm0ERKiLb0EEC5ES1_,comdat
	.align 2
	.weak	_ZNSt10_Head_baseILm0ERKiLb0EEC2ES1_
	.type	_ZNSt10_Head_baseILm0ERKiLb0EEC2ES1_, @function
_ZNSt10_Head_baseILm0ERKiLb0EEC2ES1_:
.LFB11573:
	.cfi_startproc
	endbr64
	pushq	%rbp
	.cfi_def_cfa_offset 16
	.cfi_offset 6, -16
	movq	%rsp, %rbp
	.cfi_def_cfa_register 6
	movq	%rdi, -8(%rbp)
	movq	%rsi, -16(%rbp)
	movq	-8(%rbp), %rax
	movq	-16(%rbp), %rdx
	movq	%rdx, (%rax)
	nop
	popq	%rbp
	.cfi_def_cfa 7, 8
	ret
	.cfi_endproc
.LFE11573:
	.size	_ZNSt10_Head_baseILm0ERKiLb0EEC2ES1_, .-_ZNSt10_Head_baseILm0ERKiLb0EEC2ES1_
	.weak	_ZNSt10_Head_baseILm0ERKiLb0EEC1ES1_
	.set	_ZNSt10_Head_baseILm0ERKiLb0EEC1ES1_,_ZNSt10_Head_baseILm0ERKiLb0EEC2ES1_
	.section	.text._ZNSt8_Rb_treeIiSt4pairIKiSt6vectorIiSaIiEEESt10_Select1stIS5_ESt4lessIiESaIS5_EE14_M_create_nodeIJRKSt21piecewise_construct_tSt5tupleIJRS1_EESG_IJEEEEEPSt13_Rb_tree_nodeIS5_EDpOT_,"axG",@progbits,_ZNSt8_Rb_treeIiSt4pairIKiSt6vectorIiSaIiEEESt10_Select1stIS5_ESt4lessIiESaIS5_EE14_M_create_nodeIJRKSt21piecewise_construct_tSt5tupleIJRS1_EESG_IJEEEEEPSt13_Rb_tree_nodeIS5_EDpOT_,comdat
	.align 2
	.weak	_ZNSt8_Rb_treeIiSt4pairIKiSt6vectorIiSaIiEEESt10_Select1stIS5_ESt4lessIiESaIS5_EE14_M_create_nodeIJRKSt21piecewise_construct_tSt5tupleIJRS1_EESG_IJEEEEEPSt13_Rb_tree_nodeIS5_EDpOT_
	.type	_ZNSt8_Rb_treeIiSt4pairIKiSt6vectorIiSaIiEEESt10_Select1stIS5_ESt4lessIiESaIS5_EE14_M_create_nodeIJRKSt21piecewise_construct_tSt5tupleIJRS1_EESG_IJEEEEEPSt13_Rb_tree_nodeIS5_EDpOT_, @function
_ZNSt8_Rb_treeIiSt4pairIKiSt6vectorIiSaIiEEESt10_Select1stIS5_ESt4lessIiESaIS5_EE14_M_create_nodeIJRKSt21piecewise_construct_tSt5tupleIJRS1_EESG_IJEEEEEPSt13_Rb_tree_nodeIS5_EDpOT_:
.LFB11575:
	.cfi_startproc
	endbr64
	pushq	%rbp
	.cfi_def_cfa_offset 16
	.cfi_offset 6, -16
	movq	%rsp, %rbp
	.cfi_def_cfa_register 6
	pushq	%r12
	pushq	%rbx
	subq	$48, %rsp
	.cfi_offset 12, -24
	.cfi_offset 3, -32
	movq	%rdi, -40(%rbp)
	movq	%rsi, -48(%rbp)
	movq	%rdx, -56(%rbp)
	movq	%rcx, -64(%rbp)
	movq	-40(%rbp), %rax
	movq	%rax, %rdi
	call	_ZNSt8_Rb_treeIiSt4pairIKiSt6vectorIiSaIiEEESt10_Select1stIS5_ESt4lessIiESaIS5_EE11_M_get_nodeEv
	movq	%rax, -24(%rbp)
	movq	-64(%rbp), %rax
	movq	%rax, %rdi
	call	_ZSt7forwardISt5tupleIJEEEOT_RNSt16remove_referenceIS2_E4typeE
	movq	%rax, %r12
	movq	-56(%rbp), %rax
	movq	%rax, %rdi
	call	_ZSt7forwardISt5tupleIJRKiEEEOT_RNSt16remove_referenceIS4_E4typeE
	movq	%rax, %rbx
	movq	-48(%rbp), %rax
	movq	%rax, %rdi
	call	_ZSt7forwardIRKSt21piecewise_construct_tEOT_RNSt16remove_referenceIS3_E4typeE
	movq	%rax, %rdx
	movq	-24(%rbp), %rsi
	movq	-40(%rbp), %rax
	movq	%r12, %r8
	movq	%rbx, %rcx
	movq	%rax, %rdi
	call	_ZNSt8_Rb_treeIiSt4pairIKiSt6vectorIiSaIiEEESt10_Select1stIS5_ESt4lessIiESaIS5_EE17_M_construct_nodeIJRKSt21piecewise_construct_tSt5tupleIJRS1_EESG_IJEEEEEvPSt13_Rb_tree_nodeIS5_EDpOT_
	movq	-24(%rbp), %rax
	addq	$48, %rsp
	popq	%rbx
	popq	%r12
	popq	%rbp
	.cfi_def_cfa 7, 8
	ret
	.cfi_endproc
.LFE11575:
	.size	_ZNSt8_Rb_treeIiSt4pairIKiSt6vectorIiSaIiEEESt10_Select1stIS5_ESt4lessIiESaIS5_EE14_M_create_nodeIJRKSt21piecewise_construct_tSt5tupleIJRS1_EESG_IJEEEEEPSt13_Rb_tree_nodeIS5_EDpOT_, .-_ZNSt8_Rb_treeIiSt4pairIKiSt6vectorIiSaIiEEESt10_Select1stIS5_ESt4lessIiESaIS5_EE14_M_create_nodeIJRKSt21piecewise_construct_tSt5tupleIJRS1_EESG_IJEEEEEPSt13_Rb_tree_nodeIS5_EDpOT_
	.section	.text._ZNKSt23_Rb_tree_const_iteratorISt4pairIKiSt6vectorIiSaIiEEEE13_M_const_castEv,"axG",@progbits,_ZNKSt23_Rb_tree_const_iteratorISt4pairIKiSt6vectorIiSaIiEEEE13_M_const_castEv,comdat
	.align 2
	.weak	_ZNKSt23_Rb_tree_const_iteratorISt4pairIKiSt6vectorIiSaIiEEEE13_M_const_castEv
	.type	_ZNKSt23_Rb_tree_const_iteratorISt4pairIKiSt6vectorIiSaIiEEEE13_M_const_castEv, @function
_ZNKSt23_Rb_tree_const_iteratorISt4pairIKiSt6vectorIiSaIiEEEE13_M_const_castEv:
.LFB11576:
	.cfi_startproc
	endbr64
	pushq	%rbp
	.cfi_def_cfa_offset 16
	.cfi_offset 6, -16
	movq	%rsp, %rbp
	.cfi_def_cfa_register 6
	subq	$32, %rsp
	movq	%rdi, -24(%rbp)
	movq	%fs:40, %rax
	movq	%rax, -8(%rbp)
	xorl	%eax, %eax
	movq	-24(%rbp), %rax
	movq	(%rax), %rdx
	leaq	-16(%rbp), %rax
	movq	%rdx, %rsi
	movq	%rax, %rdi
	call	_ZNSt17_Rb_tree_iteratorISt4pairIKiSt6vectorIiSaIiEEEEC1EPSt18_Rb_tree_node_base
	movq	-16(%rbp), %rax
	movq	-8(%rbp), %rdx
	subq	%fs:40, %rdx
	je	.L436
	call	__stack_chk_fail@PLT
.L436:
	leave
	.cfi_def_cfa 7, 8
	ret
	.cfi_endproc
.LFE11576:
	.size	_ZNKSt23_Rb_tree_const_iteratorISt4pairIKiSt6vectorIiSaIiEEEE13_M_const_castEv, .-_ZNKSt23_Rb_tree_const_iteratorISt4pairIKiSt6vectorIiSaIiEEEE13_M_const_castEv
	.section	.text._ZNSt8_Rb_treeIiSt4pairIKiSt6vectorIiSaIiEEESt10_Select1stIS5_ESt4lessIiESaIS5_EE12_M_rightmostEv,"axG",@progbits,_ZNSt8_Rb_treeIiSt4pairIKiSt6vectorIiSaIiEEESt10_Select1stIS5_ESt4lessIiESaIS5_EE12_M_rightmostEv,comdat
	.align 2
	.weak	_ZNSt8_Rb_treeIiSt4pairIKiSt6vectorIiSaIiEEESt10_Select1stIS5_ESt4lessIiESaIS5_EE12_M_rightmostEv
	.type	_ZNSt8_Rb_treeIiSt4pairIKiSt6vectorIiSaIiEEESt10_Select1stIS5_ESt4lessIiESaIS5_EE12_M_rightmostEv, @function
_ZNSt8_Rb_treeIiSt4pairIKiSt6vectorIiSaIiEEESt10_Select1stIS5_ESt4lessIiESaIS5_EE12_M_rightmostEv:
.LFB11577:
	.cfi_startproc
	endbr64
	pushq	%rbp
	.cfi_def_cfa_offset 16
	.cfi_offset 6, -16
	movq	%rsp, %rbp
	.cfi_def_cfa_register 6
	movq	%rdi, -8(%rbp)
	movq	-8(%rbp), %rax
	addq	$32, %rax
	popq	%rbp
	.cfi_def_cfa 7, 8
	ret
	.cfi_endproc
.LFE11577:
	.size	_ZNSt8_Rb_treeIiSt4pairIKiSt6vectorIiSaIiEEESt10_Select1stIS5_ESt4lessIiESaIS5_EE12_M_rightmostEv, .-_ZNSt8_Rb_treeIiSt4pairIKiSt6vectorIiSaIiEEESt10_Select1stIS5_ESt4lessIiESaIS5_EE12_M_rightmostEv
	.section	.text._ZNSt8_Rb_treeIiSt4pairIKiSt6vectorIiSaIiEEESt10_Select1stIS5_ESt4lessIiESaIS5_EE6_S_keyEPKSt18_Rb_tree_node_base,"axG",@progbits,_ZNSt8_Rb_treeIiSt4pairIKiSt6vectorIiSaIiEEESt10_Select1stIS5_ESt4lessIiESaIS5_EE6_S_keyEPKSt18_Rb_tree_node_base,comdat
	.weak	_ZNSt8_Rb_treeIiSt4pairIKiSt6vectorIiSaIiEEESt10_Select1stIS5_ESt4lessIiESaIS5_EE6_S_keyEPKSt18_Rb_tree_node_base
	.type	_ZNSt8_Rb_treeIiSt4pairIKiSt6vectorIiSaIiEEESt10_Select1stIS5_ESt4lessIiESaIS5_EE6_S_keyEPKSt18_Rb_tree_node_base, @function
_ZNSt8_Rb_treeIiSt4pairIKiSt6vectorIiSaIiEEESt10_Select1stIS5_ESt4lessIiESaIS5_EE6_S_keyEPKSt18_Rb_tree_node_base:
.LFB11578:
	.cfi_startproc
	endbr64
	pushq	%rbp
	.cfi_def_cfa_offset 16
	.cfi_offset 6, -16
	movq	%rsp, %rbp
	.cfi_def_cfa_register 6
	subq	$16, %rsp
	movq	%rdi, -8(%rbp)
	movq	-8(%rbp), %rax
	movq	%rax, %rdi
	call	_ZNSt8_Rb_treeIiSt4pairIKiSt6vectorIiSaIiEEESt10_Select1stIS5_ESt4lessIiESaIS5_EE6_S_keyEPKSt13_Rb_tree_nodeIS5_E
	leave
	.cfi_def_cfa 7, 8
	ret
	.cfi_endproc
.LFE11578:
	.size	_ZNSt8_Rb_treeIiSt4pairIKiSt6vectorIiSaIiEEESt10_Select1stIS5_ESt4lessIiESaIS5_EE6_S_keyEPKSt18_Rb_tree_node_base, .-_ZNSt8_Rb_treeIiSt4pairIKiSt6vectorIiSaIiEEESt10_Select1stIS5_ESt4lessIiESaIS5_EE6_S_keyEPKSt18_Rb_tree_node_base
	.section	.text._ZNSt4pairIPSt18_Rb_tree_node_baseS1_EC2IS1_S1_Lb1EEERKS1_S5_,"axG",@progbits,_ZNSt4pairIPSt18_Rb_tree_node_baseS1_EC5IS1_S1_Lb1EEERKS1_S5_,comdat
	.align 2
	.weak	_ZNSt4pairIPSt18_Rb_tree_node_baseS1_EC2IS1_S1_Lb1EEERKS1_S5_
	.type	_ZNSt4pairIPSt18_Rb_tree_node_baseS1_EC2IS1_S1_Lb1EEERKS1_S5_, @function
_ZNSt4pairIPSt18_Rb_tree_node_baseS1_EC2IS1_S1_Lb1EEERKS1_S5_:
.LFB11580:
	.cfi_startproc
	endbr64
	pushq	%rbp
	.cfi_def_cfa_offset 16
	.cfi_offset 6, -16
	movq	%rsp, %rbp
	.cfi_def_cfa_register 6
	movq	%rdi, -8(%rbp)
	movq	%rsi, -16(%rbp)
	movq	%rdx, -24(%rbp)
	movq	-16(%rbp), %rax
	movq	(%rax), %rdx
	movq	-8(%rbp), %rax
	movq	%rdx, (%rax)
	movq	-24(%rbp), %rax
	movq	(%rax), %rdx
	movq	-8(%rbp), %rax
	movq	%rdx, 8(%rax)
	nop
	popq	%rbp
	.cfi_def_cfa 7, 8
	ret
	.cfi_endproc
.LFE11580:
	.size	_ZNSt4pairIPSt18_Rb_tree_node_baseS1_EC2IS1_S1_Lb1EEERKS1_S5_, .-_ZNSt4pairIPSt18_Rb_tree_node_baseS1_EC2IS1_S1_Lb1EEERKS1_S5_
	.weak	_ZNSt4pairIPSt18_Rb_tree_node_baseS1_EC1IS1_S1_Lb1EEERKS1_S5_
	.set	_ZNSt4pairIPSt18_Rb_tree_node_baseS1_EC1IS1_S1_Lb1EEERKS1_S5_,_ZNSt4pairIPSt18_Rb_tree_node_baseS1_EC2IS1_S1_Lb1EEERKS1_S5_
	.section	.text._ZNSt8_Rb_treeIiSt4pairIKiSt6vectorIiSaIiEEESt10_Select1stIS5_ESt4lessIiESaIS5_EE24_M_get_insert_unique_posERS1_,"axG",@progbits,_ZNSt8_Rb_treeIiSt4pairIKiSt6vectorIiSaIiEEESt10_Select1stIS5_ESt4lessIiESaIS5_EE24_M_get_insert_unique_posERS1_,comdat
	.align 2
	.weak	_ZNSt8_Rb_treeIiSt4pairIKiSt6vectorIiSaIiEEESt10_Select1stIS5_ESt4lessIiESaIS5_EE24_M_get_insert_unique_posERS1_
	.type	_ZNSt8_Rb_treeIiSt4pairIKiSt6vectorIiSaIiEEESt10_Select1stIS5_ESt4lessIiESaIS5_EE24_M_get_insert_unique_posERS1_, @function
_ZNSt8_Rb_treeIiSt4pairIKiSt6vectorIiSaIiEEESt10_Select1stIS5_ESt4lessIiESaIS5_EE24_M_get_insert_unique_posERS1_:
.LFB11582:
	.cfi_startproc
	endbr64
	pushq	%rbp
	.cfi_def_cfa_offset 16
	.cfi_offset 6, -16
	movq	%rsp, %rbp
	.cfi_def_cfa_register 6
	pushq	%rbx
	subq	$104, %rsp
	.cfi_offset 3, -24
	movq	%rdi, -104(%rbp)
	movq	%rsi, -112(%rbp)
	movq	%fs:40, %rax
	movq	%rax, -24(%rbp)
	xorl	%eax, %eax
	movq	-104(%rbp), %rax
	movq	%rax, %rdi
	call	_ZNSt8_Rb_treeIiSt4pairIKiSt6vectorIiSaIiEEESt10_Select1stIS5_ESt4lessIiESaIS5_EE8_M_beginEv
	movq	%rax, -80(%rbp)
	movq	-104(%rbp), %rax
	movq	%rax, %rdi
	call	_ZNSt8_Rb_treeIiSt4pairIKiSt6vectorIiSaIiEEESt10_Select1stIS5_ESt4lessIiESaIS5_EE6_M_endEv
	movq	%rax, -72(%rbp)
	movb	$1, -81(%rbp)
	jmp	.L443
.L446:
	movq	-80(%rbp), %rax
	movq	%rax, -72(%rbp)
	movq	-104(%rbp), %rbx
	movq	-80(%rbp), %rax
	movq	%rax, %rdi
	call	_ZNSt8_Rb_treeIiSt4pairIKiSt6vectorIiSaIiEEESt10_Select1stIS5_ESt4lessIiESaIS5_EE6_S_keyEPKSt13_Rb_tree_nodeIS5_E
	movq	%rax, %rdx
	movq	-112(%rbp), %rax
	movq	%rax, %rsi
	movq	%rbx, %rdi
	call	_ZNKSt4lessIiEclERKiS2_
	movb	%al, -81(%rbp)
	cmpb	$0, -81(%rbp)
	je	.L444
	movq	-80(%rbp), %rax
	movq	%rax, %rdi
	call	_ZNSt8_Rb_treeIiSt4pairIKiSt6vectorIiSaIiEEESt10_Select1stIS5_ESt4lessIiESaIS5_EE7_S_leftEPSt18_Rb_tree_node_base
	jmp	.L445
.L444:
	movq	-80(%rbp), %rax
	movq	%rax, %rdi
	call	_ZNSt8_Rb_treeIiSt4pairIKiSt6vectorIiSaIiEEESt10_Select1stIS5_ESt4lessIiESaIS5_EE8_S_rightEPSt18_Rb_tree_node_base
.L445:
	movq	%rax, -80(%rbp)
.L443:
	movq	-80(%rbp), %rax
	testq	%rax, %rax
	jne	.L446
	movq	-72(%rbp), %rdx
	leaq	-64(%rbp), %rax
	movq	%rdx, %rsi
	movq	%rax, %rdi
	call	_ZNSt17_Rb_tree_iteratorISt4pairIKiSt6vectorIiSaIiEEEEC1EPSt18_Rb_tree_node_base
	cmpb	$0, -81(%rbp)
	je	.L447
	movq	-104(%rbp), %rax
	movq	%rax, %rdi
	call	_ZNSt8_Rb_treeIiSt4pairIKiSt6vectorIiSaIiEEESt10_Select1stIS5_ESt4lessIiESaIS5_EE5beginEv
	movq	%rax, -48(%rbp)
	leaq	-48(%rbp), %rdx
	leaq	-64(%rbp), %rax
	movq	%rdx, %rsi
	movq	%rax, %rdi
	call	_ZSteqRKSt17_Rb_tree_iteratorISt4pairIKiSt6vectorIiSaIiEEEES8_
	testb	%al, %al
	je	.L448
	leaq	-72(%rbp), %rdx
	leaq	-80(%rbp), %rcx
	leaq	-48(%rbp), %rax
	movq	%rcx, %rsi
	movq	%rax, %rdi
	call	_ZNSt4pairIPSt18_Rb_tree_node_baseS1_EC1IRPSt13_Rb_tree_nodeIS_IKiSt6vectorIiSaIiEEEERS1_Lb1EEEOT_OT0_
	movq	-48(%rbp), %rax
	movq	-40(%rbp), %rdx
	jmp	.L451
.L448:
	leaq	-64(%rbp), %rax
	movq	%rax, %rdi
	call	_ZNSt17_Rb_tree_iteratorISt4pairIKiSt6vectorIiSaIiEEEEmmEv
.L447:
	movq	-104(%rbp), %rbx
	movq	-64(%rbp), %rax
	movq	%rax, %rdi
	call	_ZNSt8_Rb_treeIiSt4pairIKiSt6vectorIiSaIiEEESt10_Select1stIS5_ESt4lessIiESaIS5_EE6_S_keyEPKSt18_Rb_tree_node_base
	movq	%rax, %rcx
	movq	-112(%rbp), %rax
	movq	%rax, %rdx
	movq	%rcx, %rsi
	movq	%rbx, %rdi
	call	_ZNKSt4lessIiEclERKiS2_
	testb	%al, %al
	je	.L450
	leaq	-72(%rbp), %rdx
	leaq	-80(%rbp), %rcx
	leaq	-48(%rbp), %rax
	movq	%rcx, %rsi
	movq	%rax, %rdi
	call	_ZNSt4pairIPSt18_Rb_tree_node_baseS1_EC1IRPSt13_Rb_tree_nodeIS_IKiSt6vectorIiSaIiEEEERS1_Lb1EEEOT_OT0_
	movq	-48(%rbp), %rax
	movq	-40(%rbp), %rdx
	jmp	.L451
.L450:
	movq	$0, -56(%rbp)
	leaq	-56(%rbp), %rdx
	leaq	-64(%rbp), %rcx
	leaq	-48(%rbp), %rax
	movq	%rcx, %rsi
	movq	%rax, %rdi
	call	_ZNSt4pairIPSt18_Rb_tree_node_baseS1_EC1IS1_S1_Lb1EEERKS1_S5_
	movq	-48(%rbp), %rax
	movq	-40(%rbp), %rdx
.L451:
	movq	-24(%rbp), %rcx
	subq	%fs:40, %rcx
	je	.L452
	call	__stack_chk_fail@PLT
.L452:
	movq	-8(%rbp), %rbx
	leave
	.cfi_def_cfa 7, 8
	ret
	.cfi_endproc
.LFE11582:
	.size	_ZNSt8_Rb_treeIiSt4pairIKiSt6vectorIiSaIiEEESt10_Select1stIS5_ESt4lessIiESaIS5_EE24_M_get_insert_unique_posERS1_, .-_ZNSt8_Rb_treeIiSt4pairIKiSt6vectorIiSaIiEEESt10_Select1stIS5_ESt4lessIiESaIS5_EE24_M_get_insert_unique_posERS1_
	.section	.text._ZNSt8_Rb_treeIiSt4pairIKiSt6vectorIiSaIiEEESt10_Select1stIS5_ESt4lessIiESaIS5_EE11_M_leftmostEv,"axG",@progbits,_ZNSt8_Rb_treeIiSt4pairIKiSt6vectorIiSaIiEEESt10_Select1stIS5_ESt4lessIiESaIS5_EE11_M_leftmostEv,comdat
	.align 2
	.weak	_ZNSt8_Rb_treeIiSt4pairIKiSt6vectorIiSaIiEEESt10_Select1stIS5_ESt4lessIiESaIS5_EE11_M_leftmostEv
	.type	_ZNSt8_Rb_treeIiSt4pairIKiSt6vectorIiSaIiEEESt10_Select1stIS5_ESt4lessIiESaIS5_EE11_M_leftmostEv, @function
_ZNSt8_Rb_treeIiSt4pairIKiSt6vectorIiSaIiEEESt10_Select1stIS5_ESt4lessIiESaIS5_EE11_M_leftmostEv:
.LFB11585:
	.cfi_startproc
	endbr64
	pushq	%rbp
	.cfi_def_cfa_offset 16
	.cfi_offset 6, -16
	movq	%rsp, %rbp
	.cfi_def_cfa_register 6
	movq	%rdi, -8(%rbp)
	movq	-8(%rbp), %rax
	addq	$24, %rax
	popq	%rbp
	.cfi_def_cfa 7, 8
	ret
	.cfi_endproc
.LFE11585:
	.size	_ZNSt8_Rb_treeIiSt4pairIKiSt6vectorIiSaIiEEESt10_Select1stIS5_ESt4lessIiESaIS5_EE11_M_leftmostEv, .-_ZNSt8_Rb_treeIiSt4pairIKiSt6vectorIiSaIiEEESt10_Select1stIS5_ESt4lessIiESaIS5_EE11_M_leftmostEv
	.section	.text._ZNSt4pairIPSt18_Rb_tree_node_baseS1_EC2IRS1_S4_Lb1EEEOT_OT0_,"axG",@progbits,_ZNSt4pairIPSt18_Rb_tree_node_baseS1_EC5IRS1_S4_Lb1EEEOT_OT0_,comdat
	.align 2
	.weak	_ZNSt4pairIPSt18_Rb_tree_node_baseS1_EC2IRS1_S4_Lb1EEEOT_OT0_
	.type	_ZNSt4pairIPSt18_Rb_tree_node_baseS1_EC2IRS1_S4_Lb1EEEOT_OT0_, @function
_ZNSt4pairIPSt18_Rb_tree_node_baseS1_EC2IRS1_S4_Lb1EEEOT_OT0_:
.LFB11587:
	.cfi_startproc
	endbr64
	pushq	%rbp
	.cfi_def_cfa_offset 16
	.cfi_offset 6, -16
	movq	%rsp, %rbp
	.cfi_def_cfa_register 6
	subq	$32, %rsp
	movq	%rdi, -8(%rbp)
	movq	%rsi, -16(%rbp)
	movq	%rdx, -24(%rbp)
	movq	-16(%rbp), %rax
	movq	%rax, %rdi
	call	_ZSt7forwardIRPSt18_Rb_tree_node_baseEOT_RNSt16remove_referenceIS3_E4typeE
	movq	(%rax), %rdx
	movq	-8(%rbp), %rax
	movq	%rdx, (%rax)
	movq	-24(%rbp), %rax
	movq	%rax, %rdi
	call	_ZSt7forwardIRPSt18_Rb_tree_node_baseEOT_RNSt16remove_referenceIS3_E4typeE
	movq	(%rax), %rdx
	movq	-8(%rbp), %rax
	movq	%rdx, 8(%rax)
	nop
	leave
	.cfi_def_cfa 7, 8
	ret
	.cfi_endproc
.LFE11587:
	.size	_ZNSt4pairIPSt18_Rb_tree_node_baseS1_EC2IRS1_S4_Lb1EEEOT_OT0_, .-_ZNSt4pairIPSt18_Rb_tree_node_baseS1_EC2IRS1_S4_Lb1EEEOT_OT0_
	.weak	_ZNSt4pairIPSt18_Rb_tree_node_baseS1_EC1IRS1_S4_Lb1EEEOT_OT0_
	.set	_ZNSt4pairIPSt18_Rb_tree_node_baseS1_EC1IRS1_S4_Lb1EEEOT_OT0_,_ZNSt4pairIPSt18_Rb_tree_node_baseS1_EC2IRS1_S4_Lb1EEEOT_OT0_
	.section	.text._ZNSt17_Rb_tree_iteratorISt4pairIKiSt6vectorIiSaIiEEEEmmEv,"axG",@progbits,_ZNSt17_Rb_tree_iteratorISt4pairIKiSt6vectorIiSaIiEEEEmmEv,comdat
	.align 2
	.weak	_ZNSt17_Rb_tree_iteratorISt4pairIKiSt6vectorIiSaIiEEEEmmEv
	.type	_ZNSt17_Rb_tree_iteratorISt4pairIKiSt6vectorIiSaIiEEEEmmEv, @function
_ZNSt17_Rb_tree_iteratorISt4pairIKiSt6vectorIiSaIiEEEEmmEv:
.LFB11589:
	.cfi_startproc
	endbr64
	pushq	%rbp
	.cfi_def_cfa_offset 16
	.cfi_offset 6, -16
	movq	%rsp, %rbp
	.cfi_def_cfa_register 6
	subq	$16, %rsp
	movq	%rdi, -8(%rbp)
	movq	-8(%rbp), %rax
	movq	(%rax), %rax
	movq	%rax, %rdi
	call	_ZSt18_Rb_tree_decrementPSt18_Rb_tree_node_base@PLT
	movq	-8(%rbp), %rdx
	movq	%rax, (%rdx)
	movq	-8(%rbp), %rax
	leave
	.cfi_def_cfa 7, 8
	ret
	.cfi_endproc
.LFE11589:
	.size	_ZNSt17_Rb_tree_iteratorISt4pairIKiSt6vectorIiSaIiEEEEmmEv, .-_ZNSt17_Rb_tree_iteratorISt4pairIKiSt6vectorIiSaIiEEEEmmEv
	.section	.text._ZNSt8_Rb_treeIiSt4pairIKiSt6vectorIiSaIiEEESt10_Select1stIS5_ESt4lessIiESaIS5_EE6_S_keyEPKSt13_Rb_tree_nodeIS5_E,"axG",@progbits,_ZNSt8_Rb_treeIiSt4pairIKiSt6vectorIiSaIiEEESt10_Select1stIS5_ESt4lessIiESaIS5_EE6_S_keyEPKSt13_Rb_tree_nodeIS5_E,comdat
	.weak	_ZNSt8_Rb_treeIiSt4pairIKiSt6vectorIiSaIiEEESt10_Select1stIS5_ESt4lessIiESaIS5_EE6_S_keyEPKSt13_Rb_tree_nodeIS5_E
	.type	_ZNSt8_Rb_treeIiSt4pairIKiSt6vectorIiSaIiEEESt10_Select1stIS5_ESt4lessIiESaIS5_EE6_S_keyEPKSt13_Rb_tree_nodeIS5_E, @function
_ZNSt8_Rb_treeIiSt4pairIKiSt6vectorIiSaIiEEESt10_Select1stIS5_ESt4lessIiESaIS5_EE6_S_keyEPKSt13_Rb_tree_nodeIS5_E:
.LFB11590:
	.cfi_startproc
	endbr64
	pushq	%rbp
	.cfi_def_cfa_offset 16
	.cfi_offset 6, -16
	movq	%rsp, %rbp
	.cfi_def_cfa_register 6
	subq	$32, %rsp
	movq	%rdi, -24(%rbp)
	movq	%fs:40, %rax
	movq	%rax, -8(%rbp)
	xorl	%eax, %eax
	movq	-24(%rbp), %rax
	movq	%rax, %rdi
	call	_ZNKSt13_Rb_tree_nodeISt4pairIKiSt6vectorIiSaIiEEEE9_M_valptrEv
	movq	%rax, %rdx
	leaq	-9(%rbp), %rax
	movq	%rdx, %rsi
	movq	%rax, %rdi
	call	_ZNKSt10_Select1stISt4pairIKiSt6vectorIiSaIiEEEEclERKS5_
	movq	-8(%rbp), %rdx
	subq	%fs:40, %rdx
	je	.L460
	call	__stack_chk_fail@PLT
.L460:
	leave
	.cfi_def_cfa 7, 8
	ret
	.cfi_endproc
.LFE11590:
	.size	_ZNSt8_Rb_treeIiSt4pairIKiSt6vectorIiSaIiEEESt10_Select1stIS5_ESt4lessIiESaIS5_EE6_S_keyEPKSt13_Rb_tree_nodeIS5_E, .-_ZNSt8_Rb_treeIiSt4pairIKiSt6vectorIiSaIiEEESt10_Select1stIS5_ESt4lessIiESaIS5_EE6_S_keyEPKSt13_Rb_tree_nodeIS5_E
	.section	.text._ZNSt8_Rb_treeIiSt4pairIKiSt6vectorIiSaIiEEESt10_Select1stIS5_ESt4lessIiESaIS5_EE14_M_insert_nodeEPSt18_Rb_tree_node_baseSD_PSt13_Rb_tree_nodeIS5_E,"axG",@progbits,_ZNSt8_Rb_treeIiSt4pairIKiSt6vectorIiSaIiEEESt10_Select1stIS5_ESt4lessIiESaIS5_EE14_M_insert_nodeEPSt18_Rb_tree_node_baseSD_PSt13_Rb_tree_nodeIS5_E,comdat
	.align 2
	.weak	_ZNSt8_Rb_treeIiSt4pairIKiSt6vectorIiSaIiEEESt10_Select1stIS5_ESt4lessIiESaIS5_EE14_M_insert_nodeEPSt18_Rb_tree_node_baseSD_PSt13_Rb_tree_nodeIS5_E
	.type	_ZNSt8_Rb_treeIiSt4pairIKiSt6vectorIiSaIiEEESt10_Select1stIS5_ESt4lessIiESaIS5_EE14_M_insert_nodeEPSt18_Rb_tree_node_baseSD_PSt13_Rb_tree_nodeIS5_E, @function
_ZNSt8_Rb_treeIiSt4pairIKiSt6vectorIiSaIiEEESt10_Select1stIS5_ESt4lessIiESaIS5_EE14_M_insert_nodeEPSt18_Rb_tree_node_baseSD_PSt13_Rb_tree_nodeIS5_E:
.LFB11592:
	.cfi_startproc
	endbr64
	pushq	%rbp
	.cfi_def_cfa_offset 16
	.cfi_offset 6, -16
	movq	%rsp, %rbp
	.cfi_def_cfa_register 6
	pushq	%r12
	pushq	%rbx
	subq	$64, %rsp
	.cfi_offset 12, -24
	.cfi_offset 3, -32
	movq	%rdi, -56(%rbp)
	movq	%rsi, -64(%rbp)
	movq	%rdx, -72(%rbp)
	movq	%rcx, -80(%rbp)
	movq	%fs:40, %rax
	movq	%rax, -24(%rbp)
	xorl	%eax, %eax
	cmpq	$0, -64(%rbp)
	jne	.L462
	movq	-56(%rbp), %rax
	movq	%rax, %rdi
	call	_ZNSt8_Rb_treeIiSt4pairIKiSt6vectorIiSaIiEEESt10_Select1stIS5_ESt4lessIiESaIS5_EE6_M_endEv
	cmpq	%rax, -72(%rbp)
	je	.L462
	movq	-56(%rbp), %rbx
	movq	-72(%rbp), %rax
	movq	%rax, %rdi
	call	_ZNSt8_Rb_treeIiSt4pairIKiSt6vectorIiSaIiEEESt10_Select1stIS5_ESt4lessIiESaIS5_EE6_S_keyEPKSt18_Rb_tree_node_base
	movq	%rax, %r12
	movq	-80(%rbp), %rax
	movq	%rax, %rdi
	call	_ZNSt8_Rb_treeIiSt4pairIKiSt6vectorIiSaIiEEESt10_Select1stIS5_ESt4lessIiESaIS5_EE6_S_keyEPKSt13_Rb_tree_nodeIS5_E
	movq	%r12, %rdx
	movq	%rax, %rsi
	movq	%rbx, %rdi
	call	_ZNKSt4lessIiEclERKiS2_
	testb	%al, %al
	je	.L463
.L462:
	movl	$1, %eax
	jmp	.L464
.L463:
	movl	$0, %eax
.L464:
	movb	%al, -33(%rbp)
	movq	-56(%rbp), %rax
	leaq	8(%rax), %rcx
	movzbl	-33(%rbp), %eax
	movq	-72(%rbp), %rdx
	movq	-80(%rbp), %rsi
	movl	%eax, %edi
	call	_ZSt29_Rb_tree_insert_and_rebalancebPSt18_Rb_tree_node_baseS0_RS_@PLT
	movq	-56(%rbp), %rax
	movq	40(%rax), %rax
	leaq	1(%rax), %rdx
	movq	-56(%rbp), %rax
	movq	%rdx, 40(%rax)
	movq	-80(%rbp), %rdx
	leaq	-32(%rbp), %rax
	movq	%rdx, %rsi
	movq	%rax, %rdi
	call	_ZNSt17_Rb_tree_iteratorISt4pairIKiSt6vectorIiSaIiEEEEC1EPSt18_Rb_tree_node_base
	movq	-32(%rbp), %rax
	movq	-24(%rbp), %rdx
	subq	%fs:40, %rdx
	je	.L466
	call	__stack_chk_fail@PLT
.L466:
	addq	$64, %rsp
	popq	%rbx
	popq	%r12
	popq	%rbp
	.cfi_def_cfa 7, 8
	ret
	.cfi_endproc
.LFE11592:
	.size	_ZNSt8_Rb_treeIiSt4pairIKiSt6vectorIiSaIiEEESt10_Select1stIS5_ESt4lessIiESaIS5_EE14_M_insert_nodeEPSt18_Rb_tree_node_baseSD_PSt13_Rb_tree_nodeIS5_E, .-_ZNSt8_Rb_treeIiSt4pairIKiSt6vectorIiSaIiEEESt10_Select1stIS5_ESt4lessIiESaIS5_EE14_M_insert_nodeEPSt18_Rb_tree_node_baseSD_PSt13_Rb_tree_nodeIS5_E
	.section	.text._ZNKSt6vectorIiSaIiEE8max_sizeEv,"axG",@progbits,_ZNKSt6vectorIiSaIiEE8max_sizeEv,comdat
	.align 2
	.weak	_ZNKSt6vectorIiSaIiEE8max_sizeEv
	.type	_ZNKSt6vectorIiSaIiEE8max_sizeEv, @function
_ZNKSt6vectorIiSaIiEE8max_sizeEv:
.LFB11593:
	.cfi_startproc
	endbr64
	pushq	%rbp
	.cfi_def_cfa_offset 16
	.cfi_offset 6, -16
	movq	%rsp, %rbp
	.cfi_def_cfa_register 6
	subq	$16, %rsp
	movq	%rdi, -8(%rbp)
	movq	-8(%rbp), %rax
	movq	%rax, %rdi
	call	_ZNKSt12_Vector_baseIiSaIiEE19_M_get_Tp_allocatorEv
	movq	%rax, %rdi
	call	_ZNSt6vectorIiSaIiEE11_S_max_sizeERKS0_
	leave
	.cfi_def_cfa 7, 8
	ret
	.cfi_endproc
.LFE11593:
	.size	_ZNKSt6vectorIiSaIiEE8max_sizeEv, .-_ZNKSt6vectorIiSaIiEE8max_sizeEv
	.section	.text._ZSt12__relocate_aIPiS0_SaIiEET0_T_S3_S2_RT1_,"axG",@progbits,_ZSt12__relocate_aIPiS0_SaIiEET0_T_S3_S2_RT1_,comdat
	.weak	_ZSt12__relocate_aIPiS0_SaIiEET0_T_S3_S2_RT1_
	.type	_ZSt12__relocate_aIPiS0_SaIiEET0_T_S3_S2_RT1_, @function
_ZSt12__relocate_aIPiS0_SaIiEET0_T_S3_S2_RT1_:
.LFB11595:
	.cfi_startproc
	endbr64
	pushq	%rbp
	.cfi_def_cfa_offset 16
	.cfi_offset 6, -16
	movq	%rsp, %rbp
	.cfi_def_cfa_register 6
	pushq	%r12
	pushq	%rbx
	subq	$32, %rsp
	.cfi_offset 12, -24
	.cfi_offset 3, -32
	movq	%rdi, -24(%rbp)
	movq	%rsi, -32(%rbp)
	movq	%rdx, -40(%rbp)
	movq	%rcx, -48(%rbp)
	movq	-40(%rbp), %rax
	movq	%rax, %rdi
	call	_ZSt12__niter_baseIPiET_S1_
	movq	%rax, %r12
	movq	-32(%rbp), %rax
	movq	%rax, %rdi
	call	_ZSt12__niter_baseIPiET_S1_
	movq	%rax, %rbx
	movq	-24(%rbp), %rax
	movq	%rax, %rdi
	call	_ZSt12__niter_baseIPiET_S1_
	movq	%rax, %rdi
	movq	-48(%rbp), %rax
	movq	%rax, %rcx
	movq	%r12, %rdx
	movq	%rbx, %rsi
	call	_ZSt14__relocate_a_1IiiENSt9enable_ifIXsrSt24__is_bitwise_relocatableIT_vE5valueEPS2_E4typeES4_S4_S4_RSaIT0_E
	addq	$32, %rsp
	popq	%rbx
	popq	%r12
	popq	%rbp
	.cfi_def_cfa 7, 8
	ret
	.cfi_endproc
.LFE11595:
	.size	_ZSt12__relocate_aIPiS0_SaIiEET0_T_S3_S2_RT1_, .-_ZSt12__relocate_aIPiS0_SaIiEET0_T_S3_S2_RT1_
	.section	.text._ZN9__gnu_cxx16__aligned_membufISt4pairIKiSt6vectorIiSaIiEEEE7_M_addrEv,"axG",@progbits,_ZN9__gnu_cxx16__aligned_membufISt4pairIKiSt6vectorIiSaIiEEEE7_M_addrEv,comdat
	.align 2
	.weak	_ZN9__gnu_cxx16__aligned_membufISt4pairIKiSt6vectorIiSaIiEEEE7_M_addrEv
	.type	_ZN9__gnu_cxx16__aligned_membufISt4pairIKiSt6vectorIiSaIiEEEE7_M_addrEv, @function
_ZN9__gnu_cxx16__aligned_membufISt4pairIKiSt6vectorIiSaIiEEEE7_M_addrEv:
.LFB11597:
	.cfi_startproc
	endbr64
	pushq	%rbp
	.cfi_def_cfa_offset 16
	.cfi_offset 6, -16
	movq	%rsp, %rbp
	.cfi_def_cfa_register 6
	movq	%rdi, -8(%rbp)
	movq	-8(%rbp), %rax
	popq	%rbp
	.cfi_def_cfa 7, 8
	ret
	.cfi_endproc
.LFE11597:
	.size	_ZN9__gnu_cxx16__aligned_membufISt4pairIKiSt6vectorIiSaIiEEEE7_M_addrEv, .-_ZN9__gnu_cxx16__aligned_membufISt4pairIKiSt6vectorIiSaIiEEEE7_M_addrEv
	.section	.text._ZNSt15__new_allocatorISt6vectorIiSaIiEEE10deallocateEPS2_m,"axG",@progbits,_ZNSt15__new_allocatorISt6vectorIiSaIiEEE10deallocateEPS2_m,comdat
	.align 2
	.weak	_ZNSt15__new_allocatorISt6vectorIiSaIiEEE10deallocateEPS2_m
	.type	_ZNSt15__new_allocatorISt6vectorIiSaIiEEE10deallocateEPS2_m, @function
_ZNSt15__new_allocatorISt6vectorIiSaIiEEE10deallocateEPS2_m:
.LFB11701:
	.cfi_startproc
	endbr64
	pushq	%rbp
	.cfi_def_cfa_offset 16
	.cfi_offset 6, -16
	movq	%rsp, %rbp
	.cfi_def_cfa_register 6
	subq	$32, %rsp
	movq	%rdi, -8(%rbp)
	movq	%rsi, -16(%rbp)
	movq	%rdx, -24(%rbp)
	movq	-24(%rbp), %rdx
	movq	%rdx, %rax
	addq	%rax, %rax
	addq	%rdx, %rax
	salq	$3, %rax
	movq	%rax, %rdx
	movq	-16(%rbp), %rax
	movq	%rdx, %rsi
	movq	%rax, %rdi
	call	_ZdlPvm@PLT
	leave
	.cfi_def_cfa 7, 8
	ret
	.cfi_endproc
.LFE11701:
	.size	_ZNSt15__new_allocatorISt6vectorIiSaIiEEE10deallocateEPS2_m, .-_ZNSt15__new_allocatorISt6vectorIiSaIiEEE10deallocateEPS2_m
	.section	.text._ZNSt22__uninitialized_fill_nILb0EE15__uninit_fill_nIPSt6vectorIiSaIiEEmS4_EET_S6_T0_RKT1_,"axG",@progbits,_ZNSt22__uninitialized_fill_nILb0EE15__uninit_fill_nIPSt6vectorIiSaIiEEmS4_EET_S6_T0_RKT1_,comdat
	.weak	_ZNSt22__uninitialized_fill_nILb0EE15__uninit_fill_nIPSt6vectorIiSaIiEEmS4_EET_S6_T0_RKT1_
	.type	_ZNSt22__uninitialized_fill_nILb0EE15__uninit_fill_nIPSt6vectorIiSaIiEEmS4_EET_S6_T0_RKT1_, @function
_ZNSt22__uninitialized_fill_nILb0EE15__uninit_fill_nIPSt6vectorIiSaIiEEmS4_EET_S6_T0_RKT1_:
.LFB11702:
	.cfi_startproc
	endbr64
	pushq	%rbp
	.cfi_def_cfa_offset 16
	.cfi_offset 6, -16
	movq	%rsp, %rbp
	.cfi_def_cfa_register 6
	subq	$32, %rsp
	movq	%rdi, -8(%rbp)
	movq	%rsi, -16(%rbp)
	movq	%rdx, -24(%rbp)
	movq	-24(%rbp), %rdx
	movq	-16(%rbp), %rcx
	movq	-8(%rbp), %rax
	movq	%rcx, %rsi
	movq	%rax, %rdi
	call	_ZSt18__do_uninit_fill_nIPSt6vectorIiSaIiEEmS2_ET_S4_T0_RKT1_
	leave
	.cfi_def_cfa 7, 8
	ret
	.cfi_endproc
.LFE11702:
	.size	_ZNSt22__uninitialized_fill_nILb0EE15__uninit_fill_nIPSt6vectorIiSaIiEEmS4_EET_S6_T0_RKT1_, .-_ZNSt22__uninitialized_fill_nILb0EE15__uninit_fill_nIPSt6vectorIiSaIiEEmS4_EET_S6_T0_RKT1_
	.section	.text._ZNSt15_Deque_iteratorIiRiPiEC2Ev,"axG",@progbits,_ZNSt15_Deque_iteratorIiRiPiEC5Ev,comdat
	.align 2
	.weak	_ZNSt15_Deque_iteratorIiRiPiEC2Ev
	.type	_ZNSt15_Deque_iteratorIiRiPiEC2Ev, @function
_ZNSt15_Deque_iteratorIiRiPiEC2Ev:
.LFB11704:
	.cfi_startproc
	endbr64
	pushq	%rbp
	.cfi_def_cfa_offset 16
	.cfi_offset 6, -16
	movq	%rsp, %rbp
	.cfi_def_cfa_register 6
	movq	%rdi, -8(%rbp)
	movq	-8(%rbp), %rax
	movq	$0, (%rax)
	movq	-8(%rbp), %rax
	movq	$0, 8(%rax)
	movq	-8(%rbp), %rax
	movq	$0, 16(%rax)
	movq	-8(%rbp), %rax
	movq	$0, 24(%rax)
	nop
	popq	%rbp
	.cfi_def_cfa 7, 8
	ret
	.cfi_endproc
.LFE11704:
	.size	_ZNSt15_Deque_iteratorIiRiPiEC2Ev, .-_ZNSt15_Deque_iteratorIiRiPiEC2Ev
	.weak	_ZNSt15_Deque_iteratorIiRiPiEC1Ev
	.set	_ZNSt15_Deque_iteratorIiRiPiEC1Ev,_ZNSt15_Deque_iteratorIiRiPiEC2Ev
	.section	.text._ZNSt15_Deque_iteratorIiRiPiE14_S_buffer_sizeEv,"axG",@progbits,_ZNSt15_Deque_iteratorIiRiPiE14_S_buffer_sizeEv,comdat
	.weak	_ZNSt15_Deque_iteratorIiRiPiE14_S_buffer_sizeEv
	.type	_ZNSt15_Deque_iteratorIiRiPiE14_S_buffer_sizeEv, @function
_ZNSt15_Deque_iteratorIiRiPiE14_S_buffer_sizeEv:
.LFB11707:
	.cfi_startproc
	endbr64
	pushq	%rbp
	.cfi_def_cfa_offset 16
	.cfi_offset 6, -16
	movq	%rsp, %rbp
	.cfi_def_cfa_register 6
	movl	$4, %edi
	call	_ZSt16__deque_buf_sizem
	popq	%rbp
	.cfi_def_cfa 7, 8
	ret
	.cfi_endproc
.LFE11707:
	.size	_ZNSt15_Deque_iteratorIiRiPiE14_S_buffer_sizeEv, .-_ZNSt15_Deque_iteratorIiRiPiE14_S_buffer_sizeEv
	.section	.text._ZNKSt11_Deque_baseIiSaIiEE19_M_get_Tp_allocatorEv,"axG",@progbits,_ZNKSt11_Deque_baseIiSaIiEE19_M_get_Tp_allocatorEv,comdat
	.align 2
	.weak	_ZNKSt11_Deque_baseIiSaIiEE19_M_get_Tp_allocatorEv
	.type	_ZNKSt11_Deque_baseIiSaIiEE19_M_get_Tp_allocatorEv, @function
_ZNKSt11_Deque_baseIiSaIiEE19_M_get_Tp_allocatorEv:
.LFB11708:
	.cfi_startproc
	endbr64
	pushq	%rbp
	.cfi_def_cfa_offset 16
	.cfi_offset 6, -16
	movq	%rsp, %rbp
	.cfi_def_cfa_register 6
	movq	%rdi, -8(%rbp)
	movq	-8(%rbp), %rax
	popq	%rbp
	.cfi_def_cfa 7, 8
	ret
	.cfi_endproc
.LFE11708:
	.size	_ZNKSt11_Deque_baseIiSaIiEE19_M_get_Tp_allocatorEv, .-_ZNKSt11_Deque_baseIiSaIiEE19_M_get_Tp_allocatorEv
	.section	.text._ZNSt15__new_allocatorIPiED2Ev,"axG",@progbits,_ZNSt15__new_allocatorIPiED5Ev,comdat
	.align 2
	.weak	_ZNSt15__new_allocatorIPiED2Ev
	.type	_ZNSt15__new_allocatorIPiED2Ev, @function
_ZNSt15__new_allocatorIPiED2Ev:
.LFB11713:
	.cfi_startproc
	endbr64
	pushq	%rbp
	.cfi_def_cfa_offset 16
	.cfi_offset 6, -16
	movq	%rsp, %rbp
	.cfi_def_cfa_register 6
	movq	%rdi, -8(%rbp)
	nop
	popq	%rbp
	.cfi_def_cfa 7, 8
	ret
	.cfi_endproc
.LFE11713:
	.size	_ZNSt15__new_allocatorIPiED2Ev, .-_ZNSt15__new_allocatorIPiED2Ev
	.weak	_ZNSt15__new_allocatorIPiED1Ev
	.set	_ZNSt15__new_allocatorIPiED1Ev,_ZNSt15__new_allocatorIPiED2Ev
	.section	.text._ZNSt15__new_allocatorIPiE10deallocateEPS0_m,"axG",@progbits,_ZNSt15__new_allocatorIPiE10deallocateEPS0_m,comdat
	.align 2
	.weak	_ZNSt15__new_allocatorIPiE10deallocateEPS0_m
	.type	_ZNSt15__new_allocatorIPiE10deallocateEPS0_m, @function
_ZNSt15__new_allocatorIPiE10deallocateEPS0_m:
.LFB11715:
	.cfi_startproc
	endbr64
	pushq	%rbp
	.cfi_def_cfa_offset 16
	.cfi_offset 6, -16
	movq	%rsp, %rbp
	.cfi_def_cfa_register 6
	subq	$32, %rsp
	movq	%rdi, -8(%rbp)
	movq	%rsi, -16(%rbp)
	movq	%rdx, -24(%rbp)
	movq	-24(%rbp), %rax
	leaq	0(,%rax,8), %rdx
	movq	-16(%rbp), %rax
	movq	%rdx, %rsi
	movq	%rax, %rdi
	call	_ZdlPvm@PLT
	leave
	.cfi_def_cfa 7, 8
	ret
	.cfi_endproc
.LFE11715:
	.size	_ZNSt15__new_allocatorIPiE10deallocateEPS0_m, .-_ZNSt15__new_allocatorIPiE10deallocateEPS0_m
	.section	.text._ZNSt15__new_allocatorImE8allocateEmPKv,"axG",@progbits,_ZNSt15__new_allocatorImE8allocateEmPKv,comdat
	.align 2
	.weak	_ZNSt15__new_allocatorImE8allocateEmPKv
	.type	_ZNSt15__new_allocatorImE8allocateEmPKv, @function
_ZNSt15__new_allocatorImE8allocateEmPKv:
.LFB11720:
	.cfi_startproc
	endbr64
	pushq	%rbp
	.cfi_def_cfa_offset 16
	.cfi_offset 6, -16
	movq	%rsp, %rbp
	.cfi_def_cfa_register 6
	subq	$48, %rsp
	movq	%rdi, -24(%rbp)
	movq	%rsi, -32(%rbp)
	movq	%rdx, -40(%rbp)
	movq	-24(%rbp), %rax
	movq	%rax, -8(%rbp)
	movabsq	$1152921504606846975, %rax
	cmpq	-32(%rbp), %rax
	setb	%al
	movzbl	%al, %eax
	testq	%rax, %rax
	setne	%al
	testb	%al, %al
	je	.L487
	movabsq	$2305843009213693951, %rax
	cmpq	-32(%rbp), %rax
	jnb	.L488
	call	_ZSt28__throw_bad_array_new_lengthv@PLT
.L488:
	call	_ZSt17__throw_bad_allocv@PLT
.L487:
	movq	-32(%rbp), %rax
	salq	$3, %rax
	movq	%rax, %rdi
	call	_Znwm@PLT
	nop
	leave
	.cfi_def_cfa 7, 8
	ret
	.cfi_endproc
.LFE11720:
	.size	_ZNSt15__new_allocatorImE8allocateEmPKv, .-_ZNSt15__new_allocatorImE8allocateEmPKv
	.section	.text._ZNSt8_Rb_treeIiSt4pairIKiSt6vectorIiSaIiEEESt10_Select1stIS5_ESt4lessIiESaIS5_EE21_M_get_Node_allocatorEv,"axG",@progbits,_ZNSt8_Rb_treeIiSt4pairIKiSt6vectorIiSaIiEEESt10_Select1stIS5_ESt4lessIiESaIS5_EE21_M_get_Node_allocatorEv,comdat
	.align 2
	.weak	_ZNSt8_Rb_treeIiSt4pairIKiSt6vectorIiSaIiEEESt10_Select1stIS5_ESt4lessIiESaIS5_EE21_M_get_Node_allocatorEv
	.type	_ZNSt8_Rb_treeIiSt4pairIKiSt6vectorIiSaIiEEESt10_Select1stIS5_ESt4lessIiESaIS5_EE21_M_get_Node_allocatorEv, @function
_ZNSt8_Rb_treeIiSt4pairIKiSt6vectorIiSaIiEEESt10_Select1stIS5_ESt4lessIiESaIS5_EE21_M_get_Node_allocatorEv:
.LFB11721:
	.cfi_startproc
	endbr64
	pushq	%rbp
	.cfi_def_cfa_offset 16
	.cfi_offset 6, -16
	movq	%rsp, %rbp
	.cfi_def_cfa_register 6
	movq	%rdi, -8(%rbp)
	movq	-8(%rbp), %rax
	popq	%rbp
	.cfi_def_cfa 7, 8
	ret
	.cfi_endproc
.LFE11721:
	.size	_ZNSt8_Rb_treeIiSt4pairIKiSt6vectorIiSaIiEEESt10_Select1stIS5_ESt4lessIiESaIS5_EE21_M_get_Node_allocatorEv, .-_ZNSt8_Rb_treeIiSt4pairIKiSt6vectorIiSaIiEEESt10_Select1stIS5_ESt4lessIiESaIS5_EE21_M_get_Node_allocatorEv
	.section	.text._ZStmiRKSt15_Deque_iteratorIiRiPiES4_,"axG",@progbits,_ZStmiRKSt15_Deque_iteratorIiRiPiES4_,comdat
	.weak	_ZStmiRKSt15_Deque_iteratorIiRiPiES4_
	.type	_ZStmiRKSt15_Deque_iteratorIiRiPiES4_, @function
_ZStmiRKSt15_Deque_iteratorIiRiPiES4_:
.LFB11724:
	.cfi_startproc
	endbr64
	pushq	%rbp
	.cfi_def_cfa_offset 16
	.cfi_offset 6, -16
	movq	%rsp, %rbp
	.cfi_def_cfa_register 6
	subq	$16, %rsp
	movq	%rdi, -8(%rbp)
	movq	%rsi, -16(%rbp)
	call	_ZNSt15_Deque_iteratorIiRiPiE14_S_buffer_sizeEv
	movq	%rax, %rcx
	movq	-8(%rbp), %rax
	movq	24(%rax), %rdx
	movq	-16(%rbp), %rax
	movq	24(%rax), %rax
	subq	%rax, %rdx
	movq	%rdx, %rax
	sarq	$3, %rax
	movq	%rax, %rdx
	movq	-8(%rbp), %rax
	movq	24(%rax), %rax
	testq	%rax, %rax
	setne	%al
	movzbl	%al, %eax
	subq	%rax, %rdx
	imulq	%rcx, %rdx
	movq	-8(%rbp), %rax
	movq	(%rax), %rcx
	movq	-8(%rbp), %rax
	movq	8(%rax), %rax
	subq	%rax, %rcx
	movq	%rcx, %rax
	sarq	$2, %rax
	leaq	(%rdx,%rax), %rcx
	movq	-16(%rbp), %rax
	movq	16(%rax), %rdx
	movq	-16(%rbp), %rax
	movq	(%rax), %rax
	subq	%rax, %rdx
	movq	%rdx, %rax
	sarq	$2, %rax
	addq	%rcx, %rax
	leave
	.cfi_def_cfa 7, 8
	ret
	.cfi_endproc
.LFE11724:
	.size	_ZStmiRKSt15_Deque_iteratorIiRiPiES4_, .-_ZStmiRKSt15_Deque_iteratorIiRiPiES4_
	.section	.text._ZNSt5dequeIiSaIiEE11_S_max_sizeERKS0_,"axG",@progbits,_ZNSt5dequeIiSaIiEE11_S_max_sizeERKS0_,comdat
	.weak	_ZNSt5dequeIiSaIiEE11_S_max_sizeERKS0_
	.type	_ZNSt5dequeIiSaIiEE11_S_max_sizeERKS0_, @function
_ZNSt5dequeIiSaIiEE11_S_max_sizeERKS0_:
.LFB11725:
	.cfi_startproc
	endbr64
	pushq	%rbp
	.cfi_def_cfa_offset 16
	.cfi_offset 6, -16
	movq	%rsp, %rbp
	.cfi_def_cfa_register 6
	subq	$64, %rsp
	movq	%rdi, -56(%rbp)
	movq	%fs:40, %rax
	movq	%rax, -8(%rbp)
	xorl	%eax, %eax
	movabsq	$9223372036854775807, %rax
	movq	%rax, -48(%rbp)
	movq	-56(%rbp), %rax
	movq	%rax, -32(%rbp)
	movq	-32(%rbp), %rax
	movq	%rax, -24(%rbp)
	movq	-24(%rbp), %rax
	movq	%rax, -16(%rbp)
	movabsq	$2305843009213693951, %rax
	nop
	nop
	movq	%rax, -40(%rbp)
	leaq	-40(%rbp), %rdx
	leaq	-48(%rbp), %rax
	movq	%rdx, %rsi
	movq	%rax, %rdi
	call	_ZSt3minImERKT_S2_S2_
	movq	(%rax), %rax
	movq	-8(%rbp), %rdx
	subq	%fs:40, %rdx
	je	.L499
	call	__stack_chk_fail@PLT
.L499:
	leave
	.cfi_def_cfa 7, 8
	ret
	.cfi_endproc
.LFE11725:
	.size	_ZNSt5dequeIiSaIiEE11_S_max_sizeERKS0_, .-_ZNSt5dequeIiSaIiEE11_S_max_sizeERKS0_
	.section	.text._ZNSt5dequeIiSaIiEE17_M_reallocate_mapEmb,"axG",@progbits,_ZNSt5dequeIiSaIiEE17_M_reallocate_mapEmb,comdat
	.align 2
	.weak	_ZNSt5dequeIiSaIiEE17_M_reallocate_mapEmb
	.type	_ZNSt5dequeIiSaIiEE17_M_reallocate_mapEmb, @function
_ZNSt5dequeIiSaIiEE17_M_reallocate_mapEmb:
.LFB11726:
	.cfi_startproc
	endbr64
	pushq	%rbp
	.cfi_def_cfa_offset 16
	.cfi_offset 6, -16
	movq	%rsp, %rbp
	.cfi_def_cfa_register 6
	pushq	%rbx
	subq	$88, %rsp
	.cfi_offset 3, -24
	movq	%rdi, -72(%rbp)
	movq	%rsi, -80(%rbp)
	movl	%edx, %eax
	movb	%al, -84(%rbp)
	movq	-72(%rbp), %rax
	movq	72(%rax), %rdx
	movq	-72(%rbp), %rax
	movq	40(%rax), %rax
	subq	%rax, %rdx
	movq	%rdx, %rax
	sarq	$3, %rax
	addq	$1, %rax
	movq	%rax, -48(%rbp)
	movq	-80(%rbp), %rdx
	movq	-48(%rbp), %rax
	addq	%rdx, %rax
	movq	%rax, -40(%rbp)
	movq	-72(%rbp), %rax
	movq	8(%rax), %rax
	movq	-40(%rbp), %rdx
	addq	%rdx, %rdx
	cmpq	%rax, %rdx
	jnb	.L501
	movq	-72(%rbp), %rax
	movq	(%rax), %rdx
	movq	-72(%rbp), %rax
	movq	8(%rax), %rax
	subq	-40(%rbp), %rax
	shrq	%rax
	leaq	0(,%rax,8), %rcx
	cmpb	$0, -84(%rbp)
	je	.L502
	movq	-80(%rbp), %rax
	salq	$3, %rax
	jmp	.L503
.L502:
	movl	$0, %eax
.L503:
	addq	%rcx, %rax
	addq	%rdx, %rax
	movq	%rax, -56(%rbp)
	movq	-72(%rbp), %rax
	movq	40(%rax), %rax
	cmpq	%rax, -56(%rbp)
	jnb	.L504
	movq	-72(%rbp), %rax
	movq	72(%rax), %rax
	leaq	8(%rax), %rcx
	movq	-72(%rbp), %rax
	movq	40(%rax), %rax
	movq	-56(%rbp), %rdx
	movq	%rcx, %rsi
	movq	%rax, %rdi
	call	_ZSt4copyIPPiS1_ET0_T_S3_S2_
	jmp	.L505
.L504:
	movq	-48(%rbp), %rax
	leaq	0(,%rax,8), %rdx
	movq	-56(%rbp), %rax
	addq	%rax, %rdx
	movq	-72(%rbp), %rax
	movq	72(%rax), %rax
	leaq	8(%rax), %rcx
	movq	-72(%rbp), %rax
	movq	40(%rax), %rax
	movq	%rcx, %rsi
	movq	%rax, %rdi
	call	_ZSt13copy_backwardIPPiS1_ET0_T_S3_S2_
	jmp	.L505
.L501:
	movq	-72(%rbp), %rax
	movq	8(%rax), %rbx
	movq	-72(%rbp), %rax
	leaq	8(%rax), %rdx
	leaq	-80(%rbp), %rax
	movq	%rax, %rsi
	movq	%rdx, %rdi
	call	_ZSt3maxImERKT_S2_S2_
	movq	(%rax), %rax
	addq	%rbx, %rax
	addq	$2, %rax
	movq	%rax, -32(%rbp)
	movq	-72(%rbp), %rax
	movq	-32(%rbp), %rdx
	movq	%rdx, %rsi
	movq	%rax, %rdi
	call	_ZNSt11_Deque_baseIiSaIiEE15_M_allocate_mapEm
	movq	%rax, -24(%rbp)
	movq	-32(%rbp), %rax
	subq	-40(%rbp), %rax
	shrq	%rax
	leaq	0(,%rax,8), %rdx
	cmpb	$0, -84(%rbp)
	je	.L506
	movq	-80(%rbp), %rax
	salq	$3, %rax
	jmp	.L507
.L506:
	movl	$0, %eax
.L507:
	addq	%rax, %rdx
	movq	-24(%rbp), %rax
	addq	%rdx, %rax
	movq	%rax, -56(%rbp)
	movq	-72(%rbp), %rax
	movq	72(%rax), %rax
	leaq	8(%rax), %rcx
	movq	-72(%rbp), %rax
	movq	40(%rax), %rax
	movq	-56(%rbp), %rdx
	movq	%rcx, %rsi
	movq	%rax, %rdi
	call	_ZSt4copyIPPiS1_ET0_T_S3_S2_
	movq	-72(%rbp), %rax
	movq	-72(%rbp), %rdx
	movq	8(%rdx), %rdx
	movq	-72(%rbp), %rcx
	movq	(%rcx), %rcx
	movq	%rcx, %rsi
	movq	%rax, %rdi
	call	_ZNSt11_Deque_baseIiSaIiEE17_M_deallocate_mapEPPim
	movq	-72(%rbp), %rax
	movq	-24(%rbp), %rdx
	movq	%rdx, (%rax)
	movq	-72(%rbp), %rax
