	.file	"MEX.cpp"
	.text
	.section	.text._ZSt17__size_to_integerm,"axG",@progbits,_ZSt17__size_to_integerm,comdat
	.weak	_ZSt17__size_to_integerm
	.type	_ZSt17__size_to_integerm, @function
_ZSt17__size_to_integerm:
.LFB354:
	.cfi_startproc
	endbr64
	pushq	%rbp
	.cfi_def_cfa_offset 16
	.cfi_offset 6, -16
	movq	%rsp, %rbp
	.cfi_def_cfa_register 6
	movq	%rdi, -8(%rbp)
	movq	-8(%rbp), %rax
	popq	%rbp
	.cfi_def_cfa 7, 8
	ret
	.cfi_endproc
.LFE354:
	.size	_ZSt17__size_to_integerm, .-_ZSt17__size_to_integerm
	.section	.text._ZnwmPv,"axG",@progbits,_ZnwmPv,comdat
	.weak	_ZnwmPv
	.type	_ZnwmPv, @function
_ZnwmPv:
.LFB471:
	.cfi_startproc
	endbr64
	pushq	%rbp
	.cfi_def_cfa_offset 16
	.cfi_offset 6, -16
	movq	%rsp, %rbp
	.cfi_def_cfa_register 6
	movq	%rdi, -8(%rbp)
	movq	%rsi, -16(%rbp)
	movq	-16(%rbp), %rax
	popq	%rbp
	.cfi_def_cfa 7, 8
	ret
	.cfi_endproc
.LFE471:
	.size	_ZnwmPv, .-_ZnwmPv
	.section	.text._ZSt3minImERKT_S2_S2_,"axG",@progbits,_ZSt3minImERKT_S2_S2_,comdat
	.weak	_ZSt3minImERKT_S2_S2_
	.type	_ZSt3minImERKT_S2_S2_, @function
_ZSt3minImERKT_S2_S2_:
.LFB1923:
	.cfi_startproc
	endbr64
	pushq	%rbp
	.cfi_def_cfa_offset 16
	.cfi_offset 6, -16
	movq	%rsp, %rbp
	.cfi_def_cfa_register 6
	movq	%rdi, -8(%rbp)
	movq	%rsi, -16(%rbp)
	movq	-16(%rbp), %rax
	movq	(%rax), %rdx
	movq	-8(%rbp), %rax
	movq	(%rax), %rax
	cmpq	%rax, %rdx
	jnb	.L6
	movq	-16(%rbp), %rax
	jmp	.L7
.L6:
	movq	-8(%rbp), %rax
.L7:
	popq	%rbp
	.cfi_def_cfa 7, 8
	ret
	.cfi_endproc
.LFE1923:
	.size	_ZSt3minImERKT_S2_S2_, .-_ZSt3minImERKT_S2_S2_
	.section	.text._ZNSt14_Bit_referenceC2EPmm,"axG",@progbits,_ZNSt14_Bit_referenceC5EPmm,comdat
	.align 2
	.weak	_ZNSt14_Bit_referenceC2EPmm
	.type	_ZNSt14_Bit_referenceC2EPmm, @function
_ZNSt14_Bit_referenceC2EPmm:
.LFB2519:
	.cfi_startproc
	endbr64
	pushq	%rbp
	.cfi_def_cfa_offset 16
	.cfi_offset 6, -16
	movq	%rsp, %rbp
	.cfi_def_cfa_register 6
	movq	%rdi, -8(%rbp)
	movq	%rsi, -16(%rbp)
	movq	%rdx, -24(%rbp)
	movq	-8(%rbp), %rax
	movq	-16(%rbp), %rdx
	movq	%rdx, (%rax)
	movq	-8(%rbp), %rax
	movq	-24(%rbp), %rdx
	movq	%rdx, 8(%rax)
	nop
	popq	%rbp
	.cfi_def_cfa 7, 8
	ret
	.cfi_endproc
.LFE2519:
	.size	_ZNSt14_Bit_referenceC2EPmm, .-_ZNSt14_Bit_referenceC2EPmm
	.weak	_ZNSt14_Bit_referenceC1EPmm
	.set	_ZNSt14_Bit_referenceC1EPmm,_ZNSt14_Bit_referenceC2EPmm
	.section	.text._ZNKSt14_Bit_referencecvbEv,"axG",@progbits,_ZNKSt14_Bit_referencecvbEv,comdat
	.align 2
	.weak	_ZNKSt14_Bit_referencecvbEv
	.type	_ZNKSt14_Bit_referencecvbEv, @function
_ZNKSt14_Bit_referencecvbEv:
.LFB2524:
	.cfi_startproc
	endbr64
	pushq	%rbp
	.cfi_def_cfa_offset 16
	.cfi_offset 6, -16
	movq	%rsp, %rbp
	.cfi_def_cfa_register 6
	movq	%rdi, -8(%rbp)
	movq	-8(%rbp), %rax
	movq	(%rax), %rax
	movq	(%rax), %rdx
	movq	-8(%rbp), %rax
	movq	8(%rax), %rax
	andq	%rdx, %rax
	testq	%rax, %rax
	setne	%al
	popq	%rbp
	.cfi_def_cfa 7, 8
	ret
	.cfi_endproc
.LFE2524:
	.size	_ZNKSt14_Bit_referencecvbEv, .-_ZNKSt14_Bit_referencecvbEv
	.section	.text._ZNSt14_Bit_referenceaSEb,"axG",@progbits,_ZNSt14_Bit_referenceaSEb,comdat
	.align 2
	.weak	_ZNSt14_Bit_referenceaSEb
	.type	_ZNSt14_Bit_referenceaSEb, @function
_ZNSt14_Bit_referenceaSEb:
.LFB2525:
	.cfi_startproc
	endbr64
	pushq	%rbp
	.cfi_def_cfa_offset 16
	.cfi_offset 6, -16
	movq	%rsp, %rbp
	.cfi_def_cfa_register 6
	movq	%rdi, -8(%rbp)
	movl	%esi, %eax
	movb	%al, -12(%rbp)
	cmpb	$0, -12(%rbp)
	je	.L12
	movq	-8(%rbp), %rax
	movq	(%rax), %rax
	movq	(%rax), %rcx
	movq	-8(%rbp), %rax
	movq	8(%rax), %rdx
	movq	-8(%rbp), %rax
	movq	(%rax), %rax
	orq	%rcx, %rdx
	movq	%rdx, (%rax)
	jmp	.L13
.L12:
	movq	-8(%rbp), %rax
	movq	(%rax), %rax
	movq	(%rax), %rdx
	movq	-8(%rbp), %rax
	movq	8(%rax), %rax
	notq	%rax
	movq	%rax, %rcx
	movq	-8(%rbp), %rax
	movq	(%rax), %rax
	andq	%rcx, %rdx
	movq	%rdx, (%rax)
.L13:
	movq	-8(%rbp), %rax
	popq	%rbp
	.cfi_def_cfa 7, 8
	ret
	.cfi_endproc
.LFE2525:
	.size	_ZNSt14_Bit_referenceaSEb, .-_ZNSt14_Bit_referenceaSEb
	.section	.text._ZNSt18_Bit_iterator_baseC2EPmj,"axG",@progbits,_ZNSt18_Bit_iterator_baseC5EPmj,comdat
	.align 2
	.weak	_ZNSt18_Bit_iterator_baseC2EPmj
	.type	_ZNSt18_Bit_iterator_baseC2EPmj, @function
_ZNSt18_Bit_iterator_baseC2EPmj:
.LFB2535:
	.cfi_startproc
	endbr64
	pushq	%rbp
	.cfi_def_cfa_offset 16
	.cfi_offset 6, -16
	movq	%rsp, %rbp
	.cfi_def_cfa_register 6
	movq	%rdi, -8(%rbp)
	movq	%rsi, -16(%rbp)
	movl	%edx, -20(%rbp)
	movq	-8(%rbp), %rax
	movq	-16(%rbp), %rdx
	movq	%rdx, (%rax)
	movq	-8(%rbp), %rax
	movl	-20(%rbp), %edx
	movl	%edx, 8(%rax)
	nop
	popq	%rbp
	.cfi_def_cfa 7, 8
	ret
	.cfi_endproc
.LFE2535:
	.size	_ZNSt18_Bit_iterator_baseC2EPmj, .-_ZNSt18_Bit_iterator_baseC2EPmj
	.weak	_ZNSt18_Bit_iterator_baseC1EPmj
	.set	_ZNSt18_Bit_iterator_baseC1EPmj,_ZNSt18_Bit_iterator_baseC2EPmj
	.section	.text._ZNSt18_Bit_iterator_base7_M_incrEl,"axG",@progbits,_ZNSt18_Bit_iterator_base7_M_incrEl,comdat
	.align 2
	.weak	_ZNSt18_Bit_iterator_base7_M_incrEl
	.type	_ZNSt18_Bit_iterator_base7_M_incrEl, @function
_ZNSt18_Bit_iterator_base7_M_incrEl:
.LFB2539:
	.cfi_startproc
	endbr64
	pushq	%rbp
	.cfi_def_cfa_offset 16
	.cfi_offset 6, -16
	movq	%rsp, %rbp
	.cfi_def_cfa_register 6
	movq	%rdi, -40(%rbp)
	movq	%rsi, -48(%rbp)
	movq	-40(%rbp), %rax
	movq	%rax, -8(%rbp)
	movq	-8(%rbp), %rax
	movl	8(%rax), %eax
	movl	%eax, -20(%rbp)
	cmpl	$63, -20(%rbp)
	nop
	movq	-40(%rbp), %rax
	movl	8(%rax), %eax
	movl	%eax, %edx
	movq	-48(%rbp), %rax
	addq	%rdx, %rax
	movq	%rax, -16(%rbp)
	movq	-40(%rbp), %rax
	movq	(%rax), %rdx
	movq	-16(%rbp), %rax
	leaq	63(%rax), %rcx
	testq	%rax, %rax
	cmovs	%rcx, %rax
	sarq	$6, %rax
	salq	$3, %rax
	addq	%rax, %rdx
	movq	-40(%rbp), %rax
	movq	%rdx, (%rax)
	movq	-16(%rbp), %rdx
	movq	%rdx, %rax
	sarq	$63, %rax
	shrq	$58, %rax
	addq	%rax, %rdx
	andl	$63, %edx
	subq	%rax, %rdx
	movq	%rdx, -16(%rbp)
	cmpq	$0, -16(%rbp)
	jns	.L18
	addq	$64, -16(%rbp)
	movq	-40(%rbp), %rax
	movq	(%rax), %rax
	leaq	-8(%rax), %rdx
	movq	-40(%rbp), %rax
	movq	%rdx, (%rax)
.L18:
	movq	-16(%rbp), %rax
	movl	%eax, %edx
	movq	-40(%rbp), %rax
	movl	%edx, 8(%rax)
	nop
	popq	%rbp
	.cfi_def_cfa 7, 8
	ret
	.cfi_endproc
.LFE2539:
	.size	_ZNSt18_Bit_iterator_base7_M_incrEl, .-_ZNSt18_Bit_iterator_base7_M_incrEl
	.section	.text._ZNSt13_Bit_iteratorC2Ev,"axG",@progbits,_ZNSt13_Bit_iteratorC5Ev,comdat
	.align 2
	.weak	_ZNSt13_Bit_iteratorC2Ev
	.type	_ZNSt13_Bit_iteratorC2Ev, @function
_ZNSt13_Bit_iteratorC2Ev:
.LFB2548:
	.cfi_startproc
	endbr64
	pushq	%rbp
	.cfi_def_cfa_offset 16
	.cfi_offset 6, -16
	movq	%rsp, %rbp
	.cfi_def_cfa_register 6
	subq	$16, %rsp
	movq	%rdi, -8(%rbp)
	movq	-8(%rbp), %rax
	movl	$0, %edx
	movl	$0, %esi
	movq	%rax, %rdi
	call	_ZNSt18_Bit_iterator_baseC2EPmj
	nop
	leave
	.cfi_def_cfa 7, 8
	ret
	.cfi_endproc
.LFE2548:
	.size	_ZNSt13_Bit_iteratorC2Ev, .-_ZNSt13_Bit_iteratorC2Ev
	.weak	_ZNSt13_Bit_iteratorC1Ev
	.set	_ZNSt13_Bit_iteratorC1Ev,_ZNSt13_Bit_iteratorC2Ev
	.section	.text._ZNSt13_Bit_iteratorC2EPmj,"axG",@progbits,_ZNSt13_Bit_iteratorC5EPmj,comdat
	.align 2
	.weak	_ZNSt13_Bit_iteratorC2EPmj
	.type	_ZNSt13_Bit_iteratorC2EPmj, @function
_ZNSt13_Bit_iteratorC2EPmj:
.LFB2551:
	.cfi_startproc
	endbr64
	pushq	%rbp
	.cfi_def_cfa_offset 16
	.cfi_offset 6, -16
	movq	%rsp, %rbp
	.cfi_def_cfa_register 6
	subq	$32, %rsp
	movq	%rdi, -8(%rbp)
	movq	%rsi, -16(%rbp)
	movl	%edx, -20(%rbp)
	movq	-8(%rbp), %rax
	movl	-20(%rbp), %edx
	movq	-16(%rbp), %rcx
	movq	%rcx, %rsi
	movq	%rax, %rdi
	call	_ZNSt18_Bit_iterator_baseC2EPmj
	nop
	leave
	.cfi_def_cfa 7, 8
	ret
	.cfi_endproc
.LFE2551:
	.size	_ZNSt13_Bit_iteratorC2EPmj, .-_ZNSt13_Bit_iteratorC2EPmj
	.weak	_ZNSt13_Bit_iteratorC1EPmj
	.set	_ZNSt13_Bit_iteratorC1EPmj,_ZNSt13_Bit_iteratorC2EPmj
	.section	.text._ZNKSt13_Bit_iteratordeEv,"axG",@progbits,_ZNKSt13_Bit_iteratordeEv,comdat
	.align 2
	.weak	_ZNKSt13_Bit_iteratordeEv
	.type	_ZNKSt13_Bit_iteratordeEv, @function
_ZNKSt13_Bit_iteratordeEv:
.LFB2554:
	.cfi_startproc
	endbr64
	pushq	%rbp
	.cfi_def_cfa_offset 16
	.cfi_offset 6, -16
	movq	%rsp, %rbp
	.cfi_def_cfa_register 6
	subq	$64, %rsp
	movq	%rdi, -56(%rbp)
	movq	%fs:40, %rax
	movq	%rax, -8(%rbp)
	xorl	%eax, %eax
	movq	-56(%rbp), %rax
	movq	%rax, -40(%rbp)
	movq	-40(%rbp), %rax
	movl	8(%rax), %eax
	movl	%eax, -44(%rbp)
	cmpl	$63, -44(%rbp)
	nop
	movq	-56(%rbp), %rax
	movl	8(%rax), %eax
	movl	$1, %edx
	movl	%eax, %ecx
	salq	%cl, %rdx
	movq	-56(%rbp), %rax
	movq	(%rax), %rcx
	leaq	-32(%rbp), %rax
	movq	%rcx, %rsi
	movq	%rax, %rdi
	call	_ZNSt14_Bit_referenceC1EPmm
	movq	-32(%rbp), %rax
	movq	-24(%rbp), %rdx
	movq	-8(%rbp), %rcx
	subq	%fs:40, %rcx
	je	.L25
	call	__stack_chk_fail@PLT
.L25:
	leave
	.cfi_def_cfa 7, 8
	ret
	.cfi_endproc
.LFE2554:
	.size	_ZNKSt13_Bit_iteratordeEv, .-_ZNKSt13_Bit_iteratordeEv
	.section	.text._ZNSt13_Bit_iteratorpLEl,"axG",@progbits,_ZNSt13_Bit_iteratorpLEl,comdat
	.align 2
	.weak	_ZNSt13_Bit_iteratorpLEl
	.type	_ZNSt13_Bit_iteratorpLEl, @function
_ZNSt13_Bit_iteratorpLEl:
.LFB2559:
	.cfi_startproc
	endbr64
	pushq	%rbp
	.cfi_def_cfa_offset 16
	.cfi_offset 6, -16
	movq	%rsp, %rbp
	.cfi_def_cfa_register 6
	subq	$16, %rsp
	movq	%rdi, -8(%rbp)
	movq	%rsi, -16(%rbp)
	movq	-8(%rbp), %rax
	movq	-16(%rbp), %rdx
	movq	%rdx, %rsi
	movq	%rax, %rdi
	call	_ZNSt18_Bit_iterator_base7_M_incrEl
	movq	-8(%rbp), %rax
	leave
	.cfi_def_cfa 7, 8
	ret
	.cfi_endproc
.LFE2559:
	.size	_ZNSt13_Bit_iteratorpLEl, .-_ZNSt13_Bit_iteratorpLEl
	.section	.text._ZNKSt13_Bit_iteratorixEl,"axG",@progbits,_ZNKSt13_Bit_iteratorixEl,comdat
	.align 2
	.weak	_ZNKSt13_Bit_iteratorixEl
	.type	_ZNKSt13_Bit_iteratorixEl, @function
_ZNKSt13_Bit_iteratorixEl:
.LFB2561:
	.cfi_startproc
	endbr64
	pushq	%rbp
	.cfi_def_cfa_offset 16
	.cfi_offset 6, -16
	movq	%rsp, %rbp
	.cfi_def_cfa_register 6
	subq	$48, %rsp
	movq	%rdi, -40(%rbp)
	movq	%rsi, -48(%rbp)
	movq	%fs:40, %rax
	movq	%rax, -8(%rbp)
	xorl	%eax, %eax
	movq	-48(%rbp), %rdx
	movq	-40(%rbp), %rax
	movq	%rdx, %rsi
	movq	%rax, %rdi
	call	_ZStplRKSt13_Bit_iteratorl
	movq	%rax, -32(%rbp)
	movq	%rdx, -24(%rbp)
	leaq	-32(%rbp), %rax
	movq	%rax, %rdi
	call	_ZNKSt13_Bit_iteratordeEv
	movq	-8(%rbp), %rcx
	subq	%fs:40, %rcx
	je	.L31
	call	__stack_chk_fail@PLT
.L31:
	leave
	.cfi_def_cfa 7, 8
	ret
	.cfi_endproc
.LFE2561:
	.size	_ZNKSt13_Bit_iteratorixEl, .-_ZNKSt13_Bit_iteratorixEl
	.section	.text._ZStplRKSt13_Bit_iteratorl,"axG",@progbits,_ZStplRKSt13_Bit_iteratorl,comdat
	.weak	_ZStplRKSt13_Bit_iteratorl
	.type	_ZStplRKSt13_Bit_iteratorl, @function
_ZStplRKSt13_Bit_iteratorl:
.LFB2562:
	.cfi_startproc
	endbr64
	pushq	%rbp
	.cfi_def_cfa_offset 16
	.cfi_offset 6, -16
	movq	%rsp, %rbp
	.cfi_def_cfa_register 6
	subq	$80, %rsp
	movq	%rdi, -56(%rbp)
	movq	%rsi, -64(%rbp)
	movq	%fs:40, %rax
	movq	%rax, -8(%rbp)
	xorl	%eax, %eax
	movq	-56(%rbp), %rax
	movq	8(%rax), %rdx
	movq	(%rax), %rax
	movq	%rax, -48(%rbp)
	movq	%rdx, -40(%rbp)
	movq	-64(%rbp), %rdx
	leaq	-48(%rbp), %rax
	movq	%rdx, %rsi
	movq	%rax, %rdi
	call	_ZNSt13_Bit_iteratorpLEl
	movq	-48(%rbp), %rax
	movq	-40(%rbp), %rdx
	movq	%rax, -32(%rbp)
	movq	%rdx, -24(%rbp)
	movq	-32(%rbp), %rax
	movq	-24(%rbp), %rdx
	movq	-8(%rbp), %rcx
	subq	%fs:40, %rcx
	je	.L34
	call	__stack_chk_fail@PLT
.L34:
	leave
	.cfi_def_cfa 7, 8
	ret
	.cfi_endproc
.LFE2562:
	.size	_ZStplRKSt13_Bit_iteratorl, .-_ZStplRKSt13_Bit_iteratorl
	.section	.text._ZSt16__fill_bvector_nPmmb,"axG",@progbits,_ZSt16__fill_bvector_nPmmb,comdat
	.weak	_ZSt16__fill_bvector_nPmmb
	.type	_ZSt16__fill_bvector_nPmmb, @function
_ZSt16__fill_bvector_nPmmb:
.LFB2679:
	.cfi_startproc
	endbr64
	pushq	%rbp
	.cfi_def_cfa_offset 16
	.cfi_offset 6, -16
	movq	%rsp, %rbp
	.cfi_def_cfa_register 6
	subq	$32, %rsp
	movq	%rdi, -8(%rbp)
	movq	%rsi, -16(%rbp)
	movl	%edx, %eax
	movb	%al, -20(%rbp)
	movq	-16(%rbp), %rax
	leaq	0(,%rax,8), %rdx
	cmpb	$0, -20(%rbp)
	je	.L36
	movl	$-1, %ecx
	jmp	.L37
.L36:
	movl	$0, %ecx
.L37:
	movq	-8(%rbp), %rax
	movl	%ecx, %esi
	movq	%rax, %rdi
	call	memset@PLT
	nop
	leave
	.cfi_def_cfa 7, 8
	ret
	.cfi_endproc
.LFE2679:
	.size	_ZSt16__fill_bvector_nPmmb, .-_ZSt16__fill_bvector_nPmmb
#APP
	.globl _ZSt21ios_base_library_initv
#NO_APP
	.text
	.globl	_Z3mexRSt6vectorIiSaIiEE
	.type	_Z3mexRSt6vectorIiSaIiEE, @function
_Z3mexRSt6vectorIiSaIiEE:
.LFB9770:
	.cfi_startproc
	.cfi_personality 0x9b,DW.ref.__gxx_personality_v0
	.cfi_lsda 0x1b,.LLSDA9770
	endbr64
	pushq	%rbp
	.cfi_def_cfa_offset 16
	.cfi_offset 6, -16
	movq	%rsp, %rbp
	.cfi_def_cfa_register 6
	pushq	%rbx
	subq	$136, %rsp
	.cfi_offset 3, -24
	movq	%rdi, -136(%rbp)
	movq	%fs:40, %rax
	movq	%rax, -24(%rbp)
	xorl	%eax, %eax
	leaq	-80(%rbp), %rax
	movq	%rax, -88(%rbp)
	nop
	nop
	movb	$0, -112(%rbp)
	movq	-136(%rbp), %rax
	movq	%rax, %rdi
	call	_ZNKSt6vectorIiSaIiEE4sizeEv
	leaq	1(%rax), %rsi
	leaq	-80(%rbp), %rcx
	leaq	-112(%rbp), %rdx
	leaq	-64(%rbp), %rax
	movq	%rax, %rdi
.LEHB0:
	call	_ZNSt6vectorIbSaIbEEC1EmRKbRKS0_
.LEHE0:
	leaq	-80(%rbp), %rax
	movq	%rax, %rdi
	call	_ZNSt15__new_allocatorIbED2Ev
	nop
	movq	-136(%rbp), %rax
	movq	%rax, -104(%rbp)
	movq	-104(%rbp), %rax
	movq	%rax, %rdi
	call	_ZNSt6vectorIiSaIiEE5beginEv
	movq	%rax, -120(%rbp)
	movq	-104(%rbp), %rax
	movq	%rax, %rdi
	call	_ZNSt6vectorIiSaIiEE3endEv
	movq	%rax, -112(%rbp)
	jmp	.L39
.L41:
	leaq	-120(%rbp), %rax
	movq	%rax, %rdi
	call	_ZNK9__gnu_cxx17__normal_iteratorIPiSt6vectorIiSaIiEEEdeEv
	movq	%rax, -96(%rbp)
	movq	-96(%rbp), %rax
	movl	(%rax), %ebx
	movq	-136(%rbp), %rax
	movq	%rax, %rdi
	call	_ZNKSt6vectorIiSaIiEE4sizeEv
	cmpl	%eax, %ebx
	setle	%al
	testb	%al, %al
	je	.L40
	movq	-96(%rbp), %rax
	movl	(%rax), %eax
	movslq	%eax, %rdx
	leaq	-64(%rbp), %rax
	movq	%rdx, %rsi
	movq	%rax, %rdi
.LEHB1:
	call	_ZNSt6vectorIbSaIbEEixEm
	movq	%rax, -80(%rbp)
	movq	%rdx, -72(%rbp)
	leaq	-80(%rbp), %rax
	movl	$1, %esi
	movq	%rax, %rdi
	call	_ZNSt14_Bit_referenceaSEb
.L40:
	leaq	-120(%rbp), %rax
	movq	%rax, %rdi
	call	_ZN9__gnu_cxx17__normal_iteratorIPiSt6vectorIiSaIiEEEppEv
.L39:
	leaq	-112(%rbp), %rdx
	leaq	-120(%rbp), %rax
	movq	%rdx, %rsi
	movq	%rax, %rdi
	call	_ZN9__gnu_cxxneIPiSt6vectorIiSaIiEEEEbRKNS_17__normal_iteratorIT_T0_EESA_
	testb	%al, %al
	jne	.L41
	movl	$0, -124(%rbp)
	jmp	.L42
.L43:
	addl	$1, -124(%rbp)
.L42:
	movl	-124(%rbp), %eax
	movslq	%eax, %rdx
	leaq	-64(%rbp), %rax
	movq	%rdx, %rsi
	movq	%rax, %rdi
	call	_ZNSt6vectorIbSaIbEEixEm
.LEHE1:
	movq	%rax, -80(%rbp)
	movq	%rdx, -72(%rbp)
	leaq	-80(%rbp), %rax
	movq	%rax, %rdi
	call	_ZNKSt14_Bit_referencecvbEv
	testb	%al, %al
	jne	.L43
	movl	-124(%rbp), %ebx
	leaq	-64(%rbp), %rax
	movq	%rax, %rdi
	call	_ZNSt6vectorIbSaIbEED1Ev
	movl	%ebx, %eax
	movq	-24(%rbp), %rdx
	subq	%fs:40, %rdx
	je	.L49
	jmp	.L52
.L50:
	endbr64
	movq	%rax, %rbx
	leaq	-80(%rbp), %rax
	movq	%rax, %rdi
	call	_ZNSt15__new_allocatorIbED2Ev
	nop
	movq	%rbx, %rax
	movq	-24(%rbp), %rdx
	subq	%fs:40, %rdx
	je	.L46
	call	__stack_chk_fail@PLT
.L46:
	movq	%rax, %rdi
.LEHB2:
	call	_Unwind_Resume@PLT
.L51:
	endbr64
	movq	%rax, %rbx
	leaq	-64(%rbp), %rax
	movq	%rax, %rdi
	call	_ZNSt6vectorIbSaIbEED1Ev
	movq	%rbx, %rax
	movq	-24(%rbp), %rdx
	subq	%fs:40, %rdx
	je	.L48
	call	__stack_chk_fail@PLT
.L48:
	movq	%rax, %rdi
	call	_Unwind_Resume@PLT
.LEHE2:
.L52:
	call	__stack_chk_fail@PLT
.L49:
	movq	-8(%rbp), %rbx
	leave
	.cfi_def_cfa 7, 8
	ret
	.cfi_endproc
.LFE9770:
	.globl	__gxx_personality_v0
	.section	.gcc_except_table,"a",@progbits
.LLSDA9770:
	.byte	0xff
	.byte	0xff
	.byte	0x1
	.uleb128 .LLSDACSE9770-.LLSDACSB9770
.LLSDACSB9770:
	.uleb128 .LEHB0-.LFB9770
	.uleb128 .LEHE0-.LEHB0
	.uleb128 .L50-.LFB9770
	.uleb128 0
	.uleb128 .LEHB1-.LFB9770
	.uleb128 .LEHE1-.LEHB1
	.uleb128 .L51-.LFB9770
	.uleb128 0
	.uleb128 .LEHB2-.LFB9770
	.uleb128 .LEHE2-.LEHB2
	.uleb128 0
	.uleb128 0
.LLSDACSE9770:
	.text
	.size	_Z3mexRSt6vectorIiSaIiEE, .-_Z3mexRSt6vectorIiSaIiEE
	.section	.rodata
.LC0:
	.string	"\n"
	.text
	.globl	main
	.type	main, @function
main:
.LFB9771:
	.cfi_startproc
	.cfi_personality 0x9b,DW.ref.__gxx_personality_v0
	.cfi_lsda 0x1b,.LLSDA9771
	endbr64
	pushq	%rbp
	.cfi_def_cfa_offset 16
	.cfi_offset 6, -16
	movq	%rsp, %rbp
	.cfi_def_cfa_register 6
	pushq	%rbx
	subq	$72, %rsp
	.cfi_offset 3, -24
	movq	%fs:40, %rax
	movq	%rax, -24(%rbp)
	xorl	%eax, %eax
	movl	$0, %edi
.LEHB3:
	call	_ZNSt8ios_base15sync_with_stdioEb@PLT
	movl	$0, %esi
	leaq	16+_ZSt3cin(%rip), %rax
	movq	%rax, %rdi
	call	_ZNSt9basic_iosIcSt11char_traitsIcEE3tieEPSo@PLT
	leaq	-64(%rbp), %rax
	movq	%rax, %rsi
	leaq	_ZSt3cin(%rip), %rax
	movq	%rax, %rdi
	call	_ZNSirsERi@PLT
.LEHE3:
	leaq	-65(%rbp), %rax
	movq	%rax, -56(%rbp)
	nop
	nop
	movl	-64(%rbp), %eax
	movslq	%eax, %rcx
	leaq	-65(%rbp), %rdx
	leaq	-48(%rbp), %rax
	movq	%rcx, %rsi
	movq	%rax, %rdi
.LEHB4:
	call	_ZNSt6vectorIiSaIiEEC1EmRKS0_
.LEHE4:
	leaq	-65(%rbp), %rax
	movq	%rax, %rdi
	call	_ZNSt15__new_allocatorIiED2Ev
	nop
	movl	$0, -60(%rbp)
	jmp	.L54
.L55:
	movl	-60(%rbp), %eax
	movslq	%eax, %rdx
	leaq	-48(%rbp), %rax
	movq	%rdx, %rsi
	movq	%rax, %rdi
	call	_ZNSt6vectorIiSaIiEEixEm
	movq	%rax, %rsi
	leaq	_ZSt3cin(%rip), %rax
	movq	%rax, %rdi
.LEHB5:
	call	_ZNSirsERi@PLT
	addl	$1, -60(%rbp)
.L54:
	movl	-64(%rbp), %eax
	cmpl	%eax, -60(%rbp)
	jl	.L55
	leaq	-48(%rbp), %rax
	movq	%rax, %rdi
	call	_Z3mexRSt6vectorIiSaIiEE
	movl	%eax, %esi
	leaq	_ZSt4cout(%rip), %rax
	movq	%rax, %rdi
	call	_ZNSolsEi@PLT
	movq	%rax, %rdx
	leaq	.LC0(%rip), %rax
	movq	%rax, %rsi
	movq	%rdx, %rdi
	call	_ZStlsISt11char_traitsIcEERSt13basic_ostreamIcT_ES5_PKc@PLT
.LEHE5:
	movl	$0, %ebx
	leaq	-48(%rbp), %rax
	movq	%rax, %rdi
	call	_ZNSt6vectorIiSaIiEED1Ev
	movl	%ebx, %eax
	movq	-24(%rbp), %rdx
	subq	%fs:40, %rdx
	je	.L61
	jmp	.L64
.L62:
	endbr64
	movq	%rax, %rbx
	leaq	-65(%rbp), %rax
	movq	%rax, %rdi
	call	_ZNSt15__new_allocatorIiED2Ev
	nop
	movq	%rbx, %rax
	movq	-24(%rbp), %rdx
	subq	%fs:40, %rdx
	je	.L58
	call	__stack_chk_fail@PLT
.L58:
	movq	%rax, %rdi
.LEHB6:
	call	_Unwind_Resume@PLT
.L63:
	endbr64
	movq	%rax, %rbx
	leaq	-48(%rbp), %rax
	movq	%rax, %rdi
	call	_ZNSt6vectorIiSaIiEED1Ev
	movq	%rbx, %rax
	movq	-24(%rbp), %rdx
	subq	%fs:40, %rdx
	je	.L60
	call	__stack_chk_fail@PLT
.L60:
	movq	%rax, %rdi
	call	_Unwind_Resume@PLT
.LEHE6:
.L64:
	call	__stack_chk_fail@PLT
.L61:
	movq	-8(%rbp), %rbx
	leave
	.cfi_def_cfa 7, 8
	ret
	.cfi_endproc
.LFE9771:
	.section	.gcc_except_table
.LLSDA9771:
	.byte	0xff
	.byte	0xff
	.byte	0x1
	.uleb128 .LLSDACSE9771-.LLSDACSB9771
.LLSDACSB9771:
	.uleb128 .LEHB3-.LFB9771
	.uleb128 .LEHE3-.LEHB3
	.uleb128 0
	.uleb128 0
	.uleb128 .LEHB4-.LFB9771
	.uleb128 .LEHE4-.LEHB4
	.uleb128 .L62-.LFB9771
	.uleb128 0
	.uleb128 .LEHB5-.LFB9771
	.uleb128 .LEHE5-.LEHB5
	.uleb128 .L63-.LFB9771
	.uleb128 0
	.uleb128 .LEHB6-.LFB9771
	.uleb128 .LEHE6-.LEHB6
	.uleb128 0
	.uleb128 0
.LLSDACSE9771:
	.text
	.size	main, .-main
	.section	.text._ZNKSt6vectorIiSaIiEE4sizeEv,"axG",@progbits,_ZNKSt6vectorIiSaIiEE4sizeEv,comdat
	.align 2
	.weak	_ZNKSt6vectorIiSaIiEE4sizeEv
	.type	_ZNKSt6vectorIiSaIiEE4sizeEv, @function
_ZNKSt6vectorIiSaIiEE4sizeEv:
.LFB10457:
	.cfi_startproc
	endbr64
	pushq	%rbp
	.cfi_def_cfa_offset 16
	.cfi_offset 6, -16
	movq	%rsp, %rbp
	.cfi_def_cfa_register 6
	movq	%rdi, -8(%rbp)
	movq	-8(%rbp), %rax
	movq	8(%rax), %rdx
	movq	-8(%rbp), %rax
	movq	(%rax), %rax
	subq	%rax, %rdx
	movq	%rdx, %rax
	sarq	$2, %rax
	popq	%rbp
	.cfi_def_cfa 7, 8
	ret
	.cfi_endproc
.LFE10457:
	.size	_ZNKSt6vectorIiSaIiEE4sizeEv, .-_ZNKSt6vectorIiSaIiEE4sizeEv
	.section	.text._ZNSt6vectorIbSaIbEEC2EmRKbRKS0_,"axG",@progbits,_ZNSt6vectorIbSaIbEEC5EmRKbRKS0_,comdat
	.align 2
	.weak	_ZNSt6vectorIbSaIbEEC2EmRKbRKS0_
	.type	_ZNSt6vectorIbSaIbEEC2EmRKbRKS0_, @function
_ZNSt6vectorIbSaIbEEC2EmRKbRKS0_:
.LFB10465:
	.cfi_startproc
	.cfi_personality 0x9b,DW.ref.__gxx_personality_v0
	.cfi_lsda 0x1b,.LLSDA10465
	endbr64
	pushq	%rbp
	.cfi_def_cfa_offset 16
	.cfi_offset 6, -16
	movq	%rsp, %rbp
	.cfi_def_cfa_register 6
	pushq	%rbx
	subq	$40, %rsp
	.cfi_offset 3, -24
	movq	%rdi, -24(%rbp)
	movq	%rsi, -32(%rbp)
	movq	%rdx, -40(%rbp)
	movq	%rcx, -48(%rbp)
	movq	-24(%rbp), %rax
	movq	-48(%rbp), %rdx
	movq	%rdx, %rsi
	movq	%rax, %rdi
	call	_ZNSt13_Bvector_baseISaIbEEC2ERKS0_
	movq	-32(%rbp), %rdx
	movq	-24(%rbp), %rax
	movq	%rdx, %rsi
	movq	%rax, %rdi
.LEHB7:
	call	_ZNSt6vectorIbSaIbEE13_M_initializeEm
.LEHE7:
	movq	-40(%rbp), %rax
	movzbl	(%rax), %eax
	movzbl	%al, %edx
	movq	-24(%rbp), %rax
	movl	%edx, %esi
	movq	%rax, %rdi
	call	_ZNSt6vectorIbSaIbEE19_M_initialize_valueEb
	jmp	.L70
.L69:
	endbr64
	movq	%rax, %rbx
	movq	-24(%rbp), %rax
	movq	%rax, %rdi
	call	_ZNSt13_Bvector_baseISaIbEED2Ev
	movq	%rbx, %rax
	movq	%rax, %rdi
.LEHB8:
	call	_Unwind_Resume@PLT
.LEHE8:
.L70:
	movq	-8(%rbp), %rbx
	leave
	.cfi_def_cfa 7, 8
	ret
	.cfi_endproc
.LFE10465:
	.section	.gcc_except_table
.LLSDA10465:
	.byte	0xff
	.byte	0xff
	.byte	0x1
	.uleb128 .LLSDACSE10465-.LLSDACSB10465
.LLSDACSB10465:
	.uleb128 .LEHB7-.LFB10465
	.uleb128 .LEHE7-.LEHB7
	.uleb128 .L69-.LFB10465
	.uleb128 0
	.uleb128 .LEHB8-.LFB10465
	.uleb128 .LEHE8-.LEHB8
	.uleb128 0
	.uleb128 0
.LLSDACSE10465:
	.section	.text._ZNSt6vectorIbSaIbEEC2EmRKbRKS0_,"axG",@progbits,_ZNSt6vectorIbSaIbEEC5EmRKbRKS0_,comdat
	.size	_ZNSt6vectorIbSaIbEEC2EmRKbRKS0_, .-_ZNSt6vectorIbSaIbEEC2EmRKbRKS0_
	.weak	_ZNSt6vectorIbSaIbEEC1EmRKbRKS0_
	.set	_ZNSt6vectorIbSaIbEEC1EmRKbRKS0_,_ZNSt6vectorIbSaIbEEC2EmRKbRKS0_
	.section	.text._ZNSt6vectorIbSaIbEED2Ev,"axG",@progbits,_ZNSt6vectorIbSaIbEED5Ev,comdat
	.align 2
	.weak	_ZNSt6vectorIbSaIbEED2Ev
	.type	_ZNSt6vectorIbSaIbEED2Ev, @function
_ZNSt6vectorIbSaIbEED2Ev:
.LFB10468:
	.cfi_startproc
	endbr64
	pushq	%rbp
	.cfi_def_cfa_offset 16
	.cfi_offset 6, -16
	movq	%rsp, %rbp
	.cfi_def_cfa_register 6
	subq	$16, %rsp
	movq	%rdi, -8(%rbp)
	movq	-8(%rbp), %rax
	movq	%rax, %rdi
	call	_ZNSt13_Bvector_baseISaIbEED2Ev
	nop
	leave
	.cfi_def_cfa 7, 8
	ret
	.cfi_endproc
.LFE10468:
	.size	_ZNSt6vectorIbSaIbEED2Ev, .-_ZNSt6vectorIbSaIbEED2Ev
	.weak	_ZNSt6vectorIbSaIbEED1Ev
	.set	_ZNSt6vectorIbSaIbEED1Ev,_ZNSt6vectorIbSaIbEED2Ev
	.section	.text._ZNSt6vectorIiSaIiEE5beginEv,"axG",@progbits,_ZNSt6vectorIiSaIiEE5beginEv,comdat
	.align 2
	.weak	_ZNSt6vectorIiSaIiEE5beginEv
	.type	_ZNSt6vectorIiSaIiEE5beginEv, @function
_ZNSt6vectorIiSaIiEE5beginEv:
.LFB10470:
	.cfi_startproc
	endbr64
	pushq	%rbp
	.cfi_def_cfa_offset 16
	.cfi_offset 6, -16
	movq	%rsp, %rbp
	.cfi_def_cfa_register 6
	subq	$32, %rsp
	movq	%rdi, -24(%rbp)
	movq	%fs:40, %rax
	movq	%rax, -8(%rbp)
	xorl	%eax, %eax
	movq	-24(%rbp), %rdx
	leaq	-16(%rbp), %rax
	movq	%rdx, %rsi
	movq	%rax, %rdi
	call	_ZN9__gnu_cxx17__normal_iteratorIPiSt6vectorIiSaIiEEEC1ERKS1_
	movq	-16(%rbp), %rax
	movq	-8(%rbp), %rdx
	subq	%fs:40, %rdx
	je	.L74
	call	__stack_chk_fail@PLT
.L74:
	leave
	.cfi_def_cfa 7, 8
	ret
	.cfi_endproc
.LFE10470:
	.size	_ZNSt6vectorIiSaIiEE5beginEv, .-_ZNSt6vectorIiSaIiEE5beginEv
	.section	.text._ZNSt6vectorIiSaIiEE3endEv,"axG",@progbits,_ZNSt6vectorIiSaIiEE3endEv,comdat
	.align 2
	.weak	_ZNSt6vectorIiSaIiEE3endEv
	.type	_ZNSt6vectorIiSaIiEE3endEv, @function
_ZNSt6vectorIiSaIiEE3endEv:
.LFB10471:
	.cfi_startproc
	endbr64
	pushq	%rbp
	.cfi_def_cfa_offset 16
	.cfi_offset 6, -16
	movq	%rsp, %rbp
	.cfi_def_cfa_register 6
	subq	$32, %rsp
	movq	%rdi, -24(%rbp)
	movq	%fs:40, %rax
	movq	%rax, -8(%rbp)
	xorl	%eax, %eax
	movq	-24(%rbp), %rax
	leaq	8(%rax), %rdx
	leaq	-16(%rbp), %rax
	movq	%rdx, %rsi
	movq	%rax, %rdi
	call	_ZN9__gnu_cxx17__normal_iteratorIPiSt6vectorIiSaIiEEEC1ERKS1_
	movq	-16(%rbp), %rax
	movq	-8(%rbp), %rdx
	subq	%fs:40, %rdx
	je	.L77
	call	__stack_chk_fail@PLT
.L77:
	leave
	.cfi_def_cfa 7, 8
	ret
	.cfi_endproc
.LFE10471:
	.size	_ZNSt6vectorIiSaIiEE3endEv, .-_ZNSt6vectorIiSaIiEE3endEv
	.section	.text._ZN9__gnu_cxxneIPiSt6vectorIiSaIiEEEEbRKNS_17__normal_iteratorIT_T0_EESA_,"axG",@progbits,_ZN9__gnu_cxxneIPiSt6vectorIiSaIiEEEEbRKNS_17__normal_iteratorIT_T0_EESA_,comdat
	.weak	_ZN9__gnu_cxxneIPiSt6vectorIiSaIiEEEEbRKNS_17__normal_iteratorIT_T0_EESA_
	.type	_ZN9__gnu_cxxneIPiSt6vectorIiSaIiEEEEbRKNS_17__normal_iteratorIT_T0_EESA_, @function
_ZN9__gnu_cxxneIPiSt6vectorIiSaIiEEEEbRKNS_17__normal_iteratorIT_T0_EESA_:
.LFB10472:
	.cfi_startproc
	endbr64
	pushq	%rbp
	.cfi_def_cfa_offset 16
	.cfi_offset 6, -16
	movq	%rsp, %rbp
	.cfi_def_cfa_register 6
	pushq	%rbx
	subq	$24, %rsp
	.cfi_offset 3, -24
	movq	%rdi, -24(%rbp)
	movq	%rsi, -32(%rbp)
	movq	-24(%rbp), %rax
	movq	%rax, %rdi
	call	_ZNK9__gnu_cxx17__normal_iteratorIPiSt6vectorIiSaIiEEE4baseEv
	movq	(%rax), %rbx
	movq	-32(%rbp), %rax
	movq	%rax, %rdi
	call	_ZNK9__gnu_cxx17__normal_iteratorIPiSt6vectorIiSaIiEEE4baseEv
	movq	(%rax), %rax
	cmpq	%rax, %rbx
	setne	%al
	movq	-8(%rbp), %rbx
	leave
	.cfi_def_cfa 7, 8
	ret
	.cfi_endproc
.LFE10472:
	.size	_ZN9__gnu_cxxneIPiSt6vectorIiSaIiEEEEbRKNS_17__normal_iteratorIT_T0_EESA_, .-_ZN9__gnu_cxxneIPiSt6vectorIiSaIiEEEEbRKNS_17__normal_iteratorIT_T0_EESA_
	.section	.text._ZN9__gnu_cxx17__normal_iteratorIPiSt6vectorIiSaIiEEEppEv,"axG",@progbits,_ZN9__gnu_cxx17__normal_iteratorIPiSt6vectorIiSaIiEEEppEv,comdat
	.align 2
	.weak	_ZN9__gnu_cxx17__normal_iteratorIPiSt6vectorIiSaIiEEEppEv
	.type	_ZN9__gnu_cxx17__normal_iteratorIPiSt6vectorIiSaIiEEEppEv, @function
_ZN9__gnu_cxx17__normal_iteratorIPiSt6vectorIiSaIiEEEppEv:
.LFB10473:
	.cfi_startproc
	endbr64
	pushq	%rbp
	.cfi_def_cfa_offset 16
	.cfi_offset 6, -16
	movq	%rsp, %rbp
	.cfi_def_cfa_register 6
	movq	%rdi, -8(%rbp)
	movq	-8(%rbp), %rax
	movq	(%rax), %rax
	leaq	4(%rax), %rdx
	movq	-8(%rbp), %rax
	movq	%rdx, (%rax)
	movq	-8(%rbp), %rax
	popq	%rbp
	.cfi_def_cfa 7, 8
	ret
	.cfi_endproc
.LFE10473:
	.size	_ZN9__gnu_cxx17__normal_iteratorIPiSt6vectorIiSaIiEEEppEv, .-_ZN9__gnu_cxx17__normal_iteratorIPiSt6vectorIiSaIiEEEppEv
	.section	.text._ZNK9__gnu_cxx17__normal_iteratorIPiSt6vectorIiSaIiEEEdeEv,"axG",@progbits,_ZNK9__gnu_cxx17__normal_iteratorIPiSt6vectorIiSaIiEEEdeEv,comdat
	.align 2
	.weak	_ZNK9__gnu_cxx17__normal_iteratorIPiSt6vectorIiSaIiEEEdeEv
	.type	_ZNK9__gnu_cxx17__normal_iteratorIPiSt6vectorIiSaIiEEEdeEv, @function
_ZNK9__gnu_cxx17__normal_iteratorIPiSt6vectorIiSaIiEEEdeEv:
.LFB10474:
	.cfi_startproc
	endbr64
	pushq	%rbp
	.cfi_def_cfa_offset 16
	.cfi_offset 6, -16
	movq	%rsp, %rbp
	.cfi_def_cfa_register 6
	movq	%rdi, -8(%rbp)
	movq	-8(%rbp), %rax
	movq	(%rax), %rax
	popq	%rbp
	.cfi_def_cfa 7, 8
	ret
	.cfi_endproc
.LFE10474:
	.size	_ZNK9__gnu_cxx17__normal_iteratorIPiSt6vectorIiSaIiEEEdeEv, .-_ZNK9__gnu_cxx17__normal_iteratorIPiSt6vectorIiSaIiEEEdeEv
	.section	.text._ZNSt6vectorIbSaIbEEixEm,"axG",@progbits,_ZNSt6vectorIbSaIbEEixEm,comdat
	.align 2
	.weak	_ZNSt6vectorIbSaIbEEixEm
	.type	_ZNSt6vectorIbSaIbEEixEm, @function
_ZNSt6vectorIbSaIbEEixEm:
.LFB10475:
	.cfi_startproc
	endbr64
	pushq	%rbp
	.cfi_def_cfa_offset 16
	.cfi_offset 6, -16
	movq	%rsp, %rbp
	.cfi_def_cfa_register 6
	subq	$48, %rsp
	movq	%rdi, -40(%rbp)
	movq	%rsi, -48(%rbp)
	movq	%fs:40, %rax
	movq	%rax, -8(%rbp)
	xorl	%eax, %eax
	movq	-40(%rbp), %rax
	movq	%rax, %rdi
	call	_ZNSt6vectorIbSaIbEE5beginEv
	movq	%rax, -32(%rbp)
	movq	%rdx, -24(%rbp)
	movq	-48(%rbp), %rdx
	leaq	-32(%rbp), %rax
	movq	%rdx, %rsi
	movq	%rax, %rdi
	call	_ZNKSt13_Bit_iteratorixEl
	movq	-8(%rbp), %rcx
	subq	%fs:40, %rcx
	je	.L86
	call	__stack_chk_fail@PLT
.L86:
	leave
	.cfi_def_cfa 7, 8
	ret
	.cfi_endproc
.LFE10475:
	.size	_ZNSt6vectorIbSaIbEEixEm, .-_ZNSt6vectorIbSaIbEEixEm
	.section	.text._ZNSt6vectorIiSaIiEEC2EmRKS0_,"axG",@progbits,_ZNSt6vectorIiSaIiEEC5EmRKS0_,comdat
	.align 2
	.weak	_ZNSt6vectorIiSaIiEEC2EmRKS0_
	.type	_ZNSt6vectorIiSaIiEEC2EmRKS0_, @function
_ZNSt6vectorIiSaIiEEC2EmRKS0_:
.LFB10484:
	.cfi_startproc
	.cfi_personality 0x9b,DW.ref.__gxx_personality_v0
	.cfi_lsda 0x1b,.LLSDA10484
	endbr64
	pushq	%rbp
	.cfi_def_cfa_offset 16
	.cfi_offset 6, -16
	movq	%rsp, %rbp
	.cfi_def_cfa_register 6
	pushq	%rbx
	subq	$40, %rsp
	.cfi_offset 3, -24
	movq	%rdi, -24(%rbp)
	movq	%rsi, -32(%rbp)
	movq	%rdx, -40(%rbp)
	movq	-24(%rbp), %rbx
	movq	-40(%rbp), %rdx
	movq	-32(%rbp), %rax
	movq	%rdx, %rsi
	movq	%rax, %rdi
.LEHB9:
	call	_ZNSt6vectorIiSaIiEE17_S_check_init_lenEmRKS0_
	movq	%rax, %rcx
	movq	-40(%rbp), %rax
	movq	%rax, %rdx
	movq	%rcx, %rsi
	movq	%rbx, %rdi
	call	_ZNSt12_Vector_baseIiSaIiEEC2EmRKS0_
.LEHE9:
	movq	-32(%rbp), %rdx
	movq	-24(%rbp), %rax
	movq	%rdx, %rsi
	movq	%rax, %rdi
.LEHB10:
	call	_ZNSt6vectorIiSaIiEE21_M_default_initializeEm
.LEHE10:
	jmp	.L90
.L89:
	endbr64
	movq	%rax, %rbx
	movq	-24(%rbp), %rax
	movq	%rax, %rdi
	call	_ZNSt12_Vector_baseIiSaIiEED2Ev
	movq	%rbx, %rax
	movq	%rax, %rdi
.LEHB11:
	call	_Unwind_Resume@PLT
.LEHE11:
.L90:
	movq	-8(%rbp), %rbx
	leave
	.cfi_def_cfa 7, 8
	ret
	.cfi_endproc
.LFE10484:
	.section	.gcc_except_table
.LLSDA10484:
	.byte	0xff
	.byte	0xff
	.byte	0x1
	.uleb128 .LLSDACSE10484-.LLSDACSB10484
.LLSDACSB10484:
	.uleb128 .LEHB9-.LFB10484
	.uleb128 .LEHE9-.LEHB9
	.uleb128 0
	.uleb128 0
	.uleb128 .LEHB10-.LFB10484
	.uleb128 .LEHE10-.LEHB10
	.uleb128 .L89-.LFB10484
	.uleb128 0
	.uleb128 .LEHB11-.LFB10484
	.uleb128 .LEHE11-.LEHB11
	.uleb128 0
	.uleb128 0
.LLSDACSE10484:
	.section	.text._ZNSt6vectorIiSaIiEEC2EmRKS0_,"axG",@progbits,_ZNSt6vectorIiSaIiEEC5EmRKS0_,comdat
	.size	_ZNSt6vectorIiSaIiEEC2EmRKS0_, .-_ZNSt6vectorIiSaIiEEC2EmRKS0_
	.weak	_ZNSt6vectorIiSaIiEEC1EmRKS0_
	.set	_ZNSt6vectorIiSaIiEEC1EmRKS0_,_ZNSt6vectorIiSaIiEEC2EmRKS0_
	.section	.text._ZNSt6vectorIiSaIiEED2Ev,"axG",@progbits,_ZNSt6vectorIiSaIiEED5Ev,comdat
	.align 2
	.weak	_ZNSt6vectorIiSaIiEED2Ev
	.type	_ZNSt6vectorIiSaIiEED2Ev, @function
_ZNSt6vectorIiSaIiEED2Ev:
.LFB10487:
	.cfi_startproc
	.cfi_personality 0x9b,DW.ref.__gxx_personality_v0
	.cfi_lsda 0x1b,.LLSDA10487
	endbr64
	pushq	%rbp
	.cfi_def_cfa_offset 16
	.cfi_offset 6, -16
	movq	%rsp, %rbp
	.cfi_def_cfa_register 6
	subq	$48, %rsp
	movq	%rdi, -40(%rbp)
	movq	-40(%rbp), %rax
	movq	%rax, %rdi
	call	_ZNSt12_Vector_baseIiSaIiEE19_M_get_Tp_allocatorEv
	movq	-40(%rbp), %rdx
	movq	8(%rdx), %rdx
	movq	-40(%rbp), %rcx
	movq	(%rcx), %rcx
	movq	%rcx, -24(%rbp)
	movq	%rdx, -16(%rbp)
	movq	%rax, -8(%rbp)
	movq	-16(%rbp), %rdx
	movq	-24(%rbp), %rax
	movq	%rdx, %rsi
	movq	%rax, %rdi
	call	_ZSt8_DestroyIPiEvT_S1_
	nop
	movq	-40(%rbp), %rax
	movq	%rax, %rdi
	call	_ZNSt12_Vector_baseIiSaIiEED2Ev
	nop
	leave
	.cfi_def_cfa 7, 8
	ret
	.cfi_endproc
.LFE10487:
	.section	.gcc_except_table
.LLSDA10487:
	.byte	0xff
	.byte	0xff
	.byte	0x1
	.uleb128 .LLSDACSE10487-.LLSDACSB10487
.LLSDACSB10487:
.LLSDACSE10487:
	.section	.text._ZNSt6vectorIiSaIiEED2Ev,"axG",@progbits,_ZNSt6vectorIiSaIiEED5Ev,comdat
	.size	_ZNSt6vectorIiSaIiEED2Ev, .-_ZNSt6vectorIiSaIiEED2Ev
	.weak	_ZNSt6vectorIiSaIiEED1Ev
	.set	_ZNSt6vectorIiSaIiEED1Ev,_ZNSt6vectorIiSaIiEED2Ev
	.section	.text._ZNSt6vectorIiSaIiEEixEm,"axG",@progbits,_ZNSt6vectorIiSaIiEEixEm,comdat
	.align 2
	.weak	_ZNSt6vectorIiSaIiEEixEm
	.type	_ZNSt6vectorIiSaIiEEixEm, @function
_ZNSt6vectorIiSaIiEEixEm:
.LFB10489:
	.cfi_startproc
	endbr64
	pushq	%rbp
	.cfi_def_cfa_offset 16
	.cfi_offset 6, -16
	movq	%rsp, %rbp
	.cfi_def_cfa_register 6
	movq	%rdi, -8(%rbp)
	movq	%rsi, -16(%rbp)
	movq	-8(%rbp), %rax
	movq	(%rax), %rax
	movq	-16(%rbp), %rdx
	salq	$2, %rdx
	addq	%rdx, %rax
	popq	%rbp
	.cfi_def_cfa 7, 8
	ret
	.cfi_endproc
.LFE10489:
	.size	_ZNSt6vectorIiSaIiEEixEm, .-_ZNSt6vectorIiSaIiEEixEm
	.section	.text._ZNSt15__new_allocatorImED2Ev,"axG",@progbits,_ZNSt15__new_allocatorImED5Ev,comdat
	.align 2
	.weak	_ZNSt15__new_allocatorImED2Ev
	.type	_ZNSt15__new_allocatorImED2Ev, @function
_ZNSt15__new_allocatorImED2Ev:
.LFB10804:
	.cfi_startproc
	endbr64
	pushq	%rbp
	.cfi_def_cfa_offset 16
	.cfi_offset 6, -16
	movq	%rsp, %rbp
	.cfi_def_cfa_register 6
	movq	%rdi, -8(%rbp)
	nop
	popq	%rbp
	.cfi_def_cfa 7, 8
	ret
	.cfi_endproc
.LFE10804:
	.size	_ZNSt15__new_allocatorImED2Ev, .-_ZNSt15__new_allocatorImED2Ev
	.weak	_ZNSt15__new_allocatorImED1Ev
	.set	_ZNSt15__new_allocatorImED1Ev,_ZNSt15__new_allocatorImED2Ev
	.section	.text._ZNSt15__new_allocatorIbED2Ev,"axG",@progbits,_ZNSt15__new_allocatorIbED5Ev,comdat
	.align 2
	.weak	_ZNSt15__new_allocatorIbED2Ev
	.type	_ZNSt15__new_allocatorIbED2Ev, @function
_ZNSt15__new_allocatorIbED2Ev:
.LFB10918:
	.cfi_startproc
	endbr64
	pushq	%rbp
	.cfi_def_cfa_offset 16
	.cfi_offset 6, -16
	movq	%rsp, %rbp
	.cfi_def_cfa_register 6
	movq	%rdi, -8(%rbp)
	nop
	popq	%rbp
	.cfi_def_cfa 7, 8
	ret
	.cfi_endproc
.LFE10918:
	.size	_ZNSt15__new_allocatorIbED2Ev, .-_ZNSt15__new_allocatorIbED2Ev
	.weak	_ZNSt15__new_allocatorIbED1Ev
	.set	_ZNSt15__new_allocatorIbED1Ev,_ZNSt15__new_allocatorIbED2Ev
	.section	.text._ZNSt13_Bvector_baseISaIbEE13_Bvector_implD2Ev,"axG",@progbits,_ZNSt13_Bvector_baseISaIbEE13_Bvector_implD5Ev,comdat
	.align 2
	.weak	_ZNSt13_Bvector_baseISaIbEE13_Bvector_implD2Ev
	.type	_ZNSt13_Bvector_baseISaIbEE13_Bvector_implD2Ev, @function
_ZNSt13_Bvector_baseISaIbEE13_Bvector_implD2Ev:
.LFB10922:
	.cfi_startproc
	endbr64
	pushq	%rbp
	.cfi_def_cfa_offset 16
	.cfi_offset 6, -16
	movq	%rsp, %rbp
	.cfi_def_cfa_register 6
	subq	$32, %rsp
	movq	%rdi, -24(%rbp)
	movq	-24(%rbp), %rax
	movq	%rax, -8(%rbp)
	movq	-8(%rbp), %rax
	movq	%rax, %rdi
	call	_ZNSt15__new_allocatorImED2Ev
	nop
	nop
	leave
	.cfi_def_cfa 7, 8
	ret
	.cfi_endproc
.LFE10922:
	.size	_ZNSt13_Bvector_baseISaIbEE13_Bvector_implD2Ev, .-_ZNSt13_Bvector_baseISaIbEE13_Bvector_implD2Ev
	.weak	_ZNSt13_Bvector_baseISaIbEE13_Bvector_implD1Ev
	.set	_ZNSt13_Bvector_baseISaIbEE13_Bvector_implD1Ev,_ZNSt13_Bvector_baseISaIbEE13_Bvector_implD2Ev
	.section	.text._ZNSt13_Bvector_baseISaIbEEC2ERKS0_,"axG",@progbits,_ZNSt13_Bvector_baseISaIbEEC5ERKS0_,comdat
	.align 2
	.weak	_ZNSt13_Bvector_baseISaIbEEC2ERKS0_
	.type	_ZNSt13_Bvector_baseISaIbEEC2ERKS0_, @function
_ZNSt13_Bvector_baseISaIbEEC2ERKS0_:
.LFB10924:
	.cfi_startproc
	endbr64
	pushq	%rbp
	.cfi_def_cfa_offset 16
	.cfi_offset 6, -16
	movq	%rsp, %rbp
	.cfi_def_cfa_register 6
	subq	$48, %rsp
	movq	%rdi, -40(%rbp)
	movq	%rsi, -48(%rbp)
	movq	%fs:40, %rax
	movq	%rax, -8(%rbp)
	xorl	%eax, %eax
	movq	-40(%rbp), %rax
	movq	-48(%rbp), %rdx
	movq	%rdx, -24(%rbp)
	leaq	-25(%rbp), %rdx
	movq	%rdx, -16(%rbp)
	nop
	nop
	leaq	-25(%rbp), %rdx
	movq	%rdx, %rsi
	movq	%rax, %rdi
	call	_ZNSt13_Bvector_baseISaIbEE13_Bvector_implC1ERKSaImE
	leaq	-25(%rbp), %rax
	movq	%rax, %rdi
	call	_ZNSt15__new_allocatorImED2Ev
	nop
	nop
	movq	-8(%rbp), %rax
	subq	%fs:40, %rax
	je	.L98
	call	__stack_chk_fail@PLT
.L98:
	leave
	.cfi_def_cfa 7, 8
	ret
	.cfi_endproc
.LFE10924:
	.size	_ZNSt13_Bvector_baseISaIbEEC2ERKS0_, .-_ZNSt13_Bvector_baseISaIbEEC2ERKS0_
	.weak	_ZNSt13_Bvector_baseISaIbEEC1ERKS0_
	.set	_ZNSt13_Bvector_baseISaIbEEC1ERKS0_,_ZNSt13_Bvector_baseISaIbEEC2ERKS0_
	.section	.text._ZNSt13_Bvector_baseISaIbEED2Ev,"axG",@progbits,_ZNSt13_Bvector_baseISaIbEED5Ev,comdat
	.align 2
	.weak	_ZNSt13_Bvector_baseISaIbEED2Ev
	.type	_ZNSt13_Bvector_baseISaIbEED2Ev, @function
_ZNSt13_Bvector_baseISaIbEED2Ev:
.LFB10927:
	.cfi_startproc
	.cfi_personality 0x9b,DW.ref.__gxx_personality_v0
	.cfi_lsda 0x1b,.LLSDA10927
	endbr64
	pushq	%rbp
	.cfi_def_cfa_offset 16
	.cfi_offset 6, -16
	movq	%rsp, %rbp
	.cfi_def_cfa_register 6
	subq	$16, %rsp
	movq	%rdi, -8(%rbp)
	movq	-8(%rbp), %rax
	movq	%rax, %rdi
	call	_ZNSt13_Bvector_baseISaIbEE13_M_deallocateEv
	movq	-8(%rbp), %rax
	movq	%rax, %rdi
	call	_ZNSt13_Bvector_baseISaIbEE13_Bvector_implD1Ev
	nop
	leave
	.cfi_def_cfa 7, 8
	ret
	.cfi_endproc
.LFE10927:
	.section	.gcc_except_table
.LLSDA10927:
	.byte	0xff
	.byte	0xff
	.byte	0x1
	.uleb128 .LLSDACSE10927-.LLSDACSB10927
.LLSDACSB10927:
.LLSDACSE10927:
	.section	.text._ZNSt13_Bvector_baseISaIbEED2Ev,"axG",@progbits,_ZNSt13_Bvector_baseISaIbEED5Ev,comdat
	.size	_ZNSt13_Bvector_baseISaIbEED2Ev, .-_ZNSt13_Bvector_baseISaIbEED2Ev
	.weak	_ZNSt13_Bvector_baseISaIbEED1Ev
	.set	_ZNSt13_Bvector_baseISaIbEED1Ev,_ZNSt13_Bvector_baseISaIbEED2Ev
	.section	.text._ZNSt6vectorIbSaIbEE13_M_initializeEm,"axG",@progbits,_ZNSt6vectorIbSaIbEE13_M_initializeEm,comdat
	.align 2
	.weak	_ZNSt6vectorIbSaIbEE13_M_initializeEm
	.type	_ZNSt6vectorIbSaIbEE13_M_initializeEm, @function
_ZNSt6vectorIbSaIbEE13_M_initializeEm:
.LFB10929:
	.cfi_startproc
	endbr64
	pushq	%rbp
	.cfi_def_cfa_offset 16
	.cfi_offset 6, -16
	movq	%rsp, %rbp
	.cfi_def_cfa_register 6
	subq	$80, %rsp
	movq	%rdi, -72(%rbp)
	movq	%rsi, -80(%rbp)
	movq	%fs:40, %rax
	movq	%rax, -8(%rbp)
	xorl	%eax, %eax
	cmpq	$0, -80(%rbp)
	je	.L103
	movq	-72(%rbp), %rax
	movq	-80(%rbp), %rdx
	movq	%rdx, %rsi
	movq	%rax, %rdi
	call	_ZNSt13_Bvector_baseISaIbEE11_M_allocateEm
	movq	%rax, -56(%rbp)
	movq	-80(%rbp), %rax
	movq	%rax, %rdi
	call	_ZNSt13_Bvector_baseISaIbEE8_S_nwordEm
	leaq	0(,%rax,8), %rdx
	movq	-56(%rbp), %rax
	addq	%rax, %rdx
	movq	-72(%rbp), %rax
	movq	%rdx, 32(%rax)
	movq	-56(%rbp), %rax
	movq	%rax, %rdi
	call	_ZSt11__addressofImEPT_RS0_
	movq	%rax, %rcx
	leaq	-48(%rbp), %rax
	movl	$0, %edx
	movq	%rcx, %rsi
	movq	%rax, %rdi
	call	_ZNSt13_Bit_iteratorC1EPmj
	movq	-72(%rbp), %rax
	movq	-48(%rbp), %rdx
	movq	%rdx, (%rax)
	movl	-40(%rbp), %edx
	movl	%edx, 8(%rax)
	movq	-80(%rbp), %rdx
	leaq	-48(%rbp), %rax
	movq	%rdx, %rsi
	movq	%rax, %rdi
	call	_ZStplRKSt13_Bit_iteratorl
	movq	%rax, -32(%rbp)
	movq	%rdx, -24(%rbp)
	movq	-72(%rbp), %rax
	movq	-32(%rbp), %rdx
	movq	%rdx, 16(%rax)
	movl	-24(%rbp), %edx
	movl	%edx, 24(%rax)
.L103:
	nop
	movq	-8(%rbp), %rax
	subq	%fs:40, %rax
	je	.L102
	call	__stack_chk_fail@PLT
.L102:
	leave
	.cfi_def_cfa 7, 8
	ret
	.cfi_endproc
.LFE10929:
	.size	_ZNSt6vectorIbSaIbEE13_M_initializeEm, .-_ZNSt6vectorIbSaIbEE13_M_initializeEm
	.section	.text._ZNSt6vectorIbSaIbEE19_M_initialize_valueEb,"axG",@progbits,_ZNSt6vectorIbSaIbEE19_M_initialize_valueEb,comdat
	.align 2
	.weak	_ZNSt6vectorIbSaIbEE19_M_initialize_valueEb
	.type	_ZNSt6vectorIbSaIbEE19_M_initialize_valueEb, @function
_ZNSt6vectorIbSaIbEE19_M_initialize_valueEb:
.LFB10930:
	.cfi_startproc
	endbr64
	pushq	%rbp
	.cfi_def_cfa_offset 16
	.cfi_offset 6, -16
	movq	%rsp, %rbp
	.cfi_def_cfa_register 6
	pushq	%rbx
	subq	$40, %rsp
	.cfi_offset 3, -24
	movq	%rdi, -40(%rbp)
	movl	%esi, %eax
	movb	%al, -44(%rbp)
	movq	-40(%rbp), %rax
	movq	(%rax), %rax
	movq	%rax, -24(%rbp)
	cmpq	$0, -24(%rbp)
	je	.L106
	movzbl	-44(%rbp), %ebx
	movq	-40(%rbp), %rax
	movq	%rax, %rdi
	call	_ZNKSt13_Bvector_baseISaIbEE13_Bvector_impl11_M_end_addrEv
	subq	-24(%rbp), %rax
	sarq	$3, %rax
	movq	%rax, %rcx
	movq	-24(%rbp), %rax
	movl	%ebx, %edx
	movq	%rcx, %rsi
	movq	%rax, %rdi
	call	_ZSt16__fill_bvector_nPmmb
.L106:
	nop
	movq	-8(%rbp), %rbx
	leave
	.cfi_def_cfa 7, 8
	ret
	.cfi_endproc
.LFE10930:
	.size	_ZNSt6vectorIbSaIbEE19_M_initialize_valueEb, .-_ZNSt6vectorIbSaIbEE19_M_initialize_valueEb
	.section	.text._ZN9__gnu_cxx17__normal_iteratorIPiSt6vectorIiSaIiEEEC2ERKS1_,"axG",@progbits,_ZN9__gnu_cxx17__normal_iteratorIPiSt6vectorIiSaIiEEEC5ERKS1_,comdat
	.align 2
	.weak	_ZN9__gnu_cxx17__normal_iteratorIPiSt6vectorIiSaIiEEEC2ERKS1_
	.type	_ZN9__gnu_cxx17__normal_iteratorIPiSt6vectorIiSaIiEEEC2ERKS1_, @function
_ZN9__gnu_cxx17__normal_iteratorIPiSt6vectorIiSaIiEEEC2ERKS1_:
.LFB10932:
	.cfi_startproc
	endbr64
	pushq	%rbp
	.cfi_def_cfa_offset 16
	.cfi_offset 6, -16
	movq	%rsp, %rbp
	.cfi_def_cfa_register 6
	movq	%rdi, -8(%rbp)
	movq	%rsi, -16(%rbp)
	movq	-16(%rbp), %rax
	movq	(%rax), %rdx
	movq	-8(%rbp), %rax
	movq	%rdx, (%rax)
	nop
	popq	%rbp
	.cfi_def_cfa 7, 8
	ret
	.cfi_endproc
.LFE10932:
	.size	_ZN9__gnu_cxx17__normal_iteratorIPiSt6vectorIiSaIiEEEC2ERKS1_, .-_ZN9__gnu_cxx17__normal_iteratorIPiSt6vectorIiSaIiEEEC2ERKS1_
	.weak	_ZN9__gnu_cxx17__normal_iteratorIPiSt6vectorIiSaIiEEEC1ERKS1_
	.set	_ZN9__gnu_cxx17__normal_iteratorIPiSt6vectorIiSaIiEEEC1ERKS1_,_ZN9__gnu_cxx17__normal_iteratorIPiSt6vectorIiSaIiEEEC2ERKS1_
	.section	.text._ZNK9__gnu_cxx17__normal_iteratorIPiSt6vectorIiSaIiEEE4baseEv,"axG",@progbits,_ZNK9__gnu_cxx17__normal_iteratorIPiSt6vectorIiSaIiEEE4baseEv,comdat
	.align 2
	.weak	_ZNK9__gnu_cxx17__normal_iteratorIPiSt6vectorIiSaIiEEE4baseEv
	.type	_ZNK9__gnu_cxx17__normal_iteratorIPiSt6vectorIiSaIiEEE4baseEv, @function
_ZNK9__gnu_cxx17__normal_iteratorIPiSt6vectorIiSaIiEEE4baseEv:
.LFB10934:
	.cfi_startproc
	endbr64
	pushq	%rbp
	.cfi_def_cfa_offset 16
	.cfi_offset 6, -16
	movq	%rsp, %rbp
	.cfi_def_cfa_register 6
	movq	%rdi, -8(%rbp)
	movq	-8(%rbp), %rax
	popq	%rbp
	.cfi_def_cfa 7, 8
	ret
	.cfi_endproc
.LFE10934:
	.size	_ZNK9__gnu_cxx17__normal_iteratorIPiSt6vectorIiSaIiEEE4baseEv, .-_ZNK9__gnu_cxx17__normal_iteratorIPiSt6vectorIiSaIiEEE4baseEv
	.section	.text._ZNSt6vectorIbSaIbEE5beginEv,"axG",@progbits,_ZNSt6vectorIbSaIbEE5beginEv,comdat
	.align 2
	.weak	_ZNSt6vectorIbSaIbEE5beginEv
	.type	_ZNSt6vectorIbSaIbEE5beginEv, @function
_ZNSt6vectorIbSaIbEE5beginEv:
.LFB10935:
	.cfi_startproc
	endbr64
	pushq	%rbp
	.cfi_def_cfa_offset 16
	.cfi_offset 6, -16
	movq	%rsp, %rbp
	.cfi_def_cfa_register 6
	subq	$80, %rsp
	movq	%rdi, -56(%rbp)
	movq	%fs:40, %rax
	movq	%rax, -8(%rbp)
	xorl	%eax, %eax
	movq	-56(%rbp), %rax
	movq	(%rax), %rcx
	leaq	-48(%rbp), %rax
	movl	$0, %edx
	movq	%rcx, %rsi
	movq	%rax, %rdi
	call	_ZNSt13_Bit_iteratorC1EPmj
	movq	-48(%rbp), %rax
	movq	-40(%rbp), %rdx
	movq	%rax, -32(%rbp)
	movq	%rdx, -24(%rbp)
	movq	-32(%rbp), %rax
	movq	-24(%rbp), %rdx
	movq	-8(%rbp), %rcx
	subq	%fs:40, %rcx
	je	.L112
	call	__stack_chk_fail@PLT
.L112:
	leave
	.cfi_def_cfa 7, 8
	ret
	.cfi_endproc
.LFE10935:
	.size	_ZNSt6vectorIbSaIbEE5beginEv, .-_ZNSt6vectorIbSaIbEE5beginEv
	.section	.text._ZNSt15__new_allocatorIiED2Ev,"axG",@progbits,_ZNSt15__new_allocatorIiED5Ev,comdat
	.align 2
	.weak	_ZNSt15__new_allocatorIiED2Ev
	.type	_ZNSt15__new_allocatorIiED2Ev, @function
_ZNSt15__new_allocatorIiED2Ev:
.LFB10940:
	.cfi_startproc
	endbr64
	pushq	%rbp
	.cfi_def_cfa_offset 16
	.cfi_offset 6, -16
	movq	%rsp, %rbp
	.cfi_def_cfa_register 6
	movq	%rdi, -8(%rbp)
	nop
	popq	%rbp
	.cfi_def_cfa 7, 8
	ret
	.cfi_endproc
.LFE10940:
	.size	_ZNSt15__new_allocatorIiED2Ev, .-_ZNSt15__new_allocatorIiED2Ev
	.weak	_ZNSt15__new_allocatorIiED1Ev
	.set	_ZNSt15__new_allocatorIiED1Ev,_ZNSt15__new_allocatorIiED2Ev
	.section	.rodata
	.align 8
.LC1:
	.string	"cannot create std::vector larger than max_size()"
	.section	.text._ZNSt6vectorIiSaIiEE17_S_check_init_lenEmRKS0_,"axG",@progbits,_ZNSt6vectorIiSaIiEE17_S_check_init_lenEmRKS0_,comdat
	.weak	_ZNSt6vectorIiSaIiEE17_S_check_init_lenEmRKS0_
	.type	_ZNSt6vectorIiSaIiEE17_S_check_init_lenEmRKS0_, @function
_ZNSt6vectorIiSaIiEE17_S_check_init_lenEmRKS0_:
.LFB10942:
	.cfi_startproc
	endbr64
	pushq	%rbp
	.cfi_def_cfa_offset 16
	.cfi_offset 6, -16
	movq	%rsp, %rbp
	.cfi_def_cfa_register 6
	pushq	%rbx
	subq	$72, %rsp
	.cfi_offset 3, -24
	movq	%rdi, -72(%rbp)
	movq	%rsi, -80(%rbp)
	movq	%fs:40, %rax
	movq	%rax, -24(%rbp)
	xorl	%eax, %eax
	movq	-80(%rbp), %rax
	movq	%rax, -48(%rbp)
	leaq	-49(%rbp), %rax
	movq	%rax, -40(%rbp)
	movq	-48(%rbp), %rax
	movq	%rax, -32(%rbp)
	nop
	nop
	leaq	-49(%rbp), %rax
	movq	%rax, %rdi
	call	_ZNSt6vectorIiSaIiEE11_S_max_sizeERKS0_
	cmpq	-72(%rbp), %rax
	setb	%bl
	leaq	-49(%rbp), %rax
	movq	%rax, %rdi
	call	_ZNSt15__new_allocatorIiED2Ev
	nop
	testb	%bl, %bl
	je	.L115
	movq	-24(%rbp), %rax
	subq	%fs:40, %rax
	je	.L116
	call	__stack_chk_fail@PLT
.L116:
	leaq	.LC1(%rip), %rax
	movq	%rax, %rdi
	call	_ZSt20__throw_length_errorPKc@PLT
.L115:
	movq	-72(%rbp), %rax
	movq	-24(%rbp), %rdx
	subq	%fs:40, %rdx
	je	.L118
	call	__stack_chk_fail@PLT
.L118:
	movq	-8(%rbp), %rbx
	leave
	.cfi_def_cfa 7, 8
	ret
	.cfi_endproc
.LFE10942:
	.size	_ZNSt6vectorIiSaIiEE17_S_check_init_lenEmRKS0_, .-_ZNSt6vectorIiSaIiEE17_S_check_init_lenEmRKS0_
	.section	.text._ZNSt12_Vector_baseIiSaIiEE12_Vector_implD2Ev,"axG",@progbits,_ZNSt12_Vector_baseIiSaIiEE12_Vector_implD5Ev,comdat
	.align 2
	.weak	_ZNSt12_Vector_baseIiSaIiEE12_Vector_implD2Ev
	.type	_ZNSt12_Vector_baseIiSaIiEE12_Vector_implD2Ev, @function
_ZNSt12_Vector_baseIiSaIiEE12_Vector_implD2Ev:
.LFB10945:
	.cfi_startproc
	endbr64
	pushq	%rbp
	.cfi_def_cfa_offset 16
	.cfi_offset 6, -16
	movq	%rsp, %rbp
	.cfi_def_cfa_register 6
	subq	$32, %rsp
	movq	%rdi, -24(%rbp)
	movq	-24(%rbp), %rax
	movq	%rax, -8(%rbp)
	movq	-8(%rbp), %rax
	movq	%rax, %rdi
	call	_ZNSt15__new_allocatorIiED2Ev
	nop
	nop
	leave
	.cfi_def_cfa 7, 8
	ret
	.cfi_endproc
.LFE10945:
	.size	_ZNSt12_Vector_baseIiSaIiEE12_Vector_implD2Ev, .-_ZNSt12_Vector_baseIiSaIiEE12_Vector_implD2Ev
	.weak	_ZNSt12_Vector_baseIiSaIiEE12_Vector_implD1Ev
	.set	_ZNSt12_Vector_baseIiSaIiEE12_Vector_implD1Ev,_ZNSt12_Vector_baseIiSaIiEE12_Vector_implD2Ev
	.section	.text._ZNSt12_Vector_baseIiSaIiEEC2EmRKS0_,"axG",@progbits,_ZNSt12_Vector_baseIiSaIiEEC5EmRKS0_,comdat
	.align 2
	.weak	_ZNSt12_Vector_baseIiSaIiEEC2EmRKS0_
	.type	_ZNSt12_Vector_baseIiSaIiEEC2EmRKS0_, @function
_ZNSt12_Vector_baseIiSaIiEEC2EmRKS0_:
.LFB10947:
	.cfi_startproc
	.cfi_personality 0x9b,DW.ref.__gxx_personality_v0
	.cfi_lsda 0x1b,.LLSDA10947
	endbr64
	pushq	%rbp
	.cfi_def_cfa_offset 16
	.cfi_offset 6, -16
	movq	%rsp, %rbp
	.cfi_def_cfa_register 6
	pushq	%rbx
	subq	$40, %rsp
	.cfi_offset 3, -24
	movq	%rdi, -24(%rbp)
	movq	%rsi, -32(%rbp)
	movq	%rdx, -40(%rbp)
	movq	-24(%rbp), %rax
	movq	-40(%rbp), %rdx
	movq	%rdx, %rsi
	movq	%rax, %rdi
	call	_ZNSt12_Vector_baseIiSaIiEE12_Vector_implC1ERKS0_
	movq	-32(%rbp), %rdx
	movq	-24(%rbp), %rax
	movq	%rdx, %rsi
	movq	%rax, %rdi
.LEHB12:
	call	_ZNSt12_Vector_baseIiSaIiEE17_M_create_storageEm
.LEHE12:
	jmp	.L123
.L122:
	endbr64
	movq	%rax, %rbx
	movq	-24(%rbp), %rax
	movq	%rax, %rdi
	call	_ZNSt12_Vector_baseIiSaIiEE12_Vector_implD1Ev
	movq	%rbx, %rax
	movq	%rax, %rdi
.LEHB13:
	call	_Unwind_Resume@PLT
.LEHE13:
.L123:
	movq	-8(%rbp), %rbx
	leave
	.cfi_def_cfa 7, 8
	ret
	.cfi_endproc
.LFE10947:
	.section	.gcc_except_table
.LLSDA10947:
	.byte	0xff
	.byte	0xff
	.byte	0x1
	.uleb128 .LLSDACSE10947-.LLSDACSB10947
.LLSDACSB10947:
	.uleb128 .LEHB12-.LFB10947
	.uleb128 .LEHE12-.LEHB12
	.uleb128 .L122-.LFB10947
	.uleb128 0
	.uleb128 .LEHB13-.LFB10947
	.uleb128 .LEHE13-.LEHB13
	.uleb128 0
	.uleb128 0
.LLSDACSE10947:
	.section	.text._ZNSt12_Vector_baseIiSaIiEEC2EmRKS0_,"axG",@progbits,_ZNSt12_Vector_baseIiSaIiEEC5EmRKS0_,comdat
	.size	_ZNSt12_Vector_baseIiSaIiEEC2EmRKS0_, .-_ZNSt12_Vector_baseIiSaIiEEC2EmRKS0_
	.weak	_ZNSt12_Vector_baseIiSaIiEEC1EmRKS0_
	.set	_ZNSt12_Vector_baseIiSaIiEEC1EmRKS0_,_ZNSt12_Vector_baseIiSaIiEEC2EmRKS0_
	.section	.text._ZNSt12_Vector_baseIiSaIiEED2Ev,"axG",@progbits,_ZNSt12_Vector_baseIiSaIiEED5Ev,comdat
	.align 2
	.weak	_ZNSt12_Vector_baseIiSaIiEED2Ev
	.type	_ZNSt12_Vector_baseIiSaIiEED2Ev, @function
_ZNSt12_Vector_baseIiSaIiEED2Ev:
.LFB10950:
	.cfi_startproc
	.cfi_personality 0x9b,DW.ref.__gxx_personality_v0
	.cfi_lsda 0x1b,.LLSDA10950
	endbr64
	pushq	%rbp
	.cfi_def_cfa_offset 16
	.cfi_offset 6, -16
	movq	%rsp, %rbp
	.cfi_def_cfa_register 6
	subq	$16, %rsp
	movq	%rdi, -8(%rbp)
	movq	-8(%rbp), %rax
	movq	16(%rax), %rdx
	movq	-8(%rbp), %rax
	movq	(%rax), %rax
	subq	%rax, %rdx
	movq	%rdx, %rax
	sarq	$2, %rax
	movq	%rax, %rdx
	movq	-8(%rbp), %rax
	movq	(%rax), %rcx
	movq	-8(%rbp), %rax
	movq	%rcx, %rsi
	movq	%rax, %rdi
	call	_ZNSt12_Vector_baseIiSaIiEE13_M_deallocateEPim
	movq	-8(%rbp), %rax
	movq	%rax, %rdi
	call	_ZNSt12_Vector_baseIiSaIiEE12_Vector_implD1Ev
	nop
	leave
	.cfi_def_cfa 7, 8
	ret
	.cfi_endproc
.LFE10950:
	.section	.gcc_except_table
.LLSDA10950:
	.byte	0xff
	.byte	0xff
	.byte	0x1
	.uleb128 .LLSDACSE10950-.LLSDACSB10950
.LLSDACSB10950:
.LLSDACSE10950:
	.section	.text._ZNSt12_Vector_baseIiSaIiEED2Ev,"axG",@progbits,_ZNSt12_Vector_baseIiSaIiEED5Ev,comdat
	.size	_ZNSt12_Vector_baseIiSaIiEED2Ev, .-_ZNSt12_Vector_baseIiSaIiEED2Ev
	.weak	_ZNSt12_Vector_baseIiSaIiEED1Ev
	.set	_ZNSt12_Vector_baseIiSaIiEED1Ev,_ZNSt12_Vector_baseIiSaIiEED2Ev
	.section	.text._ZNSt6vectorIiSaIiEE21_M_default_initializeEm,"axG",@progbits,_ZNSt6vectorIiSaIiEE21_M_default_initializeEm,comdat
	.align 2
	.weak	_ZNSt6vectorIiSaIiEE21_M_default_initializeEm
	.type	_ZNSt6vectorIiSaIiEE21_M_default_initializeEm, @function
_ZNSt6vectorIiSaIiEE21_M_default_initializeEm:
.LFB10952:
	.cfi_startproc
	endbr64
	pushq	%rbp
	.cfi_def_cfa_offset 16
	.cfi_offset 6, -16
	movq	%rsp, %rbp
	.cfi_def_cfa_register 6
	subq	$16, %rsp
	movq	%rdi, -8(%rbp)
	movq	%rsi, -16(%rbp)
	movq	-8(%rbp), %rax
	movq	%rax, %rdi
	call	_ZNSt12_Vector_baseIiSaIiEE19_M_get_Tp_allocatorEv
	movq	%rax, %rdx
	movq	-8(%rbp), %rax
	movq	(%rax), %rax
	movq	-16(%rbp), %rcx
	movq	%rcx, %rsi
	movq	%rax, %rdi
	call	_ZSt27__uninitialized_default_n_aIPimiET_S1_T0_RSaIT1_E
	movq	-8(%rbp), %rdx
	movq	%rax, 8(%rdx)
	nop
	leave
	.cfi_def_cfa 7, 8
	ret
	.cfi_endproc
.LFE10952:
	.size	_ZNSt6vectorIiSaIiEE21_M_default_initializeEm, .-_ZNSt6vectorIiSaIiEE21_M_default_initializeEm
	.section	.text._ZNSt12_Vector_baseIiSaIiEE19_M_get_Tp_allocatorEv,"axG",@progbits,_ZNSt12_Vector_baseIiSaIiEE19_M_get_Tp_allocatorEv,comdat
	.align 2
	.weak	_ZNSt12_Vector_baseIiSaIiEE19_M_get_Tp_allocatorEv
	.type	_ZNSt12_Vector_baseIiSaIiEE19_M_get_Tp_allocatorEv, @function
_ZNSt12_Vector_baseIiSaIiEE19_M_get_Tp_allocatorEv:
.LFB10953:
	.cfi_startproc
	endbr64
	pushq	%rbp
	.cfi_def_cfa_offset 16
	.cfi_offset 6, -16
	movq	%rsp, %rbp
	.cfi_def_cfa_register 6
	movq	%rdi, -8(%rbp)
	movq	-8(%rbp), %rax
	popq	%rbp
	.cfi_def_cfa 7, 8
	ret
	.cfi_endproc
.LFE10953:
	.size	_ZNSt12_Vector_baseIiSaIiEE19_M_get_Tp_allocatorEv, .-_ZNSt12_Vector_baseIiSaIiEE19_M_get_Tp_allocatorEv
	.section	.text._ZNSt13_Bvector_baseISaIbEE13_Bvector_implC2ERKSaImE,"axG",@progbits,_ZNSt13_Bvector_baseISaIbEE13_Bvector_implC5ERKSaImE,comdat
	.align 2
	.weak	_ZNSt13_Bvector_baseISaIbEE13_Bvector_implC2ERKSaImE
	.type	_ZNSt13_Bvector_baseISaIbEE13_Bvector_implC2ERKSaImE, @function
_ZNSt13_Bvector_baseISaIbEE13_Bvector_implC2ERKSaImE:
.LFB11171:
	.cfi_startproc
	endbr64
	pushq	%rbp
	.cfi_def_cfa_offset 16
	.cfi_offset 6, -16
	movq	%rsp, %rbp
	.cfi_def_cfa_register 6
	subq	$48, %rsp
	movq	%rdi, -40(%rbp)
	movq	%rsi, -48(%rbp)
	movq	-40(%rbp), %rax
	movq	%rax, -32(%rbp)
	movq	-48(%rbp), %rax
	movq	%rax, -24(%rbp)
	movq	-32(%rbp), %rax
	movq	%rax, -16(%rbp)
	movq	-24(%rbp), %rax
	movq	%rax, -8(%rbp)
	nop
	nop
	movq	-40(%rbp), %rax
	movq	%rax, %rdi
	call	_ZNSt13_Bvector_baseISaIbEE18_Bvector_impl_dataC2Ev
	nop
	leave
	.cfi_def_cfa 7, 8
	ret
	.cfi_endproc
.LFE11171:
	.size	_ZNSt13_Bvector_baseISaIbEE13_Bvector_implC2ERKSaImE, .-_ZNSt13_Bvector_baseISaIbEE13_Bvector_implC2ERKSaImE
	.weak	_ZNSt13_Bvector_baseISaIbEE13_Bvector_implC1ERKSaImE
	.set	_ZNSt13_Bvector_baseISaIbEE13_Bvector_implC1ERKSaImE,_ZNSt13_Bvector_baseISaIbEE13_Bvector_implC2ERKSaImE
	.section	.text._ZNSt13_Bvector_baseISaIbEE13_M_deallocateEv,"axG",@progbits,_ZNSt13_Bvector_baseISaIbEE13_M_deallocateEv,comdat
	.align 2
	.weak	_ZNSt13_Bvector_baseISaIbEE13_M_deallocateEv
	.type	_ZNSt13_Bvector_baseISaIbEE13_M_deallocateEv, @function
_ZNSt13_Bvector_baseISaIbEE13_M_deallocateEv:
.LFB11173:
	.cfi_startproc
	endbr64
	pushq	%rbp
	.cfi_def_cfa_offset 16
	.cfi_offset 6, -16
	movq	%rsp, %rbp
	.cfi_def_cfa_register 6
	subq	$48, %rsp
	movq	%rdi, -40(%rbp)
	movq	-40(%rbp), %rax
	movq	(%rax), %rax
	testq	%rax, %rax
	je	.L131
	movq	-40(%rbp), %rax
	movq	%rax, %rdi
	call	_ZNKSt13_Bvector_baseISaIbEE13_Bvector_impl11_M_end_addrEv
	movq	%rax, %rdx
	movq	-40(%rbp), %rax
	movq	(%rax), %rax
	subq	%rax, %rdx
	movq	%rdx, %rax
	sarq	$3, %rax
	movq	%rax, -32(%rbp)
	movq	-40(%rbp), %rax
	movq	32(%rax), %rax
	movq	-32(%rbp), %rdx
	salq	$3, %rdx
	negq	%rdx
	addq	%rax, %rdx
	movq	-40(%rbp), %rax
	movq	%rax, -24(%rbp)
	movq	%rdx, -16(%rbp)
	movq	-32(%rbp), %rax
	movq	%rax, -8(%rbp)
	movq	-8(%rbp), %rdx
	movq	-16(%rbp), %rcx
	movq	-24(%rbp), %rax
	movq	%rcx, %rsi
	movq	%rax, %rdi
	call	_ZNSt15__new_allocatorImE10deallocateEPmm
	nop
	movq	-40(%rbp), %rax
	movq	%rax, %rdi
	call	_ZNSt13_Bvector_baseISaIbEE18_Bvector_impl_data8_M_resetEv
.L131:
	nop
	leave
	.cfi_def_cfa 7, 8
	ret
	.cfi_endproc
.LFE11173:
	.size	_ZNSt13_Bvector_baseISaIbEE13_M_deallocateEv, .-_ZNSt13_Bvector_baseISaIbEE13_M_deallocateEv
	.section	.text._ZNSt13_Bvector_baseISaIbEE11_M_allocateEm,"axG",@progbits,_ZNSt13_Bvector_baseISaIbEE11_M_allocateEm,comdat
	.align 2
	.weak	_ZNSt13_Bvector_baseISaIbEE11_M_allocateEm
	.type	_ZNSt13_Bvector_baseISaIbEE11_M_allocateEm, @function
_ZNSt13_Bvector_baseISaIbEE11_M_allocateEm:
.LFB11174:
	.cfi_startproc
	endbr64
	pushq	%rbp
	.cfi_def_cfa_offset 16
	.cfi_offset 6, -16
	movq	%rsp, %rbp
	.cfi_def_cfa_register 6
	subq	$48, %rsp
	movq	%rdi, -40(%rbp)
	movq	%rsi, -48(%rbp)
	movq	-48(%rbp), %rax
	movq	%rax, %rdi
	call	_ZNSt13_Bvector_baseISaIbEE8_S_nwordEm
	movq	-40(%rbp), %rdx
	movq	%rdx, -16(%rbp)
	movq	%rax, -8(%rbp)
	movq	-8(%rbp), %rcx
	movq	-16(%rbp), %rax
	movl	$0, %edx
	movq	%rcx, %rsi
	movq	%rax, %rdi
	call	_ZNSt15__new_allocatorImE8allocateEmPKv
	nop
	movq	%rax, -24(%rbp)
	movq	-24(%rbp), %rax
	leave
	.cfi_def_cfa 7, 8
	ret
	.cfi_endproc
.LFE11174:
	.size	_ZNSt13_Bvector_baseISaIbEE11_M_allocateEm, .-_ZNSt13_Bvector_baseISaIbEE11_M_allocateEm
	.section	.text._ZNSt13_Bvector_baseISaIbEE8_S_nwordEm,"axG",@progbits,_ZNSt13_Bvector_baseISaIbEE8_S_nwordEm,comdat
	.weak	_ZNSt13_Bvector_baseISaIbEE8_S_nwordEm
	.type	_ZNSt13_Bvector_baseISaIbEE8_S_nwordEm, @function
_ZNSt13_Bvector_baseISaIbEE8_S_nwordEm:
.LFB11175:
	.cfi_startproc
	endbr64
	pushq	%rbp
	.cfi_def_cfa_offset 16
	.cfi_offset 6, -16
	movq	%rsp, %rbp
	.cfi_def_cfa_register 6
	movq	%rdi, -8(%rbp)
	movq	-8(%rbp), %rax
	addq	$63, %rax
	shrq	$6, %rax
	popq	%rbp
	.cfi_def_cfa 7, 8
	ret
	.cfi_endproc
.LFE11175:
	.size	_ZNSt13_Bvector_baseISaIbEE8_S_nwordEm, .-_ZNSt13_Bvector_baseISaIbEE8_S_nwordEm
	.section	.text._ZSt11__addressofImEPT_RS0_,"axG",@progbits,_ZSt11__addressofImEPT_RS0_,comdat
	.weak	_ZSt11__addressofImEPT_RS0_
	.type	_ZSt11__addressofImEPT_RS0_, @function
_ZSt11__addressofImEPT_RS0_:
.LFB11176:
	.cfi_startproc
	endbr64
	pushq	%rbp
	.cfi_def_cfa_offset 16
	.cfi_offset 6, -16
	movq	%rsp, %rbp
	.cfi_def_cfa_register 6
	movq	%rdi, -8(%rbp)
	movq	-8(%rbp), %rax
	popq	%rbp
	.cfi_def_cfa 7, 8
	ret
	.cfi_endproc
.LFE11176:
	.size	_ZSt11__addressofImEPT_RS0_, .-_ZSt11__addressofImEPT_RS0_
	.section	.text._ZNKSt13_Bvector_baseISaIbEE13_Bvector_impl11_M_end_addrEv,"axG",@progbits,_ZNKSt13_Bvector_baseISaIbEE13_Bvector_impl11_M_end_addrEv,comdat
	.align 2
	.weak	_ZNKSt13_Bvector_baseISaIbEE13_Bvector_impl11_M_end_addrEv
	.type	_ZNKSt13_Bvector_baseISaIbEE13_Bvector_impl11_M_end_addrEv, @function
_ZNKSt13_Bvector_baseISaIbEE13_Bvector_impl11_M_end_addrEv:
.LFB11177:
	.cfi_startproc
	endbr64
	pushq	%rbp
	.cfi_def_cfa_offset 16
	.cfi_offset 6, -16
	movq	%rsp, %rbp
	.cfi_def_cfa_register 6
	subq	$16, %rsp
	movq	%rdi, -8(%rbp)
	movq	-8(%rbp), %rax
	movq	32(%rax), %rax
	testq	%rax, %rax
	je	.L140
	movq	-8(%rbp), %rax
	movq	32(%rax), %rax
	subq	$8, %rax
	movq	%rax, %rdi
	call	_ZSt11__addressofImEPT_RS0_
	addq	$8, %rax
	jmp	.L141
.L140:
	movl	$0, %eax
.L141:
	leave
	.cfi_def_cfa 7, 8
	ret
	.cfi_endproc
.LFE11177:
	.size	_ZNKSt13_Bvector_baseISaIbEE13_Bvector_impl11_M_end_addrEv, .-_ZNKSt13_Bvector_baseISaIbEE13_Bvector_impl11_M_end_addrEv
	.section	.text._ZNSt6vectorIiSaIiEE11_S_max_sizeERKS0_,"axG",@progbits,_ZNSt6vectorIiSaIiEE11_S_max_sizeERKS0_,comdat
	.weak	_ZNSt6vectorIiSaIiEE11_S_max_sizeERKS0_
	.type	_ZNSt6vectorIiSaIiEE11_S_max_sizeERKS0_, @function
_ZNSt6vectorIiSaIiEE11_S_max_sizeERKS0_:
.LFB11178:
	.cfi_startproc
	endbr64
	pushq	%rbp
	.cfi_def_cfa_offset 16
	.cfi_offset 6, -16
	movq	%rsp, %rbp
	.cfi_def_cfa_register 6
	subq	$64, %rsp
	movq	%rdi, -56(%rbp)
	movq	%fs:40, %rax
	movq	%rax, -8(%rbp)
	xorl	%eax, %eax
	movabsq	$2305843009213693951, %rax
	movq	%rax, -48(%rbp)
	movq	-56(%rbp), %rax
	movq	%rax, -32(%rbp)
	movq	-32(%rbp), %rax
	movq	%rax, -24(%rbp)
	movq	-24(%rbp), %rax
	movq	%rax, -16(%rbp)
	movabsq	$2305843009213693951, %rax
	nop
	nop
	movq	%rax, -40(%rbp)
	leaq	-40(%rbp), %rdx
	leaq	-48(%rbp), %rax
	movq	%rdx, %rsi
	movq	%rax, %rdi
	call	_ZSt3minImERKT_S2_S2_
	movq	(%rax), %rax
	movq	-8(%rbp), %rdx
	subq	%fs:40, %rdx
	je	.L147
	call	__stack_chk_fail@PLT
.L147:
	leave
	.cfi_def_cfa 7, 8
	ret
	.cfi_endproc
.LFE11178:
	.size	_ZNSt6vectorIiSaIiEE11_S_max_sizeERKS0_, .-_ZNSt6vectorIiSaIiEE11_S_max_sizeERKS0_
	.section	.text._ZNSt12_Vector_baseIiSaIiEE12_Vector_implC2ERKS0_,"axG",@progbits,_ZNSt12_Vector_baseIiSaIiEE12_Vector_implC5ERKS0_,comdat
	.align 2
	.weak	_ZNSt12_Vector_baseIiSaIiEE12_Vector_implC2ERKS0_
	.type	_ZNSt12_Vector_baseIiSaIiEE12_Vector_implC2ERKS0_, @function
_ZNSt12_Vector_baseIiSaIiEE12_Vector_implC2ERKS0_:
.LFB11183:
	.cfi_startproc
	endbr64
	pushq	%rbp
	.cfi_def_cfa_offset 16
	.cfi_offset 6, -16
	movq	%rsp, %rbp
	.cfi_def_cfa_register 6
	subq	$48, %rsp
	movq	%rdi, -40(%rbp)
	movq	%rsi, -48(%rbp)
	movq	-40(%rbp), %rax
	movq	%rax, -32(%rbp)
	movq	-48(%rbp), %rax
	movq	%rax, -24(%rbp)
	movq	-32(%rbp), %rax
	movq	%rax, -16(%rbp)
	movq	-24(%rbp), %rax
	movq	%rax, -8(%rbp)
	nop
	nop
	movq	-40(%rbp), %rax
	movq	%rax, %rdi
	call	_ZNSt12_Vector_baseIiSaIiEE17_Vector_impl_dataC2Ev
	nop
	leave
	.cfi_def_cfa 7, 8
	ret
	.cfi_endproc
.LFE11183:
	.size	_ZNSt12_Vector_baseIiSaIiEE12_Vector_implC2ERKS0_, .-_ZNSt12_Vector_baseIiSaIiEE12_Vector_implC2ERKS0_
	.weak	_ZNSt12_Vector_baseIiSaIiEE12_Vector_implC1ERKS0_
	.set	_ZNSt12_Vector_baseIiSaIiEE12_Vector_implC1ERKS0_,_ZNSt12_Vector_baseIiSaIiEE12_Vector_implC2ERKS0_
	.section	.text._ZNSt12_Vector_baseIiSaIiEE17_M_create_storageEm,"axG",@progbits,_ZNSt12_Vector_baseIiSaIiEE17_M_create_storageEm,comdat
	.align 2
	.weak	_ZNSt12_Vector_baseIiSaIiEE17_M_create_storageEm
	.type	_ZNSt12_Vector_baseIiSaIiEE17_M_create_storageEm, @function
_ZNSt12_Vector_baseIiSaIiEE17_M_create_storageEm:
.LFB11185:
	.cfi_startproc
	endbr64
	pushq	%rbp
	.cfi_def_cfa_offset 16
	.cfi_offset 6, -16
	movq	%rsp, %rbp
	.cfi_def_cfa_register 6
	subq	$16, %rsp
	movq	%rdi, -8(%rbp)
	movq	%rsi, -16(%rbp)
	movq	-16(%rbp), %rdx
	movq	-8(%rbp), %rax
	movq	%rdx, %rsi
	movq	%rax, %rdi
	call	_ZNSt12_Vector_baseIiSaIiEE11_M_allocateEm
	movq	-8(%rbp), %rdx
	movq	%rax, (%rdx)
	movq	-8(%rbp), %rax
	movq	(%rax), %rdx
	movq	-8(%rbp), %rax
	movq	%rdx, 8(%rax)
	movq	-8(%rbp), %rax
	movq	(%rax), %rax
	movq	-16(%rbp), %rdx
	salq	$2, %rdx
	addq	%rax, %rdx
	movq	-8(%rbp), %rax
	movq	%rdx, 16(%rax)
	nop
	leave
	.cfi_def_cfa 7, 8
	ret
	.cfi_endproc
.LFE11185:
	.size	_ZNSt12_Vector_baseIiSaIiEE17_M_create_storageEm, .-_ZNSt12_Vector_baseIiSaIiEE17_M_create_storageEm
	.section	.text._ZNSt12_Vector_baseIiSaIiEE13_M_deallocateEPim,"axG",@progbits,_ZNSt12_Vector_baseIiSaIiEE13_M_deallocateEPim,comdat
	.align 2
	.weak	_ZNSt12_Vector_baseIiSaIiEE13_M_deallocateEPim
	.type	_ZNSt12_Vector_baseIiSaIiEE13_M_deallocateEPim, @function
_ZNSt12_Vector_baseIiSaIiEE13_M_deallocateEPim:
.LFB11186:
	.cfi_startproc
	endbr64
	pushq	%rbp
	.cfi_def_cfa_offset 16
	.cfi_offset 6, -16
	movq	%rsp, %rbp
	.cfi_def_cfa_register 6
	subq	$64, %rsp
	movq	%rdi, -40(%rbp)
	movq	%rsi, -48(%rbp)
	movq	%rdx, -56(%rbp)
	cmpq	$0, -48(%rbp)
	je	.L152
	movq	-40(%rbp), %rax
	movq	%rax, -24(%rbp)
	movq	-48(%rbp), %rax
	movq	%rax, -16(%rbp)
	movq	-56(%rbp), %rax
	movq	%rax, -8(%rbp)
	movq	-8(%rbp), %rdx
	movq	-16(%rbp), %rcx
	movq	-24(%rbp), %rax
	movq	%rcx, %rsi
	movq	%rax, %rdi
	call	_ZNSt15__new_allocatorIiE10deallocateEPim
	nop
.L152:
	nop
	leave
	.cfi_def_cfa 7, 8
	ret
	.cfi_endproc
.LFE11186:
	.size	_ZNSt12_Vector_baseIiSaIiEE13_M_deallocateEPim, .-_ZNSt12_Vector_baseIiSaIiEE13_M_deallocateEPim
	.section	.text._ZSt27__uninitialized_default_n_aIPimiET_S1_T0_RSaIT1_E,"axG",@progbits,_ZSt27__uninitialized_default_n_aIPimiET_S1_T0_RSaIT1_E,comdat
	.weak	_ZSt27__uninitialized_default_n_aIPimiET_S1_T0_RSaIT1_E
	.type	_ZSt27__uninitialized_default_n_aIPimiET_S1_T0_RSaIT1_E, @function
_ZSt27__uninitialized_default_n_aIPimiET_S1_T0_RSaIT1_E:
.LFB11187:
	.cfi_startproc
	endbr64
	pushq	%rbp
	.cfi_def_cfa_offset 16
	.cfi_offset 6, -16
	movq	%rsp, %rbp
	.cfi_def_cfa_register 6
	subq	$32, %rsp
	movq	%rdi, -8(%rbp)
	movq	%rsi, -16(%rbp)
	movq	%rdx, -24(%rbp)
	movq	-16(%rbp), %rdx
	movq	-8(%rbp), %rax
	movq	%rdx, %rsi
	movq	%rax, %rdi
	call	_ZSt25__uninitialized_default_nIPimET_S1_T0_
	leave
	.cfi_def_cfa 7, 8
	ret
	.cfi_endproc
.LFE11187:
	.size	_ZSt27__uninitialized_default_n_aIPimiET_S1_T0_RSaIT1_E, .-_ZSt27__uninitialized_default_n_aIPimiET_S1_T0_RSaIT1_E
	.section	.text._ZSt8_DestroyIPiEvT_S1_,"axG",@progbits,_ZSt8_DestroyIPiEvT_S1_,comdat
	.weak	_ZSt8_DestroyIPiEvT_S1_
	.type	_ZSt8_DestroyIPiEvT_S1_, @function
_ZSt8_DestroyIPiEvT_S1_:
.LFB11188:
	.cfi_startproc
	endbr64
	pushq	%rbp
	.cfi_def_cfa_offset 16
	.cfi_offset 6, -16
	movq	%rsp, %rbp
	.cfi_def_cfa_register 6
	subq	$16, %rsp
	movq	%rdi, -8(%rbp)
	movq	%rsi, -16(%rbp)
	movq	-16(%rbp), %rdx
	movq	-8(%rbp), %rax
	movq	%rdx, %rsi
	movq	%rax, %rdi
	call	_ZNSt12_Destroy_auxILb1EE9__destroyIPiEEvT_S3_
	nop
	leave
	.cfi_def_cfa 7, 8
	ret
	.cfi_endproc
.LFE11188:
	.size	_ZSt8_DestroyIPiEvT_S1_, .-_ZSt8_DestroyIPiEvT_S1_
	.section	.text._ZNSt15__new_allocatorImE10deallocateEPmm,"axG",@progbits,_ZNSt15__new_allocatorImE10deallocateEPmm,comdat
	.align 2
	.weak	_ZNSt15__new_allocatorImE10deallocateEPmm
	.type	_ZNSt15__new_allocatorImE10deallocateEPmm, @function
_ZNSt15__new_allocatorImE10deallocateEPmm:
.LFB11303:
	.cfi_startproc
	endbr64
	pushq	%rbp
	.cfi_def_cfa_offset 16
	.cfi_offset 6, -16
	movq	%rsp, %rbp
	.cfi_def_cfa_register 6
	subq	$32, %rsp
	movq	%rdi, -8(%rbp)
	movq	%rsi, -16(%rbp)
	movq	%rdx, -24(%rbp)
	movq	-24(%rbp), %rax
	leaq	0(,%rax,8), %rdx
	movq	-16(%rbp), %rax
	movq	%rdx, %rsi
	movq	%rax, %rdi
	call	_ZdlPvm@PLT
	leave
	.cfi_def_cfa 7, 8
	ret
	.cfi_endproc
.LFE11303:
	.size	_ZNSt15__new_allocatorImE10deallocateEPmm, .-_ZNSt15__new_allocatorImE10deallocateEPmm
	.section	.text._ZNSt13_Bvector_baseISaIbEE18_Bvector_impl_dataC2Ev,"axG",@progbits,_ZNSt13_Bvector_baseISaIbEE18_Bvector_impl_dataC5Ev,comdat
	.align 2
	.weak	_ZNSt13_Bvector_baseISaIbEE18_Bvector_impl_dataC2Ev
	.type	_ZNSt13_Bvector_baseISaIbEE18_Bvector_impl_dataC2Ev, @function
_ZNSt13_Bvector_baseISaIbEE18_Bvector_impl_dataC2Ev:
.LFB11341:
	.cfi_startproc
	endbr64
	pushq	%rbp
	.cfi_def_cfa_offset 16
	.cfi_offset 6, -16
	movq	%rsp, %rbp
	.cfi_def_cfa_register 6
	subq	$16, %rsp
	movq	%rdi, -8(%rbp)
	movq	-8(%rbp), %rax
	movq	%rax, %rdi
	call	_ZNSt13_Bit_iteratorC1Ev
	movq	-8(%rbp), %rax
	addq	$16, %rax
	movq	%rax, %rdi
	call	_ZNSt13_Bit_iteratorC1Ev
	movq	-8(%rbp), %rax
	movq	$0, 32(%rax)
	nop
	leave
	.cfi_def_cfa 7, 8
	ret
	.cfi_endproc
.LFE11341:
	.size	_ZNSt13_Bvector_baseISaIbEE18_Bvector_impl_dataC2Ev, .-_ZNSt13_Bvector_baseISaIbEE18_Bvector_impl_dataC2Ev
	.weak	_ZNSt13_Bvector_baseISaIbEE18_Bvector_impl_dataC1Ev
	.set	_ZNSt13_Bvector_baseISaIbEE18_Bvector_impl_dataC1Ev,_ZNSt13_Bvector_baseISaIbEE18_Bvector_impl_dataC2Ev
	.section	.text._ZNSt13_Bvector_baseISaIbEE18_Bvector_impl_data8_M_resetEv,"axG",@progbits,_ZNSt13_Bvector_baseISaIbEE18_Bvector_impl_data8_M_resetEv,comdat
	.align 2
	.weak	_ZNSt13_Bvector_baseISaIbEE18_Bvector_impl_data8_M_resetEv
	.type	_ZNSt13_Bvector_baseISaIbEE18_Bvector_impl_data8_M_resetEv, @function
_ZNSt13_Bvector_baseISaIbEE18_Bvector_impl_data8_M_resetEv:
.LFB11343:
	.cfi_startproc
	endbr64
	pushq	%rbp
	.cfi_def_cfa_offset 16
	.cfi_offset 6, -16
	movq	%rsp, %rbp
	.cfi_def_cfa_register 6
	pushq	%rbx
	subq	$72, %rsp
	.cfi_offset 3, -24
	movq	%rdi, -72(%rbp)
	movq	%fs:40, %rax
	movq	%rax, -24(%rbp)
	xorl	%eax, %eax
	leaq	-64(%rbp), %rax
	movq	%rax, %rdi
	call	_ZNSt13_Bvector_baseISaIbEE18_Bvector_impl_dataC1Ev
	leaq	-64(%rbp), %rdx
	movq	-72(%rbp), %rax
	movq	(%rdx), %rcx
	movq	8(%rdx), %rbx
	movq	%rcx, (%rax)
	movq	%rbx, 8(%rax)
	movq	16(%rdx), %rcx
	movq	24(%rdx), %rbx
	movq	%rcx, 16(%rax)
	movq	%rbx, 24(%rax)
	movq	32(%rdx), %rdx
	movq	%rdx, 32(%rax)
	nop
	movq	-24(%rbp), %rax
	subq	%fs:40, %rax
	je	.L160
	call	__stack_chk_fail@PLT
.L160:
	movq	-8(%rbp), %rbx
	leave
	.cfi_def_cfa 7, 8
	ret
	.cfi_endproc
.LFE11343:
	.size	_ZNSt13_Bvector_baseISaIbEE18_Bvector_impl_data8_M_resetEv, .-_ZNSt13_Bvector_baseISaIbEE18_Bvector_impl_data8_M_resetEv
	.section	.text._ZNSt12_Vector_baseIiSaIiEE17_Vector_impl_dataC2Ev,"axG",@progbits,_ZNSt12_Vector_baseIiSaIiEE17_Vector_impl_dataC5Ev,comdat
	.align 2
	.weak	_ZNSt12_Vector_baseIiSaIiEE17_Vector_impl_dataC2Ev
	.type	_ZNSt12_Vector_baseIiSaIiEE17_Vector_impl_dataC2Ev, @function
_ZNSt12_Vector_baseIiSaIiEE17_Vector_impl_dataC2Ev:
.LFB11350:
	.cfi_startproc
	endbr64
	pushq	%rbp
	.cfi_def_cfa_offset 16
	.cfi_offset 6, -16
	movq	%rsp, %rbp
	.cfi_def_cfa_register 6
	movq	%rdi, -8(%rbp)
	movq	-8(%rbp), %rax
	movq	$0, (%rax)
	movq	-8(%rbp), %rax
	movq	$0, 8(%rax)
	movq	-8(%rbp), %rax
	movq	$0, 16(%rax)
	nop
	popq	%rbp
	.cfi_def_cfa 7, 8
	ret
	.cfi_endproc
.LFE11350:
	.size	_ZNSt12_Vector_baseIiSaIiEE17_Vector_impl_dataC2Ev, .-_ZNSt12_Vector_baseIiSaIiEE17_Vector_impl_dataC2Ev
	.weak	_ZNSt12_Vector_baseIiSaIiEE17_Vector_impl_dataC1Ev
	.set	_ZNSt12_Vector_baseIiSaIiEE17_Vector_impl_dataC1Ev,_ZNSt12_Vector_baseIiSaIiEE17_Vector_impl_dataC2Ev
	.section	.text._ZNSt12_Vector_baseIiSaIiEE11_M_allocateEm,"axG",@progbits,_ZNSt12_Vector_baseIiSaIiEE11_M_allocateEm,comdat
	.align 2
	.weak	_ZNSt12_Vector_baseIiSaIiEE11_M_allocateEm
	.type	_ZNSt12_Vector_baseIiSaIiEE11_M_allocateEm, @function
_ZNSt12_Vector_baseIiSaIiEE11_M_allocateEm:
.LFB11352:
	.cfi_startproc
	endbr64
	pushq	%rbp
	.cfi_def_cfa_offset 16
	.cfi_offset 6, -16
	movq	%rsp, %rbp
	.cfi_def_cfa_register 6
	subq	$32, %rsp
	movq	%rdi, -24(%rbp)
	movq	%rsi, -32(%rbp)
	cmpq	$0, -32(%rbp)
	je	.L163
	movq	-24(%rbp), %rax
	movq	%rax, -16(%rbp)
	movq	-32(%rbp), %rax
	movq	%rax, -8(%rbp)
	movq	-8(%rbp), %rcx
	movq	-16(%rbp), %rax
	movl	$0, %edx
	movq	%rcx, %rsi
	movq	%rax, %rdi
	call	_ZNSt15__new_allocatorIiE8allocateEmPKv
	nop
	jmp	.L165
.L163:
	movl	$0, %eax
.L165:
	leave
	.cfi_def_cfa 7, 8
	ret
	.cfi_endproc
.LFE11352:
	.size	_ZNSt12_Vector_baseIiSaIiEE11_M_allocateEm, .-_ZNSt12_Vector_baseIiSaIiEE11_M_allocateEm
	.section	.text._ZSt25__uninitialized_default_nIPimET_S1_T0_,"axG",@progbits,_ZSt25__uninitialized_default_nIPimET_S1_T0_,comdat
	.weak	_ZSt25__uninitialized_default_nIPimET_S1_T0_
	.type	_ZSt25__uninitialized_default_nIPimET_S1_T0_, @function
_ZSt25__uninitialized_default_nIPimET_S1_T0_:
.LFB11354:
	.cfi_startproc
	endbr64
	pushq	%rbp
	.cfi_def_cfa_offset 16
	.cfi_offset 6, -16
	movq	%rsp, %rbp
	.cfi_def_cfa_register 6
	subq	$32, %rsp
	movq	%rdi, -24(%rbp)
	movq	%rsi, -32(%rbp)
	movb	$1, -1(%rbp)
	movq	-32(%rbp), %rdx
	movq	-24(%rbp), %rax
	movq	%rdx, %rsi
	movq	%rax, %rdi
	call	_ZNSt27__uninitialized_default_n_1ILb1EE18__uninit_default_nIPimEET_S3_T0_
	leave
	.cfi_def_cfa 7, 8
	ret
	.cfi_endproc
.LFE11354:
	.size	_ZSt25__uninitialized_default_nIPimET_S1_T0_, .-_ZSt25__uninitialized_default_nIPimET_S1_T0_
	.section	.text._ZNSt12_Destroy_auxILb1EE9__destroyIPiEEvT_S3_,"axG",@progbits,_ZNSt12_Destroy_auxILb1EE9__destroyIPiEEvT_S3_,comdat
	.weak	_ZNSt12_Destroy_auxILb1EE9__destroyIPiEEvT_S3_
	.type	_ZNSt12_Destroy_auxILb1EE9__destroyIPiEEvT_S3_, @function
_ZNSt12_Destroy_auxILb1EE9__destroyIPiEEvT_S3_:
.LFB11355:
	.cfi_startproc
	endbr64
	pushq	%rbp
	.cfi_def_cfa_offset 16
	.cfi_offset 6, -16
	movq	%rsp, %rbp
	.cfi_def_cfa_register 6
	movq	%rdi, -8(%rbp)
	movq	%rsi, -16(%rbp)
	nop
	popq	%rbp
	.cfi_def_cfa 7, 8
	ret
	.cfi_endproc
.LFE11355:
	.size	_ZNSt12_Destroy_auxILb1EE9__destroyIPiEEvT_S3_, .-_ZNSt12_Destroy_auxILb1EE9__destroyIPiEEvT_S3_
	.section	.text._ZNSt15__new_allocatorImE8allocateEmPKv,"axG",@progbits,_ZNSt15__new_allocatorImE8allocateEmPKv,comdat
	.align 2
	.weak	_ZNSt15__new_allocatorImE8allocateEmPKv
	.type	_ZNSt15__new_allocatorImE8allocateEmPKv, @function
_ZNSt15__new_allocatorImE8allocateEmPKv:
.LFB11460:
	.cfi_startproc
	endbr64
	pushq	%rbp
	.cfi_def_cfa_offset 16
	.cfi_offset 6, -16
	movq	%rsp, %rbp
	.cfi_def_cfa_register 6
	subq	$48, %rsp
	movq	%rdi, -24(%rbp)
	movq	%rsi, -32(%rbp)
	movq	%rdx, -40(%rbp)
	movq	-24(%rbp), %rax
	movq	%rax, -8(%rbp)
	movabsq	$1152921504606846975, %rax
	cmpq	-32(%rbp), %rax
	setb	%al
	movzbl	%al, %eax
	testq	%rax, %rax
	setne	%al
	testb	%al, %al
	je	.L172
	movabsq	$2305843009213693951, %rax
	cmpq	-32(%rbp), %rax
	jnb	.L173
	call	_ZSt28__throw_bad_array_new_lengthv@PLT
.L173:
	call	_ZSt17__throw_bad_allocv@PLT
.L172:
	movq	-32(%rbp), %rax
	salq	$3, %rax
	movq	%rax, %rdi
	call	_Znwm@PLT
	nop
	leave
	.cfi_def_cfa 7, 8
	ret
	.cfi_endproc
.LFE11460:
	.size	_ZNSt15__new_allocatorImE8allocateEmPKv, .-_ZNSt15__new_allocatorImE8allocateEmPKv
	.section	.text._ZNSt15__new_allocatorIiE10deallocateEPim,"axG",@progbits,_ZNSt15__new_allocatorIiE10deallocateEPim,comdat
	.align 2
	.weak	_ZNSt15__new_allocatorIiE10deallocateEPim
	.type	_ZNSt15__new_allocatorIiE10deallocateEPim, @function
_ZNSt15__new_allocatorIiE10deallocateEPim:
.LFB11463:
	.cfi_startproc
	endbr64
	pushq	%rbp
	.cfi_def_cfa_offset 16
	.cfi_offset 6, -16
	movq	%rsp, %rbp
	.cfi_def_cfa_register 6
	subq	$32, %rsp
	movq	%rdi, -8(%rbp)
	movq	%rsi, -16(%rbp)
	movq	%rdx, -24(%rbp)
	movq	-24(%rbp), %rax
	leaq	0(,%rax,4), %rdx
	movq	-16(%rbp), %rax
	movq	%rdx, %rsi
	movq	%rax, %rdi
	call	_ZdlPvm@PLT
	leave
	.cfi_def_cfa 7, 8
	ret
	.cfi_endproc
.LFE11463:
	.size	_ZNSt15__new_allocatorIiE10deallocateEPim, .-_ZNSt15__new_allocatorIiE10deallocateEPim
	.section	.text._ZNSt27__uninitialized_default_n_1ILb1EE18__uninit_default_nIPimEET_S3_T0_,"axG",@progbits,_ZNSt27__uninitialized_default_n_1ILb1EE18__uninit_default_nIPimEET_S3_T0_,comdat
	.weak	_ZNSt27__uninitialized_default_n_1ILb1EE18__uninit_default_nIPimEET_S3_T0_
	.type	_ZNSt27__uninitialized_default_n_1ILb1EE18__uninit_default_nIPimEET_S3_T0_, @function
_ZNSt27__uninitialized_default_n_1ILb1EE18__uninit_default_nIPimEET_S3_T0_:
.LFB11464:
	.cfi_startproc
	endbr64
	pushq	%rbp
	.cfi_def_cfa_offset 16
	.cfi_offset 6, -16
	movq	%rsp, %rbp
	.cfi_def_cfa_register 6
	subq	$32, %rsp
	movq	%rdi, -24(%rbp)
	movq	%rsi, -32(%rbp)
	cmpq	$0, -32(%rbp)
	je	.L178
	movq	-24(%rbp), %rax
	movq	%rax, %rdi
	call	_ZSt11__addressofIiEPT_RS0_
	movq	%rax, -8(%rbp)
	movq	-8(%rbp), %rax
	movq	%rax, %rdi
	call	_ZSt10_ConstructIiJEEvPT_DpOT0_
	addq	$4, -24(%rbp)
	movq	-32(%rbp), %rax
	leaq	-1(%rax), %rcx
	movq	-8(%rbp), %rdx
	movq	-24(%rbp), %rax
	movq	%rcx, %rsi
	movq	%rax, %rdi
	call	_ZSt6fill_nIPimiET_S1_T0_RKT1_
	movq	%rax, -24(%rbp)
.L178:
	movq	-24(%rbp), %rax
	leave
	.cfi_def_cfa 7, 8
	ret
	.cfi_endproc
.LFE11464:
	.size	_ZNSt27__uninitialized_default_n_1ILb1EE18__uninit_default_nIPimEET_S3_T0_, .-_ZNSt27__uninitialized_default_n_1ILb1EE18__uninit_default_nIPimEET_S3_T0_
	.section	.text._ZNSt15__new_allocatorIiE8allocateEmPKv,"axG",@progbits,_ZNSt15__new_allocatorIiE8allocateEmPKv,comdat
	.align 2
	.weak	_ZNSt15__new_allocatorIiE8allocateEmPKv
	.type	_ZNSt15__new_allocatorIiE8allocateEmPKv, @function
_ZNSt15__new_allocatorIiE8allocateEmPKv:
.LFB11551:
	.cfi_startproc
	endbr64
	pushq	%rbp
	.cfi_def_cfa_offset 16
	.cfi_offset 6, -16
	movq	%rsp, %rbp
	.cfi_def_cfa_register 6
	subq	$48, %rsp
	movq	%rdi, -24(%rbp)
	movq	%rsi, -32(%rbp)
	movq	%rdx, -40(%rbp)
	movq	-24(%rbp), %rax
	movq	%rax, -8(%rbp)
	movabsq	$2305843009213693951, %rax
	cmpq	-32(%rbp), %rax
	setb	%al
	movzbl	%al, %eax
	testq	%rax, %rax
	setne	%al
	testb	%al, %al
	je	.L182
	movabsq	$4611686018427387903, %rax
	cmpq	-32(%rbp), %rax
	jnb	.L183
	call	_ZSt28__throw_bad_array_new_lengthv@PLT
.L183:
	call	_ZSt17__throw_bad_allocv@PLT
.L182:
	movq	-32(%rbp), %rax
	salq	$2, %rax
	movq	%rax, %rdi
	call	_Znwm@PLT
	nop
	leave
	.cfi_def_cfa 7, 8
	ret
	.cfi_endproc
.LFE11551:
	.size	_ZNSt15__new_allocatorIiE8allocateEmPKv, .-_ZNSt15__new_allocatorIiE8allocateEmPKv
	.section	.text._ZSt11__addressofIiEPT_RS0_,"axG",@progbits,_ZSt11__addressofIiEPT_RS0_,comdat
	.weak	_ZSt11__addressofIiEPT_RS0_
	.type	_ZSt11__addressofIiEPT_RS0_, @function
_ZSt11__addressofIiEPT_RS0_:
.LFB11552:
	.cfi_startproc
	endbr64
	pushq	%rbp
	.cfi_def_cfa_offset 16
	.cfi_offset 6, -16
	movq	%rsp, %rbp
	.cfi_def_cfa_register 6
	movq	%rdi, -8(%rbp)
	movq	-8(%rbp), %rax
	popq	%rbp
	.cfi_def_cfa 7, 8
	ret
	.cfi_endproc
.LFE11552:
	.size	_ZSt11__addressofIiEPT_RS0_, .-_ZSt11__addressofIiEPT_RS0_
	.section	.text._ZSt10_ConstructIiJEEvPT_DpOT0_,"axG",@progbits,_ZSt10_ConstructIiJEEvPT_DpOT0_,comdat
	.weak	_ZSt10_ConstructIiJEEvPT_DpOT0_
	.type	_ZSt10_ConstructIiJEEvPT_DpOT0_, @function
_ZSt10_ConstructIiJEEvPT_DpOT0_:
.LFB11553:
	.cfi_startproc
	endbr64
	pushq	%rbp
	.cfi_def_cfa_offset 16
	.cfi_offset 6, -16
	movq	%rsp, %rbp
	.cfi_def_cfa_register 6
	subq	$16, %rsp
	movq	%rdi, -8(%rbp)
	movq	-8(%rbp), %rax
	movq	%rax, %rsi
	movl	$4, %edi
	call	_ZnwmPv
	movl	$0, (%rax)
	nop
	leave
	.cfi_def_cfa 7, 8
	ret
	.cfi_endproc
.LFE11553:
	.size	_ZSt10_ConstructIiJEEvPT_DpOT0_, .-_ZSt10_ConstructIiJEEvPT_DpOT0_
	.section	.text._ZSt6fill_nIPimiET_S1_T0_RKT1_,"axG",@progbits,_ZSt6fill_nIPimiET_S1_T0_RKT1_,comdat
	.weak	_ZSt6fill_nIPimiET_S1_T0_RKT1_
	.type	_ZSt6fill_nIPimiET_S1_T0_RKT1_, @function
_ZSt6fill_nIPimiET_S1_T0_RKT1_:
.LFB11554:
	.cfi_startproc
	endbr64
	pushq	%rbp
	.cfi_def_cfa_offset 16
	.cfi_offset 6, -16
	movq	%rsp, %rbp
	.cfi_def_cfa_register 6
	subq	$32, %rsp
	movq	%rdi, -8(%rbp)
	movq	%rsi, -16(%rbp)
	movq	%rdx, -24(%rbp)
	nop
	movq	-16(%rbp), %rax
	movq	%rax, %rdi
	call	_ZSt17__size_to_integerm
	movq	%rax, %rcx
	movq	-8(%rbp), %rax
	movq	-24(%rbp), %rdx
	movq	%rcx, %rsi
	movq	%rax, %rdi
	call	_ZSt10__fill_n_aIPimiET_S1_T0_RKT1_St26random_access_iterator_tag
	leave
	.cfi_def_cfa 7, 8
	ret
	.cfi_endproc
.LFE11554:
	.size	_ZSt6fill_nIPimiET_S1_T0_RKT1_, .-_ZSt6fill_nIPimiET_S1_T0_RKT1_
	.section	.text._ZSt10__fill_n_aIPimiET_S1_T0_RKT1_St26random_access_iterator_tag,"axG",@progbits,_ZSt10__fill_n_aIPimiET_S1_T0_RKT1_St26random_access_iterator_tag,comdat
	.weak	_ZSt10__fill_n_aIPimiET_S1_T0_RKT1_St26random_access_iterator_tag
	.type	_ZSt10__fill_n_aIPimiET_S1_T0_RKT1_St26random_access_iterator_tag, @function
_ZSt10__fill_n_aIPimiET_S1_T0_RKT1_St26random_access_iterator_tag:
.LFB11594:
	.cfi_startproc
	endbr64
	pushq	%rbp
	.cfi_def_cfa_offset 16
	.cfi_offset 6, -16
	movq	%rsp, %rbp
	.cfi_def_cfa_register 6
	subq	$32, %rsp
	movq	%rdi, -8(%rbp)
	movq	%rsi, -16(%rbp)
	movq	%rdx, -24(%rbp)
	cmpq	$0, -16(%rbp)
	jne	.L192
	movq	-8(%rbp), %rax
	jmp	.L193
.L192:
	movq	-16(%rbp), %rax
	leaq	0(,%rax,4), %rdx
	movq	-8(%rbp), %rax
	leaq	(%rdx,%rax), %rcx
	movq	-24(%rbp), %rdx
	movq	-8(%rbp), %rax
	movq	%rcx, %rsi
	movq	%rax, %rdi
	call	_ZSt8__fill_aIPiiEvT_S1_RKT0_
	movq	-16(%rbp), %rax
	leaq	0(,%rax,4), %rdx
	movq	-8(%rbp), %rax
	addq	%rdx, %rax
.L193:
	leave
	.cfi_def_cfa 7, 8
	ret
	.cfi_endproc
.LFE11594:
	.size	_ZSt10__fill_n_aIPimiET_S1_T0_RKT1_St26random_access_iterator_tag, .-_ZSt10__fill_n_aIPimiET_S1_T0_RKT1_St26random_access_iterator_tag
	.section	.text._ZSt8__fill_aIPiiEvT_S1_RKT0_,"axG",@progbits,_ZSt8__fill_aIPiiEvT_S1_RKT0_,comdat
	.weak	_ZSt8__fill_aIPiiEvT_S1_RKT0_
	.type	_ZSt8__fill_aIPiiEvT_S1_RKT0_, @function
_ZSt8__fill_aIPiiEvT_S1_RKT0_:
.LFB11601:
	.cfi_startproc
	endbr64
	pushq	%rbp
	.cfi_def_cfa_offset 16
	.cfi_offset 6, -16
	movq	%rsp, %rbp
	.cfi_def_cfa_register 6
	subq	$32, %rsp
	movq	%rdi, -8(%rbp)
	movq	%rsi, -16(%rbp)
	movq	%rdx, -24(%rbp)
	movq	-24(%rbp), %rdx
	movq	-16(%rbp), %rcx
	movq	-8(%rbp), %rax
	movq	%rcx, %rsi
	movq	%rax, %rdi
	call	_ZSt9__fill_a1IPiiEN9__gnu_cxx11__enable_ifIXsrSt11__is_scalarIT0_E7__valueEvE6__typeET_S8_RKS4_
	nop
	leave
	.cfi_def_cfa 7, 8
	ret
	.cfi_endproc
.LFE11601:
	.size	_ZSt8__fill_aIPiiEvT_S1_RKT0_, .-_ZSt8__fill_aIPiiEvT_S1_RKT0_
	.section	.text._ZSt9__fill_a1IPiiEN9__gnu_cxx11__enable_ifIXsrSt11__is_scalarIT0_E7__valueEvE6__typeET_S8_RKS4_,"axG",@progbits,_ZSt9__fill_a1IPiiEN9__gnu_cxx11__enable_ifIXsrSt11__is_scalarIT0_E7__valueEvE6__typeET_S8_RKS4_,comdat
	.weak	_ZSt9__fill_a1IPiiEN9__gnu_cxx11__enable_ifIXsrSt11__is_scalarIT0_E7__valueEvE6__typeET_S8_RKS4_
	.type	_ZSt9__fill_a1IPiiEN9__gnu_cxx11__enable_ifIXsrSt11__is_scalarIT0_E7__valueEvE6__typeET_S8_RKS4_, @function
_ZSt9__fill_a1IPiiEN9__gnu_cxx11__enable_ifIXsrSt11__is_scalarIT0_E7__valueEvE6__typeET_S8_RKS4_:
.LFB11605:
	.cfi_startproc
	endbr64
	pushq	%rbp
	.cfi_def_cfa_offset 16
	.cfi_offset 6, -16
	movq	%rsp, %rbp
	.cfi_def_cfa_register 6
	movq	%rdi, -24(%rbp)
	movq	%rsi, -32(%rbp)
	movq	%rdx, -40(%rbp)
	movq	-40(%rbp), %rax
	movl	(%rax), %eax
	movl	%eax, -4(%rbp)
	jmp	.L196
.L197:
	movq	-24(%rbp), %rax
	movl	-4(%rbp), %edx
	movl	%edx, (%rax)
	addq	$4, -24(%rbp)
.L196:
	movq	-24(%rbp), %rax
	cmpq	-32(%rbp), %rax
	jne	.L197
	nop
	nop
	popq	%rbp
	.cfi_def_cfa 7, 8
	ret
	.cfi_endproc
.LFE11605:
	.size	_ZSt9__fill_a1IPiiEN9__gnu_cxx11__enable_ifIXsrSt11__is_scalarIT0_E7__valueEvE6__typeET_S8_RKS4_, .-_ZSt9__fill_a1IPiiEN9__gnu_cxx11__enable_ifIXsrSt11__is_scalarIT0_E7__valueEvE6__typeET_S8_RKS4_
	.section	.rodata
	.type	_ZNSt8__detail30__integer_to_chars_is_unsignedIjEE, @object
	.size	_ZNSt8__detail30__integer_to_chars_is_unsignedIjEE, 1
_ZNSt8__detail30__integer_to_chars_is_unsignedIjEE:
	.byte	1
	.type	_ZNSt8__detail30__integer_to_chars_is_unsignedImEE, @object
	.size	_ZNSt8__detail30__integer_to_chars_is_unsignedImEE, 1
_ZNSt8__detail30__integer_to_chars_is_unsignedImEE:
	.byte	1
	.type	_ZNSt8__detail30__integer_to_chars_is_unsignedIyEE, @object
	.size	_ZNSt8__detail30__integer_to_chars_is_unsignedIyEE, 1
_ZNSt8__detail30__integer_to_chars_is_unsignedIyEE:
	.byte	1
	.type	_ZSt12__is_ratio_vISt5ratioILl1ELl1000000000EEE, @object
	.size	_ZSt12__is_ratio_vISt5ratioILl1ELl1000000000EEE, 1
_ZSt12__is_ratio_vISt5ratioILl1ELl1000000000EEE:
	.byte	1
	.type	_ZSt12__is_ratio_vISt5ratioILl1ELl1EEE, @object
	.size	_ZSt12__is_ratio_vISt5ratioILl1ELl1EEE, 1
_ZSt12__is_ratio_vISt5ratioILl1ELl1EEE:
	.byte	1
	.type	_ZSt12__is_ratio_vISt5ratioILl1000000000ELl1EEE, @object
	.size	_ZSt12__is_ratio_vISt5ratioILl1000000000ELl1EEE, 1
_ZSt12__is_ratio_vISt5ratioILl1000000000ELl1EEE:
	.byte	1
	.type	_ZNSt8__detail30__integer_to_chars_is_unsignedIoEE, @object
	.size	_ZNSt8__detail30__integer_to_chars_is_unsignedIoEE, 1
_ZNSt8__detail30__integer_to_chars_is_unsignedIoEE:
	.byte	1
	.hidden	DW.ref.__gxx_personality_v0
	.weak	DW.ref.__gxx_personality_v0
	.section	.data.rel.local.DW.ref.__gxx_personality_v0,"awG",@progbits,DW.ref.__gxx_personality_v0,comdat
	.align 8
	.type	DW.ref.__gxx_personality_v0, @object
	.size	DW.ref.__gxx_personality_v0, 8
DW.ref.__gxx_personality_v0:
	.quad	__gxx_personality_v0
	.ident	"GCC: (Ubuntu 13.2.0-23ubuntu4) 13.2.0"
	.section	.note.GNU-stack,"",@progbits
	.section	.note.gnu.property,"a"
	.align 8
	.long	1f - 0f
	.long	4f - 1f
	.long	5
0:
	.string	"GNU"
1:
	.align 8
	.long	0xc0000002
	.long	3f - 2f
2:
	.long	0x3
3:
	.align 8
4:
