	.file	"Simple_Dijkstra.cpp"
	.intel_syntax noprefix
# GNU C++17 (Ubuntu 13.2.0-23ubuntu4) version 13.2.0 (x86_64-linux-gnu)
#	compiled by GNU C version 13.2.0, GMP version 6.3.0, MPFR version 4.2.1, MPC version 1.3.1, isl version isl-0.26-GMP

# GGC heuristics: --param ggc-min-expand=100 --param ggc-min-heapsize=131072
# options passed: -masm=intel -mtune=generic -march=x86-64 -O0 -fasynchronous-unwind-tables -fstack-protector-strong -fstack-clash-protection -fcf-protection
	.text
	.section	.text._ZSt17__size_to_integerm,"axG",@progbits,_ZSt17__size_to_integerm,comdat
	.weak	_ZSt17__size_to_integerm
	.type	_ZSt17__size_to_integerm, @function
_ZSt17__size_to_integerm:
.LFB354:
	.cfi_startproc
	endbr64	
	push	rbp	#
	.cfi_def_cfa_offset 16
	.cfi_offset 6, -16
	mov	rbp, rsp	#,
	.cfi_def_cfa_register 6
	mov	QWORD PTR -8[rbp], rdi	# __n, __n
# /usr/include/c++/13/bits/stl_algobase.h:1018:   __size_to_integer(unsigned long __n) { return __n; }
	mov	rax, QWORD PTR -8[rbp]	# _2, __n
# /usr/include/c++/13/bits/stl_algobase.h:1018:   __size_to_integer(unsigned long __n) { return __n; }
	pop	rbp	#
	.cfi_def_cfa 7, 8
	ret	
	.cfi_endproc
.LFE354:
	.size	_ZSt17__size_to_integerm, .-_ZSt17__size_to_integerm
	.section	.text._ZnwmPv,"axG",@progbits,_ZnwmPv,comdat
	.weak	_ZnwmPv
	.type	_ZnwmPv, @function
_ZnwmPv:
.LFB471:
	.cfi_startproc
	endbr64	
	push	rbp	#
	.cfi_def_cfa_offset 16
	.cfi_offset 6, -16
	mov	rbp, rsp	#,
	.cfi_def_cfa_register 6
	mov	QWORD PTR -8[rbp], rdi	# D.15836, D.15836
	mov	QWORD PTR -16[rbp], rsi	# __p, __p
# /usr/include/c++/13/new:175: { return __p; }
	mov	rax, QWORD PTR -16[rbp]	# _2, __p
# /usr/include/c++/13/new:175: { return __p; }
	pop	rbp	#
	.cfi_def_cfa 7, 8
	ret	
	.cfi_endproc
.LFE471:
	.size	_ZnwmPv, .-_ZnwmPv
	.section	.text._ZdlPvS_,"axG",@progbits,_ZdlPvS_,comdat
	.weak	_ZdlPvS_
	.type	_ZdlPvS_, @function
_ZdlPvS_:
.LFB473:
	.cfi_startproc
	endbr64	
	push	rbp	#
	.cfi_def_cfa_offset 16
	.cfi_offset 6, -16
	mov	rbp, rsp	#,
	.cfi_def_cfa_register 6
	mov	QWORD PTR -8[rbp], rdi	# D.15844, D.15844
	mov	QWORD PTR -16[rbp], rsi	# D.15845, D.15845
# /usr/include/c++/13/new:180: inline void operator delete  (void*, void*) _GLIBCXX_USE_NOEXCEPT { }
	nop	
	pop	rbp	#
	.cfi_def_cfa 7, 8
	ret	
	.cfi_endproc
.LFE473:
	.size	_ZdlPvS_, .-_ZdlPvS_
	.section	.text._ZSt3minImERKT_S2_S2_,"axG",@progbits,_ZSt3minImERKT_S2_S2_,comdat
	.weak	_ZSt3minImERKT_S2_S2_
	.type	_ZSt3minImERKT_S2_S2_, @function
_ZSt3minImERKT_S2_S2_:
.LFB1923:
	.cfi_startproc
	endbr64	
	push	rbp	#
	.cfi_def_cfa_offset 16
	.cfi_offset 6, -16
	mov	rbp, rsp	#,
	.cfi_def_cfa_register 6
	mov	QWORD PTR -8[rbp], rdi	# __a, __a
	mov	QWORD PTR -16[rbp], rsi	# __b, __b
# /usr/include/c++/13/bits/stl_algobase.h:238:       if (__b < __a)
	mov	rax, QWORD PTR -16[rbp]	# tmp86, __b
	mov	rdx, QWORD PTR [rax]	# _1, *__b_5(D)
	mov	rax, QWORD PTR -8[rbp]	# tmp87, __a
	mov	rax, QWORD PTR [rax]	# _2, *__a_6(D)
# /usr/include/c++/13/bits/stl_algobase.h:238:       if (__b < __a)
	cmp	rdx, rax	# _1, _2
	jnb	.L7	#,
# /usr/include/c++/13/bits/stl_algobase.h:239: 	return __b;
	mov	rax, QWORD PTR -16[rbp]	# _3, __b
	jmp	.L8	#
.L7:
# /usr/include/c++/13/bits/stl_algobase.h:240:       return __a;
	mov	rax, QWORD PTR -8[rbp]	# _3, __a
.L8:
# /usr/include/c++/13/bits/stl_algobase.h:241:     }
	pop	rbp	#
	.cfi_def_cfa 7, 8
	ret	
	.cfi_endproc
.LFE1923:
	.size	_ZSt3minImERKT_S2_S2_, .-_ZSt3minImERKT_S2_S2_
	.section	.text._ZNSt14_Bit_referenceC2EPmm,"axG",@progbits,_ZNSt14_Bit_referenceC5EPmm,comdat
	.align 2
	.weak	_ZNSt14_Bit_referenceC2EPmm
	.type	_ZNSt14_Bit_referenceC2EPmm, @function
_ZNSt14_Bit_referenceC2EPmm:
.LFB2519:
	.cfi_startproc
	endbr64	
	push	rbp	#
	.cfi_def_cfa_offset 16
	.cfi_offset 6, -16
	mov	rbp, rsp	#,
	.cfi_def_cfa_register 6
	mov	QWORD PTR -8[rbp], rdi	# this, this
	mov	QWORD PTR -16[rbp], rsi	# __x, __x
	mov	QWORD PTR -24[rbp], rdx	# __y, __y
# /usr/include/c++/13/bits/stl_bvector.h:89:     : _M_p(__x), _M_mask(__y) { }
	mov	rax, QWORD PTR -8[rbp]	# tmp82, this
	mov	rdx, QWORD PTR -16[rbp]	# tmp83, __x
	mov	QWORD PTR [rax], rdx	# this_2(D)->_M_p, tmp83
# /usr/include/c++/13/bits/stl_bvector.h:89:     : _M_p(__x), _M_mask(__y) { }
	mov	rax, QWORD PTR -8[rbp]	# tmp84, this
	mov	rdx, QWORD PTR -24[rbp]	# tmp85, __y
	mov	QWORD PTR 8[rax], rdx	# this_2(D)->_M_mask, tmp85
# /usr/include/c++/13/bits/stl_bvector.h:89:     : _M_p(__x), _M_mask(__y) { }
	nop	
	pop	rbp	#
	.cfi_def_cfa 7, 8
	ret	
	.cfi_endproc
.LFE2519:
	.size	_ZNSt14_Bit_referenceC2EPmm, .-_ZNSt14_Bit_referenceC2EPmm
	.weak	_ZNSt14_Bit_referenceC1EPmm
	.set	_ZNSt14_Bit_referenceC1EPmm,_ZNSt14_Bit_referenceC2EPmm
	.section	.text._ZNKSt14_Bit_referencecvbEv,"axG",@progbits,_ZNKSt14_Bit_referencecvbEv,comdat
	.align 2
	.weak	_ZNKSt14_Bit_referencecvbEv
	.type	_ZNKSt14_Bit_referencecvbEv, @function
_ZNKSt14_Bit_referencecvbEv:
.LFB2524:
	.cfi_startproc
	endbr64	
	push	rbp	#
	.cfi_def_cfa_offset 16
	.cfi_offset 6, -16
	mov	rbp, rsp	#,
	.cfi_def_cfa_register 6
	mov	QWORD PTR -8[rbp], rdi	# this, this
# /usr/include/c++/13/bits/stl_bvector.h:100:     { return !!(*_M_p & _M_mask); }
	mov	rax, QWORD PTR -8[rbp]	# tmp88, this
	mov	rax, QWORD PTR [rax]	# _1, this_6(D)->_M_p
# /usr/include/c++/13/bits/stl_bvector.h:100:     { return !!(*_M_p & _M_mask); }
	mov	rdx, QWORD PTR [rax]	# _2, *_1
# /usr/include/c++/13/bits/stl_bvector.h:100:     { return !!(*_M_p & _M_mask); }
	mov	rax, QWORD PTR -8[rbp]	# tmp89, this
	mov	rax, QWORD PTR 8[rax]	# _3, this_6(D)->_M_mask
# /usr/include/c++/13/bits/stl_bvector.h:100:     { return !!(*_M_p & _M_mask); }
	and	rax, rdx	# _4, _2
# /usr/include/c++/13/bits/stl_bvector.h:100:     { return !!(*_M_p & _M_mask); }
	test	rax, rax	# _4
	setne	al	#, _7
# /usr/include/c++/13/bits/stl_bvector.h:100:     { return !!(*_M_p & _M_mask); }
	pop	rbp	#
	.cfi_def_cfa 7, 8
	ret	
	.cfi_endproc
.LFE2524:
	.size	_ZNKSt14_Bit_referencecvbEv, .-_ZNKSt14_Bit_referencecvbEv
	.section	.text._ZNSt14_Bit_referenceaSEb,"axG",@progbits,_ZNSt14_Bit_referenceaSEb,comdat
	.align 2
	.weak	_ZNSt14_Bit_referenceaSEb
	.type	_ZNSt14_Bit_referenceaSEb, @function
_ZNSt14_Bit_referenceaSEb:
.LFB2525:
	.cfi_startproc
	endbr64	
	push	rbp	#
	.cfi_def_cfa_offset 16
	.cfi_offset 6, -16
	mov	rbp, rsp	#,
	.cfi_def_cfa_register 6
	mov	QWORD PTR -8[rbp], rdi	# this, this
	mov	eax, esi	# tmp95, __x
	mov	BYTE PTR -12[rbp], al	# __x, tmp96
# /usr/include/c++/13/bits/stl_bvector.h:106:       if (__x)
	cmp	BYTE PTR -12[rbp], 0	# __x,
	je	.L13	#,
# /usr/include/c++/13/bits/stl_bvector.h:107: 	*_M_p |= _M_mask;
	mov	rax, QWORD PTR -8[rbp]	# tmp97, this
	mov	rax, QWORD PTR [rax]	# _1, this_15(D)->_M_p
# /usr/include/c++/13/bits/stl_bvector.h:107: 	*_M_p |= _M_mask;
	mov	rcx, QWORD PTR [rax]	# _2, *_1
# /usr/include/c++/13/bits/stl_bvector.h:107: 	*_M_p |= _M_mask;
	mov	rax, QWORD PTR -8[rbp]	# tmp98, this
	mov	rdx, QWORD PTR 8[rax]	# _3, this_15(D)->_M_mask
# /usr/include/c++/13/bits/stl_bvector.h:107: 	*_M_p |= _M_mask;
	mov	rax, QWORD PTR -8[rbp]	# tmp99, this
	mov	rax, QWORD PTR [rax]	# _4, this_15(D)->_M_p
# /usr/include/c++/13/bits/stl_bvector.h:107: 	*_M_p |= _M_mask;
	or	rdx, rcx	# _5, _2
	mov	QWORD PTR [rax], rdx	# *_4, _5
	jmp	.L14	#
.L13:
# /usr/include/c++/13/bits/stl_bvector.h:109: 	*_M_p &= ~_M_mask;
	mov	rax, QWORD PTR -8[rbp]	# tmp100, this
	mov	rax, QWORD PTR [rax]	# _6, this_15(D)->_M_p
# /usr/include/c++/13/bits/stl_bvector.h:109: 	*_M_p &= ~_M_mask;
	mov	rdx, QWORD PTR [rax]	# _7, *_6
# /usr/include/c++/13/bits/stl_bvector.h:109: 	*_M_p &= ~_M_mask;
	mov	rax, QWORD PTR -8[rbp]	# tmp101, this
	mov	rax, QWORD PTR 8[rax]	# _8, this_15(D)->_M_mask
# /usr/include/c++/13/bits/stl_bvector.h:109: 	*_M_p &= ~_M_mask;
	not	rax	# _8
	mov	rcx, rax	# _9, _8
# /usr/include/c++/13/bits/stl_bvector.h:109: 	*_M_p &= ~_M_mask;
	mov	rax, QWORD PTR -8[rbp]	# tmp102, this
	mov	rax, QWORD PTR [rax]	# _10, this_15(D)->_M_p
# /usr/include/c++/13/bits/stl_bvector.h:109: 	*_M_p &= ~_M_mask;
	and	rdx, rcx	# _11, _9
	mov	QWORD PTR [rax], rdx	# *_10, _11
.L14:
# /usr/include/c++/13/bits/stl_bvector.h:110:       return *this;
	mov	rax, QWORD PTR -8[rbp]	# _18, this
# /usr/include/c++/13/bits/stl_bvector.h:111:     }
	pop	rbp	#
	.cfi_def_cfa 7, 8
	ret	
	.cfi_endproc
.LFE2525:
	.size	_ZNSt14_Bit_referenceaSEb, .-_ZNSt14_Bit_referenceaSEb
	.section	.text._ZNSt18_Bit_iterator_baseC2EPmj,"axG",@progbits,_ZNSt18_Bit_iterator_baseC5EPmj,comdat
	.align 2
	.weak	_ZNSt18_Bit_iterator_baseC2EPmj
	.type	_ZNSt18_Bit_iterator_baseC2EPmj, @function
_ZNSt18_Bit_iterator_baseC2EPmj:
.LFB2535:
	.cfi_startproc
	endbr64	
	push	rbp	#
	.cfi_def_cfa_offset 16
	.cfi_offset 6, -16
	mov	rbp, rsp	#,
	.cfi_def_cfa_register 6
	mov	QWORD PTR -8[rbp], rdi	# this, this
	mov	QWORD PTR -16[rbp], rsi	# __x, __x
	mov	DWORD PTR -20[rbp], edx	# __y, __y
# /usr/include/c++/13/bits/stl_bvector.h:196:     : _M_p(__x), _M_offset(__y) { }
	mov	rax, QWORD PTR -8[rbp]	# tmp82, this
	mov	rdx, QWORD PTR -16[rbp]	# tmp83, __x
	mov	QWORD PTR [rax], rdx	# this_2(D)->_M_p, tmp83
# /usr/include/c++/13/bits/stl_bvector.h:196:     : _M_p(__x), _M_offset(__y) { }
	mov	rax, QWORD PTR -8[rbp]	# tmp84, this
	mov	edx, DWORD PTR -20[rbp]	# tmp85, __y
	mov	DWORD PTR 8[rax], edx	# this_2(D)->_M_offset, tmp85
# /usr/include/c++/13/bits/stl_bvector.h:196:     : _M_p(__x), _M_offset(__y) { }
	nop	
	pop	rbp	#
	.cfi_def_cfa 7, 8
	ret	
	.cfi_endproc
.LFE2535:
	.size	_ZNSt18_Bit_iterator_baseC2EPmj, .-_ZNSt18_Bit_iterator_baseC2EPmj
	.weak	_ZNSt18_Bit_iterator_baseC1EPmj
	.set	_ZNSt18_Bit_iterator_baseC1EPmj,_ZNSt18_Bit_iterator_baseC2EPmj
	.section	.text._ZNSt18_Bit_iterator_base7_M_incrEl,"axG",@progbits,_ZNSt18_Bit_iterator_base7_M_incrEl,comdat
	.align 2
	.weak	_ZNSt18_Bit_iterator_base7_M_incrEl
	.type	_ZNSt18_Bit_iterator_base7_M_incrEl, @function
_ZNSt18_Bit_iterator_base7_M_incrEl:
.LFB2539:
	.cfi_startproc
	endbr64	
	push	rbp	#
	.cfi_def_cfa_offset 16
	.cfi_offset 6, -16
	mov	rbp, rsp	#,
	.cfi_def_cfa_register 6
	mov	QWORD PTR -40[rbp], rdi	# this, this
	mov	QWORD PTR -48[rbp], rsi	# __i, __i
	mov	rax, QWORD PTR -40[rbp]	# tmp92, this
	mov	QWORD PTR -8[rbp], rax	# this, tmp92
# /usr/include/c++/13/bits/stl_bvector.h:189:       unsigned int __ofst = _M_offset;
	mov	rax, QWORD PTR -8[rbp]	# tmp93, this
	mov	eax, DWORD PTR 8[rax]	# tmp94, this_22->_M_offset
	mov	DWORD PTR -20[rbp], eax	# __ofst, tmp94
# /usr/include/c++/13/bits/stl_bvector.h:190:       __attribute__ ((__assume__ (__ofst < unsigned(_S_word_bit))));
	cmp	DWORD PTR -20[rbp], 63	# __ofst,
# /usr/include/c++/13/bits/stl_bvector.h:192:     }
	nop	
# /usr/include/c++/13/bits/stl_bvector.h:227:       difference_type __n = __i + _M_offset;
	mov	rax, QWORD PTR -40[rbp]	# tmp95, this
	mov	eax, DWORD PTR 8[rax]	# _1, this_14(D)->_M_offset
	mov	edx, eax	# _2, _1
# /usr/include/c++/13/bits/stl_bvector.h:227:       difference_type __n = __i + _M_offset;
	mov	rax, QWORD PTR -48[rbp]	# tmp99, __i
	add	rax, rdx	# tmp98, _2
	mov	QWORD PTR -16[rbp], rax	# __n, tmp98
# /usr/include/c++/13/bits/stl_bvector.h:228:       _M_p += __n / int(_S_word_bit);
	mov	rax, QWORD PTR -40[rbp]	# tmp100, this
	mov	rdx, QWORD PTR [rax]	# _3, this_14(D)->_M_p
# /usr/include/c++/13/bits/stl_bvector.h:228:       _M_p += __n / int(_S_word_bit);
	mov	rax, QWORD PTR -16[rbp]	# tmp101, __n
	lea	rcx, 63[rax]	# tmp103,
	test	rax, rax	# tmp102
	cmovs	rax, rcx	# tmp103,, tmp102
	sar	rax, 6	# tmp104,
# /usr/include/c++/13/bits/stl_bvector.h:228:       _M_p += __n / int(_S_word_bit);
	sal	rax, 3	# _6,
	add	rdx, rax	# _7, _6
	mov	rax, QWORD PTR -40[rbp]	# tmp105, this
	mov	QWORD PTR [rax], rdx	# this_14(D)->_M_p, _7
# /usr/include/c++/13/bits/stl_bvector.h:229:       __n = __n % int(_S_word_bit);
	mov	rdx, QWORD PTR -16[rbp]	# tmp107, __n
	mov	rax, rdx	# tmp108, tmp107
	sar	rax, 63	# tmp108,
	shr	rax, 58	# tmp109,
	add	rdx, rax	# tmp110, tmp109
	and	edx, 63	# tmp111,
	sub	rdx, rax	# tmp112, tmp109
	mov	QWORD PTR -16[rbp], rdx	# __n, tmp112
# /usr/include/c++/13/bits/stl_bvector.h:230:       if (__n < 0)
	cmp	QWORD PTR -16[rbp], 0	# __n,
	jns	.L19	#,
# /usr/include/c++/13/bits/stl_bvector.h:232: 	  __n += int(_S_word_bit);
	add	QWORD PTR -16[rbp], 64	# __n,
# /usr/include/c++/13/bits/stl_bvector.h:233: 	  --_M_p;
	mov	rax, QWORD PTR -40[rbp]	# tmp113, this
	mov	rax, QWORD PTR [rax]	# _8, this_14(D)->_M_p
# /usr/include/c++/13/bits/stl_bvector.h:233: 	  --_M_p;
	lea	rdx, -8[rax]	# _9,
	mov	rax, QWORD PTR -40[rbp]	# tmp114, this
	mov	QWORD PTR [rax], rdx	# this_14(D)->_M_p, _9
.L19:
# /usr/include/c++/13/bits/stl_bvector.h:235:       _M_offset = static_cast<unsigned int>(__n);
	mov	rax, QWORD PTR -16[rbp]	# tmp115, __n
	mov	edx, eax	# _10, tmp115
	mov	rax, QWORD PTR -40[rbp]	# tmp116, this
	mov	DWORD PTR 8[rax], edx	# this_14(D)->_M_offset, _10
# /usr/include/c++/13/bits/stl_bvector.h:236:     }
	nop	
	pop	rbp	#
	.cfi_def_cfa 7, 8
	ret	
	.cfi_endproc
.LFE2539:
	.size	_ZNSt18_Bit_iterator_base7_M_incrEl, .-_ZNSt18_Bit_iterator_base7_M_incrEl
	.section	.text._ZNSt13_Bit_iteratorC2Ev,"axG",@progbits,_ZNSt13_Bit_iteratorC5Ev,comdat
	.align 2
	.weak	_ZNSt13_Bit_iteratorC2Ev
	.type	_ZNSt13_Bit_iteratorC2Ev, @function
_ZNSt13_Bit_iteratorC2Ev:
.LFB2548:
	.cfi_startproc
	endbr64	
	push	rbp	#
	.cfi_def_cfa_offset 16
	.cfi_offset 6, -16
	mov	rbp, rsp	#,
	.cfi_def_cfa_register 6
	sub	rsp, 16	#,
	mov	QWORD PTR -8[rbp], rdi	# this, this
# /usr/include/c++/13/bits/stl_bvector.h:313:     _Bit_iterator() : _Bit_iterator_base(0, 0) { }
	mov	rax, QWORD PTR -8[rbp]	# _1, this
	mov	edx, 0	#,
	mov	esi, 0	#,
	mov	rdi, rax	#, _1
	call	_ZNSt18_Bit_iterator_baseC2EPmj	#
# /usr/include/c++/13/bits/stl_bvector.h:313:     _Bit_iterator() : _Bit_iterator_base(0, 0) { }
	nop	
	leave	
	.cfi_def_cfa 7, 8
	ret	
	.cfi_endproc
.LFE2548:
	.size	_ZNSt13_Bit_iteratorC2Ev, .-_ZNSt13_Bit_iteratorC2Ev
	.weak	_ZNSt13_Bit_iteratorC1Ev
	.set	_ZNSt13_Bit_iteratorC1Ev,_ZNSt13_Bit_iteratorC2Ev
	.section	.text._ZNSt13_Bit_iteratorC2EPmj,"axG",@progbits,_ZNSt13_Bit_iteratorC5EPmj,comdat
	.align 2
	.weak	_ZNSt13_Bit_iteratorC2EPmj
	.type	_ZNSt13_Bit_iteratorC2EPmj, @function
_ZNSt13_Bit_iteratorC2EPmj:
.LFB2551:
	.cfi_startproc
	endbr64	
	push	rbp	#
	.cfi_def_cfa_offset 16
	.cfi_offset 6, -16
	mov	rbp, rsp	#,
	.cfi_def_cfa_register 6
	sub	rsp, 32	#,
	mov	QWORD PTR -8[rbp], rdi	# this, this
	mov	QWORD PTR -16[rbp], rsi	# __x, __x
	mov	DWORD PTR -20[rbp], edx	# __y, __y
# /usr/include/c++/13/bits/stl_bvector.h:317:     : _Bit_iterator_base(__x, __y) { }
	mov	rax, QWORD PTR -8[rbp]	# _1, this
	mov	edx, DWORD PTR -20[rbp]	# tmp83, __y
	mov	rcx, QWORD PTR -16[rbp]	# tmp84, __x
	mov	rsi, rcx	#, tmp84
	mov	rdi, rax	#, _1
	call	_ZNSt18_Bit_iterator_baseC2EPmj	#
# /usr/include/c++/13/bits/stl_bvector.h:317:     : _Bit_iterator_base(__x, __y) { }
	nop	
	leave	
	.cfi_def_cfa 7, 8
	ret	
	.cfi_endproc
.LFE2551:
	.size	_ZNSt13_Bit_iteratorC2EPmj, .-_ZNSt13_Bit_iteratorC2EPmj
	.weak	_ZNSt13_Bit_iteratorC1EPmj
	.set	_ZNSt13_Bit_iteratorC1EPmj,_ZNSt13_Bit_iteratorC2EPmj
	.section	.text._ZNKSt13_Bit_iteratordeEv,"axG",@progbits,_ZNKSt13_Bit_iteratordeEv,comdat
	.align 2
	.weak	_ZNKSt13_Bit_iteratordeEv
	.type	_ZNKSt13_Bit_iteratordeEv, @function
_ZNKSt13_Bit_iteratordeEv:
.LFB2554:
	.cfi_startproc
	endbr64	
	push	rbp	#
	.cfi_def_cfa_offset 16
	.cfi_offset 6, -16
	mov	rbp, rsp	#,
	.cfi_def_cfa_register 6
	sub	rsp, 64	#,
	mov	QWORD PTR -56[rbp], rdi	# this, this
# /usr/include/c++/13/bits/stl_bvector.h:326:     operator*() const
	mov	rax, QWORD PTR fs:40	# tmp95, MEM[(<address-space-1> long unsigned int *)40B]
	mov	QWORD PTR -8[rbp], rax	# D.233338, tmp95
	xor	eax, eax	# tmp95
# /usr/include/c++/13/bits/stl_bvector.h:328:       _M_assume_normalized();
	mov	rax, QWORD PTR -56[rbp]	# _1, this
	mov	QWORD PTR -40[rbp], rax	# this, _1
# /usr/include/c++/13/bits/stl_bvector.h:189:       unsigned int __ofst = _M_offset;
	mov	rax, QWORD PTR -40[rbp]	# tmp88, this
	mov	eax, DWORD PTR 8[rax]	# tmp89, this_10->_M_offset
	mov	DWORD PTR -44[rbp], eax	# __ofst, tmp89
# /usr/include/c++/13/bits/stl_bvector.h:190:       __attribute__ ((__assume__ (__ofst < unsigned(_S_word_bit))));
	cmp	DWORD PTR -44[rbp], 63	# __ofst,
# /usr/include/c++/13/bits/stl_bvector.h:192:     }
	nop	
# /usr/include/c++/13/bits/stl_bvector.h:329:       return reference(_M_p, 1UL << _M_offset);
	mov	rax, QWORD PTR -56[rbp]	# tmp90, this
	mov	eax, DWORD PTR 8[rax]	# _2, this_5(D)->D.58751._M_offset
# /usr/include/c++/13/bits/stl_bvector.h:329:       return reference(_M_p, 1UL << _M_offset);
	mov	edx, 1	# tmp91,
	mov	ecx, eax	# tmp98, _2
	sal	rdx, cl	# _3, tmp98
# /usr/include/c++/13/bits/stl_bvector.h:329:       return reference(_M_p, 1UL << _M_offset);
	mov	rax, QWORD PTR -56[rbp]	# tmp92, this
	mov	rcx, QWORD PTR [rax]	# _4, this_5(D)->D.58751._M_p
# /usr/include/c++/13/bits/stl_bvector.h:329:       return reference(_M_p, 1UL << _M_offset);
	lea	rax, -32[rbp]	# tmp93,
	mov	rsi, rcx	#, _4
	mov	rdi, rax	#, tmp93
	call	_ZNSt14_Bit_referenceC1EPmm	#
# /usr/include/c++/13/bits/stl_bvector.h:329:       return reference(_M_p, 1UL << _M_offset);
	mov	rax, QWORD PTR -32[rbp]	# D.232697, D.58815
	mov	rdx, QWORD PTR -24[rbp]	# D.232697, D.58815
# /usr/include/c++/13/bits/stl_bvector.h:330:     }
	mov	rcx, QWORD PTR -8[rbp]	# tmp96, D.233338
	sub	rcx, QWORD PTR fs:40	# tmp96, MEM[(<address-space-1> long unsigned int *)40B]
	je	.L26	#,
	call	__stack_chk_fail@PLT	#
.L26:
	leave	
	.cfi_def_cfa 7, 8
	ret	
	.cfi_endproc
.LFE2554:
	.size	_ZNKSt13_Bit_iteratordeEv, .-_ZNKSt13_Bit_iteratordeEv
	.section	.text._ZNSt13_Bit_iteratorpLEl,"axG",@progbits,_ZNSt13_Bit_iteratorpLEl,comdat
	.align 2
	.weak	_ZNSt13_Bit_iteratorpLEl
	.type	_ZNSt13_Bit_iteratorpLEl, @function
_ZNSt13_Bit_iteratorpLEl:
.LFB2559:
	.cfi_startproc
	endbr64	
	push	rbp	#
	.cfi_def_cfa_offset 16
	.cfi_offset 6, -16
	mov	rbp, rsp	#,
	.cfi_def_cfa_register 6
	sub	rsp, 16	#,
	mov	QWORD PTR -8[rbp], rdi	# this, this
	mov	QWORD PTR -16[rbp], rsi	# __i, __i
# /usr/include/c++/13/bits/stl_bvector.h:370:       _M_incr(__i);
	mov	rax, QWORD PTR -8[rbp]	# _1, this
	mov	rdx, QWORD PTR -16[rbp]	# tmp85, __i
	mov	rsi, rdx	#, tmp85
	mov	rdi, rax	#, _1
	call	_ZNSt18_Bit_iterator_base7_M_incrEl	#
# /usr/include/c++/13/bits/stl_bvector.h:371:       return *this;
	mov	rax, QWORD PTR -8[rbp]	# _6, this
# /usr/include/c++/13/bits/stl_bvector.h:372:     }
	leave	
	.cfi_def_cfa 7, 8
	ret	
	.cfi_endproc
.LFE2559:
	.size	_ZNSt13_Bit_iteratorpLEl, .-_ZNSt13_Bit_iteratorpLEl
	.section	.text._ZNKSt13_Bit_iteratorixEl,"axG",@progbits,_ZNKSt13_Bit_iteratorixEl,comdat
	.align 2
	.weak	_ZNKSt13_Bit_iteratorixEl
	.type	_ZNKSt13_Bit_iteratorixEl, @function
_ZNKSt13_Bit_iteratorixEl:
.LFB2561:
	.cfi_startproc
	endbr64	
	push	rbp	#
	.cfi_def_cfa_offset 16
	.cfi_offset 6, -16
	mov	rbp, rsp	#,
	.cfi_def_cfa_register 6
	sub	rsp, 48	#,
	mov	QWORD PTR -40[rbp], rdi	# this, this
	mov	QWORD PTR -48[rbp], rsi	# __i, __i
# /usr/include/c++/13/bits/stl_bvector.h:384:     operator[](difference_type __i) const
	mov	rax, QWORD PTR fs:40	# tmp89, MEM[(<address-space-1> long unsigned int *)40B]
	mov	QWORD PTR -8[rbp], rax	# D.233340, tmp89
	xor	eax, eax	# tmp89
# /usr/include/c++/13/bits/stl_bvector.h:385:     { return *(*this + __i); }
	mov	rdx, QWORD PTR -48[rbp]	# tmp84, __i
	mov	rax, QWORD PTR -40[rbp]	# tmp85, this
	mov	rsi, rdx	#, tmp84
	mov	rdi, rax	#, tmp85
	call	_ZStplRKSt13_Bit_iteratorl	#
	mov	QWORD PTR -32[rbp], rax	# D.58831, tmp86
	mov	QWORD PTR -24[rbp], rdx	# D.58831,
# /usr/include/c++/13/bits/stl_bvector.h:385:     { return *(*this + __i); }
	lea	rax, -32[rbp]	# tmp87,
	mov	rdi, rax	#, tmp87
	call	_ZNKSt13_Bit_iteratordeEv	#
# /usr/include/c++/13/bits/stl_bvector.h:385:     { return *(*this + __i); }
	mov	rcx, QWORD PTR -8[rbp]	# tmp90, D.233340
	sub	rcx, QWORD PTR fs:40	# tmp90, MEM[(<address-space-1> long unsigned int *)40B]
	je	.L32	#,
	call	__stack_chk_fail@PLT	#
.L32:
	leave	
	.cfi_def_cfa 7, 8
	ret	
	.cfi_endproc
.LFE2561:
	.size	_ZNKSt13_Bit_iteratorixEl, .-_ZNKSt13_Bit_iteratorixEl
	.section	.text._ZStplRKSt13_Bit_iteratorl,"axG",@progbits,_ZStplRKSt13_Bit_iteratorl,comdat
	.weak	_ZStplRKSt13_Bit_iteratorl
	.type	_ZStplRKSt13_Bit_iteratorl, @function
_ZStplRKSt13_Bit_iteratorl:
.LFB2562:
	.cfi_startproc
	endbr64	
	push	rbp	#
	.cfi_def_cfa_offset 16
	.cfi_offset 6, -16
	mov	rbp, rsp	#,
	.cfi_def_cfa_register 6
	sub	rsp, 80	#,
	mov	QWORD PTR -56[rbp], rdi	# __x, __x
	mov	QWORD PTR -64[rbp], rsi	# __n, __n
# /usr/include/c++/13/bits/stl_bvector.h:389:     operator+(const iterator& __x, difference_type __n)
	mov	rax, QWORD PTR fs:40	# tmp89, MEM[(<address-space-1> long unsigned int *)40B]
	mov	QWORD PTR -8[rbp], rax	# D.233341, tmp89
	xor	eax, eax	# tmp89
# /usr/include/c++/13/bits/stl_bvector.h:391:       iterator __tmp = __x;
	mov	rax, QWORD PTR -56[rbp]	# tmp83, __x
	mov	rdx, QWORD PTR 8[rax]	#, MEM[(const struct _Bit_iterator &)__x_2(D)]
	mov	rax, QWORD PTR [rax]	# tmp84, MEM[(const struct _Bit_iterator &)__x_2(D)]
	mov	QWORD PTR -48[rbp], rax	# __tmp, tmp84
	mov	QWORD PTR -40[rbp], rdx	# __tmp,
# /usr/include/c++/13/bits/stl_bvector.h:392:       __tmp += __n;
	mov	rdx, QWORD PTR -64[rbp]	# tmp85, __n
	lea	rax, -48[rbp]	# tmp86,
	mov	rsi, rdx	#, tmp85
	mov	rdi, rax	#, tmp86
	call	_ZNSt13_Bit_iteratorpLEl	#
# /usr/include/c++/13/bits/stl_bvector.h:393:       return __tmp;
	mov	rax, QWORD PTR -48[rbp]	# tmp87, __tmp
	mov	rdx, QWORD PTR -40[rbp]	#, __tmp
	mov	QWORD PTR -32[rbp], rax	# D.232491, tmp87
	mov	QWORD PTR -24[rbp], rdx	# D.232491,
	mov	rax, QWORD PTR -32[rbp]	# tmp88, D.232491
	mov	rdx, QWORD PTR -24[rbp]	#, D.232491
# /usr/include/c++/13/bits/stl_bvector.h:394:     }
	mov	rcx, QWORD PTR -8[rbp]	# tmp90, D.233341
	sub	rcx, QWORD PTR fs:40	# tmp90, MEM[(<address-space-1> long unsigned int *)40B]
	je	.L35	#,
	call	__stack_chk_fail@PLT	#
.L35:
	leave	
	.cfi_def_cfa 7, 8
	ret	
	.cfi_endproc
.LFE2562:
	.size	_ZStplRKSt13_Bit_iteratorl, .-_ZStplRKSt13_Bit_iteratorl
	.section	.text._ZSt16__fill_bvector_nPmmb,"axG",@progbits,_ZSt16__fill_bvector_nPmmb,comdat
	.weak	_ZSt16__fill_bvector_nPmmb
	.type	_ZSt16__fill_bvector_nPmmb, @function
_ZSt16__fill_bvector_nPmmb:
.LFB2679:
	.cfi_startproc
	endbr64	
	push	rbp	#
	.cfi_def_cfa_offset 16
	.cfi_offset 6, -16
	mov	rbp, rsp	#,
	.cfi_def_cfa_register 6
	sub	rsp, 32	#,
	mov	QWORD PTR -8[rbp], rdi	# __p, __p
	mov	QWORD PTR -16[rbp], rsi	# __n, __n
	mov	eax, edx	# tmp84, __x
	mov	BYTE PTR -20[rbp], al	# __x, tmp85
# /usr/include/c++/13/bits/stl_bvector.h:1597:     __builtin_memset(__p, __x ? ~0 : 0, __n * sizeof(_Bit_type));
	mov	rax, QWORD PTR -16[rbp]	# tmp86, __n
	lea	rdx, 0[0+rax*8]	# _1,
	cmp	BYTE PTR -20[rbp], 0	# __x,
	je	.L37	#,
# /usr/include/c++/13/bits/stl_bvector.h:1597:     __builtin_memset(__p, __x ? ~0 : 0, __n * sizeof(_Bit_type));
	mov	ecx, -1	# iftmp.19_2,
	jmp	.L38	#
.L37:
# /usr/include/c++/13/bits/stl_bvector.h:1597:     __builtin_memset(__p, __x ? ~0 : 0, __n * sizeof(_Bit_type));
	mov	ecx, 0	# iftmp.19_2,
.L38:
# /usr/include/c++/13/bits/stl_bvector.h:1597:     __builtin_memset(__p, __x ? ~0 : 0, __n * sizeof(_Bit_type));
	mov	rax, QWORD PTR -8[rbp]	# tmp88, __p
	mov	esi, ecx	#, iftmp.19_2
	mov	rdi, rax	#, tmp88
	call	memset@PLT	#
# /usr/include/c++/13/bits/stl_bvector.h:1598:   }
	nop	
	leave	
	.cfi_def_cfa 7, 8
	ret	
	.cfi_endproc
.LFE2679:
	.size	_ZSt16__fill_bvector_nPmmb, .-_ZSt16__fill_bvector_nPmmb
#APP
	.globl _ZSt21ios_base_library_initv
#NO_APP
	.section	.text._ZNSt12_Vector_baseISt4pairIiiESaIS1_EE12_Vector_implD2Ev,"axG",@progbits,_ZNSt12_Vector_baseISt4pairIiiESaIS1_EE12_Vector_implD5Ev,comdat
	.align 2
	.weak	_ZNSt12_Vector_baseISt4pairIiiESaIS1_EE12_Vector_implD2Ev
	.type	_ZNSt12_Vector_baseISt4pairIiiESaIS1_EE12_Vector_implD2Ev, @function
_ZNSt12_Vector_baseISt4pairIiiESaIS1_EE12_Vector_implD2Ev:
.LFB9777:
	.cfi_startproc
	endbr64	
	push	rbp	#
	.cfi_def_cfa_offset 16
	.cfi_offset 6, -16
	mov	rbp, rsp	#,
	.cfi_def_cfa_register 6
	sub	rsp, 32	#,
	mov	QWORD PTR -24[rbp], rdi	# this, this
	mov	rax, QWORD PTR -24[rbp]	# tmp82, this
	mov	QWORD PTR -8[rbp], rax	# this, tmp82
# /usr/include/c++/13/bits/allocator.h:184:       ~allocator() _GLIBCXX_NOTHROW { }
	mov	rax, QWORD PTR -8[rbp]	# tmp83, this
	mov	rdi, rax	#, tmp83
	call	_ZNSt15__new_allocatorISt4pairIiiEED2Ev	#
	nop	
# /usr/include/c++/13/bits/stl_vector.h:133:       struct _Vector_impl
	nop	
	leave	
	.cfi_def_cfa 7, 8
	ret	
	.cfi_endproc
.LFE9777:
	.size	_ZNSt12_Vector_baseISt4pairIiiESaIS1_EE12_Vector_implD2Ev, .-_ZNSt12_Vector_baseISt4pairIiiESaIS1_EE12_Vector_implD2Ev
	.weak	_ZNSt12_Vector_baseISt4pairIiiESaIS1_EE12_Vector_implD1Ev
	.set	_ZNSt12_Vector_baseISt4pairIiiESaIS1_EE12_Vector_implD1Ev,_ZNSt12_Vector_baseISt4pairIiiESaIS1_EE12_Vector_implD2Ev
	.section	.text._ZNSt12_Vector_baseISt4pairIiiESaIS1_EEC2Ev,"axG",@progbits,_ZNSt12_Vector_baseISt4pairIiiESaIS1_EEC5Ev,comdat
	.align 2
	.weak	_ZNSt12_Vector_baseISt4pairIiiESaIS1_EEC2Ev
	.type	_ZNSt12_Vector_baseISt4pairIiiESaIS1_EEC2Ev, @function
_ZNSt12_Vector_baseISt4pairIiiESaIS1_EEC2Ev:
.LFB9779:
	.cfi_startproc
	endbr64	
	push	rbp	#
	.cfi_def_cfa_offset 16
	.cfi_offset 6, -16
	mov	rbp, rsp	#,
	.cfi_def_cfa_register 6
	sub	rsp, 16	#,
	mov	QWORD PTR -8[rbp], rdi	# this, this
# /usr/include/c++/13/bits/stl_vector.h:315:       _Vector_base() = default;
	mov	rax, QWORD PTR -8[rbp]	# _1, this
	mov	rdi, rax	#, _1
	call	_ZNSt12_Vector_baseISt4pairIiiESaIS1_EE12_Vector_implC1Ev	#
	nop	
	leave	
	.cfi_def_cfa 7, 8
	ret	
	.cfi_endproc
.LFE9779:
	.size	_ZNSt12_Vector_baseISt4pairIiiESaIS1_EEC2Ev, .-_ZNSt12_Vector_baseISt4pairIiiESaIS1_EEC2Ev
	.weak	_ZNSt12_Vector_baseISt4pairIiiESaIS1_EEC1Ev
	.set	_ZNSt12_Vector_baseISt4pairIiiESaIS1_EEC1Ev,_ZNSt12_Vector_baseISt4pairIiiESaIS1_EEC2Ev
	.section	.text._ZNSt6vectorISt4pairIiiESaIS1_EEC2Ev,"axG",@progbits,_ZNSt6vectorISt4pairIiiESaIS1_EEC5Ev,comdat
	.align 2
	.weak	_ZNSt6vectorISt4pairIiiESaIS1_EEC2Ev
	.type	_ZNSt6vectorISt4pairIiiESaIS1_EEC2Ev, @function
_ZNSt6vectorISt4pairIiiESaIS1_EEC2Ev:
.LFB9781:
	.cfi_startproc
	endbr64	
	push	rbp	#
	.cfi_def_cfa_offset 16
	.cfi_offset 6, -16
	mov	rbp, rsp	#,
	.cfi_def_cfa_register 6
	sub	rsp, 16	#,
	mov	QWORD PTR -8[rbp], rdi	# this, this
# /usr/include/c++/13/bits/stl_vector.h:531:       vector() = default;
	mov	rax, QWORD PTR -8[rbp]	# _1, this
	mov	rdi, rax	#, _1
	call	_ZNSt12_Vector_baseISt4pairIiiESaIS1_EEC2Ev	#
	nop	
	leave	
	.cfi_def_cfa 7, 8
	ret	
	.cfi_endproc
.LFE9781:
	.size	_ZNSt6vectorISt4pairIiiESaIS1_EEC2Ev, .-_ZNSt6vectorISt4pairIiiESaIS1_EEC2Ev
	.weak	_ZNSt6vectorISt4pairIiiESaIS1_EEC1Ev
	.set	_ZNSt6vectorISt4pairIiiESaIS1_EEC1Ev,_ZNSt6vectorISt4pairIiiESaIS1_EEC2Ev
	.section	.rodata
.LC0:
	.string	": "
.LC1:
	.string	"\n"
	.text
	.globl	main
	.type	main, @function
main:
.LFB9772:
	.cfi_startproc
	.cfi_personality 0x9b,DW.ref.__gxx_personality_v0
	.cfi_lsda 0x1b,.LLSDA9772
	endbr64	
	push	rbp	#
	.cfi_def_cfa_offset 16
	.cfi_offset 6, -16
	mov	rbp, rsp	#,
	.cfi_def_cfa_register 6
	push	rbx	#
	sub	rsp, 216	#,
	.cfi_offset 3, -24
# Simple_Dijkstra.cpp:46: int main() {
	mov	rax, QWORD PTR fs:40	# tmp191, MEM[(<address-space-1> long unsigned int *)40B]
	mov	QWORD PTR -24[rbp], rax	# D.233345, tmp191
	xor	eax, eax	# tmp191
# Simple_Dijkstra.cpp:47:     ios_base::sync_with_stdio(0);
	mov	edi, 0	#,
.LEHB0:
	call	_ZNSt8ios_base15sync_with_stdioEb@PLT	#
# Simple_Dijkstra.cpp:48:     cin.tie(0);
	mov	esi, 0	#,
	lea	rax, _ZSt3cin[rip+16]	# tmp112,
	mov	rdi, rax	#, tmp112
	call	_ZNSt9basic_iosIcSt11char_traitsIcEE3tieEPSo@PLT	#
# Simple_Dijkstra.cpp:51:     cin >> n >> m;
	lea	rax, -212[rbp]	# tmp113,
	mov	rsi, rax	#, tmp113
	lea	rax, _ZSt3cin[rip]	# tmp114,
	mov	rdi, rax	#, tmp114
	call	_ZNSirsERi@PLT	#
	mov	rdx, rax	# _1,
# Simple_Dijkstra.cpp:51:     cin >> n >> m;
	lea	rax, -208[rbp]	# tmp115,
	mov	rsi, rax	#, tmp115
	mov	rdi, rdx	#, _1
	call	_ZNSirsERi@PLT	#
.LEHE0:
	lea	rax, -96[rbp]	# tmp116,
	mov	QWORD PTR -192[rbp], rax	# this, tmp116
# /usr/include/c++/13/bits/new_allocator.h:88:       __new_allocator() _GLIBCXX_USE_NOEXCEPT { }
	nop	
# /usr/include/c++/13/bits/allocator.h:163:       allocator() _GLIBCXX_NOTHROW { }
	nop	
# Simple_Dijkstra.cpp:52:     vector<vector<pair<int, int>>> adj(n + 1, vector<pair<int, int>>());
	pxor	xmm0, xmm0	# tmp117
	movaps	XMMWORD PTR -64[rbp], xmm0	# MEM[(struct vector *)_137], tmp117
	movq	QWORD PTR -48[rbp], xmm0	# MEM[(struct vector *)_137], tmp117
	lea	rax, -64[rbp]	# tmp118,
	mov	rdi, rax	#, tmp118
	call	_ZNSt6vectorISt4pairIiiESaIS1_EEC1Ev	#
# Simple_Dijkstra.cpp:52:     vector<vector<pair<int, int>>> adj(n + 1, vector<pair<int, int>>());
	mov	eax, DWORD PTR -212[rbp]	# n.0_2, n
	add	eax, 1	# _3,
# Simple_Dijkstra.cpp:52:     vector<vector<pair<int, int>>> adj(n + 1, vector<pair<int, int>>());
	movsx	rsi, eax	# _4, _3
	lea	rcx, -96[rbp]	# tmp119,
	lea	rdx, -64[rbp]	# tmp120,
	lea	rax, -160[rbp]	# tmp121,
	mov	rdi, rax	#, tmp121
.LEHB1:
	call	_ZNSt6vectorIS_ISt4pairIiiESaIS1_EESaIS3_EEC1EmRKS3_RKS4_	#
.LEHE1:
# Simple_Dijkstra.cpp:52:     vector<vector<pair<int, int>>> adj(n + 1, vector<pair<int, int>>());
	lea	rax, -64[rbp]	# tmp122,
	mov	rdi, rax	#, tmp122
	call	_ZNSt6vectorISt4pairIiiESaIS1_EED1Ev	#
# /usr/include/c++/13/bits/allocator.h:184:       ~allocator() _GLIBCXX_NOTHROW { }
	lea	rax, -96[rbp]	# tmp123,
	mov	rdi, rax	#, tmp123
	call	_ZNSt15__new_allocatorISt6vectorISt4pairIiiESaIS2_EEED2Ev	#
	nop	
# Simple_Dijkstra.cpp:53:     for (int i = 0; i < m; i++) {
	mov	DWORD PTR -200[rbp], 0	# i,
# Simple_Dijkstra.cpp:53:     for (int i = 0; i < m; i++) {
	jmp	.L43	#
.L44:
# Simple_Dijkstra.cpp:55: 	cin >> a >> b >> w;
	lea	rax, -204[rbp]	# tmp124,
	mov	rsi, rax	#, tmp124
	lea	rax, _ZSt3cin[rip]	# tmp125,
	mov	rdi, rax	#, tmp125
.LEHB2:
	call	_ZNSirsERi@PLT	#
	mov	rdx, rax	# _5,
# Simple_Dijkstra.cpp:55: 	cin >> a >> b >> w;
	lea	rax, -128[rbp]	# tmp126,
	mov	rsi, rax	#, tmp126
	mov	rdi, rdx	#, _5
	call	_ZNSirsERi@PLT	#
	mov	rdx, rax	# _6,
# Simple_Dijkstra.cpp:55: 	cin >> a >> b >> w;
	lea	rax, -96[rbp]	# tmp127,
	mov	rsi, rax	#, tmp127
	mov	rdi, rdx	#, _6
	call	_ZNSirsERi@PLT	#
# Simple_Dijkstra.cpp:56: 	adj[a].push_back({b, w});
	mov	eax, DWORD PTR -204[rbp]	# a.1_7, MEM[(int *)_136]
	movsx	rdx, eax	# _8, a.1_7
	lea	rax, -160[rbp]	# tmp128,
	mov	rsi, rdx	#, _8
	mov	rdi, rax	#, tmp128
	call	_ZNSt6vectorIS_ISt4pairIiiESaIS1_EESaIS3_EEixEm	#
	mov	rbx, rax	# _9,
# Simple_Dijkstra.cpp:56: 	adj[a].push_back({b, w});
	lea	rdx, -96[rbp]	# tmp129,
	lea	rcx, -128[rbp]	# tmp130,
	lea	rax, -64[rbp]	# tmp131,
	mov	rsi, rcx	#, tmp130
	mov	rdi, rax	#, tmp131
	call	_ZNSt4pairIiiEC1IRiS2_Lb1EEEOT_OT0_	#
# Simple_Dijkstra.cpp:56: 	adj[a].push_back({b, w});
	lea	rax, -64[rbp]	# tmp132,
	mov	rsi, rax	#, tmp132
	mov	rdi, rbx	#, _9
	call	_ZNSt6vectorISt4pairIiiESaIS1_EE9push_backEOS1_	#
.LEHE2:
# Simple_Dijkstra.cpp:53:     for (int i = 0; i < m; i++) {
	add	DWORD PTR -200[rbp], 1	# i,
.L43:
# Simple_Dijkstra.cpp:53:     for (int i = 0; i < m; i++) {
	mov	eax, DWORD PTR -208[rbp]	# m.2_10, m
	cmp	DWORD PTR -200[rbp], eax	# i, m.2_10
	jl	.L44	#,
	lea	rax, -96[rbp]	# tmp133,
	mov	QWORD PTR -184[rbp], rax	# this, tmp133
# /usr/include/c++/13/bits/new_allocator.h:88:       __new_allocator() _GLIBCXX_USE_NOEXCEPT { }
	nop	
# /usr/include/c++/13/bits/allocator.h:163:       allocator() _GLIBCXX_NOTHROW { }
	nop	
# Simple_Dijkstra.cpp:58:     vector<bool> visited(n + 1, 0);
	mov	BYTE PTR -128[rbp], 0	# MEM[(bool *)_138],
# Simple_Dijkstra.cpp:58:     vector<bool> visited(n + 1, 0);
	mov	eax, DWORD PTR -212[rbp]	# n.3_11, n
	add	eax, 1	# _12,
# Simple_Dijkstra.cpp:58:     vector<bool> visited(n + 1, 0);
	movsx	rsi, eax	# _13, _12
	lea	rcx, -96[rbp]	# tmp134,
	lea	rdx, -128[rbp]	# tmp135,
	lea	rax, -64[rbp]	# tmp136,
	mov	rdi, rax	#, tmp136
.LEHB3:
	call	_ZNSt6vectorIbSaIbEEC1EmRKbRKS0_	#
.LEHE3:
# /usr/include/c++/13/bits/allocator.h:184:       ~allocator() _GLIBCXX_NOTHROW { }
	lea	rax, -96[rbp]	# tmp137,
	mov	rdi, rax	#, tmp137
	call	_ZNSt15__new_allocatorIbED2Ev	#
	nop	
	lea	rax, -204[rbp]	# tmp138,
	mov	QWORD PTR -176[rbp], rax	# this, tmp138
# /usr/include/c++/13/bits/new_allocator.h:88:       __new_allocator() _GLIBCXX_USE_NOEXCEPT { }
	nop	
# /usr/include/c++/13/bits/allocator.h:163:       allocator() _GLIBCXX_NOTHROW { }
	nop	
# Simple_Dijkstra.cpp:59:     vector<int> distances(n + 1, 1);
	mov	DWORD PTR -96[rbp], 1	# MEM[(int *)_139],
# Simple_Dijkstra.cpp:59:     vector<int> distances(n + 1, 1);
	mov	eax, DWORD PTR -212[rbp]	# n.4_14, n
	add	eax, 1	# _15,
# Simple_Dijkstra.cpp:59:     vector<int> distances(n + 1, 1);
	movsx	rsi, eax	# _16, _15
	lea	rcx, -204[rbp]	# tmp139,
	lea	rdx, -96[rbp]	# tmp140,
	lea	rax, -128[rbp]	# tmp141,
	mov	rdi, rax	#, tmp141
.LEHB4:
	call	_ZNSt6vectorIiSaIiEEC1EmRKiRKS0_	#
.LEHE4:
# /usr/include/c++/13/bits/allocator.h:184:       ~allocator() _GLIBCXX_NOTHROW { }
	lea	rax, -204[rbp]	# tmp142,
	mov	rdi, rax	#, tmp142
	call	_ZNSt15__new_allocatorIiED2Ev	#
	nop	
	lea	rax, -213[rbp]	# tmp143,
	mov	QWORD PTR -168[rbp], rax	# this, tmp143
# /usr/include/c++/13/bits/new_allocator.h:88:       __new_allocator() _GLIBCXX_USE_NOEXCEPT { }
	nop	
# /usr/include/c++/13/bits/allocator.h:163:       allocator() _GLIBCXX_NOTHROW { }
	nop	
# Simple_Dijkstra.cpp:60:     vector<int> path(n + 1, -1);
	mov	DWORD PTR -204[rbp], -1	# MEM[(int *)_136],
# Simple_Dijkstra.cpp:60:     vector<int> path(n + 1, -1);
	mov	eax, DWORD PTR -212[rbp]	# n.5_17, n
	add	eax, 1	# _18,
# Simple_Dijkstra.cpp:60:     vector<int> path(n + 1, -1);
	movsx	rsi, eax	# _19, _18
	lea	rcx, -213[rbp]	# tmp144,
	lea	rdx, -204[rbp]	# tmp145,
	lea	rax, -96[rbp]	# tmp146,
	mov	rdi, rax	#, tmp146
.LEHB5:
	call	_ZNSt6vectorIiSaIiEEC1EmRKiRKS0_	#
.LEHE5:
# /usr/include/c++/13/bits/allocator.h:184:       ~allocator() _GLIBCXX_NOTHROW { }
	lea	rax, -213[rbp]	# tmp147,
	mov	rdi, rax	#, tmp147
	call	_ZNSt15__new_allocatorIiED2Ev	#
	nop	
# Simple_Dijkstra.cpp:61:     djikstra(1, adj, distances, visited, path);
	lea	rsi, -96[rbp]	# tmp148,
	lea	rcx, -64[rbp]	# tmp149,
	lea	rdx, -128[rbp]	# tmp150,
	lea	rax, -160[rbp]	# tmp151,
	mov	r8, rsi	#, tmp148
	mov	rsi, rax	#, tmp151
	mov	edi, 1	#,
.LEHB6:
	call	_Z8djikstraIiEvT_RSt6vectorIS1_ISt4pairIS0_S0_ESaIS3_EESaIS5_EERS1_IS0_SaIS0_EERS1_IbSaIbEESB_	#
# Simple_Dijkstra.cpp:62:     for (int i = 1; i <= n; i++) {
	mov	DWORD PTR -196[rbp], 1	# i,
# Simple_Dijkstra.cpp:62:     for (int i = 1; i <= n; i++) {
	jmp	.L45	#
.L46:
# Simple_Dijkstra.cpp:63: 	cout << i << ": " << distances[i] << "\n";
	mov	eax, DWORD PTR -196[rbp]	# tmp152, i
	mov	esi, eax	#, tmp152
	lea	rax, _ZSt4cout[rip]	# tmp153,
	mov	rdi, rax	#, tmp153
	call	_ZNSolsEi@PLT	#
	mov	rdx, rax	# _20,
# Simple_Dijkstra.cpp:63: 	cout << i << ": " << distances[i] << "\n";
	lea	rax, .LC0[rip]	# tmp154,
	mov	rsi, rax	#, tmp154
	mov	rdi, rdx	#, _20
	call	_ZStlsISt11char_traitsIcEERSt13basic_ostreamIcT_ES5_PKc@PLT	#
	mov	rbx, rax	# _21,
# Simple_Dijkstra.cpp:63: 	cout << i << ": " << distances[i] << "\n";
	mov	eax, DWORD PTR -196[rbp]	# tmp155, i
	movsx	rdx, eax	# _22, tmp155
	lea	rax, -128[rbp]	# tmp156,
	mov	rsi, rdx	#, _22
	mov	rdi, rax	#, tmp156
	call	_ZNSt6vectorIiSaIiEEixEm	#
# Simple_Dijkstra.cpp:63: 	cout << i << ": " << distances[i] << "\n";
	mov	eax, DWORD PTR [rax]	# _24, *_23
	mov	esi, eax	#, _24
	mov	rdi, rbx	#, _21
	call	_ZNSolsEi@PLT	#
	mov	rdx, rax	# _25,
# Simple_Dijkstra.cpp:63: 	cout << i << ": " << distances[i] << "\n";
	lea	rax, .LC1[rip]	# tmp157,
	mov	rsi, rax	#, tmp157
	mov	rdi, rdx	#, _25
	call	_ZStlsISt11char_traitsIcEERSt13basic_ostreamIcT_ES5_PKc@PLT	#
# Simple_Dijkstra.cpp:62:     for (int i = 1; i <= n; i++) {
	add	DWORD PTR -196[rbp], 1	# i,
.L45:
# Simple_Dijkstra.cpp:62:     for (int i = 1; i <= n; i++) {
	mov	eax, DWORD PTR -212[rbp]	# n.6_26, n
	cmp	DWORD PTR -196[rbp], eax	# i, n.6_26
	jle	.L46	#,
# Simple_Dijkstra.cpp:65:     shortest_path(1, 3, path);
	lea	rax, -96[rbp]	# tmp158,
	mov	rdx, rax	#, tmp158
	mov	esi, 3	#,
	mov	edi, 1	#,
	call	_Z13shortest_pathIiEvT_S0_RSt6vectorIS0_SaIS0_EE	#
.LEHE6:
# Simple_Dijkstra.cpp:67:     return 0;
	mov	ebx, 0	# _65,
# Simple_Dijkstra.cpp:68: }
	lea	rax, -96[rbp]	# tmp159,
	mov	rdi, rax	#, tmp159
	call	_ZNSt6vectorIiSaIiEED1Ev	#
# Simple_Dijkstra.cpp:68: }
	lea	rax, -128[rbp]	# tmp160,
	mov	rdi, rax	#, tmp160
	call	_ZNSt6vectorIiSaIiEED1Ev	#
# Simple_Dijkstra.cpp:68: }
	lea	rax, -64[rbp]	# tmp161,
	mov	rdi, rax	#, tmp161
	call	_ZNSt6vectorIbSaIbEED1Ev	#
# Simple_Dijkstra.cpp:68: }
	lea	rax, -160[rbp]	# tmp162,
	mov	rdi, rax	#, tmp162
	call	_ZNSt6vectorIS_ISt4pairIiiESaIS1_EESaIS3_EED1Ev	#
# Simple_Dijkstra.cpp:68: }
	mov	eax, ebx	# <retval>, _65
	mov	rdx, QWORD PTR -24[rbp]	# tmp192, D.233345
	sub	rdx, QWORD PTR fs:40	# tmp192, MEM[(<address-space-1> long unsigned int *)40B]
	je	.L58	#,
	jmp	.L65	#
.L59:
	endbr64	
# Simple_Dijkstra.cpp:52:     vector<vector<pair<int, int>>> adj(n + 1, vector<pair<int, int>>());
	mov	rbx, rax	# tmp166,
	lea	rax, -64[rbp]	# tmp164,
	mov	rdi, rax	#, tmp164
	call	_ZNSt6vectorISt4pairIiiESaIS1_EED1Ev	#
# /usr/include/c++/13/bits/allocator.h:184:       ~allocator() _GLIBCXX_NOTHROW { }
	lea	rax, -96[rbp]	# tmp169,
	mov	rdi, rax	#, tmp169
	call	_ZNSt15__new_allocatorISt6vectorISt4pairIiiESaIS2_EEED2Ev	#
	nop	
	mov	rax, rbx	# D.233342, tmp165
	mov	rdx, QWORD PTR -24[rbp]	# tmp193, D.233345
	sub	rdx, QWORD PTR fs:40	# tmp193, MEM[(<address-space-1> long unsigned int *)40B]
	je	.L49	#,
	call	__stack_chk_fail@PLT	#
.L49:
	mov	rdi, rax	#, D.233342
.LEHB7:
	call	_Unwind_Resume@PLT	#
.L61:
	endbr64	
	mov	rbx, rax	# tmp172,
	lea	rax, -96[rbp]	# tmp170,
	mov	rdi, rax	#, tmp170
	call	_ZNSt15__new_allocatorIbED2Ev	#
	nop	
	jmp	.L51	#
.L62:
	endbr64	
	mov	rbx, rax	# tmp177,
	lea	rax, -204[rbp]	# tmp175,
	mov	rdi, rax	#, tmp175
	call	_ZNSt15__new_allocatorIiED2Ev	#
	nop	
	jmp	.L53	#
.L63:
	endbr64	
	mov	rbx, rax	# tmp182,
	lea	rax, -213[rbp]	# tmp180,
	mov	rdi, rax	#, tmp180
	call	_ZNSt15__new_allocatorIiED2Ev	#
	nop	
	jmp	.L55	#
.L64:
	endbr64	
# Simple_Dijkstra.cpp:68: }
	mov	rbx, rax	# tmp186,
	lea	rax, -96[rbp]	# tmp185,
	mov	rdi, rax	#, tmp185
	call	_ZNSt6vectorIiSaIiEED1Ev	#
.L55:
	lea	rax, -128[rbp]	# tmp188,
	mov	rdi, rax	#, tmp188
	call	_ZNSt6vectorIiSaIiEED1Ev	#
.L53:
	lea	rax, -64[rbp]	# tmp189,
	mov	rdi, rax	#, tmp189
	call	_ZNSt6vectorIbSaIbEED1Ev	#
	jmp	.L51	#
.L60:
	endbr64	
	mov	rbx, rax	# tmp171,
.L51:
	lea	rax, -160[rbp]	# tmp190,
	mov	rdi, rax	#, tmp190
	call	_ZNSt6vectorIS_ISt4pairIiiESaIS1_EESaIS3_EED1Ev	#
	mov	rax, rbx	# D.233343, tmp171
	mov	rdx, QWORD PTR -24[rbp]	# tmp194, D.233345
	sub	rdx, QWORD PTR fs:40	# tmp194, MEM[(<address-space-1> long unsigned int *)40B]
	je	.L57	#,
	call	__stack_chk_fail@PLT	#
.L57:
	mov	rdi, rax	#, D.233343
	call	_Unwind_Resume@PLT	#
.LEHE7:
.L65:
	call	__stack_chk_fail@PLT	#
.L58:
	mov	rbx, QWORD PTR -8[rbp]	#,
	leave	
	.cfi_def_cfa 7, 8
	ret	
	.cfi_endproc
.LFE9772:
	.globl	__gxx_personality_v0
	.section	.gcc_except_table,"a",@progbits
.LLSDA9772:
	.byte	0xff
	.byte	0xff
	.byte	0x1
	.uleb128 .LLSDACSE9772-.LLSDACSB9772
.LLSDACSB9772:
	.uleb128 .LEHB0-.LFB9772
	.uleb128 .LEHE0-.LEHB0
	.uleb128 0
	.uleb128 0
	.uleb128 .LEHB1-.LFB9772
	.uleb128 .LEHE1-.LEHB1
	.uleb128 .L59-.LFB9772
	.uleb128 0
	.uleb128 .LEHB2-.LFB9772
	.uleb128 .LEHE2-.LEHB2
	.uleb128 .L60-.LFB9772
	.uleb128 0
	.uleb128 .LEHB3-.LFB9772
	.uleb128 .LEHE3-.LEHB3
	.uleb128 .L61-.LFB9772
	.uleb128 0
	.uleb128 .LEHB4-.LFB9772
	.uleb128 .LEHE4-.LEHB4
	.uleb128 .L62-.LFB9772
	.uleb128 0
	.uleb128 .LEHB5-.LFB9772
	.uleb128 .LEHE5-.LEHB5
	.uleb128 .L63-.LFB9772
	.uleb128 0
	.uleb128 .LEHB6-.LFB9772
	.uleb128 .LEHE6-.LEHB6
	.uleb128 .L64-.LFB9772
	.uleb128 0
	.uleb128 .LEHB7-.LFB9772
	.uleb128 .LEHE7-.LEHB7
	.uleb128 0
	.uleb128 0
.LLSDACSE9772:
	.text
	.size	main, .-main
	.section	.text._ZSt3maxImERKT_S2_S2_,"axG",@progbits,_ZSt3maxImERKT_S2_S2_,comdat
	.weak	_ZSt3maxImERKT_S2_S2_
	.type	_ZSt3maxImERKT_S2_S2_, @function
_ZSt3maxImERKT_S2_S2_:
.LFB10037:
	.cfi_startproc
	endbr64	
	push	rbp	#
	.cfi_def_cfa_offset 16
	.cfi_offset 6, -16
	mov	rbp, rsp	#,
	.cfi_def_cfa_register 6
	mov	QWORD PTR -8[rbp], rdi	# __a, __a
	mov	QWORD PTR -16[rbp], rsi	# __b, __b
# /usr/include/c++/13/bits/stl_algobase.h:262:       if (__a < __b)
	mov	rax, QWORD PTR -8[rbp]	# tmp86, __a
	mov	rdx, QWORD PTR [rax]	# _1, *__a_5(D)
	mov	rax, QWORD PTR -16[rbp]	# tmp87, __b
	mov	rax, QWORD PTR [rax]	# _2, *__b_6(D)
# /usr/include/c++/13/bits/stl_algobase.h:262:       if (__a < __b)
	cmp	rdx, rax	# _1, _2
	jnb	.L67	#,
# /usr/include/c++/13/bits/stl_algobase.h:263: 	return __b;
	mov	rax, QWORD PTR -16[rbp]	# _3, __b
	jmp	.L68	#
.L67:
# /usr/include/c++/13/bits/stl_algobase.h:264:       return __a;
	mov	rax, QWORD PTR -8[rbp]	# _3, __a
.L68:
# /usr/include/c++/13/bits/stl_algobase.h:265:     }
	pop	rbp	#
	.cfi_def_cfa 7, 8
	ret	
	.cfi_endproc
.LFE10037:
	.size	_ZSt3maxImERKT_S2_S2_, .-_ZSt3maxImERKT_S2_S2_
	.section	.text._ZNSt12_Vector_baseISt4pairIiiESaIS1_EE12_Vector_implC2Ev,"axG",@progbits,_ZNSt12_Vector_baseISt4pairIiiESaIS1_EE12_Vector_implC5Ev,comdat
	.align 2
	.weak	_ZNSt12_Vector_baseISt4pairIiiESaIS1_EE12_Vector_implC2Ev
	.type	_ZNSt12_Vector_baseISt4pairIiiESaIS1_EE12_Vector_implC2Ev, @function
_ZNSt12_Vector_baseISt4pairIiiESaIS1_EE12_Vector_implC2Ev:
.LFB10475:
	.cfi_startproc
	endbr64	
	push	rbp	#
	.cfi_def_cfa_offset 16
	.cfi_offset 6, -16
	mov	rbp, rsp	#,
	.cfi_def_cfa_register 6
	sub	rsp, 32	#,
	mov	QWORD PTR -24[rbp], rdi	# this, this
	mov	rax, QWORD PTR -24[rbp]	# tmp83, this
	mov	QWORD PTR -16[rbp], rax	# this, tmp83
	mov	rax, QWORD PTR -16[rbp]	# tmp84, this
	mov	QWORD PTR -8[rbp], rax	# this, tmp84
# /usr/include/c++/13/bits/new_allocator.h:88:       __new_allocator() _GLIBCXX_USE_NOEXCEPT { }
	nop	
# /usr/include/c++/13/bits/allocator.h:163:       allocator() _GLIBCXX_NOTHROW { }
	nop	
# /usr/include/c++/13/bits/stl_vector.h:142: 	: _Tp_alloc_type()
	mov	rax, QWORD PTR -24[rbp]	# _1, this
	mov	rdi, rax	#, _1
	call	_ZNSt12_Vector_baseISt4pairIiiESaIS1_EE17_Vector_impl_dataC2Ev	#
# /usr/include/c++/13/bits/stl_vector.h:143: 	{ }
	nop	
	leave	
	.cfi_def_cfa 7, 8
	ret	
	.cfi_endproc
.LFE10475:
	.size	_ZNSt12_Vector_baseISt4pairIiiESaIS1_EE12_Vector_implC2Ev, .-_ZNSt12_Vector_baseISt4pairIiiESaIS1_EE12_Vector_implC2Ev
	.weak	_ZNSt12_Vector_baseISt4pairIiiESaIS1_EE12_Vector_implC1Ev
	.set	_ZNSt12_Vector_baseISt4pairIiiESaIS1_EE12_Vector_implC1Ev,_ZNSt12_Vector_baseISt4pairIiiESaIS1_EE12_Vector_implC2Ev
	.section	.text._ZNSt12_Vector_baseISt4pairIiiESaIS1_EED2Ev,"axG",@progbits,_ZNSt12_Vector_baseISt4pairIiiESaIS1_EED5Ev,comdat
	.align 2
	.weak	_ZNSt12_Vector_baseISt4pairIiiESaIS1_EED2Ev
	.type	_ZNSt12_Vector_baseISt4pairIiiESaIS1_EED2Ev, @function
_ZNSt12_Vector_baseISt4pairIiiESaIS1_EED2Ev:
.LFB10481:
	.cfi_startproc
	.cfi_personality 0x9b,DW.ref.__gxx_personality_v0
	.cfi_lsda 0x1b,.LLSDA10481
	endbr64	
	push	rbp	#
	.cfi_def_cfa_offset 16
	.cfi_offset 6, -16
	mov	rbp, rsp	#,
	.cfi_def_cfa_register 6
	sub	rsp, 16	#,
	mov	QWORD PTR -8[rbp], rdi	# this, this
# /usr/include/c++/13/bits/stl_vector.h:370: 		      _M_impl._M_end_of_storage - _M_impl._M_start);
	mov	rax, QWORD PTR -8[rbp]	# tmp89, this
	mov	rdx, QWORD PTR 16[rax]	# _1, this_9(D)->_M_impl.D.209628._M_end_of_storage
# /usr/include/c++/13/bits/stl_vector.h:370: 		      _M_impl._M_end_of_storage - _M_impl._M_start);
	mov	rax, QWORD PTR -8[rbp]	# tmp90, this
	mov	rax, QWORD PTR [rax]	# _2, this_9(D)->_M_impl.D.209628._M_start
# /usr/include/c++/13/bits/stl_vector.h:370: 		      _M_impl._M_end_of_storage - _M_impl._M_start);
	sub	rdx, rax	# _3, _2
	mov	rax, rdx	# _3, _3
	sar	rax, 3	# _3,
# /usr/include/c++/13/bits/stl_vector.h:369: 	_M_deallocate(_M_impl._M_start,
	mov	rdx, rax	# _5, _4
	mov	rax, QWORD PTR -8[rbp]	# tmp92, this
	mov	rcx, QWORD PTR [rax]	# _6, this_9(D)->_M_impl.D.209628._M_start
	mov	rax, QWORD PTR -8[rbp]	# tmp93, this
	mov	rsi, rcx	#, _6
	mov	rdi, rax	#, tmp93
	call	_ZNSt12_Vector_baseISt4pairIiiESaIS1_EE13_M_deallocateEPS1_m	#
# /usr/include/c++/13/bits/stl_vector.h:371:       }
	mov	rax, QWORD PTR -8[rbp]	# _7, this
	mov	rdi, rax	#, _7
	call	_ZNSt12_Vector_baseISt4pairIiiESaIS1_EE12_Vector_implD1Ev	#
	nop	
	leave	
	.cfi_def_cfa 7, 8
	ret	
	.cfi_endproc
.LFE10481:
	.section	.gcc_except_table
.LLSDA10481:
	.byte	0xff
	.byte	0xff
	.byte	0x1
	.uleb128 .LLSDACSE10481-.LLSDACSB10481
.LLSDACSB10481:
.LLSDACSE10481:
	.section	.text._ZNSt12_Vector_baseISt4pairIiiESaIS1_EED2Ev,"axG",@progbits,_ZNSt12_Vector_baseISt4pairIiiESaIS1_EED5Ev,comdat
	.size	_ZNSt12_Vector_baseISt4pairIiiESaIS1_EED2Ev, .-_ZNSt12_Vector_baseISt4pairIiiESaIS1_EED2Ev
	.weak	_ZNSt12_Vector_baseISt4pairIiiESaIS1_EED1Ev
	.set	_ZNSt12_Vector_baseISt4pairIiiESaIS1_EED1Ev,_ZNSt12_Vector_baseISt4pairIiiESaIS1_EED2Ev
	.section	.text._ZNSt6vectorISt4pairIiiESaIS1_EED2Ev,"axG",@progbits,_ZNSt6vectorISt4pairIiiESaIS1_EED5Ev,comdat
	.align 2
	.weak	_ZNSt6vectorISt4pairIiiESaIS1_EED2Ev
	.type	_ZNSt6vectorISt4pairIiiESaIS1_EED2Ev, @function
_ZNSt6vectorISt4pairIiiESaIS1_EED2Ev:
.LFB10484:
	.cfi_startproc
	.cfi_personality 0x9b,DW.ref.__gxx_personality_v0
	.cfi_lsda 0x1b,.LLSDA10484
	endbr64	
	push	rbp	#
	.cfi_def_cfa_offset 16
	.cfi_offset 6, -16
	mov	rbp, rsp	#,
	.cfi_def_cfa_register 6
	sub	rsp, 48	#,
	mov	QWORD PTR -40[rbp], rdi	# this, this
# /usr/include/c++/13/bits/stl_vector.h:736: 		      _M_get_Tp_allocator());
	mov	rax, QWORD PTR -40[rbp]	# _1, this
	mov	rdi, rax	#, _1
	call	_ZNSt12_Vector_baseISt4pairIiiESaIS1_EE19_M_get_Tp_allocatorEv	#
# /usr/include/c++/13/bits/stl_vector.h:735: 	std::_Destroy(this->_M_impl._M_start, this->_M_impl._M_finish,
	mov	rdx, QWORD PTR -40[rbp]	# tmp87, this
	mov	rdx, QWORD PTR 8[rdx]	# _3, this_6(D)->D.210289._M_impl.D.209628._M_finish
	mov	rcx, QWORD PTR -40[rbp]	# tmp88, this
	mov	rcx, QWORD PTR [rcx]	# _4, this_6(D)->D.210289._M_impl.D.209628._M_start
	mov	QWORD PTR -24[rbp], rcx	# __first, _4
	mov	QWORD PTR -16[rbp], rdx	# __last, _3
	mov	QWORD PTR -8[rbp], rax	# D.233059, _2
# /usr/include/c++/13/bits/alloc_traits.h:948:       std::_Destroy(__first, __last);
	mov	rdx, QWORD PTR -16[rbp]	# tmp89, __last
	mov	rax, QWORD PTR -24[rbp]	# tmp90, __first
	mov	rsi, rdx	#, tmp89
	mov	rdi, rax	#, tmp90
	call	_ZSt8_DestroyIPSt4pairIiiEEvT_S3_	#
# /usr/include/c++/13/bits/alloc_traits.h:949:     }
	nop	
# /usr/include/c++/13/bits/stl_vector.h:738:       }
	mov	rax, QWORD PTR -40[rbp]	# _5, this
	mov	rdi, rax	#, _5
	call	_ZNSt12_Vector_baseISt4pairIiiESaIS1_EED2Ev	#
	nop	
	leave	
	.cfi_def_cfa 7, 8
	ret	
	.cfi_endproc
.LFE10484:
	.section	.gcc_except_table
.LLSDA10484:
	.byte	0xff
	.byte	0xff
	.byte	0x1
	.uleb128 .LLSDACSE10484-.LLSDACSB10484
.LLSDACSB10484:
.LLSDACSE10484:
	.section	.text._ZNSt6vectorISt4pairIiiESaIS1_EED2Ev,"axG",@progbits,_ZNSt6vectorISt4pairIiiESaIS1_EED5Ev,comdat
	.size	_ZNSt6vectorISt4pairIiiESaIS1_EED2Ev, .-_ZNSt6vectorISt4pairIiiESaIS1_EED2Ev
	.weak	_ZNSt6vectorISt4pairIiiESaIS1_EED1Ev
	.set	_ZNSt6vectorISt4pairIiiESaIS1_EED1Ev,_ZNSt6vectorISt4pairIiiESaIS1_EED2Ev
	.section	.text._ZNSt6vectorIS_ISt4pairIiiESaIS1_EESaIS3_EEC2EmRKS3_RKS4_,"axG",@progbits,_ZNSt6vectorIS_ISt4pairIiiESaIS1_EESaIS3_EEC5EmRKS3_RKS4_,comdat
	.align 2
	.weak	_ZNSt6vectorIS_ISt4pairIiiESaIS1_EESaIS3_EEC2EmRKS3_RKS4_
	.type	_ZNSt6vectorIS_ISt4pairIiiESaIS1_EESaIS3_EEC2EmRKS3_RKS4_, @function
_ZNSt6vectorIS_ISt4pairIiiESaIS1_EESaIS3_EEC2EmRKS3_RKS4_:
.LFB10493:
	.cfi_startproc
	.cfi_personality 0x9b,DW.ref.__gxx_personality_v0
	.cfi_lsda 0x1b,.LLSDA10493
	endbr64	
	push	rbp	#
	.cfi_def_cfa_offset 16
	.cfi_offset 6, -16
	mov	rbp, rsp	#,
	.cfi_def_cfa_register 6
	push	rbx	#
	sub	rsp, 40	#,
	.cfi_offset 3, -24
	mov	QWORD PTR -24[rbp], rdi	# this, this
	mov	QWORD PTR -32[rbp], rsi	# __n, __n
	mov	QWORD PTR -40[rbp], rdx	# __value, __value
	mov	QWORD PTR -48[rbp], rcx	# __a, __a
# /usr/include/c++/13/bits/stl_vector.h:571:       : _Base(_S_check_init_len(__n, __a), __a)
	mov	rbx, QWORD PTR -24[rbp]	# _1, this
	mov	rdx, QWORD PTR -48[rbp]	# tmp86, __a
	mov	rax, QWORD PTR -32[rbp]	# tmp87, __n
	mov	rsi, rdx	#, tmp86
	mov	rdi, rax	#, tmp87
.LEHB8:
	call	_ZNSt6vectorIS_ISt4pairIiiESaIS1_EESaIS3_EE17_S_check_init_lenEmRKS4_	#
	mov	rcx, rax	# _2,
# /usr/include/c++/13/bits/stl_vector.h:571:       : _Base(_S_check_init_len(__n, __a), __a)
	mov	rax, QWORD PTR -48[rbp]	# tmp88, __a
	mov	rdx, rax	#, tmp88
	mov	rsi, rcx	#, _2
	mov	rdi, rbx	#, _1
	call	_ZNSt12_Vector_baseISt6vectorISt4pairIiiESaIS2_EESaIS4_EEC2EmRKS5_	#
.LEHE8:
# /usr/include/c++/13/bits/stl_vector.h:572:       { _M_fill_initialize(__n, __value); }
	mov	rdx, QWORD PTR -40[rbp]	# tmp89, __value
	mov	rcx, QWORD PTR -32[rbp]	# tmp90, __n
	mov	rax, QWORD PTR -24[rbp]	# tmp91, this
	mov	rsi, rcx	#, tmp90
	mov	rdi, rax	#, tmp91
.LEHB9:
	call	_ZNSt6vectorIS_ISt4pairIiiESaIS1_EESaIS3_EE18_M_fill_initializeEmRKS3_	#
.LEHE9:
# /usr/include/c++/13/bits/stl_vector.h:572:       { _M_fill_initialize(__n, __value); }
	jmp	.L75	#
.L74:
	endbr64	
# /usr/include/c++/13/bits/stl_vector.h:572:       { _M_fill_initialize(__n, __value); }
	mov	rbx, rax	# tmp92,
	mov	rax, QWORD PTR -24[rbp]	# _3, this
	mov	rdi, rax	#, _3
	call	_ZNSt12_Vector_baseISt6vectorISt4pairIiiESaIS2_EESaIS4_EED2Ev	#
	mov	rax, rbx	# D.233348, tmp92
	mov	rdi, rax	#, D.233348
.LEHB10:
	call	_Unwind_Resume@PLT	#
.LEHE10:
.L75:
# /usr/include/c++/13/bits/stl_vector.h:572:       { _M_fill_initialize(__n, __value); }
	mov	rbx, QWORD PTR -8[rbp]	#,
	leave	
	.cfi_def_cfa 7, 8
	ret	
	.cfi_endproc
.LFE10493:
	.section	.gcc_except_table
.LLSDA10493:
	.byte	0xff
	.byte	0xff
	.byte	0x1
	.uleb128 .LLSDACSE10493-.LLSDACSB10493
.LLSDACSB10493:
	.uleb128 .LEHB8-.LFB10493
	.uleb128 .LEHE8-.LEHB8
	.uleb128 0
	.uleb128 0
	.uleb128 .LEHB9-.LFB10493
	.uleb128 .LEHE9-.LEHB9
	.uleb128 .L74-.LFB10493
	.uleb128 0
	.uleb128 .LEHB10-.LFB10493
	.uleb128 .LEHE10-.LEHB10
	.uleb128 0
	.uleb128 0
.LLSDACSE10493:
	.section	.text._ZNSt6vectorIS_ISt4pairIiiESaIS1_EESaIS3_EEC2EmRKS3_RKS4_,"axG",@progbits,_ZNSt6vectorIS_ISt4pairIiiESaIS1_EESaIS3_EEC5EmRKS3_RKS4_,comdat
	.size	_ZNSt6vectorIS_ISt4pairIiiESaIS1_EESaIS3_EEC2EmRKS3_RKS4_, .-_ZNSt6vectorIS_ISt4pairIiiESaIS1_EESaIS3_EEC2EmRKS3_RKS4_
	.weak	_ZNSt6vectorIS_ISt4pairIiiESaIS1_EESaIS3_EEC1EmRKS3_RKS4_
	.set	_ZNSt6vectorIS_ISt4pairIiiESaIS1_EESaIS3_EEC1EmRKS3_RKS4_,_ZNSt6vectorIS_ISt4pairIiiESaIS1_EESaIS3_EEC2EmRKS3_RKS4_
	.section	.text._ZNSt6vectorIS_ISt4pairIiiESaIS1_EESaIS3_EED2Ev,"axG",@progbits,_ZNSt6vectorIS_ISt4pairIiiESaIS1_EESaIS3_EED5Ev,comdat
	.align 2
	.weak	_ZNSt6vectorIS_ISt4pairIiiESaIS1_EESaIS3_EED2Ev
	.type	_ZNSt6vectorIS_ISt4pairIiiESaIS1_EESaIS3_EED2Ev, @function
_ZNSt6vectorIS_ISt4pairIiiESaIS1_EESaIS3_EED2Ev:
.LFB10496:
	.cfi_startproc
	.cfi_personality 0x9b,DW.ref.__gxx_personality_v0
	.cfi_lsda 0x1b,.LLSDA10496
	endbr64	
	push	rbp	#
	.cfi_def_cfa_offset 16
	.cfi_offset 6, -16
	mov	rbp, rsp	#,
	.cfi_def_cfa_register 6
	sub	rsp, 48	#,
	mov	QWORD PTR -40[rbp], rdi	# this, this
# /usr/include/c++/13/bits/stl_vector.h:736: 		      _M_get_Tp_allocator());
	mov	rax, QWORD PTR -40[rbp]	# _1, this
	mov	rdi, rax	#, _1
	call	_ZNSt12_Vector_baseISt6vectorISt4pairIiiESaIS2_EESaIS4_EE19_M_get_Tp_allocatorEv	#
# /usr/include/c++/13/bits/stl_vector.h:735: 	std::_Destroy(this->_M_impl._M_start, this->_M_impl._M_finish,
	mov	rdx, QWORD PTR -40[rbp]	# tmp87, this
	mov	rdx, QWORD PTR 8[rdx]	# _3, this_6(D)->D.209242._M_impl.D.208581._M_finish
	mov	rcx, QWORD PTR -40[rbp]	# tmp88, this
	mov	rcx, QWORD PTR [rcx]	# _4, this_6(D)->D.209242._M_impl.D.208581._M_start
	mov	QWORD PTR -24[rbp], rcx	# __first, _4
	mov	QWORD PTR -16[rbp], rdx	# __last, _3
	mov	QWORD PTR -8[rbp], rax	# D.233074, _2
# /usr/include/c++/13/bits/alloc_traits.h:948:       std::_Destroy(__first, __last);
	mov	rdx, QWORD PTR -16[rbp]	# tmp89, __last
	mov	rax, QWORD PTR -24[rbp]	# tmp90, __first
	mov	rsi, rdx	#, tmp89
	mov	rdi, rax	#, tmp90
	call	_ZSt8_DestroyIPSt6vectorISt4pairIiiESaIS2_EEEvT_S6_	#
# /usr/include/c++/13/bits/alloc_traits.h:949:     }
	nop	
# /usr/include/c++/13/bits/stl_vector.h:738:       }
	mov	rax, QWORD PTR -40[rbp]	# _5, this
	mov	rdi, rax	#, _5
	call	_ZNSt12_Vector_baseISt6vectorISt4pairIiiESaIS2_EESaIS4_EED2Ev	#
	nop	
	leave	
	.cfi_def_cfa 7, 8
	ret	
	.cfi_endproc
.LFE10496:
	.section	.gcc_except_table
.LLSDA10496:
	.byte	0xff
	.byte	0xff
	.byte	0x1
	.uleb128 .LLSDACSE10496-.LLSDACSB10496
.LLSDACSB10496:
.LLSDACSE10496:
	.section	.text._ZNSt6vectorIS_ISt4pairIiiESaIS1_EESaIS3_EED2Ev,"axG",@progbits,_ZNSt6vectorIS_ISt4pairIiiESaIS1_EESaIS3_EED5Ev,comdat
	.size	_ZNSt6vectorIS_ISt4pairIiiESaIS1_EESaIS3_EED2Ev, .-_ZNSt6vectorIS_ISt4pairIiiESaIS1_EESaIS3_EED2Ev
	.weak	_ZNSt6vectorIS_ISt4pairIiiESaIS1_EESaIS3_EED1Ev
	.set	_ZNSt6vectorIS_ISt4pairIiiESaIS1_EESaIS3_EED1Ev,_ZNSt6vectorIS_ISt4pairIiiESaIS1_EESaIS3_EED2Ev
	.section	.text._ZNSt6vectorIS_ISt4pairIiiESaIS1_EESaIS3_EEixEm,"axG",@progbits,_ZNSt6vectorIS_ISt4pairIiiESaIS1_EESaIS3_EEixEm,comdat
	.align 2
	.weak	_ZNSt6vectorIS_ISt4pairIiiESaIS1_EESaIS3_EEixEm
	.type	_ZNSt6vectorIS_ISt4pairIiiESaIS1_EESaIS3_EEixEm, @function
_ZNSt6vectorIS_ISt4pairIiiESaIS1_EESaIS3_EEixEm:
.LFB10498:
	.cfi_startproc
	endbr64	
	push	rbp	#
	.cfi_def_cfa_offset 16
	.cfi_offset 6, -16
	mov	rbp, rsp	#,
	.cfi_def_cfa_register 6
	mov	QWORD PTR -8[rbp], rdi	# this, this
	mov	QWORD PTR -16[rbp], rsi	# __n, __n
# /usr/include/c++/13/bits/stl_vector.h:1129: 	return *(this->_M_impl._M_start + __n);
	mov	rax, QWORD PTR -8[rbp]	# tmp86, this
	mov	rcx, QWORD PTR [rax]	# _1, this_4(D)->D.209242._M_impl.D.208581._M_start
# /usr/include/c++/13/bits/stl_vector.h:1129: 	return *(this->_M_impl._M_start + __n);
	mov	rdx, QWORD PTR -16[rbp]	# tmp87, __n
	mov	rax, rdx	# tmp88, tmp87
	add	rax, rax	# tmp88
	add	rax, rdx	# tmp88, tmp87
	sal	rax, 3	# tmp89,
# /usr/include/c++/13/bits/stl_vector.h:1129: 	return *(this->_M_impl._M_start + __n);
	add	rax, rcx	# _6, _1
# /usr/include/c++/13/bits/stl_vector.h:1130:       }
	pop	rbp	#
	.cfi_def_cfa 7, 8
	ret	
	.cfi_endproc
.LFE10498:
	.size	_ZNSt6vectorIS_ISt4pairIiiESaIS1_EESaIS3_EEixEm, .-_ZNSt6vectorIS_ISt4pairIiiESaIS1_EESaIS3_EEixEm
	.section	.text._ZNSt4pairIiiEC2IRiS2_Lb1EEEOT_OT0_,"axG",@progbits,_ZNSt4pairIiiEC5IRiS2_Lb1EEEOT_OT0_,comdat
	.align 2
	.weak	_ZNSt4pairIiiEC2IRiS2_Lb1EEEOT_OT0_
	.type	_ZNSt4pairIiiEC2IRiS2_Lb1EEEOT_OT0_, @function
_ZNSt4pairIiiEC2IRiS2_Lb1EEEOT_OT0_:
.LFB10500:
	.cfi_startproc
	endbr64	
	push	rbp	#
	.cfi_def_cfa_offset 16
	.cfi_offset 6, -16
	mov	rbp, rsp	#,
	.cfi_def_cfa_register 6
	sub	rsp, 32	#,
	mov	QWORD PTR -8[rbp], rdi	# this, this
	mov	QWORD PTR -16[rbp], rsi	# __x, __x
	mov	QWORD PTR -24[rbp], rdx	# __y, __y
# /usr/include/c++/13/bits/stl_pair.h:688: 	: first(std::forward<_U1>(__x)), second(std::forward<_U2>(__y))
	mov	rax, QWORD PTR -16[rbp]	# tmp86, __x
	mov	rdi, rax	#, tmp86
	call	_ZSt7forwardIRiEOT_RNSt16remove_referenceIS1_E4typeE	#
# /usr/include/c++/13/bits/stl_pair.h:688: 	: first(std::forward<_U1>(__x)), second(std::forward<_U2>(__y))
	mov	edx, DWORD PTR [rax]	# _2, *_1
	mov	rax, QWORD PTR -8[rbp]	# tmp87, this
	mov	DWORD PTR [rax], edx	# this_6(D)->first, _2
# /usr/include/c++/13/bits/stl_pair.h:688: 	: first(std::forward<_U1>(__x)), second(std::forward<_U2>(__y))
	mov	rax, QWORD PTR -24[rbp]	# tmp88, __y
	mov	rdi, rax	#, tmp88
	call	_ZSt7forwardIRiEOT_RNSt16remove_referenceIS1_E4typeE	#
# /usr/include/c++/13/bits/stl_pair.h:688: 	: first(std::forward<_U1>(__x)), second(std::forward<_U2>(__y))
	mov	edx, DWORD PTR [rax]	# _4, *_3
	mov	rax, QWORD PTR -8[rbp]	# tmp89, this
	mov	DWORD PTR 4[rax], edx	# this_6(D)->second, _4
# /usr/include/c++/13/bits/stl_pair.h:689: 	{ __glibcxx_no_dangling_refs(_U1&&, _U2&&); }
	nop	
	leave	
	.cfi_def_cfa 7, 8
	ret	
	.cfi_endproc
.LFE10500:
	.size	_ZNSt4pairIiiEC2IRiS2_Lb1EEEOT_OT0_, .-_ZNSt4pairIiiEC2IRiS2_Lb1EEEOT_OT0_
	.weak	_ZNSt4pairIiiEC1IRiS2_Lb1EEEOT_OT0_
	.set	_ZNSt4pairIiiEC1IRiS2_Lb1EEEOT_OT0_,_ZNSt4pairIiiEC2IRiS2_Lb1EEEOT_OT0_
	.section	.text._ZNSt6vectorISt4pairIiiESaIS1_EE9push_backEOS1_,"axG",@progbits,_ZNSt6vectorISt4pairIiiESaIS1_EE9push_backEOS1_,comdat
	.align 2
	.weak	_ZNSt6vectorISt4pairIiiESaIS1_EE9push_backEOS1_
	.type	_ZNSt6vectorISt4pairIiiESaIS1_EE9push_backEOS1_, @function
_ZNSt6vectorISt4pairIiiESaIS1_EE9push_backEOS1_:
.LFB10502:
	.cfi_startproc
	endbr64	
	push	rbp	#
	.cfi_def_cfa_offset 16
	.cfi_offset 6, -16
	mov	rbp, rsp	#,
	.cfi_def_cfa_register 6
	sub	rsp, 16	#,
	mov	QWORD PTR -8[rbp], rdi	# this, this
	mov	QWORD PTR -16[rbp], rsi	# __x, __x
# /usr/include/c++/13/bits/stl_vector.h:1299:       { emplace_back(std::move(__x)); }
	mov	rax, QWORD PTR -16[rbp]	# tmp83, __x
	mov	rdi, rax	#, tmp83
	call	_ZSt4moveIRSt4pairIiiEEONSt16remove_referenceIT_E4typeEOS4_	#
	mov	rdx, rax	# _1,
# /usr/include/c++/13/bits/stl_vector.h:1299:       { emplace_back(std::move(__x)); }
	mov	rax, QWORD PTR -8[rbp]	# tmp84, this
	mov	rsi, rdx	#, _1
	mov	rdi, rax	#, tmp84
	call	_ZNSt6vectorISt4pairIiiESaIS1_EE12emplace_backIJS1_EEERS1_DpOT_	#
# /usr/include/c++/13/bits/stl_vector.h:1299:       { emplace_back(std::move(__x)); }
	nop	
	leave	
	.cfi_def_cfa 7, 8
	ret	
	.cfi_endproc
.LFE10502:
	.size	_ZNSt6vectorISt4pairIiiESaIS1_EE9push_backEOS1_, .-_ZNSt6vectorISt4pairIiiESaIS1_EE9push_backEOS1_
	.section	.text._ZNSt6vectorIbSaIbEEC2EmRKbRKS0_,"axG",@progbits,_ZNSt6vectorIbSaIbEEC5EmRKbRKS0_,comdat
	.align 2
	.weak	_ZNSt6vectorIbSaIbEEC2EmRKbRKS0_
	.type	_ZNSt6vectorIbSaIbEEC2EmRKbRKS0_, @function
_ZNSt6vectorIbSaIbEEC2EmRKbRKS0_:
.LFB10510:
	.cfi_startproc
	.cfi_personality 0x9b,DW.ref.__gxx_personality_v0
	.cfi_lsda 0x1b,.LLSDA10510
	endbr64	
	push	rbp	#
	.cfi_def_cfa_offset 16
	.cfi_offset 6, -16
	mov	rbp, rsp	#,
	.cfi_def_cfa_register 6
	push	rbx	#
	sub	rsp, 40	#,
	.cfi_offset 3, -24
	mov	QWORD PTR -24[rbp], rdi	# this, this
	mov	QWORD PTR -32[rbp], rsi	# __n, __n
	mov	QWORD PTR -40[rbp], rdx	# __value, __value
	mov	QWORD PTR -48[rbp], rcx	# __a, __a
# /usr/include/c++/13/bits/stl_bvector.h:802:       : _Base(__a)
	mov	rax, QWORD PTR -24[rbp]	# _1, this
	mov	rdx, QWORD PTR -48[rbp]	# tmp87, __a
	mov	rsi, rdx	#, tmp87
	mov	rdi, rax	#, _1
	call	_ZNSt13_Bvector_baseISaIbEEC2ERKS0_	#
# /usr/include/c++/13/bits/stl_bvector.h:804: 	_M_initialize(__n);
	mov	rdx, QWORD PTR -32[rbp]	# tmp88, __n
	mov	rax, QWORD PTR -24[rbp]	# tmp89, this
	mov	rsi, rdx	#, tmp88
	mov	rdi, rax	#, tmp89
.LEHB11:
	call	_ZNSt6vectorIbSaIbEE13_M_initializeEm	#
.LEHE11:
# /usr/include/c++/13/bits/stl_bvector.h:805: 	_M_initialize_value(__value);
	mov	rax, QWORD PTR -40[rbp]	# tmp90, __value
	movzx	eax, BYTE PTR [rax]	# _2, *__value_12(D)
	movzx	edx, al	# _3, _2
	mov	rax, QWORD PTR -24[rbp]	# tmp91, this
	mov	esi, edx	#, _3
	mov	rdi, rax	#, tmp91
	call	_ZNSt6vectorIbSaIbEE19_M_initialize_valueEb	#
# /usr/include/c++/13/bits/stl_bvector.h:806:       }
	jmp	.L84	#
.L83:
	endbr64	
	mov	rbx, rax	# tmp92,
	mov	rax, QWORD PTR -24[rbp]	# _4, this
	mov	rdi, rax	#, _4
	call	_ZNSt13_Bvector_baseISaIbEED2Ev	#
	mov	rax, rbx	# D.233349, tmp92
	mov	rdi, rax	#, D.233349
.LEHB12:
	call	_Unwind_Resume@PLT	#
.LEHE12:
.L84:
	mov	rbx, QWORD PTR -8[rbp]	#,
	leave	
	.cfi_def_cfa 7, 8
	ret	
	.cfi_endproc
.LFE10510:
	.section	.gcc_except_table
.LLSDA10510:
	.byte	0xff
	.byte	0xff
	.byte	0x1
	.uleb128 .LLSDACSE10510-.LLSDACSB10510
.LLSDACSB10510:
	.uleb128 .LEHB11-.LFB10510
	.uleb128 .LEHE11-.LEHB11
	.uleb128 .L83-.LFB10510
	.uleb128 0
	.uleb128 .LEHB12-.LFB10510
	.uleb128 .LEHE12-.LEHB12
	.uleb128 0
	.uleb128 0
.LLSDACSE10510:
	.section	.text._ZNSt6vectorIbSaIbEEC2EmRKbRKS0_,"axG",@progbits,_ZNSt6vectorIbSaIbEEC5EmRKbRKS0_,comdat
	.size	_ZNSt6vectorIbSaIbEEC2EmRKbRKS0_, .-_ZNSt6vectorIbSaIbEEC2EmRKbRKS0_
	.weak	_ZNSt6vectorIbSaIbEEC1EmRKbRKS0_
	.set	_ZNSt6vectorIbSaIbEEC1EmRKbRKS0_,_ZNSt6vectorIbSaIbEEC2EmRKbRKS0_
	.section	.text._ZNSt6vectorIbSaIbEED2Ev,"axG",@progbits,_ZNSt6vectorIbSaIbEED5Ev,comdat
	.align 2
	.weak	_ZNSt6vectorIbSaIbEED2Ev
	.type	_ZNSt6vectorIbSaIbEED2Ev, @function
_ZNSt6vectorIbSaIbEED2Ev:
.LFB10513:
	.cfi_startproc
	endbr64	
	push	rbp	#
	.cfi_def_cfa_offset 16
	.cfi_offset 6, -16
	mov	rbp, rsp	#,
	.cfi_def_cfa_register 6
	sub	rsp, 16	#,
	mov	QWORD PTR -8[rbp], rdi	# this, this
# /usr/include/c++/13/bits/stl_bvector.h:890:       ~vector() _GLIBCXX_NOEXCEPT { }
	mov	rax, QWORD PTR -8[rbp]	# _1, this
	mov	rdi, rax	#, _1
	call	_ZNSt13_Bvector_baseISaIbEED2Ev	#
	nop	
	leave	
	.cfi_def_cfa 7, 8
	ret	
	.cfi_endproc
.LFE10513:
	.size	_ZNSt6vectorIbSaIbEED2Ev, .-_ZNSt6vectorIbSaIbEED2Ev
	.weak	_ZNSt6vectorIbSaIbEED1Ev
	.set	_ZNSt6vectorIbSaIbEED1Ev,_ZNSt6vectorIbSaIbEED2Ev
	.section	.text._ZNSt6vectorIiSaIiEEC2EmRKiRKS0_,"axG",@progbits,_ZNSt6vectorIiSaIiEEC5EmRKiRKS0_,comdat
	.align 2
	.weak	_ZNSt6vectorIiSaIiEEC2EmRKiRKS0_
	.type	_ZNSt6vectorIiSaIiEEC2EmRKiRKS0_, @function
_ZNSt6vectorIiSaIiEEC2EmRKiRKS0_:
.LFB10522:
	.cfi_startproc
	.cfi_personality 0x9b,DW.ref.__gxx_personality_v0
	.cfi_lsda 0x1b,.LLSDA10522
	endbr64	
	push	rbp	#
	.cfi_def_cfa_offset 16
	.cfi_offset 6, -16
	mov	rbp, rsp	#,
	.cfi_def_cfa_register 6
	push	rbx	#
	sub	rsp, 40	#,
	.cfi_offset 3, -24
	mov	QWORD PTR -24[rbp], rdi	# this, this
	mov	QWORD PTR -32[rbp], rsi	# __n, __n
	mov	QWORD PTR -40[rbp], rdx	# __value, __value
	mov	QWORD PTR -48[rbp], rcx	# __a, __a
# /usr/include/c++/13/bits/stl_vector.h:571:       : _Base(_S_check_init_len(__n, __a), __a)
	mov	rbx, QWORD PTR -24[rbp]	# _1, this
	mov	rdx, QWORD PTR -48[rbp]	# tmp86, __a
	mov	rax, QWORD PTR -32[rbp]	# tmp87, __n
	mov	rsi, rdx	#, tmp86
	mov	rdi, rax	#, tmp87
.LEHB13:
	call	_ZNSt6vectorIiSaIiEE17_S_check_init_lenEmRKS0_	#
	mov	rcx, rax	# _2,
# /usr/include/c++/13/bits/stl_vector.h:571:       : _Base(_S_check_init_len(__n, __a), __a)
	mov	rax, QWORD PTR -48[rbp]	# tmp88, __a
	mov	rdx, rax	#, tmp88
	mov	rsi, rcx	#, _2
	mov	rdi, rbx	#, _1
	call	_ZNSt12_Vector_baseIiSaIiEEC2EmRKS0_	#
.LEHE13:
# /usr/include/c++/13/bits/stl_vector.h:572:       { _M_fill_initialize(__n, __value); }
	mov	rdx, QWORD PTR -40[rbp]	# tmp89, __value
	mov	rcx, QWORD PTR -32[rbp]	# tmp90, __n
	mov	rax, QWORD PTR -24[rbp]	# tmp91, this
	mov	rsi, rcx	#, tmp90
	mov	rdi, rax	#, tmp91
.LEHB14:
	call	_ZNSt6vectorIiSaIiEE18_M_fill_initializeEmRKi	#
.LEHE14:
# /usr/include/c++/13/bits/stl_vector.h:572:       { _M_fill_initialize(__n, __value); }
	jmp	.L89	#
.L88:
	endbr64	
# /usr/include/c++/13/bits/stl_vector.h:572:       { _M_fill_initialize(__n, __value); }
	mov	rbx, rax	# tmp92,
	mov	rax, QWORD PTR -24[rbp]	# _3, this
	mov	rdi, rax	#, _3
	call	_ZNSt12_Vector_baseIiSaIiEED2Ev	#
	mov	rax, rbx	# D.233350, tmp92
	mov	rdi, rax	#, D.233350
.LEHB15:
	call	_Unwind_Resume@PLT	#
.LEHE15:
.L89:
# /usr/include/c++/13/bits/stl_vector.h:572:       { _M_fill_initialize(__n, __value); }
	mov	rbx, QWORD PTR -8[rbp]	#,
	leave	
	.cfi_def_cfa 7, 8
	ret	
	.cfi_endproc
.LFE10522:
	.section	.gcc_except_table
.LLSDA10522:
	.byte	0xff
	.byte	0xff
	.byte	0x1
	.uleb128 .LLSDACSE10522-.LLSDACSB10522
.LLSDACSB10522:
	.uleb128 .LEHB13-.LFB10522
	.uleb128 .LEHE13-.LEHB13
	.uleb128 0
	.uleb128 0
	.uleb128 .LEHB14-.LFB10522
	.uleb128 .LEHE14-.LEHB14
	.uleb128 .L88-.LFB10522
	.uleb128 0
	.uleb128 .LEHB15-.LFB10522
	.uleb128 .LEHE15-.LEHB15
	.uleb128 0
	.uleb128 0
.LLSDACSE10522:
	.section	.text._ZNSt6vectorIiSaIiEEC2EmRKiRKS0_,"axG",@progbits,_ZNSt6vectorIiSaIiEEC5EmRKiRKS0_,comdat
	.size	_ZNSt6vectorIiSaIiEEC2EmRKiRKS0_, .-_ZNSt6vectorIiSaIiEEC2EmRKiRKS0_
	.weak	_ZNSt6vectorIiSaIiEEC1EmRKiRKS0_
	.set	_ZNSt6vectorIiSaIiEEC1EmRKiRKS0_,_ZNSt6vectorIiSaIiEEC2EmRKiRKS0_
	.section	.text._ZNSt6vectorIiSaIiEED2Ev,"axG",@progbits,_ZNSt6vectorIiSaIiEED5Ev,comdat
	.align 2
	.weak	_ZNSt6vectorIiSaIiEED2Ev
	.type	_ZNSt6vectorIiSaIiEED2Ev, @function
_ZNSt6vectorIiSaIiEED2Ev:
.LFB10525:
	.cfi_startproc
	.cfi_personality 0x9b,DW.ref.__gxx_personality_v0
	.cfi_lsda 0x1b,.LLSDA10525
	endbr64	
	push	rbp	#
	.cfi_def_cfa_offset 16
	.cfi_offset 6, -16
	mov	rbp, rsp	#,
	.cfi_def_cfa_register 6
	sub	rsp, 48	#,
	mov	QWORD PTR -40[rbp], rdi	# this, this
# /usr/include/c++/13/bits/stl_vector.h:736: 		      _M_get_Tp_allocator());
	mov	rax, QWORD PTR -40[rbp]	# _1, this
	mov	rdi, rax	#, _1
	call	_ZNSt12_Vector_baseIiSaIiEE19_M_get_Tp_allocatorEv	#
# /usr/include/c++/13/bits/stl_vector.h:735: 	std::_Destroy(this->_M_impl._M_start, this->_M_impl._M_finish,
	mov	rdx, QWORD PTR -40[rbp]	# tmp87, this
	mov	rdx, QWORD PTR 8[rdx]	# _3, this_6(D)->D.188304._M_impl.D.187644._M_finish
	mov	rcx, QWORD PTR -40[rbp]	# tmp88, this
	mov	rcx, QWORD PTR [rcx]	# _4, this_6(D)->D.188304._M_impl.D.187644._M_start
	mov	QWORD PTR -24[rbp], rcx	# __first, _4
	mov	QWORD PTR -16[rbp], rdx	# __last, _3
	mov	QWORD PTR -8[rbp], rax	# D.233101, _2
# /usr/include/c++/13/bits/alloc_traits.h:948:       std::_Destroy(__first, __last);
	mov	rdx, QWORD PTR -16[rbp]	# tmp89, __last
	mov	rax, QWORD PTR -24[rbp]	# tmp90, __first
	mov	rsi, rdx	#, tmp89
	mov	rdi, rax	#, tmp90
	call	_ZSt8_DestroyIPiEvT_S1_	#
# /usr/include/c++/13/bits/alloc_traits.h:949:     }
	nop	
# /usr/include/c++/13/bits/stl_vector.h:738:       }
	mov	rax, QWORD PTR -40[rbp]	# _5, this
	mov	rdi, rax	#, _5
	call	_ZNSt12_Vector_baseIiSaIiEED2Ev	#
	nop	
	leave	
	.cfi_def_cfa 7, 8
	ret	
	.cfi_endproc
.LFE10525:
	.section	.gcc_except_table
.LLSDA10525:
	.byte	0xff
	.byte	0xff
	.byte	0x1
	.uleb128 .LLSDACSE10525-.LLSDACSB10525
.LLSDACSB10525:
.LLSDACSE10525:
	.section	.text._ZNSt6vectorIiSaIiEED2Ev,"axG",@progbits,_ZNSt6vectorIiSaIiEED5Ev,comdat
	.size	_ZNSt6vectorIiSaIiEED2Ev, .-_ZNSt6vectorIiSaIiEED2Ev
	.weak	_ZNSt6vectorIiSaIiEED1Ev
	.set	_ZNSt6vectorIiSaIiEED1Ev,_ZNSt6vectorIiSaIiEED2Ev
	.section	.text._ZNSt14priority_queueISt4pairIiiESt6vectorIS1_SaIS1_EESt7greaterIS1_EED2Ev,"axG",@progbits,_ZNSt14priority_queueISt4pairIiiESt6vectorIS1_SaIS1_EESt7greaterIS1_EED5Ev,comdat
	.align 2
	.weak	_ZNSt14priority_queueISt4pairIiiESt6vectorIS1_SaIS1_EESt7greaterIS1_EED2Ev
	.type	_ZNSt14priority_queueISt4pairIiiESt6vectorIS1_SaIS1_EESt7greaterIS1_EED2Ev, @function
_ZNSt14priority_queueISt4pairIiiESt6vectorIS1_SaIS1_EESt7greaterIS1_EED2Ev:
.LFB10531:
	.cfi_startproc
	endbr64	
	push	rbp	#
	.cfi_def_cfa_offset 16
	.cfi_offset 6, -16
	mov	rbp, rsp	#,
	.cfi_def_cfa_register 6
	sub	rsp, 16	#,
	mov	QWORD PTR -8[rbp], rdi	# this, this
# /usr/include/c++/13/bits/stl_queue.h:498:     class priority_queue
	mov	rax, QWORD PTR -8[rbp]	# _1, this
	mov	rdi, rax	#, _1
	call	_ZNSt6vectorISt4pairIiiESaIS1_EED1Ev	#
	nop	
	leave	
	.cfi_def_cfa 7, 8
	ret	
	.cfi_endproc
.LFE10531:
	.size	_ZNSt14priority_queueISt4pairIiiESt6vectorIS1_SaIS1_EESt7greaterIS1_EED2Ev, .-_ZNSt14priority_queueISt4pairIiiESt6vectorIS1_SaIS1_EESt7greaterIS1_EED2Ev
	.weak	_ZNSt14priority_queueISt4pairIiiESt6vectorIS1_SaIS1_EESt7greaterIS1_EED1Ev
	.set	_ZNSt14priority_queueISt4pairIiiESt6vectorIS1_SaIS1_EESt7greaterIS1_EED1Ev,_ZNSt14priority_queueISt4pairIiiESt6vectorIS1_SaIS1_EESt7greaterIS1_EED2Ev
	.section	.text._Z8djikstraIiEvT_RSt6vectorIS1_ISt4pairIS0_S0_ESaIS3_EESaIS5_EERS1_IS0_SaIS0_EERS1_IbSaIbEESB_,"axG",@progbits,_Z8djikstraIiEvT_RSt6vectorIS1_ISt4pairIS0_S0_ESaIS3_EESaIS5_EERS1_IS0_SaIS0_EERS1_IbSaIbEESB_,comdat
	.weak	_Z8djikstraIiEvT_RSt6vectorIS1_ISt4pairIS0_S0_ESaIS3_EESaIS5_EERS1_IS0_SaIS0_EERS1_IbSaIbEESB_
	.type	_Z8djikstraIiEvT_RSt6vectorIS1_ISt4pairIS0_S0_ESaIS3_EESaIS5_EERS1_IS0_SaIS0_EERS1_IbSaIbEESB_, @function
_Z8djikstraIiEvT_RSt6vectorIS1_ISt4pairIS0_S0_ESaIS3_EESaIS5_EERS1_IS0_SaIS0_EERS1_IbSaIbEESB_:
.LFB10527:
	.cfi_startproc
	.cfi_personality 0x9b,DW.ref.__gxx_personality_v0
	.cfi_lsda 0x1b,.LLSDA10527
	endbr64	
	push	rbp	#
	.cfi_def_cfa_offset 16
	.cfi_offset 6, -16
	mov	rbp, rsp	#,
	.cfi_def_cfa_register 6
	push	rbx	#
	sub	rsp, 168	#,
	.cfi_offset 3, -24
	mov	DWORD PTR -132[rbp], edi	# start, start
	mov	QWORD PTR -144[rbp], rsi	# adj, adj
	mov	QWORD PTR -152[rbp], rdx	# distances, distances
	mov	QWORD PTR -160[rbp], rcx	# visited, visited
	mov	QWORD PTR -168[rbp], r8	# path, path
# Simple_Dijkstra.cpp:8: void djikstra(T start, vector<vector<pair<T, T>>> &adj, vector<T> &distances,
	mov	rax, QWORD PTR fs:40	# tmp178, MEM[(<address-space-1> long unsigned int *)40B]
	mov	QWORD PTR -24[rbp], rax	# D.233353, tmp178
	xor	eax, eax	# tmp178
# Simple_Dijkstra.cpp:10:     fill(distances.begin(), distances.end(), INT32_MAX);
	mov	DWORD PTR -64[rbp], 2147483647	# MEM[(int *)_107],
# Simple_Dijkstra.cpp:10:     fill(distances.begin(), distances.end(), INT32_MAX);
	mov	rax, QWORD PTR -152[rbp]	# tmp120, distances
	mov	rdi, rax	#, tmp120
	call	_ZNSt6vectorIiSaIiEE3endEv	#
	mov	rbx, rax	# D.232588,
# Simple_Dijkstra.cpp:10:     fill(distances.begin(), distances.end(), INT32_MAX);
	mov	rax, QWORD PTR -152[rbp]	# tmp121, distances
	mov	rdi, rax	#, tmp121
	call	_ZNSt6vectorIiSaIiEE5beginEv	#
	mov	rcx, rax	# D.232589,
# Simple_Dijkstra.cpp:10:     fill(distances.begin(), distances.end(), INT32_MAX);
	lea	rax, -64[rbp]	# tmp122,
	mov	rdx, rax	#, tmp122
	mov	rsi, rbx	#, D.232588
	mov	rdi, rcx	#, D.232589
.LEHB16:
	call	_ZSt4fillIN9__gnu_cxx17__normal_iteratorIPiSt6vectorIiSaIiEEEEiEvT_S7_RKT0_	#
.LEHE16:
# Simple_Dijkstra.cpp:11:     distances[start] = 0;
	mov	eax, DWORD PTR -132[rbp]	# start.24_1, start
	movsx	rdx, eax	# _2, start.24_1
	mov	rax, QWORD PTR -152[rbp]	# tmp123, distances
	mov	rsi, rdx	#, _2
	mov	rdi, rax	#, tmp123
	call	_ZNSt6vectorIiSaIiEEixEm	#
# Simple_Dijkstra.cpp:11:     distances[start] = 0;
	mov	DWORD PTR [rax], 0	# *_3,
# Simple_Dijkstra.cpp:12:     priority_queue<pair<T, T>, vector<pair<T, T>>, greater<pair<T, T>>> pq;
	lea	rax, -64[rbp]	# tmp124,
	mov	rdi, rax	#, tmp124
	call	_ZNSt14priority_queueISt4pairIiiESt6vectorIS1_SaIS1_EESt7greaterIS1_EEC1IS4_vEEv	#
# Simple_Dijkstra.cpp:13:     pq.push({0, start});
	mov	DWORD PTR -104[rbp], 0	# MEM[(int *)_108],
# Simple_Dijkstra.cpp:13:     pq.push({0, start});
	lea	rdx, -132[rbp]	# tmp125,
	lea	rcx, -104[rbp]	# tmp126,
	lea	rax, -80[rbp]	# tmp127,
	mov	rsi, rcx	#, tmp126
	mov	rdi, rax	#, tmp127
	call	_ZNSt4pairIiiEC1IiRiLb1EEEOT_OT0_	#
# Simple_Dijkstra.cpp:13:     pq.push({0, start});
	lea	rdx, -80[rbp]	# tmp128,
	lea	rax, -64[rbp]	# tmp129,
	mov	rsi, rdx	#, tmp128
	mov	rdi, rax	#, tmp129
.LEHB17:
	call	_ZNSt14priority_queueISt4pairIiiESt6vectorIS1_SaIS1_EESt7greaterIS1_EE4pushEOS1_	#
# Simple_Dijkstra.cpp:14:     while (!pq.empty()) {
	jmp	.L93	#
.L99:
# Simple_Dijkstra.cpp:15: 	T a = pq.top().second;
	lea	rax, -64[rbp]	# tmp130,
	mov	rdi, rax	#, tmp130
	call	_ZNKSt14priority_queueISt4pairIiiESt6vectorIS1_SaIS1_EESt7greaterIS1_EE3topEv	#
# Simple_Dijkstra.cpp:15: 	T a = pq.top().second;
	mov	eax, DWORD PTR 4[rax]	# tmp131, _4->second
	mov	DWORD PTR -120[rbp], eax	# a, tmp131
# Simple_Dijkstra.cpp:16: 	pq.pop();
	lea	rax, -64[rbp]	# tmp132,
	mov	rdi, rax	#, tmp132
	call	_ZNSt14priority_queueISt4pairIiiESt6vectorIS1_SaIS1_EESt7greaterIS1_EE3popEv	#
# Simple_Dijkstra.cpp:17: 	if (visited[a]) {
	mov	eax, DWORD PTR -120[rbp]	# tmp133, a
	movsx	rdx, eax	# _5, tmp133
	mov	rax, QWORD PTR -160[rbp]	# tmp134, visited
	mov	rsi, rdx	#, _5
	mov	rdi, rax	#, tmp134
	call	_ZNSt6vectorIbSaIbEEixEm	#
	mov	QWORD PTR -80[rbp], rax	# MEM[(struct _Bit_reference *)_105], tmp136
	mov	QWORD PTR -72[rbp], rdx	# MEM[(struct _Bit_reference *)_105],
# Simple_Dijkstra.cpp:17: 	if (visited[a]) {
	lea	rax, -80[rbp]	# tmp137,
	mov	rdi, rax	#, tmp137
	call	_ZNKSt14_Bit_referencecvbEv	#
# Simple_Dijkstra.cpp:17: 	if (visited[a]) {
	test	al, al	# retval.25_62
	jne	.L105	#,
# Simple_Dijkstra.cpp:20: 	visited[a] = 1;
	mov	eax, DWORD PTR -120[rbp]	# tmp138, a
	movsx	rdx, eax	# _6, tmp138
	mov	rax, QWORD PTR -160[rbp]	# tmp139, visited
	mov	rsi, rdx	#, _6
	mov	rdi, rax	#, tmp139
	call	_ZNSt6vectorIbSaIbEEixEm	#
	mov	QWORD PTR -80[rbp], rax	# MEM[(struct _Bit_reference *)_105], tmp141
	mov	QWORD PTR -72[rbp], rdx	# MEM[(struct _Bit_reference *)_105],
# Simple_Dijkstra.cpp:20: 	visited[a] = 1;
	lea	rax, -80[rbp]	# tmp142,
	mov	esi, 1	#,
	mov	rdi, rax	#, tmp142
	call	_ZNSt14_Bit_referenceaSEb	#
# Simple_Dijkstra.cpp:21: 	for (auto &&v : adj[a]) {
	mov	eax, DWORD PTR -120[rbp]	# tmp143, a
	movsx	rdx, eax	# _7, tmp143
	mov	rax, QWORD PTR -144[rbp]	# tmp144, adj
	mov	rsi, rdx	#, _7
	mov	rdi, rax	#, tmp144
	call	_ZNSt6vectorIS_ISt4pairIiiESaIS1_EESaIS3_EEixEm	#
	mov	QWORD PTR -96[rbp], rax	# __for_range, tmp145
# Simple_Dijkstra.cpp:21: 	for (auto &&v : adj[a]) {
	mov	rax, QWORD PTR -96[rbp]	# tmp146, __for_range
	mov	rdi, rax	#, tmp146
	call	_ZNSt6vectorISt4pairIiiESaIS1_EE5beginEv	#
	mov	QWORD PTR -112[rbp], rax	# __for_begin, tmp148
# Simple_Dijkstra.cpp:21: 	for (auto &&v : adj[a]) {
	mov	rax, QWORD PTR -96[rbp]	# tmp149, __for_range
	mov	rdi, rax	#, tmp149
	call	_ZNSt6vectorISt4pairIiiESaIS1_EE3endEv	#
	mov	QWORD PTR -104[rbp], rax	# MEM[(struct __normal_iterator *)_108], tmp151
# Simple_Dijkstra.cpp:21: 	for (auto &&v : adj[a]) {
	jmp	.L96	#
.L98:
# Simple_Dijkstra.cpp:21: 	for (auto &&v : adj[a]) {
	lea	rax, -112[rbp]	# tmp152,
	mov	rdi, rax	#, tmp152
	call	_ZNK9__gnu_cxx17__normal_iteratorIPSt4pairIiiESt6vectorIS2_SaIS2_EEEdeEv	#
	mov	QWORD PTR -88[rbp], rax	# v, tmp153
# Simple_Dijkstra.cpp:22: 	    T b = v.first;
	mov	rax, QWORD PTR -88[rbp]	# tmp154, v
	mov	eax, DWORD PTR [rax]	# _8, v_77->first
# Simple_Dijkstra.cpp:22: 	    T b = v.first;
	mov	DWORD PTR -124[rbp], eax	# b, _8
# Simple_Dijkstra.cpp:23: 	    T w = v.second;
	mov	rax, QWORD PTR -88[rbp]	# tmp155, v
	mov	eax, DWORD PTR 4[rax]	# tmp156, v_77->second
	mov	DWORD PTR -116[rbp], eax	# w, tmp156
# Simple_Dijkstra.cpp:24: 	    if (distances[a] + w < distances[b]) {
	mov	eax, DWORD PTR -120[rbp]	# tmp157, a
	movsx	rdx, eax	# _9, tmp157
	mov	rax, QWORD PTR -152[rbp]	# tmp158, distances
	mov	rsi, rdx	#, _9
	mov	rdi, rax	#, tmp158
	call	_ZNSt6vectorIiSaIiEEixEm	#
# Simple_Dijkstra.cpp:24: 	    if (distances[a] + w < distances[b]) {
	mov	edx, DWORD PTR [rax]	# _11, *_10
	mov	eax, DWORD PTR -116[rbp]	# tmp159, w
	lea	ebx, [rdx+rax]	# _12,
# Simple_Dijkstra.cpp:24: 	    if (distances[a] + w < distances[b]) {
	mov	eax, DWORD PTR -124[rbp]	# b.27_13, b
	movsx	rdx, eax	# _14, b.27_13
	mov	rax, QWORD PTR -152[rbp]	# tmp160, distances
	mov	rsi, rdx	#, _14
	mov	rdi, rax	#, tmp160
	call	_ZNSt6vectorIiSaIiEEixEm	#
# Simple_Dijkstra.cpp:24: 	    if (distances[a] + w < distances[b]) {
	mov	eax, DWORD PTR [rax]	# _16, *_15
	cmp	ebx, eax	# _12, _16
	setl	al	#, retval.26_82
# Simple_Dijkstra.cpp:24: 	    if (distances[a] + w < distances[b]) {
	test	al, al	# retval.26_82
	je	.L97	#,
# Simple_Dijkstra.cpp:25: 		distances[b] = distances[a] + w;
	mov	eax, DWORD PTR -120[rbp]	# tmp161, a
	movsx	rdx, eax	# _17, tmp161
	mov	rax, QWORD PTR -152[rbp]	# tmp162, distances
	mov	rsi, rdx	#, _17
	mov	rdi, rax	#, tmp162
	call	_ZNSt6vectorIiSaIiEEixEm	#
# Simple_Dijkstra.cpp:25: 		distances[b] = distances[a] + w;
	mov	edx, DWORD PTR [rax]	# _19, *_18
	mov	eax, DWORD PTR -116[rbp]	# tmp163, w
	lea	ebx, [rdx+rax]	# _20,
# Simple_Dijkstra.cpp:25: 		distances[b] = distances[a] + w;
	mov	eax, DWORD PTR -124[rbp]	# b.28_21, b
	movsx	rdx, eax	# _22, b.28_21
	mov	rax, QWORD PTR -152[rbp]	# tmp164, distances
	mov	rsi, rdx	#, _22
	mov	rdi, rax	#, tmp164
	call	_ZNSt6vectorIiSaIiEEixEm	#
# Simple_Dijkstra.cpp:25: 		distances[b] = distances[a] + w;
	mov	DWORD PTR [rax], ebx	# *_23, _20
# Simple_Dijkstra.cpp:26: 		path[b] = a;
	mov	ebx, DWORD PTR -120[rbp]	# a.29_24, a
# Simple_Dijkstra.cpp:26: 		path[b] = a;
	mov	eax, DWORD PTR -124[rbp]	# b.30_25, b
	movsx	rdx, eax	# _26, b.30_25
	mov	rax, QWORD PTR -168[rbp]	# tmp165, path
	mov	rsi, rdx	#, _26
	mov	rdi, rax	#, tmp165
	call	_ZNSt6vectorIiSaIiEEixEm	#
# Simple_Dijkstra.cpp:26: 		path[b] = a;
	mov	DWORD PTR [rax], ebx	# *_27, a.29_24
# Simple_Dijkstra.cpp:27: 		pq.push({distances[b], b});
	mov	eax, DWORD PTR -124[rbp]	# b.31_28, b
	movsx	rdx, eax	# _29, b.31_28
	mov	rax, QWORD PTR -152[rbp]	# tmp166, distances
	mov	rsi, rdx	#, _29
	mov	rdi, rax	#, tmp166
	call	_ZNSt6vectorIiSaIiEEixEm	#
	mov	rcx, rax	# _30,
# Simple_Dijkstra.cpp:27: 		pq.push({distances[b], b});
	lea	rdx, -124[rbp]	# tmp167,
	lea	rax, -80[rbp]	# tmp168,
	mov	rsi, rcx	#, _30
	mov	rdi, rax	#, tmp168
	call	_ZNSt4pairIiiEC1IRiS2_Lb1EEEOT_OT0_	#
# Simple_Dijkstra.cpp:27: 		pq.push({distances[b], b});
	lea	rdx, -80[rbp]	# tmp169,
	lea	rax, -64[rbp]	# tmp170,
	mov	rsi, rdx	#, tmp169
	mov	rdi, rax	#, tmp170
	call	_ZNSt14priority_queueISt4pairIiiESt6vectorIS1_SaIS1_EESt7greaterIS1_EE4pushEOS1_	#
.LEHE17:
.L97:
# Simple_Dijkstra.cpp:21: 	for (auto &&v : adj[a]) {
	lea	rax, -112[rbp]	# tmp171,
	mov	rdi, rax	#, tmp171
	call	_ZN9__gnu_cxx17__normal_iteratorIPSt4pairIiiESt6vectorIS2_SaIS2_EEEppEv	#
.L96:
# Simple_Dijkstra.cpp:21: 	for (auto &&v : adj[a]) {
	lea	rdx, -104[rbp]	# tmp172,
	lea	rax, -112[rbp]	# tmp173,
	mov	rsi, rdx	#, tmp172
	mov	rdi, rax	#, tmp173
	call	_ZN9__gnu_cxxneIPSt4pairIiiESt6vectorIS2_SaIS2_EEEEbRKNS_17__normal_iteratorIT_T0_EESC_	#
	test	al, al	# retval.32_73
	jne	.L98	#,
	jmp	.L93	#
.L105:
# Simple_Dijkstra.cpp:18: 	    continue;
	nop	
.L93:
# Simple_Dijkstra.cpp:14:     while (!pq.empty()) {
	lea	rax, -64[rbp]	# tmp174,
	mov	rdi, rax	#, tmp174
	call	_ZNKSt14priority_queueISt4pairIiiESt6vectorIS1_SaIS1_EESt7greaterIS1_EE5emptyEv	#
# Simple_Dijkstra.cpp:14:     while (!pq.empty()) {
	xor	eax, 1	# retval.33_53,
	test	al, al	# retval.33_53
	jne	.L99	#,
# Simple_Dijkstra.cpp:31: }
	lea	rax, -64[rbp]	# tmp175,
	mov	rdi, rax	#, tmp175
	call	_ZNSt14priority_queueISt4pairIiiESt6vectorIS1_SaIS1_EESt7greaterIS1_EED1Ev	#
	mov	rax, QWORD PTR -24[rbp]	# tmp179, D.233353
	sub	rax, QWORD PTR fs:40	# tmp179, MEM[(<address-space-1> long unsigned int *)40B]
	je	.L102	#,
	jmp	.L104	#
.L103:
	endbr64	
	mov	rbx, rax	# tmp177,
	lea	rax, -64[rbp]	# tmp176,
	mov	rdi, rax	#, tmp176
	call	_ZNSt14priority_queueISt4pairIiiESt6vectorIS1_SaIS1_EESt7greaterIS1_EED1Ev	#
	mov	rax, rbx	# D.233351, tmp177
	mov	rdx, QWORD PTR -24[rbp]	# tmp180, D.233353
	sub	rdx, QWORD PTR fs:40	# tmp180, MEM[(<address-space-1> long unsigned int *)40B]
	je	.L101	#,
	call	__stack_chk_fail@PLT	#
.L101:
	mov	rdi, rax	#, D.233351
.LEHB18:
	call	_Unwind_Resume@PLT	#
.LEHE18:
.L104:
	call	__stack_chk_fail@PLT	#
.L102:
	mov	rbx, QWORD PTR -8[rbp]	#,
	leave	
	.cfi_def_cfa 7, 8
	ret	
	.cfi_endproc
.LFE10527:
	.section	.gcc_except_table
.LLSDA10527:
	.byte	0xff
	.byte	0xff
	.byte	0x1
	.uleb128 .LLSDACSE10527-.LLSDACSB10527
.LLSDACSB10527:
	.uleb128 .LEHB16-.LFB10527
	.uleb128 .LEHE16-.LEHB16
	.uleb128 0
	.uleb128 0
	.uleb128 .LEHB17-.LFB10527
	.uleb128 .LEHE17-.LEHB17
	.uleb128 .L103-.LFB10527
	.uleb128 0
	.uleb128 .LEHB18-.LFB10527
	.uleb128 .LEHE18-.LEHB18
	.uleb128 0
	.uleb128 0
.LLSDACSE10527:
	.section	.text._Z8djikstraIiEvT_RSt6vectorIS1_ISt4pairIS0_S0_ESaIS3_EESaIS5_EERS1_IS0_SaIS0_EERS1_IbSaIbEESB_,"axG",@progbits,_Z8djikstraIiEvT_RSt6vectorIS1_ISt4pairIS0_S0_ESaIS3_EESaIS5_EERS1_IS0_SaIS0_EERS1_IbSaIbEESB_,comdat
	.size	_Z8djikstraIiEvT_RSt6vectorIS1_ISt4pairIS0_S0_ESaIS3_EESaIS5_EERS1_IS0_SaIS0_EERS1_IbSaIbEESB_, .-_Z8djikstraIiEvT_RSt6vectorIS1_ISt4pairIS0_S0_ESaIS3_EESaIS5_EERS1_IS0_SaIS0_EERS1_IbSaIbEESB_
	.section	.text._ZNSt6vectorIiSaIiEEixEm,"axG",@progbits,_ZNSt6vectorIiSaIiEEixEm,comdat
	.align 2
	.weak	_ZNSt6vectorIiSaIiEEixEm
	.type	_ZNSt6vectorIiSaIiEEixEm, @function
_ZNSt6vectorIiSaIiEEixEm:
.LFB10536:
	.cfi_startproc
	endbr64	
	push	rbp	#
	.cfi_def_cfa_offset 16
	.cfi_offset 6, -16
	mov	rbp, rsp	#,
	.cfi_def_cfa_register 6
	mov	QWORD PTR -8[rbp], rdi	# this, this
	mov	QWORD PTR -16[rbp], rsi	# __n, __n
# /usr/include/c++/13/bits/stl_vector.h:1129: 	return *(this->_M_impl._M_start + __n);
	mov	rax, QWORD PTR -8[rbp]	# tmp86, this
	mov	rax, QWORD PTR [rax]	# _1, this_4(D)->D.188304._M_impl.D.187644._M_start
# /usr/include/c++/13/bits/stl_vector.h:1129: 	return *(this->_M_impl._M_start + __n);
	mov	rdx, QWORD PTR -16[rbp]	# tmp87, __n
	sal	rdx, 2	# _2,
# /usr/include/c++/13/bits/stl_vector.h:1129: 	return *(this->_M_impl._M_start + __n);
	add	rax, rdx	# _6, _2
# /usr/include/c++/13/bits/stl_vector.h:1130:       }
	pop	rbp	#
	.cfi_def_cfa 7, 8
	ret	
	.cfi_endproc
.LFE10536:
	.size	_ZNSt6vectorIiSaIiEEixEm, .-_ZNSt6vectorIiSaIiEEixEm
	.section	.text._ZNSt12_Vector_baseIiSaIiEE12_Vector_implD2Ev,"axG",@progbits,_ZNSt12_Vector_baseIiSaIiEE12_Vector_implD5Ev,comdat
	.align 2
	.weak	_ZNSt12_Vector_baseIiSaIiEE12_Vector_implD2Ev
	.type	_ZNSt12_Vector_baseIiSaIiEE12_Vector_implD2Ev, @function
_ZNSt12_Vector_baseIiSaIiEE12_Vector_implD2Ev:
.LFB10541:
	.cfi_startproc
	endbr64	
	push	rbp	#
	.cfi_def_cfa_offset 16
	.cfi_offset 6, -16
	mov	rbp, rsp	#,
	.cfi_def_cfa_register 6
	sub	rsp, 32	#,
	mov	QWORD PTR -24[rbp], rdi	# this, this
	mov	rax, QWORD PTR -24[rbp]	# tmp82, this
	mov	QWORD PTR -8[rbp], rax	# this, tmp82
# /usr/include/c++/13/bits/allocator.h:184:       ~allocator() _GLIBCXX_NOTHROW { }
	mov	rax, QWORD PTR -8[rbp]	# tmp83, this
	mov	rdi, rax	#, tmp83
	call	_ZNSt15__new_allocatorIiED2Ev	#
	nop	
# /usr/include/c++/13/bits/stl_vector.h:133:       struct _Vector_impl
	nop	
	leave	
	.cfi_def_cfa 7, 8
	ret	
	.cfi_endproc
.LFE10541:
	.size	_ZNSt12_Vector_baseIiSaIiEE12_Vector_implD2Ev, .-_ZNSt12_Vector_baseIiSaIiEE12_Vector_implD2Ev
	.weak	_ZNSt12_Vector_baseIiSaIiEE12_Vector_implD1Ev
	.set	_ZNSt12_Vector_baseIiSaIiEE12_Vector_implD1Ev,_ZNSt12_Vector_baseIiSaIiEE12_Vector_implD2Ev
	.section	.text._ZNSt12_Vector_baseIiSaIiEEC2Ev,"axG",@progbits,_ZNSt12_Vector_baseIiSaIiEEC5Ev,comdat
	.align 2
	.weak	_ZNSt12_Vector_baseIiSaIiEEC2Ev
	.type	_ZNSt12_Vector_baseIiSaIiEEC2Ev, @function
_ZNSt12_Vector_baseIiSaIiEEC2Ev:
.LFB10543:
	.cfi_startproc
	endbr64	
	push	rbp	#
	.cfi_def_cfa_offset 16
	.cfi_offset 6, -16
	mov	rbp, rsp	#,
	.cfi_def_cfa_register 6
	sub	rsp, 16	#,
	mov	QWORD PTR -8[rbp], rdi	# this, this
# /usr/include/c++/13/bits/stl_vector.h:315:       _Vector_base() = default;
	mov	rax, QWORD PTR -8[rbp]	# _1, this
	mov	rdi, rax	#, _1
	call	_ZNSt12_Vector_baseIiSaIiEE12_Vector_implC1Ev	#
	nop	
	leave	
	.cfi_def_cfa 7, 8
	ret	
	.cfi_endproc
.LFE10543:
	.size	_ZNSt12_Vector_baseIiSaIiEEC2Ev, .-_ZNSt12_Vector_baseIiSaIiEEC2Ev
	.weak	_ZNSt12_Vector_baseIiSaIiEEC1Ev
	.set	_ZNSt12_Vector_baseIiSaIiEEC1Ev,_ZNSt12_Vector_baseIiSaIiEEC2Ev
	.section	.text._ZNSt6vectorIiSaIiEEC2Ev,"axG",@progbits,_ZNSt6vectorIiSaIiEEC5Ev,comdat
	.align 2
	.weak	_ZNSt6vectorIiSaIiEEC2Ev
	.type	_ZNSt6vectorIiSaIiEEC2Ev, @function
_ZNSt6vectorIiSaIiEEC2Ev:
.LFB10545:
	.cfi_startproc
	endbr64	
	push	rbp	#
	.cfi_def_cfa_offset 16
	.cfi_offset 6, -16
	mov	rbp, rsp	#,
	.cfi_def_cfa_register 6
	sub	rsp, 16	#,
	mov	QWORD PTR -8[rbp], rdi	# this, this
# /usr/include/c++/13/bits/stl_vector.h:531:       vector() = default;
	mov	rax, QWORD PTR -8[rbp]	# _1, this
	mov	rdi, rax	#, _1
	call	_ZNSt12_Vector_baseIiSaIiEEC2Ev	#
	nop	
	leave	
	.cfi_def_cfa 7, 8
	ret	
	.cfi_endproc
.LFE10545:
	.size	_ZNSt6vectorIiSaIiEEC2Ev, .-_ZNSt6vectorIiSaIiEEC2Ev
	.weak	_ZNSt6vectorIiSaIiEEC1Ev
	.set	_ZNSt6vectorIiSaIiEEC1Ev,_ZNSt6vectorIiSaIiEEC2Ev
	.section	.rodata
.LC2:
	.string	"Path from "
.LC3:
	.string	" to "
.LC4:
	.string	" -> "
	.section	.text._Z13shortest_pathIiEvT_S0_RSt6vectorIS0_SaIS0_EE,"axG",@progbits,_Z13shortest_pathIiEvT_S0_RSt6vectorIS0_SaIS0_EE,comdat
	.weak	_Z13shortest_pathIiEvT_S0_RSt6vectorIS0_SaIS0_EE
	.type	_Z13shortest_pathIiEvT_S0_RSt6vectorIS0_SaIS0_EE, @function
_Z13shortest_pathIiEvT_S0_RSt6vectorIS0_SaIS0_EE:
.LFB10537:
	.cfi_startproc
	.cfi_personality 0x9b,DW.ref.__gxx_personality_v0
	.cfi_lsda 0x1b,.LLSDA10537
	endbr64	
	push	rbp	#
	.cfi_def_cfa_offset 16
	.cfi_offset 6, -16
	mov	rbp, rsp	#,
	.cfi_def_cfa_register 6
	push	rbx	#
	sub	rsp, 72	#,
	.cfi_offset 3, -24
	mov	DWORD PTR -68[rbp], edi	# start, start
	mov	DWORD PTR -72[rbp], esi	# target, target
	mov	QWORD PTR -80[rbp], rdx	# path, path
# Simple_Dijkstra.cpp:33: template <typename T> void shortest_path(T start, T target, vector<T> &path) {
	mov	rax, QWORD PTR fs:40	# tmp120, MEM[(<address-space-1> long unsigned int *)40B]
	mov	QWORD PTR -24[rbp], rax	# D.233355, tmp120
	xor	eax, eax	# tmp120
# Simple_Dijkstra.cpp:34:     vector<T> sp;
	lea	rax, -48[rbp]	# tmp99,
	mov	rdi, rax	#, tmp99
	call	_ZNSt6vectorIiSaIiEEC1Ev	#
# Simple_Dijkstra.cpp:35:     for (int i = target; i != -1; i = path[i]) {
	mov	eax, DWORD PTR -72[rbp]	# tmp100, target
	mov	DWORD PTR -56[rbp], eax	# i, tmp100
# Simple_Dijkstra.cpp:35:     for (int i = target; i != -1; i = path[i]) {
	jmp	.L112	#
.L113:
# Simple_Dijkstra.cpp:36: 	sp.push_back(i);
	lea	rdx, -56[rbp]	# tmp101,
	lea	rax, -48[rbp]	# tmp102,
	mov	rsi, rdx	#, tmp101
	mov	rdi, rax	#, tmp102
.LEHB19:
	call	_ZNSt6vectorIiSaIiEE9push_backERKi	#
# Simple_Dijkstra.cpp:35:     for (int i = target; i != -1; i = path[i]) {
	mov	eax, DWORD PTR -56[rbp]	# i.41_1, i
	movsx	rdx, eax	# _2, i.41_1
	mov	rax, QWORD PTR -80[rbp]	# tmp103, path
	mov	rsi, rdx	#, _2
	mov	rdi, rax	#, tmp103
	call	_ZNSt6vectorIiSaIiEEixEm	#
# Simple_Dijkstra.cpp:35:     for (int i = target; i != -1; i = path[i]) {
	mov	eax, DWORD PTR [rax]	# _4, *_3
# Simple_Dijkstra.cpp:35:     for (int i = target; i != -1; i = path[i]) {
	mov	DWORD PTR -56[rbp], eax	# i, _4
.L112:
# Simple_Dijkstra.cpp:35:     for (int i = target; i != -1; i = path[i]) {
	mov	eax, DWORD PTR -56[rbp]	# i.42_5, i
	cmp	eax, -1	# i.42_5,
	jne	.L113	#,
# Simple_Dijkstra.cpp:39:     cout << "Path from " << start << " to " << target << ": ";
	lea	rax, .LC2[rip]	# tmp104,
	mov	rsi, rax	#, tmp104
	lea	rax, _ZSt4cout[rip]	# tmp105,
	mov	rdi, rax	#, tmp105
	call	_ZStlsISt11char_traitsIcEERSt13basic_ostreamIcT_ES5_PKc@PLT	#
	mov	rdx, rax	# _6,
# Simple_Dijkstra.cpp:39:     cout << "Path from " << start << " to " << target << ": ";
	mov	eax, DWORD PTR -68[rbp]	# tmp106, start
	mov	esi, eax	#, tmp106
	mov	rdi, rdx	#, _6
	call	_ZNSolsEi@PLT	#
	mov	rdx, rax	# _7,
# Simple_Dijkstra.cpp:39:     cout << "Path from " << start << " to " << target << ": ";
	lea	rax, .LC3[rip]	# tmp107,
	mov	rsi, rax	#, tmp107
	mov	rdi, rdx	#, _7
	call	_ZStlsISt11char_traitsIcEERSt13basic_ostreamIcT_ES5_PKc@PLT	#
	mov	rdx, rax	# _8,
# Simple_Dijkstra.cpp:39:     cout << "Path from " << start << " to " << target << ": ";
	mov	eax, DWORD PTR -72[rbp]	# tmp108, target
	mov	esi, eax	#, tmp108
	mov	rdi, rdx	#, _8
	call	_ZNSolsEi@PLT	#
	mov	rdx, rax	# _9,
# Simple_Dijkstra.cpp:39:     cout << "Path from " << start << " to " << target << ": ";
	lea	rax, .LC0[rip]	# tmp109,
	mov	rsi, rax	#, tmp109
	mov	rdi, rdx	#, _9
	call	_ZStlsISt11char_traitsIcEERSt13basic_ostreamIcT_ES5_PKc@PLT	#
# Simple_Dijkstra.cpp:40:     for (int i = (int) sp.size() - 1; i >= 0; i--) {
	lea	rax, -48[rbp]	# tmp110,
	mov	rdi, rax	#, tmp110
	call	_ZNKSt6vectorIiSaIiEE4sizeEv	#
# Simple_Dijkstra.cpp:40:     for (int i = (int) sp.size() - 1; i >= 0; i--) {
	sub	eax, 1	# tmp111,
	mov	DWORD PTR -52[rbp], eax	# i, tmp111
# Simple_Dijkstra.cpp:40:     for (int i = (int) sp.size() - 1; i >= 0; i--) {
	jmp	.L114	#
.L117:
# Simple_Dijkstra.cpp:41: 	cout << sp[i] << (i != 0 ? " -> " : "\n");
	mov	eax, DWORD PTR -52[rbp]	# tmp112, i
	movsx	rdx, eax	# _12, tmp112
	lea	rax, -48[rbp]	# tmp113,
	mov	rsi, rdx	#, _12
	mov	rdi, rax	#, tmp113
	call	_ZNSt6vectorIiSaIiEEixEm	#
# Simple_Dijkstra.cpp:41: 	cout << sp[i] << (i != 0 ? " -> " : "\n");
	mov	eax, DWORD PTR [rax]	# _14, *_13
	mov	esi, eax	#, _14
	lea	rax, _ZSt4cout[rip]	# tmp114,
	mov	rdi, rax	#, tmp114
	call	_ZNSolsEi@PLT	#
	mov	rdx, rax	# _15,
	cmp	DWORD PTR -52[rbp], 0	# i,
	je	.L115	#,
# Simple_Dijkstra.cpp:41: 	cout << sp[i] << (i != 0 ? " -> " : "\n");
	lea	rax, .LC4[rip]	# iftmp.43_17,
	jmp	.L116	#
.L115:
# Simple_Dijkstra.cpp:41: 	cout << sp[i] << (i != 0 ? " -> " : "\n");
	lea	rax, .LC1[rip]	# iftmp.43_17,
.L116:
# Simple_Dijkstra.cpp:41: 	cout << sp[i] << (i != 0 ? " -> " : "\n");
	mov	rsi, rax	#, iftmp.43_17
	mov	rdi, rdx	#, _15
	call	_ZStlsISt11char_traitsIcEERSt13basic_ostreamIcT_ES5_PKc@PLT	#
# Simple_Dijkstra.cpp:40:     for (int i = (int) sp.size() - 1; i >= 0; i--) {
	sub	DWORD PTR -52[rbp], 1	# i,
.L114:
# Simple_Dijkstra.cpp:40:     for (int i = (int) sp.size() - 1; i >= 0; i--) {
	cmp	DWORD PTR -52[rbp], 0	# i,
	jns	.L117	#,
# Simple_Dijkstra.cpp:43:     cout << "\n";
	lea	rax, .LC1[rip]	# tmp115,
	mov	rsi, rax	#, tmp115
	lea	rax, _ZSt4cout[rip]	# tmp116,
	mov	rdi, rax	#, tmp116
	call	_ZStlsISt11char_traitsIcEERSt13basic_ostreamIcT_ES5_PKc@PLT	#
.LEHE19:
# Simple_Dijkstra.cpp:44: }
	lea	rax, -48[rbp]	# tmp117,
	mov	rdi, rax	#, tmp117
	call	_ZNSt6vectorIiSaIiEED1Ev	#
	mov	rax, QWORD PTR -24[rbp]	# tmp121, D.233355
	sub	rax, QWORD PTR fs:40	# tmp121, MEM[(<address-space-1> long unsigned int *)40B]
	je	.L120	#,
	jmp	.L122	#
.L121:
	endbr64	
	mov	rbx, rax	# tmp119,
	lea	rax, -48[rbp]	# tmp118,
	mov	rdi, rax	#, tmp118
	call	_ZNSt6vectorIiSaIiEED1Ev	#
	mov	rax, rbx	# D.233354, tmp119
	mov	rdx, QWORD PTR -24[rbp]	# tmp122, D.233355
	sub	rdx, QWORD PTR fs:40	# tmp122, MEM[(<address-space-1> long unsigned int *)40B]
	je	.L119	#,
	call	__stack_chk_fail@PLT	#
.L119:
	mov	rdi, rax	#, D.233354
.LEHB20:
	call	_Unwind_Resume@PLT	#
.LEHE20:
.L122:
	call	__stack_chk_fail@PLT	#
.L120:
	mov	rbx, QWORD PTR -8[rbp]	#,
	leave	
	.cfi_def_cfa 7, 8
	ret	
	.cfi_endproc
.LFE10537:
	.section	.gcc_except_table
.LLSDA10537:
	.byte	0xff
	.byte	0xff
	.byte	0x1
	.uleb128 .LLSDACSE10537-.LLSDACSB10537
.LLSDACSB10537:
	.uleb128 .LEHB19-.LFB10537
	.uleb128 .LEHE19-.LEHB19
	.uleb128 .L121-.LFB10537
	.uleb128 0
	.uleb128 .LEHB20-.LFB10537
	.uleb128 .LEHE20-.LEHB20
	.uleb128 0
	.uleb128 0
.LLSDACSE10537:
	.section	.text._Z13shortest_pathIiEvT_S0_RSt6vectorIS0_SaIS0_EE,"axG",@progbits,_Z13shortest_pathIiEvT_S0_RSt6vectorIS0_SaIS0_EE,comdat
	.size	_Z13shortest_pathIiEvT_S0_RSt6vectorIS0_SaIS0_EE, .-_Z13shortest_pathIiEvT_S0_RSt6vectorIS0_SaIS0_EE
	.section	.text._ZSt7forwardIiEOT_RNSt16remove_referenceIS0_E4typeE,"axG",@progbits,_ZSt7forwardIiEOT_RNSt16remove_referenceIS0_E4typeE,comdat
	.weak	_ZSt7forwardIiEOT_RNSt16remove_referenceIS0_E4typeE
	.type	_ZSt7forwardIiEOT_RNSt16remove_referenceIS0_E4typeE, @function
_ZSt7forwardIiEOT_RNSt16remove_referenceIS0_E4typeE:
.LFB10645:
	.cfi_startproc
	endbr64	
	push	rbp	#
	.cfi_def_cfa_offset 16
	.cfi_offset 6, -16
	mov	rbp, rsp	#,
	.cfi_def_cfa_register 6
	mov	QWORD PTR -8[rbp], rdi	# __t, __t
# /usr/include/c++/13/bits/move.h:71:     { return static_cast<_Tp&&>(__t); }
	mov	rax, QWORD PTR -8[rbp]	# _2, __t
# /usr/include/c++/13/bits/move.h:71:     { return static_cast<_Tp&&>(__t); }
	pop	rbp	#
	.cfi_def_cfa 7, 8
	ret	
	.cfi_endproc
.LFE10645:
	.size	_ZSt7forwardIiEOT_RNSt16remove_referenceIS0_E4typeE, .-_ZSt7forwardIiEOT_RNSt16remove_referenceIS0_E4typeE
	.section	.text._ZNSt15__new_allocatorImED2Ev,"axG",@progbits,_ZNSt15__new_allocatorImED5Ev,comdat
	.align 2
	.weak	_ZNSt15__new_allocatorImED2Ev
	.type	_ZNSt15__new_allocatorImED2Ev, @function
_ZNSt15__new_allocatorImED2Ev:
.LFB10860:
	.cfi_startproc
	endbr64	
	push	rbp	#
	.cfi_def_cfa_offset 16
	.cfi_offset 6, -16
	mov	rbp, rsp	#,
	.cfi_def_cfa_register 6
	mov	QWORD PTR -8[rbp], rdi	# this, this
# /usr/include/c++/13/bits/new_allocator.h:104:       ~__new_allocator() _GLIBCXX_USE_NOEXCEPT { }
	nop	
	pop	rbp	#
	.cfi_def_cfa 7, 8
	ret	
	.cfi_endproc
.LFE10860:
	.size	_ZNSt15__new_allocatorImED2Ev, .-_ZNSt15__new_allocatorImED2Ev
	.weak	_ZNSt15__new_allocatorImED1Ev
	.set	_ZNSt15__new_allocatorImED1Ev,_ZNSt15__new_allocatorImED2Ev
	.section	.text._ZNSt12_Vector_baseISt4pairIiiESaIS1_EE17_Vector_impl_dataC2Ev,"axG",@progbits,_ZNSt12_Vector_baseISt4pairIiiESaIS1_EE17_Vector_impl_dataC5Ev,comdat
	.align 2
	.weak	_ZNSt12_Vector_baseISt4pairIiiESaIS1_EE17_Vector_impl_dataC2Ev
	.type	_ZNSt12_Vector_baseISt4pairIiiESaIS1_EE17_Vector_impl_dataC2Ev, @function
_ZNSt12_Vector_baseISt4pairIiiESaIS1_EE17_Vector_impl_dataC2Ev:
.LFB10974:
	.cfi_startproc
	endbr64	
	push	rbp	#
	.cfi_def_cfa_offset 16
	.cfi_offset 6, -16
	mov	rbp, rsp	#,
	.cfi_def_cfa_register 6
	mov	QWORD PTR -8[rbp], rdi	# this, this
# /usr/include/c++/13/bits/stl_vector.h:100: 	: _M_start(), _M_finish(), _M_end_of_storage()
	mov	rax, QWORD PTR -8[rbp]	# tmp82, this
	mov	QWORD PTR [rax], 0	# this_2(D)->_M_start,
# /usr/include/c++/13/bits/stl_vector.h:100: 	: _M_start(), _M_finish(), _M_end_of_storage()
	mov	rax, QWORD PTR -8[rbp]	# tmp83, this
	mov	QWORD PTR 8[rax], 0	# this_2(D)->_M_finish,
# /usr/include/c++/13/bits/stl_vector.h:100: 	: _M_start(), _M_finish(), _M_end_of_storage()
	mov	rax, QWORD PTR -8[rbp]	# tmp84, this
	mov	QWORD PTR 16[rax], 0	# this_2(D)->_M_end_of_storage,
# /usr/include/c++/13/bits/stl_vector.h:101: 	{ }
	nop	
	pop	rbp	#
	.cfi_def_cfa 7, 8
	ret	
	.cfi_endproc
.LFE10974:
	.size	_ZNSt12_Vector_baseISt4pairIiiESaIS1_EE17_Vector_impl_dataC2Ev, .-_ZNSt12_Vector_baseISt4pairIiiESaIS1_EE17_Vector_impl_dataC2Ev
	.weak	_ZNSt12_Vector_baseISt4pairIiiESaIS1_EE17_Vector_impl_dataC1Ev
	.set	_ZNSt12_Vector_baseISt4pairIiiESaIS1_EE17_Vector_impl_dataC1Ev,_ZNSt12_Vector_baseISt4pairIiiESaIS1_EE17_Vector_impl_dataC2Ev
	.section	.text._ZNSt15__new_allocatorISt4pairIiiEED2Ev,"axG",@progbits,_ZNSt15__new_allocatorISt4pairIiiEED5Ev,comdat
	.align 2
	.weak	_ZNSt15__new_allocatorISt4pairIiiEED2Ev
	.type	_ZNSt15__new_allocatorISt4pairIiiEED2Ev, @function
_ZNSt15__new_allocatorISt4pairIiiEED2Ev:
.LFB10977:
	.cfi_startproc
	endbr64	
	push	rbp	#
	.cfi_def_cfa_offset 16
	.cfi_offset 6, -16
	mov	rbp, rsp	#,
	.cfi_def_cfa_register 6
	mov	QWORD PTR -8[rbp], rdi	# this, this
# /usr/include/c++/13/bits/new_allocator.h:104:       ~__new_allocator() _GLIBCXX_USE_NOEXCEPT { }
	nop	
	pop	rbp	#
	.cfi_def_cfa 7, 8
	ret	
	.cfi_endproc
.LFE10977:
	.size	_ZNSt15__new_allocatorISt4pairIiiEED2Ev, .-_ZNSt15__new_allocatorISt4pairIiiEED2Ev
	.weak	_ZNSt15__new_allocatorISt4pairIiiEED1Ev
	.set	_ZNSt15__new_allocatorISt4pairIiiEED1Ev,_ZNSt15__new_allocatorISt4pairIiiEED2Ev
	.section	.text._ZNSt12_Vector_baseISt4pairIiiESaIS1_EE13_M_deallocateEPS1_m,"axG",@progbits,_ZNSt12_Vector_baseISt4pairIiiESaIS1_EE13_M_deallocateEPS1_m,comdat
	.align 2
	.weak	_ZNSt12_Vector_baseISt4pairIiiESaIS1_EE13_M_deallocateEPS1_m
	.type	_ZNSt12_Vector_baseISt4pairIiiESaIS1_EE13_M_deallocateEPS1_m, @function
_ZNSt12_Vector_baseISt4pairIiiESaIS1_EE13_M_deallocateEPS1_m:
.LFB10979:
	.cfi_startproc
	endbr64	
	push	rbp	#
	.cfi_def_cfa_offset 16
	.cfi_offset 6, -16
	mov	rbp, rsp	#,
	.cfi_def_cfa_register 6
	sub	rsp, 64	#,
	mov	QWORD PTR -40[rbp], rdi	# this, this
	mov	QWORD PTR -48[rbp], rsi	# __p, __p
	mov	QWORD PTR -56[rbp], rdx	# __n, __n
# /usr/include/c++/13/bits/stl_vector.h:389: 	if (__p)
	cmp	QWORD PTR -48[rbp], 0	# __p,
	je	.L130	#,
# /usr/include/c++/13/bits/stl_vector.h:390: 	  _Tr::deallocate(_M_impl, __p, __n);
	mov	rax, QWORD PTR -40[rbp]	# _1, this
	mov	QWORD PTR -24[rbp], rax	# __a, _1
	mov	rax, QWORD PTR -48[rbp]	# tmp83, __p
	mov	QWORD PTR -16[rbp], rax	# __p, tmp83
	mov	rax, QWORD PTR -56[rbp]	# tmp84, __n
	mov	QWORD PTR -8[rbp], rax	# __n, tmp84
# /usr/include/c++/13/bits/alloc_traits.h:517:       { __a.deallocate(__p, __n); }
	mov	rdx, QWORD PTR -8[rbp]	# tmp85, __n
	mov	rcx, QWORD PTR -16[rbp]	# tmp86, __p
	mov	rax, QWORD PTR -24[rbp]	# tmp87, __a
	mov	rsi, rcx	#, tmp86
	mov	rdi, rax	#, tmp87
	call	_ZNSt15__new_allocatorISt4pairIiiEE10deallocateEPS1_m	#
# /usr/include/c++/13/bits/alloc_traits.h:517:       { __a.deallocate(__p, __n); }
	nop	
.L130:
# /usr/include/c++/13/bits/stl_vector.h:391:       }
	nop	
	leave	
	.cfi_def_cfa 7, 8
	ret	
	.cfi_endproc
.LFE10979:
	.size	_ZNSt12_Vector_baseISt4pairIiiESaIS1_EE13_M_deallocateEPS1_m, .-_ZNSt12_Vector_baseISt4pairIiiESaIS1_EE13_M_deallocateEPS1_m
	.section	.text._ZNSt12_Vector_baseISt4pairIiiESaIS1_EE19_M_get_Tp_allocatorEv,"axG",@progbits,_ZNSt12_Vector_baseISt4pairIiiESaIS1_EE19_M_get_Tp_allocatorEv,comdat
	.align 2
	.weak	_ZNSt12_Vector_baseISt4pairIiiESaIS1_EE19_M_get_Tp_allocatorEv
	.type	_ZNSt12_Vector_baseISt4pairIiiESaIS1_EE19_M_get_Tp_allocatorEv, @function
_ZNSt12_Vector_baseISt4pairIiiESaIS1_EE19_M_get_Tp_allocatorEv:
.LFB10980:
	.cfi_startproc
	endbr64	
	push	rbp	#
	.cfi_def_cfa_offset 16
	.cfi_offset 6, -16
	mov	rbp, rsp	#,
	.cfi_def_cfa_register 6
	mov	QWORD PTR -8[rbp], rdi	# this, this
# /usr/include/c++/13/bits/stl_vector.h:302:       { return this->_M_impl; }
	mov	rax, QWORD PTR -8[rbp]	# _2, this
# /usr/include/c++/13/bits/stl_vector.h:302:       { return this->_M_impl; }
	pop	rbp	#
	.cfi_def_cfa 7, 8
	ret	
	.cfi_endproc
.LFE10980:
	.size	_ZNSt12_Vector_baseISt4pairIiiESaIS1_EE19_M_get_Tp_allocatorEv, .-_ZNSt12_Vector_baseISt4pairIiiESaIS1_EE19_M_get_Tp_allocatorEv
	.section	.text._ZNSt15__new_allocatorISt6vectorISt4pairIiiESaIS2_EEED2Ev,"axG",@progbits,_ZNSt15__new_allocatorISt6vectorISt4pairIiiESaIS2_EEED5Ev,comdat
	.align 2
	.weak	_ZNSt15__new_allocatorISt6vectorISt4pairIiiESaIS2_EEED2Ev
	.type	_ZNSt15__new_allocatorISt6vectorISt4pairIiiESaIS2_EEED2Ev, @function
_ZNSt15__new_allocatorISt6vectorISt4pairIiiESaIS2_EEED2Ev:
.LFB10986:
	.cfi_startproc
	endbr64	
	push	rbp	#
	.cfi_def_cfa_offset 16
	.cfi_offset 6, -16
	mov	rbp, rsp	#,
	.cfi_def_cfa_register 6
	mov	QWORD PTR -8[rbp], rdi	# this, this
# /usr/include/c++/13/bits/new_allocator.h:104:       ~__new_allocator() _GLIBCXX_USE_NOEXCEPT { }
	nop	
	pop	rbp	#
	.cfi_def_cfa 7, 8
	ret	
	.cfi_endproc
.LFE10986:
	.size	_ZNSt15__new_allocatorISt6vectorISt4pairIiiESaIS2_EEED2Ev, .-_ZNSt15__new_allocatorISt6vectorISt4pairIiiESaIS2_EEED2Ev
	.weak	_ZNSt15__new_allocatorISt6vectorISt4pairIiiESaIS2_EEED1Ev
	.set	_ZNSt15__new_allocatorISt6vectorISt4pairIiiESaIS2_EEED1Ev,_ZNSt15__new_allocatorISt6vectorISt4pairIiiESaIS2_EEED2Ev
	.section	.rodata
	.align 8
.LC5:
	.string	"cannot create std::vector larger than max_size()"
	.section	.text._ZNSt6vectorIS_ISt4pairIiiESaIS1_EESaIS3_EE17_S_check_init_lenEmRKS4_,"axG",@progbits,_ZNSt6vectorIS_ISt4pairIiiESaIS1_EESaIS3_EE17_S_check_init_lenEmRKS4_,comdat
	.weak	_ZNSt6vectorIS_ISt4pairIiiESaIS1_EESaIS3_EE17_S_check_init_lenEmRKS4_
	.type	_ZNSt6vectorIS_ISt4pairIiiESaIS1_EESaIS3_EE17_S_check_init_lenEmRKS4_, @function
_ZNSt6vectorIS_ISt4pairIiiESaIS1_EESaIS3_EE17_S_check_init_lenEmRKS4_:
.LFB10988:
	.cfi_startproc
	endbr64	
	push	rbp	#
	.cfi_def_cfa_offset 16
	.cfi_offset 6, -16
	mov	rbp, rsp	#,
	.cfi_def_cfa_register 6
	push	rbx	#
	sub	rsp, 72	#,
	.cfi_offset 3, -24
	mov	QWORD PTR -72[rbp], rdi	# __n, __n
	mov	QWORD PTR -80[rbp], rsi	# __a, __a
# /usr/include/c++/13/bits/stl_vector.h:1907:       _S_check_init_len(size_type __n, const allocator_type& __a)
	mov	rax, QWORD PTR fs:40	# tmp93, MEM[(<address-space-1> long unsigned int *)40B]
	mov	QWORD PTR -24[rbp], rax	# D.233359, tmp93
	xor	eax, eax	# tmp93
	mov	rax, QWORD PTR -80[rbp]	# tmp86, __a
	mov	QWORD PTR -48[rbp], rax	# __a, tmp86
	lea	rax, -49[rbp]	# tmp87,
	mov	QWORD PTR -40[rbp], rax	# this, tmp87
	mov	rax, QWORD PTR -48[rbp]	# tmp88, __a
	mov	QWORD PTR -32[rbp], rax	# D.233169, tmp88
# /usr/include/c++/13/bits/new_allocator.h:92:       __new_allocator(const __new_allocator&) _GLIBCXX_USE_NOEXCEPT { }
	nop	
# /usr/include/c++/13/bits/allocator.h:168:       : __allocator_base<_Tp>(__a) { }
	nop	
# /usr/include/c++/13/bits/stl_vector.h:1909: 	if (__n > _S_max_size(_Tp_alloc_type(__a)))
	lea	rax, -49[rbp]	# tmp89,
	mov	rdi, rax	#, tmp89
	call	_ZNSt6vectorIS_ISt4pairIiiESaIS1_EESaIS3_EE11_S_max_sizeERKS4_	#
# /usr/include/c++/13/bits/stl_vector.h:1909: 	if (__n > _S_max_size(_Tp_alloc_type(__a)))
	cmp	rax, QWORD PTR -72[rbp]	# _1, __n
	setb	bl	#, retval.7_6
# /usr/include/c++/13/bits/allocator.h:184:       ~allocator() _GLIBCXX_NOTHROW { }
	lea	rax, -49[rbp]	# tmp90,
	mov	rdi, rax	#, tmp90
	call	_ZNSt15__new_allocatorISt6vectorISt4pairIiiESaIS2_EEED2Ev	#
	nop	
# /usr/include/c++/13/bits/stl_vector.h:1909: 	if (__n > _S_max_size(_Tp_alloc_type(__a)))
	test	bl, bl	# retval.7_6
	je	.L135	#,
# /usr/include/c++/13/bits/stl_vector.h:1910: 	  __throw_length_error(
	mov	rax, QWORD PTR -24[rbp]	# tmp94, D.233359
	sub	rax, QWORD PTR fs:40	# tmp94, MEM[(<address-space-1> long unsigned int *)40B]
	je	.L136	#,
	call	__stack_chk_fail@PLT	#
.L136:
	lea	rax, .LC5[rip]	# tmp91,
	mov	rdi, rax	#, tmp91
	call	_ZSt20__throw_length_errorPKc@PLT	#
.L135:
# /usr/include/c++/13/bits/stl_vector.h:1912: 	return __n;
	mov	rax, QWORD PTR -72[rbp]	# _8, __n
# /usr/include/c++/13/bits/stl_vector.h:1913:       }
	mov	rdx, QWORD PTR -24[rbp]	# tmp95, D.233359
	sub	rdx, QWORD PTR fs:40	# tmp95, MEM[(<address-space-1> long unsigned int *)40B]
	je	.L138	#,
	call	__stack_chk_fail@PLT	#
.L138:
	mov	rbx, QWORD PTR -8[rbp]	#,
	leave	
	.cfi_def_cfa 7, 8
	ret	
	.cfi_endproc
.LFE10988:
	.size	_ZNSt6vectorIS_ISt4pairIiiESaIS1_EESaIS3_EE17_S_check_init_lenEmRKS4_, .-_ZNSt6vectorIS_ISt4pairIiiESaIS1_EESaIS3_EE17_S_check_init_lenEmRKS4_
	.section	.text._ZNSt12_Vector_baseISt6vectorISt4pairIiiESaIS2_EESaIS4_EE12_Vector_implD2Ev,"axG",@progbits,_ZNSt12_Vector_baseISt6vectorISt4pairIiiESaIS2_EESaIS4_EE12_Vector_implD5Ev,comdat
	.align 2
	.weak	_ZNSt12_Vector_baseISt6vectorISt4pairIiiESaIS2_EESaIS4_EE12_Vector_implD2Ev
	.type	_ZNSt12_Vector_baseISt6vectorISt4pairIiiESaIS2_EESaIS4_EE12_Vector_implD2Ev, @function
_ZNSt12_Vector_baseISt6vectorISt4pairIiiESaIS2_EESaIS4_EE12_Vector_implD2Ev:
.LFB10991:
	.cfi_startproc
	endbr64	
	push	rbp	#
	.cfi_def_cfa_offset 16
	.cfi_offset 6, -16
	mov	rbp, rsp	#,
	.cfi_def_cfa_register 6
	sub	rsp, 32	#,
	mov	QWORD PTR -24[rbp], rdi	# this, this
	mov	rax, QWORD PTR -24[rbp]	# tmp82, this
	mov	QWORD PTR -8[rbp], rax	# this, tmp82
# /usr/include/c++/13/bits/allocator.h:184:       ~allocator() _GLIBCXX_NOTHROW { }
	mov	rax, QWORD PTR -8[rbp]	# tmp83, this
	mov	rdi, rax	#, tmp83
	call	_ZNSt15__new_allocatorISt6vectorISt4pairIiiESaIS2_EEED2Ev	#
	nop	
# /usr/include/c++/13/bits/stl_vector.h:133:       struct _Vector_impl
	nop	
	leave	
	.cfi_def_cfa 7, 8
	ret	
	.cfi_endproc
.LFE10991:
	.size	_ZNSt12_Vector_baseISt6vectorISt4pairIiiESaIS2_EESaIS4_EE12_Vector_implD2Ev, .-_ZNSt12_Vector_baseISt6vectorISt4pairIiiESaIS2_EESaIS4_EE12_Vector_implD2Ev
	.weak	_ZNSt12_Vector_baseISt6vectorISt4pairIiiESaIS2_EESaIS4_EE12_Vector_implD1Ev
	.set	_ZNSt12_Vector_baseISt6vectorISt4pairIiiESaIS2_EESaIS4_EE12_Vector_implD1Ev,_ZNSt12_Vector_baseISt6vectorISt4pairIiiESaIS2_EESaIS4_EE12_Vector_implD2Ev
	.section	.text._ZNSt12_Vector_baseISt6vectorISt4pairIiiESaIS2_EESaIS4_EEC2EmRKS5_,"axG",@progbits,_ZNSt12_Vector_baseISt6vectorISt4pairIiiESaIS2_EESaIS4_EEC5EmRKS5_,comdat
	.align 2
	.weak	_ZNSt12_Vector_baseISt6vectorISt4pairIiiESaIS2_EESaIS4_EEC2EmRKS5_
	.type	_ZNSt12_Vector_baseISt6vectorISt4pairIiiESaIS2_EESaIS4_EEC2EmRKS5_, @function
_ZNSt12_Vector_baseISt6vectorISt4pairIiiESaIS2_EESaIS4_EEC2EmRKS5_:
.LFB10993:
	.cfi_startproc
	.cfi_personality 0x9b,DW.ref.__gxx_personality_v0
	.cfi_lsda 0x1b,.LLSDA10993
	endbr64	
	push	rbp	#
	.cfi_def_cfa_offset 16
	.cfi_offset 6, -16
	mov	rbp, rsp	#,
	.cfi_def_cfa_register 6
	push	rbx	#
	sub	rsp, 40	#,
	.cfi_offset 3, -24
	mov	QWORD PTR -24[rbp], rdi	# this, this
	mov	QWORD PTR -32[rbp], rsi	# __n, __n
	mov	QWORD PTR -40[rbp], rdx	# __a, __a
# /usr/include/c++/13/bits/stl_vector.h:334:       : _M_impl(__a)
	mov	rax, QWORD PTR -24[rbp]	# _1, this
	mov	rdx, QWORD PTR -40[rbp]	# tmp85, __a
	mov	rsi, rdx	#, tmp85
	mov	rdi, rax	#, _1
	call	_ZNSt12_Vector_baseISt6vectorISt4pairIiiESaIS2_EESaIS4_EE12_Vector_implC1ERKS5_	#
# /usr/include/c++/13/bits/stl_vector.h:335:       { _M_create_storage(__n); }
	mov	rdx, QWORD PTR -32[rbp]	# tmp86, __n
	mov	rax, QWORD PTR -24[rbp]	# tmp87, this
	mov	rsi, rdx	#, tmp86
	mov	rdi, rax	#, tmp87
.LEHB21:
	call	_ZNSt12_Vector_baseISt6vectorISt4pairIiiESaIS2_EESaIS4_EE17_M_create_storageEm	#
.LEHE21:
# /usr/include/c++/13/bits/stl_vector.h:335:       { _M_create_storage(__n); }
	jmp	.L143	#
.L142:
	endbr64	
# /usr/include/c++/13/bits/stl_vector.h:335:       { _M_create_storage(__n); }
	mov	rbx, rax	# tmp88,
	mov	rax, QWORD PTR -24[rbp]	# _2, this
	mov	rdi, rax	#, _2
	call	_ZNSt12_Vector_baseISt6vectorISt4pairIiiESaIS2_EESaIS4_EE12_Vector_implD1Ev	#
	mov	rax, rbx	# D.233361, tmp88
	mov	rdi, rax	#, D.233361
.LEHB22:
	call	_Unwind_Resume@PLT	#
.LEHE22:
.L143:
# /usr/include/c++/13/bits/stl_vector.h:335:       { _M_create_storage(__n); }
	mov	rbx, QWORD PTR -8[rbp]	#,
	leave	
	.cfi_def_cfa 7, 8
	ret	
	.cfi_endproc
.LFE10993:
	.section	.gcc_except_table
.LLSDA10993:
	.byte	0xff
	.byte	0xff
	.byte	0x1
	.uleb128 .LLSDACSE10993-.LLSDACSB10993
.LLSDACSB10993:
	.uleb128 .LEHB21-.LFB10993
	.uleb128 .LEHE21-.LEHB21
	.uleb128 .L142-.LFB10993
	.uleb128 0
	.uleb128 .LEHB22-.LFB10993
	.uleb128 .LEHE22-.LEHB22
	.uleb128 0
	.uleb128 0
.LLSDACSE10993:
	.section	.text._ZNSt12_Vector_baseISt6vectorISt4pairIiiESaIS2_EESaIS4_EEC2EmRKS5_,"axG",@progbits,_ZNSt12_Vector_baseISt6vectorISt4pairIiiESaIS2_EESaIS4_EEC5EmRKS5_,comdat
	.size	_ZNSt12_Vector_baseISt6vectorISt4pairIiiESaIS2_EESaIS4_EEC2EmRKS5_, .-_ZNSt12_Vector_baseISt6vectorISt4pairIiiESaIS2_EESaIS4_EEC2EmRKS5_
	.weak	_ZNSt12_Vector_baseISt6vectorISt4pairIiiESaIS2_EESaIS4_EEC1EmRKS5_
	.set	_ZNSt12_Vector_baseISt6vectorISt4pairIiiESaIS2_EESaIS4_EEC1EmRKS5_,_ZNSt12_Vector_baseISt6vectorISt4pairIiiESaIS2_EESaIS4_EEC2EmRKS5_
	.section	.text._ZNSt12_Vector_baseISt6vectorISt4pairIiiESaIS2_EESaIS4_EED2Ev,"axG",@progbits,_ZNSt12_Vector_baseISt6vectorISt4pairIiiESaIS2_EESaIS4_EED5Ev,comdat
	.align 2
	.weak	_ZNSt12_Vector_baseISt6vectorISt4pairIiiESaIS2_EESaIS4_EED2Ev
	.type	_ZNSt12_Vector_baseISt6vectorISt4pairIiiESaIS2_EESaIS4_EED2Ev, @function
_ZNSt12_Vector_baseISt6vectorISt4pairIiiESaIS2_EESaIS4_EED2Ev:
.LFB10996:
	.cfi_startproc
	.cfi_personality 0x9b,DW.ref.__gxx_personality_v0
	.cfi_lsda 0x1b,.LLSDA10996
	endbr64	
	push	rbp	#
	.cfi_def_cfa_offset 16
	.cfi_offset 6, -16
	mov	rbp, rsp	#,
	.cfi_def_cfa_register 6
	sub	rsp, 16	#,
	mov	QWORD PTR -8[rbp], rdi	# this, this
# /usr/include/c++/13/bits/stl_vector.h:370: 		      _M_impl._M_end_of_storage - _M_impl._M_start);
	mov	rax, QWORD PTR -8[rbp]	# tmp89, this
	mov	rdx, QWORD PTR 16[rax]	# _1, this_9(D)->_M_impl.D.208581._M_end_of_storage
# /usr/include/c++/13/bits/stl_vector.h:370: 		      _M_impl._M_end_of_storage - _M_impl._M_start);
	mov	rax, QWORD PTR -8[rbp]	# tmp90, this
	mov	rax, QWORD PTR [rax]	# _2, this_9(D)->_M_impl.D.208581._M_start
# /usr/include/c++/13/bits/stl_vector.h:370: 		      _M_impl._M_end_of_storage - _M_impl._M_start);
	sub	rdx, rax	# _3, _2
	sar	rdx, 3	# tmp91,
	movabs	rax, -6148914691236517205	# tmp93,
	imul	rax, rdx	# tmp92, tmp91
# /usr/include/c++/13/bits/stl_vector.h:369: 	_M_deallocate(_M_impl._M_start,
	mov	rdx, rax	# _5, _4
	mov	rax, QWORD PTR -8[rbp]	# tmp94, this
	mov	rcx, QWORD PTR [rax]	# _6, this_9(D)->_M_impl.D.208581._M_start
	mov	rax, QWORD PTR -8[rbp]	# tmp95, this
	mov	rsi, rcx	#, _6
	mov	rdi, rax	#, tmp95
	call	_ZNSt12_Vector_baseISt6vectorISt4pairIiiESaIS2_EESaIS4_EE13_M_deallocateEPS4_m	#
# /usr/include/c++/13/bits/stl_vector.h:371:       }
	mov	rax, QWORD PTR -8[rbp]	# _7, this
	mov	rdi, rax	#, _7
	call	_ZNSt12_Vector_baseISt6vectorISt4pairIiiESaIS2_EESaIS4_EE12_Vector_implD1Ev	#
	nop	
	leave	
	.cfi_def_cfa 7, 8
	ret	
	.cfi_endproc
.LFE10996:
	.section	.gcc_except_table
.LLSDA10996:
	.byte	0xff
	.byte	0xff
	.byte	0x1
	.uleb128 .LLSDACSE10996-.LLSDACSB10996
.LLSDACSB10996:
.LLSDACSE10996:
	.section	.text._ZNSt12_Vector_baseISt6vectorISt4pairIiiESaIS2_EESaIS4_EED2Ev,"axG",@progbits,_ZNSt12_Vector_baseISt6vectorISt4pairIiiESaIS2_EESaIS4_EED5Ev,comdat
	.size	_ZNSt12_Vector_baseISt6vectorISt4pairIiiESaIS2_EESaIS4_EED2Ev, .-_ZNSt12_Vector_baseISt6vectorISt4pairIiiESaIS2_EESaIS4_EED2Ev
	.weak	_ZNSt12_Vector_baseISt6vectorISt4pairIiiESaIS2_EESaIS4_EED1Ev
	.set	_ZNSt12_Vector_baseISt6vectorISt4pairIiiESaIS2_EESaIS4_EED1Ev,_ZNSt12_Vector_baseISt6vectorISt4pairIiiESaIS2_EESaIS4_EED2Ev
	.section	.text._ZNSt6vectorIS_ISt4pairIiiESaIS1_EESaIS3_EE18_M_fill_initializeEmRKS3_,"axG",@progbits,_ZNSt6vectorIS_ISt4pairIiiESaIS1_EESaIS3_EE18_M_fill_initializeEmRKS3_,comdat
	.align 2
	.weak	_ZNSt6vectorIS_ISt4pairIiiESaIS1_EESaIS3_EE18_M_fill_initializeEmRKS3_
	.type	_ZNSt6vectorIS_ISt4pairIiiESaIS1_EESaIS3_EE18_M_fill_initializeEmRKS3_, @function
_ZNSt6vectorIS_ISt4pairIiiESaIS1_EESaIS3_EE18_M_fill_initializeEmRKS3_:
.LFB10998:
	.cfi_startproc
	endbr64	
	push	rbp	#
	.cfi_def_cfa_offset 16
	.cfi_offset 6, -16
	mov	rbp, rsp	#,
	.cfi_def_cfa_register 6
	sub	rsp, 32	#,
	mov	QWORD PTR -8[rbp], rdi	# this, this
	mov	QWORD PTR -16[rbp], rsi	# __n, __n
	mov	QWORD PTR -24[rbp], rdx	# __value, __value
# /usr/include/c++/13/bits/stl_vector.h:1708: 					_M_get_Tp_allocator());
	mov	rax, QWORD PTR -8[rbp]	# _1, this
	mov	rdi, rax	#, _1
	call	_ZNSt12_Vector_baseISt6vectorISt4pairIiiESaIS2_EESaIS4_EE19_M_get_Tp_allocatorEv	#
	mov	rcx, rax	# _2,
# /usr/include/c++/13/bits/stl_vector.h:1707: 	  std::__uninitialized_fill_n_a(this->_M_impl._M_start, __n, __value,
	mov	rax, QWORD PTR -8[rbp]	# tmp86, this
	mov	rax, QWORD PTR [rax]	# _3, this_5(D)->D.209242._M_impl.D.208581._M_start
	mov	rdx, QWORD PTR -24[rbp]	# tmp87, __value
	mov	rsi, QWORD PTR -16[rbp]	# tmp88, __n
	mov	rdi, rax	#, _3
	call	_ZSt24__uninitialized_fill_n_aIPSt6vectorISt4pairIiiESaIS2_EEmS4_S4_ET_S6_T0_RKT1_RSaIT2_E	#
# /usr/include/c++/13/bits/stl_vector.h:1706: 	this->_M_impl._M_finish =
	mov	rdx, QWORD PTR -8[rbp]	# tmp89, this
	mov	QWORD PTR 8[rdx], rax	# this_5(D)->D.209242._M_impl.D.208581._M_finish, _4
# /usr/include/c++/13/bits/stl_vector.h:1709:       }
	nop	
	leave	
	.cfi_def_cfa 7, 8
	ret	
	.cfi_endproc
.LFE10998:
	.size	_ZNSt6vectorIS_ISt4pairIiiESaIS1_EESaIS3_EE18_M_fill_initializeEmRKS3_, .-_ZNSt6vectorIS_ISt4pairIiiESaIS1_EESaIS3_EE18_M_fill_initializeEmRKS3_
	.section	.text._ZNSt12_Vector_baseISt6vectorISt4pairIiiESaIS2_EESaIS4_EE19_M_get_Tp_allocatorEv,"axG",@progbits,_ZNSt12_Vector_baseISt6vectorISt4pairIiiESaIS2_EESaIS4_EE19_M_get_Tp_allocatorEv,comdat
	.align 2
	.weak	_ZNSt12_Vector_baseISt6vectorISt4pairIiiESaIS2_EESaIS4_EE19_M_get_Tp_allocatorEv
	.type	_ZNSt12_Vector_baseISt6vectorISt4pairIiiESaIS2_EESaIS4_EE19_M_get_Tp_allocatorEv, @function
_ZNSt12_Vector_baseISt6vectorISt4pairIiiESaIS2_EESaIS4_EE19_M_get_Tp_allocatorEv:
.LFB10999:
	.cfi_startproc
	endbr64	
	push	rbp	#
	.cfi_def_cfa_offset 16
	.cfi_offset 6, -16
	mov	rbp, rsp	#,
	.cfi_def_cfa_register 6
	mov	QWORD PTR -8[rbp], rdi	# this, this
# /usr/include/c++/13/bits/stl_vector.h:302:       { return this->_M_impl; }
	mov	rax, QWORD PTR -8[rbp]	# _2, this
# /usr/include/c++/13/bits/stl_vector.h:302:       { return this->_M_impl; }
	pop	rbp	#
	.cfi_def_cfa 7, 8
	ret	
	.cfi_endproc
.LFE10999:
	.size	_ZNSt12_Vector_baseISt6vectorISt4pairIiiESaIS2_EESaIS4_EE19_M_get_Tp_allocatorEv, .-_ZNSt12_Vector_baseISt6vectorISt4pairIiiESaIS2_EESaIS4_EE19_M_get_Tp_allocatorEv
	.section	.text._ZSt7forwardIRiEOT_RNSt16remove_referenceIS1_E4typeE,"axG",@progbits,_ZSt7forwardIRiEOT_RNSt16remove_referenceIS1_E4typeE,comdat
	.weak	_ZSt7forwardIRiEOT_RNSt16remove_referenceIS1_E4typeE
	.type	_ZSt7forwardIRiEOT_RNSt16remove_referenceIS1_E4typeE, @function
_ZSt7forwardIRiEOT_RNSt16remove_referenceIS1_E4typeE:
.LFB11001:
	.cfi_startproc
	endbr64	
	push	rbp	#
	.cfi_def_cfa_offset 16
	.cfi_offset 6, -16
	mov	rbp, rsp	#,
	.cfi_def_cfa_register 6
	mov	QWORD PTR -8[rbp], rdi	# __t, __t
# /usr/include/c++/13/bits/move.h:71:     { return static_cast<_Tp&&>(__t); }
	mov	rax, QWORD PTR -8[rbp]	# _2, __t
# /usr/include/c++/13/bits/move.h:71:     { return static_cast<_Tp&&>(__t); }
	pop	rbp	#
	.cfi_def_cfa 7, 8
	ret	
	.cfi_endproc
.LFE11001:
	.size	_ZSt7forwardIRiEOT_RNSt16remove_referenceIS1_E4typeE, .-_ZSt7forwardIRiEOT_RNSt16remove_referenceIS1_E4typeE
	.section	.text._ZSt4moveIRSt4pairIiiEEONSt16remove_referenceIT_E4typeEOS4_,"axG",@progbits,_ZSt4moveIRSt4pairIiiEEONSt16remove_referenceIT_E4typeEOS4_,comdat
	.weak	_ZSt4moveIRSt4pairIiiEEONSt16remove_referenceIT_E4typeEOS4_
	.type	_ZSt4moveIRSt4pairIiiEEONSt16remove_referenceIT_E4typeEOS4_, @function
_ZSt4moveIRSt4pairIiiEEONSt16remove_referenceIT_E4typeEOS4_:
.LFB11002:
	.cfi_startproc
	endbr64	
	push	rbp	#
	.cfi_def_cfa_offset 16
	.cfi_offset 6, -16
	mov	rbp, rsp	#,
	.cfi_def_cfa_register 6
	mov	QWORD PTR -8[rbp], rdi	# __t, __t
# /usr/include/c++/13/bits/move.h:98:     { return static_cast<typename std::remove_reference<_Tp>::type&&>(__t); }
	mov	rax, QWORD PTR -8[rbp]	# _2, __t
# /usr/include/c++/13/bits/move.h:98:     { return static_cast<typename std::remove_reference<_Tp>::type&&>(__t); }
	pop	rbp	#
	.cfi_def_cfa 7, 8
	ret	
	.cfi_endproc
.LFE11002:
	.size	_ZSt4moveIRSt4pairIiiEEONSt16remove_referenceIT_E4typeEOS4_, .-_ZSt4moveIRSt4pairIiiEEONSt16remove_referenceIT_E4typeEOS4_
	.section	.text._ZNSt6vectorISt4pairIiiESaIS1_EE12emplace_backIJS1_EEERS1_DpOT_,"axG",@progbits,_ZNSt6vectorISt4pairIiiESaIS1_EE12emplace_backIJS1_EEERS1_DpOT_,comdat
	.align 2
	.weak	_ZNSt6vectorISt4pairIiiESaIS1_EE12emplace_backIJS1_EEERS1_DpOT_
	.type	_ZNSt6vectorISt4pairIiiESaIS1_EE12emplace_backIJS1_EEERS1_DpOT_, @function
_ZNSt6vectorISt4pairIiiESaIS1_EE12emplace_backIJS1_EEERS1_DpOT_:
.LFB11003:
	.cfi_startproc
	endbr64	
	push	rbp	#
	.cfi_def_cfa_offset 16
	.cfi_offset 6, -16
	mov	rbp, rsp	#,
	.cfi_def_cfa_register 6
	push	rbx	#
	sub	rsp, 72	#,
	.cfi_offset 3, -24
	mov	QWORD PTR -72[rbp], rdi	# this, this
	mov	QWORD PTR -80[rbp], rsi	# __args#0, __args#0
# /usr/include/c++/13/bits/vector.tcc:114: 	if (this->_M_impl._M_finish != this->_M_impl._M_end_of_storage)
	mov	rax, QWORD PTR -72[rbp]	# tmp99, this
	mov	rdx, QWORD PTR 8[rax]	# _1, this_11(D)->D.210289._M_impl.D.209628._M_finish
# /usr/include/c++/13/bits/vector.tcc:114: 	if (this->_M_impl._M_finish != this->_M_impl._M_end_of_storage)
	mov	rax, QWORD PTR -72[rbp]	# tmp100, this
	mov	rax, QWORD PTR 16[rax]	# _2, this_11(D)->D.210289._M_impl.D.209628._M_end_of_storage
# /usr/include/c++/13/bits/vector.tcc:114: 	if (this->_M_impl._M_finish != this->_M_impl._M_end_of_storage)
	cmp	rdx, rax	# _1, _2
	je	.L153	#,
# /usr/include/c++/13/bits/vector.tcc:117: 	    _Alloc_traits::construct(this->_M_impl, this->_M_impl._M_finish,
	mov	rax, QWORD PTR -80[rbp]	# tmp101, __args#0
	mov	rdi, rax	#, tmp101
	call	_ZSt7forwardISt4pairIiiEEOT_RNSt16remove_referenceIS2_E4typeE	#
# /usr/include/c++/13/bits/vector.tcc:117: 	    _Alloc_traits::construct(this->_M_impl, this->_M_impl._M_finish,
	mov	rdx, QWORD PTR -72[rbp]	# tmp102, this
	mov	rdx, QWORD PTR 8[rdx]	# _4, this_11(D)->D.210289._M_impl.D.209628._M_finish
# /usr/include/c++/13/bits/vector.tcc:117: 	    _Alloc_traits::construct(this->_M_impl, this->_M_impl._M_finish,
	mov	rcx, QWORD PTR -72[rbp]	# _5, this
	mov	QWORD PTR -64[rbp], rcx	# __a, _5
	mov	QWORD PTR -56[rbp], rdx	# __p, _4
	mov	QWORD PTR -48[rbp], rax	# __args#0, _3
# /usr/include/c++/13/bits/alloc_traits.h:538: 	  __a.construct(__p, std::forward<_Args>(__args)...);
	mov	rax, QWORD PTR -48[rbp]	# tmp103, __args#0
	mov	rdi, rax	#, tmp103
	call	_ZSt7forwardISt4pairIiiEEOT_RNSt16remove_referenceIS2_E4typeE	#
	mov	rdx, QWORD PTR -64[rbp]	# tmp104, __a
	mov	QWORD PTR -40[rbp], rdx	# this, tmp104
	mov	rdx, QWORD PTR -56[rbp]	# tmp105, __p
	mov	QWORD PTR -32[rbp], rdx	# __p, tmp105
	mov	QWORD PTR -24[rbp], rax	# __args#0, _23
# /usr/include/c++/13/bits/new_allocator.h:191: 	{ ::new((void *)__p) _Up(std::forward<_Args>(__args)...); }
	mov	rax, QWORD PTR -32[rbp]	# _27, __p
# /usr/include/c++/13/bits/new_allocator.h:191: 	{ ::new((void *)__p) _Up(std::forward<_Args>(__args)...); }
	mov	rsi, rax	#, _27
	mov	edi, 8	#,
	call	_ZnwmPv	#
	mov	rbx, rax	# _28,
# /usr/include/c++/13/bits/new_allocator.h:191: 	{ ::new((void *)__p) _Up(std::forward<_Args>(__args)...); }
	mov	rax, QWORD PTR -24[rbp]	# tmp106, __args#0
	mov	rdi, rax	#, tmp106
	call	_ZSt7forwardISt4pairIiiEEOT_RNSt16remove_referenceIS2_E4typeE	#
# /usr/include/c++/13/bits/new_allocator.h:191: 	{ ::new((void *)__p) _Up(std::forward<_Args>(__args)...); }
	mov	rax, QWORD PTR [rax]	# tmp107, *_30
	mov	QWORD PTR [rbx], rax	# MEM[(struct pair *)_28], tmp107
# /usr/include/c++/13/bits/new_allocator.h:191: 	{ ::new((void *)__p) _Up(std::forward<_Args>(__args)...); }
	nop	
# /usr/include/c++/13/bits/alloc_traits.h:542: 	}
	nop	
# /usr/include/c++/13/bits/vector.tcc:119: 	    ++this->_M_impl._M_finish;
	mov	rax, QWORD PTR -72[rbp]	# tmp108, this
	mov	rax, QWORD PTR 8[rax]	# _6, this_11(D)->D.210289._M_impl.D.209628._M_finish
# /usr/include/c++/13/bits/vector.tcc:119: 	    ++this->_M_impl._M_finish;
	lea	rdx, 8[rax]	# _7,
	mov	rax, QWORD PTR -72[rbp]	# tmp109, this
	mov	QWORD PTR 8[rax], rdx	# this_11(D)->D.210289._M_impl.D.209628._M_finish, _7
	jmp	.L154	#
.L153:
# /usr/include/c++/13/bits/vector.tcc:123: 	  _M_realloc_insert(end(), std::forward<_Args>(__args)...);
	mov	rax, QWORD PTR -80[rbp]	# tmp110, __args#0
	mov	rdi, rax	#, tmp110
	call	_ZSt7forwardISt4pairIiiEEOT_RNSt16remove_referenceIS2_E4typeE	#
	mov	rbx, rax	# _8,
# /usr/include/c++/13/bits/vector.tcc:123: 	  _M_realloc_insert(end(), std::forward<_Args>(__args)...);
	mov	rax, QWORD PTR -72[rbp]	# tmp111, this
	mov	rdi, rax	#, tmp111
	call	_ZNSt6vectorISt4pairIiiESaIS1_EE3endEv	#
	mov	rcx, rax	# D.232398,
# /usr/include/c++/13/bits/vector.tcc:123: 	  _M_realloc_insert(end(), std::forward<_Args>(__args)...);
	mov	rax, QWORD PTR -72[rbp]	# tmp112, this
	mov	rdx, rbx	#, _8
	mov	rsi, rcx	#, D.232398
	mov	rdi, rax	#, tmp112
	call	_ZNSt6vectorISt4pairIiiESaIS1_EE17_M_realloc_insertIJS1_EEEvN9__gnu_cxx17__normal_iteratorIPS1_S3_EEDpOT_	#
.L154:
# /usr/include/c++/13/bits/vector.tcc:125: 	return back();
	mov	rax, QWORD PTR -72[rbp]	# tmp113, this
	mov	rdi, rax	#, tmp113
	call	_ZNSt6vectorISt4pairIiiESaIS1_EE4backEv	#
# /usr/include/c++/13/bits/vector.tcc:127:       }
	mov	rbx, QWORD PTR -8[rbp]	#,
	leave	
	.cfi_def_cfa 7, 8
	ret	
	.cfi_endproc
.LFE11003:
	.size	_ZNSt6vectorISt4pairIiiESaIS1_EE12emplace_backIJS1_EEERS1_DpOT_, .-_ZNSt6vectorISt4pairIiiESaIS1_EE12emplace_backIJS1_EEERS1_DpOT_
	.section	.text._ZNSt15__new_allocatorIbED2Ev,"axG",@progbits,_ZNSt15__new_allocatorIbED5Ev,comdat
	.align 2
	.weak	_ZNSt15__new_allocatorIbED2Ev
	.type	_ZNSt15__new_allocatorIbED2Ev, @function
_ZNSt15__new_allocatorIbED2Ev:
.LFB11009:
	.cfi_startproc
	endbr64	
	push	rbp	#
	.cfi_def_cfa_offset 16
	.cfi_offset 6, -16
	mov	rbp, rsp	#,
	.cfi_def_cfa_register 6
	mov	QWORD PTR -8[rbp], rdi	# this, this
# /usr/include/c++/13/bits/new_allocator.h:104:       ~__new_allocator() _GLIBCXX_USE_NOEXCEPT { }
	nop	
	pop	rbp	#
	.cfi_def_cfa 7, 8
	ret	
	.cfi_endproc
.LFE11009:
	.size	_ZNSt15__new_allocatorIbED2Ev, .-_ZNSt15__new_allocatorIbED2Ev
	.weak	_ZNSt15__new_allocatorIbED1Ev
	.set	_ZNSt15__new_allocatorIbED1Ev,_ZNSt15__new_allocatorIbED2Ev
	.section	.text._ZNSt13_Bvector_baseISaIbEE13_Bvector_implD2Ev,"axG",@progbits,_ZNSt13_Bvector_baseISaIbEE13_Bvector_implD5Ev,comdat
	.align 2
	.weak	_ZNSt13_Bvector_baseISaIbEE13_Bvector_implD2Ev
	.type	_ZNSt13_Bvector_baseISaIbEE13_Bvector_implD2Ev, @function
_ZNSt13_Bvector_baseISaIbEE13_Bvector_implD2Ev:
.LFB11013:
	.cfi_startproc
	endbr64	
	push	rbp	#
	.cfi_def_cfa_offset 16
	.cfi_offset 6, -16
	mov	rbp, rsp	#,
	.cfi_def_cfa_register 6
	sub	rsp, 32	#,
	mov	QWORD PTR -24[rbp], rdi	# this, this
	mov	rax, QWORD PTR -24[rbp]	# tmp82, this
	mov	QWORD PTR -8[rbp], rax	# this, tmp82
# /usr/include/c++/13/bits/allocator.h:184:       ~allocator() _GLIBCXX_NOTHROW { }
	mov	rax, QWORD PTR -8[rbp]	# tmp83, this
	mov	rdi, rax	#, tmp83
	call	_ZNSt15__new_allocatorImED2Ev	#
	nop	
# /usr/include/c++/13/bits/stl_bvector.h:590:       struct _Bvector_impl
	nop	
	leave	
	.cfi_def_cfa 7, 8
	ret	
	.cfi_endproc
.LFE11013:
	.size	_ZNSt13_Bvector_baseISaIbEE13_Bvector_implD2Ev, .-_ZNSt13_Bvector_baseISaIbEE13_Bvector_implD2Ev
	.weak	_ZNSt13_Bvector_baseISaIbEE13_Bvector_implD1Ev
	.set	_ZNSt13_Bvector_baseISaIbEE13_Bvector_implD1Ev,_ZNSt13_Bvector_baseISaIbEE13_Bvector_implD2Ev
	.section	.text._ZNSt13_Bvector_baseISaIbEEC2ERKS0_,"axG",@progbits,_ZNSt13_Bvector_baseISaIbEEC5ERKS0_,comdat
	.align 2
	.weak	_ZNSt13_Bvector_baseISaIbEEC2ERKS0_
	.type	_ZNSt13_Bvector_baseISaIbEEC2ERKS0_, @function
_ZNSt13_Bvector_baseISaIbEEC2ERKS0_:
.LFB11015:
	.cfi_startproc
	endbr64	
	push	rbp	#
	.cfi_def_cfa_offset 16
	.cfi_offset 6, -16
	mov	rbp, rsp	#,
	.cfi_def_cfa_register 6
	sub	rsp, 48	#,
	mov	QWORD PTR -40[rbp], rdi	# this, this
	mov	QWORD PTR -48[rbp], rsi	# __a, __a
# /usr/include/c++/13/bits/stl_bvector.h:656:       _Bvector_base(const allocator_type& __a)
	mov	rax, QWORD PTR fs:40	# tmp88, MEM[(<address-space-1> long unsigned int *)40B]
	mov	QWORD PTR -8[rbp], rax	# D.233362, tmp88
	xor	eax, eax	# tmp88
# /usr/include/c++/13/bits/stl_bvector.h:657:       : _M_impl(__a) { }
	mov	rax, QWORD PTR -40[rbp]	# _1, this
	mov	rdx, QWORD PTR -48[rbp]	# tmp84, __a
	mov	QWORD PTR -24[rbp], rdx	# D.233134, tmp84
	lea	rdx, -25[rbp]	# tmp85,
	mov	QWORD PTR -16[rbp], rdx	# this, tmp85
# /usr/include/c++/13/bits/new_allocator.h:88:       __new_allocator() _GLIBCXX_USE_NOEXCEPT { }
	nop	
# /usr/include/c++/13/bits/allocator.h:178: 	allocator(const allocator<_Tp1>&) _GLIBCXX_NOTHROW { }
	nop	
# /usr/include/c++/13/bits/stl_bvector.h:657:       : _M_impl(__a) { }
	lea	rdx, -25[rbp]	# tmp86,
	mov	rsi, rdx	#, tmp86
	mov	rdi, rax	#, _1
	call	_ZNSt13_Bvector_baseISaIbEE13_Bvector_implC1ERKSaImE	#
# /usr/include/c++/13/bits/allocator.h:184:       ~allocator() _GLIBCXX_NOTHROW { }
	lea	rax, -25[rbp]	# tmp87,
	mov	rdi, rax	#, tmp87
	call	_ZNSt15__new_allocatorImED2Ev	#
	nop	
# /usr/include/c++/13/bits/stl_bvector.h:657:       : _M_impl(__a) { }
	nop	
	mov	rax, QWORD PTR -8[rbp]	# tmp89, D.233362
	sub	rax, QWORD PTR fs:40	# tmp89, MEM[(<address-space-1> long unsigned int *)40B]
	je	.L159	#,
	call	__stack_chk_fail@PLT	#
.L159:
	leave	
	.cfi_def_cfa 7, 8
	ret	
	.cfi_endproc
.LFE11015:
	.size	_ZNSt13_Bvector_baseISaIbEEC2ERKS0_, .-_ZNSt13_Bvector_baseISaIbEEC2ERKS0_
	.weak	_ZNSt13_Bvector_baseISaIbEEC1ERKS0_
	.set	_ZNSt13_Bvector_baseISaIbEEC1ERKS0_,_ZNSt13_Bvector_baseISaIbEEC2ERKS0_
	.section	.text._ZNSt13_Bvector_baseISaIbEED2Ev,"axG",@progbits,_ZNSt13_Bvector_baseISaIbEED5Ev,comdat
	.align 2
	.weak	_ZNSt13_Bvector_baseISaIbEED2Ev
	.type	_ZNSt13_Bvector_baseISaIbEED2Ev, @function
_ZNSt13_Bvector_baseISaIbEED2Ev:
.LFB11018:
	.cfi_startproc
	.cfi_personality 0x9b,DW.ref.__gxx_personality_v0
	.cfi_lsda 0x1b,.LLSDA11018
	endbr64	
	push	rbp	#
	.cfi_def_cfa_offset 16
	.cfi_offset 6, -16
	mov	rbp, rsp	#,
	.cfi_def_cfa_register 6
	sub	rsp, 16	#,
	mov	QWORD PTR -8[rbp], rdi	# this, this
# /usr/include/c++/13/bits/stl_bvector.h:670:       { this->_M_deallocate(); }
	mov	rax, QWORD PTR -8[rbp]	# tmp83, this
	mov	rdi, rax	#, tmp83
	call	_ZNSt13_Bvector_baseISaIbEE13_M_deallocateEv	#
# /usr/include/c++/13/bits/stl_bvector.h:670:       { this->_M_deallocate(); }
	mov	rax, QWORD PTR -8[rbp]	# _1, this
	mov	rdi, rax	#, _1
	call	_ZNSt13_Bvector_baseISaIbEE13_Bvector_implD1Ev	#
# /usr/include/c++/13/bits/stl_bvector.h:670:       { this->_M_deallocate(); }
	nop	
	leave	
	.cfi_def_cfa 7, 8
	ret	
	.cfi_endproc
.LFE11018:
	.section	.gcc_except_table
.LLSDA11018:
	.byte	0xff
	.byte	0xff
	.byte	0x1
	.uleb128 .LLSDACSE11018-.LLSDACSB11018
.LLSDACSB11018:
.LLSDACSE11018:
	.section	.text._ZNSt13_Bvector_baseISaIbEED2Ev,"axG",@progbits,_ZNSt13_Bvector_baseISaIbEED5Ev,comdat
	.size	_ZNSt13_Bvector_baseISaIbEED2Ev, .-_ZNSt13_Bvector_baseISaIbEED2Ev
	.weak	_ZNSt13_Bvector_baseISaIbEED1Ev
	.set	_ZNSt13_Bvector_baseISaIbEED1Ev,_ZNSt13_Bvector_baseISaIbEED2Ev
	.section	.text._ZNSt6vectorIbSaIbEE13_M_initializeEm,"axG",@progbits,_ZNSt6vectorIbSaIbEE13_M_initializeEm,comdat
	.align 2
	.weak	_ZNSt6vectorIbSaIbEE13_M_initializeEm
	.type	_ZNSt6vectorIbSaIbEE13_M_initializeEm, @function
_ZNSt6vectorIbSaIbEE13_M_initializeEm:
.LFB11020:
	.cfi_startproc
	endbr64	
	push	rbp	#
	.cfi_def_cfa_offset 16
	.cfi_offset 6, -16
	mov	rbp, rsp	#,
	.cfi_def_cfa_register 6
	sub	rsp, 80	#,
	mov	QWORD PTR -72[rbp], rdi	# this, this
	mov	QWORD PTR -80[rbp], rsi	# __n, __n
# /usr/include/c++/13/bits/stl_bvector.h:1349:       _M_initialize(size_type __n)
	mov	rax, QWORD PTR fs:40	# tmp103, MEM[(<address-space-1> long unsigned int *)40B]
	mov	QWORD PTR -8[rbp], rax	# D.233363, tmp103
	xor	eax, eax	# tmp103
# /usr/include/c++/13/bits/stl_bvector.h:1351: 	if (__n)
	cmp	QWORD PTR -80[rbp], 0	# __n,
	je	.L164	#,
# /usr/include/c++/13/bits/stl_bvector.h:1353: 	    _Bit_pointer __q = this->_M_allocate(__n);
	mov	rax, QWORD PTR -72[rbp]	# _1, this
	mov	rdx, QWORD PTR -80[rbp]	# tmp89, __n
	mov	rsi, rdx	#, tmp89
	mov	rdi, rax	#, _1
	call	_ZNSt13_Bvector_baseISaIbEE11_M_allocateEm	#
# /usr/include/c++/13/bits/stl_bvector.h:1353: 	    _Bit_pointer __q = this->_M_allocate(__n);
	mov	QWORD PTR -56[rbp], rax	# __q, _12
# /usr/include/c++/13/bits/stl_bvector.h:1354: 	    this->_M_impl._M_end_of_storage = __q + _S_nword(__n);
	mov	rax, QWORD PTR -80[rbp]	# tmp90, __n
	mov	rdi, rax	#, tmp90
	call	_ZNSt13_Bvector_baseISaIbEE8_S_nwordEm	#
# /usr/include/c++/13/bits/stl_bvector.h:1354: 	    this->_M_impl._M_end_of_storage = __q + _S_nword(__n);
	lea	rdx, 0[0+rax*8]	# _3,
	mov	rax, QWORD PTR -56[rbp]	# tmp91, __q
	add	rdx, rax	# _4, tmp91
# /usr/include/c++/13/bits/stl_bvector.h:1354: 	    this->_M_impl._M_end_of_storage = __q + _S_nword(__n);
	mov	rax, QWORD PTR -72[rbp]	# tmp92, this
	mov	QWORD PTR 32[rax], rdx	# this_10(D)->D.212115._M_impl.D.211589._M_end_of_storage, _4
# /usr/include/c++/13/bits/stl_bvector.h:1355: 	    iterator __start = iterator(std::__addressof(*__q), 0);
	mov	rax, QWORD PTR -56[rbp]	# tmp93, __q
	mov	rdi, rax	#, tmp93
	call	_ZSt11__addressofImEPT_RS0_	#
	mov	rcx, rax	# _5,
# /usr/include/c++/13/bits/stl_bvector.h:1355: 	    iterator __start = iterator(std::__addressof(*__q), 0);
	lea	rax, -48[rbp]	# tmp94,
	mov	edx, 0	#,
	mov	rsi, rcx	#, _5
	mov	rdi, rax	#, tmp94
	call	_ZNSt13_Bit_iteratorC1EPmj	#
# /usr/include/c++/13/bits/stl_bvector.h:1356: 	    this->_M_impl._M_start = __start;
	mov	rax, QWORD PTR -72[rbp]	# tmp95, this
	mov	rdx, QWORD PTR -48[rbp]	# tmp96, MEM <unsigned char[12]> [(struct _Bit_iterator *)&__start]
	mov	QWORD PTR [rax], rdx	# MEM <unsigned char[12]> [(struct _Bit_iterator *)this_10(D)], tmp96
	mov	edx, DWORD PTR -40[rbp]	# tmp97, MEM <unsigned char[12]> [(struct _Bit_iterator *)&__start]
	mov	DWORD PTR 8[rax], edx	# MEM <unsigned char[12]> [(struct _Bit_iterator *)this_10(D)], tmp97
# /usr/include/c++/13/bits/stl_bvector.h:1357: 	    this->_M_impl._M_finish = __start + difference_type(__n);
	mov	rdx, QWORD PTR -80[rbp]	# __n.17_6, __n
	lea	rax, -48[rbp]	# tmp98,
	mov	rsi, rdx	#, __n.17_6
	mov	rdi, rax	#, tmp98
	call	_ZStplRKSt13_Bit_iteratorl	#
	mov	QWORD PTR -32[rbp], rax	# D.224687, tmp99
	mov	QWORD PTR -24[rbp], rdx	# D.224687,
# /usr/include/c++/13/bits/stl_bvector.h:1357: 	    this->_M_impl._M_finish = __start + difference_type(__n);
	mov	rax, QWORD PTR -72[rbp]	# tmp100, this
	mov	rdx, QWORD PTR -32[rbp]	# tmp101, MEM <unsigned char[12]> [(struct _Bit_iterator *)&D.224687]
	mov	QWORD PTR 16[rax], rdx	# MEM <unsigned char[12]> [(struct _Bit_iterator *)this_10(D) + 16B], tmp101
	mov	edx, DWORD PTR -24[rbp]	# tmp102, MEM <unsigned char[12]> [(struct _Bit_iterator *)&D.224687]
	mov	DWORD PTR 24[rax], edx	# MEM <unsigned char[12]> [(struct _Bit_iterator *)this_10(D) + 16B], tmp102
.L164:
# /usr/include/c++/13/bits/stl_bvector.h:1359:       }
	nop	
	mov	rax, QWORD PTR -8[rbp]	# tmp104, D.233363
	sub	rax, QWORD PTR fs:40	# tmp104, MEM[(<address-space-1> long unsigned int *)40B]
	je	.L163	#,
	call	__stack_chk_fail@PLT	#
.L163:
	leave	
	.cfi_def_cfa 7, 8
	ret	
	.cfi_endproc
.LFE11020:
	.size	_ZNSt6vectorIbSaIbEE13_M_initializeEm, .-_ZNSt6vectorIbSaIbEE13_M_initializeEm
	.section	.text._ZNSt6vectorIbSaIbEE19_M_initialize_valueEb,"axG",@progbits,_ZNSt6vectorIbSaIbEE19_M_initialize_valueEb,comdat
	.align 2
	.weak	_ZNSt6vectorIbSaIbEE19_M_initialize_valueEb
	.type	_ZNSt6vectorIbSaIbEE19_M_initialize_valueEb, @function
_ZNSt6vectorIbSaIbEE19_M_initialize_valueEb:
.LFB11021:
	.cfi_startproc
	endbr64	
	push	rbp	#
	.cfi_def_cfa_offset 16
	.cfi_offset 6, -16
	mov	rbp, rsp	#,
	.cfi_def_cfa_register 6
	push	rbx	#
	sub	rsp, 40	#,
	.cfi_offset 3, -24
	mov	QWORD PTR -40[rbp], rdi	# this, this
	mov	eax, esi	# tmp88, __x
	mov	BYTE PTR -44[rbp], al	# __x, tmp89
# /usr/include/c++/13/bits/stl_bvector.h:1365: 	if (_Bit_type* __p = this->_M_impl._M_start._M_p)
	mov	rax, QWORD PTR -40[rbp]	# tmp90, this
	mov	rax, QWORD PTR [rax]	# tmp91, this_9(D)->D.212115._M_impl.D.211589._M_start.D.58751._M_p
	mov	QWORD PTR -24[rbp], rax	# __p, tmp91
# /usr/include/c++/13/bits/stl_bvector.h:1365: 	if (_Bit_type* __p = this->_M_impl._M_start._M_p)
	cmp	QWORD PTR -24[rbp], 0	# __p,
	je	.L167	#,
# /usr/include/c++/13/bits/stl_bvector.h:1366: 	  __fill_bvector_n(__p, this->_M_impl._M_end_addr() - __p, __x);
	movzx	ebx, BYTE PTR -44[rbp]	# _1, __x
# /usr/include/c++/13/bits/stl_bvector.h:1366: 	  __fill_bvector_n(__p, this->_M_impl._M_end_addr() - __p, __x);
	mov	rax, QWORD PTR -40[rbp]	# _2, this
	mov	rdi, rax	#, _2
	call	_ZNKSt13_Bvector_baseISaIbEE13_Bvector_impl11_M_end_addrEv	#
# /usr/include/c++/13/bits/stl_bvector.h:1366: 	  __fill_bvector_n(__p, this->_M_impl._M_end_addr() - __p, __x);
	sub	rax, QWORD PTR -24[rbp]	# _4, __p
	sar	rax, 3	# tmp92,
# /usr/include/c++/13/bits/stl_bvector.h:1366: 	  __fill_bvector_n(__p, this->_M_impl._M_end_addr() - __p, __x);
	mov	rcx, rax	# _6, _5
	mov	rax, QWORD PTR -24[rbp]	# tmp93, __p
	mov	edx, ebx	#, _1
	mov	rsi, rcx	#, _6
	mov	rdi, rax	#, tmp93
	call	_ZSt16__fill_bvector_nPmmb	#
.L167:
# /usr/include/c++/13/bits/stl_bvector.h:1367:       }
	nop	
	mov	rbx, QWORD PTR -8[rbp]	#,
	leave	
	.cfi_def_cfa 7, 8
	ret	
	.cfi_endproc
.LFE11021:
	.size	_ZNSt6vectorIbSaIbEE19_M_initialize_valueEb, .-_ZNSt6vectorIbSaIbEE19_M_initialize_valueEb
	.section	.text._ZNSt15__new_allocatorIiED2Ev,"axG",@progbits,_ZNSt15__new_allocatorIiED5Ev,comdat
	.align 2
	.weak	_ZNSt15__new_allocatorIiED2Ev
	.type	_ZNSt15__new_allocatorIiED2Ev, @function
_ZNSt15__new_allocatorIiED2Ev:
.LFB11026:
	.cfi_startproc
	endbr64	
	push	rbp	#
	.cfi_def_cfa_offset 16
	.cfi_offset 6, -16
	mov	rbp, rsp	#,
	.cfi_def_cfa_register 6
	mov	QWORD PTR -8[rbp], rdi	# this, this
# /usr/include/c++/13/bits/new_allocator.h:104:       ~__new_allocator() _GLIBCXX_USE_NOEXCEPT { }
	nop	
	pop	rbp	#
	.cfi_def_cfa 7, 8
	ret	
	.cfi_endproc
.LFE11026:
	.size	_ZNSt15__new_allocatorIiED2Ev, .-_ZNSt15__new_allocatorIiED2Ev
	.weak	_ZNSt15__new_allocatorIiED1Ev
	.set	_ZNSt15__new_allocatorIiED1Ev,_ZNSt15__new_allocatorIiED2Ev
	.section	.text._ZNSt6vectorIiSaIiEE17_S_check_init_lenEmRKS0_,"axG",@progbits,_ZNSt6vectorIiSaIiEE17_S_check_init_lenEmRKS0_,comdat
	.weak	_ZNSt6vectorIiSaIiEE17_S_check_init_lenEmRKS0_
	.type	_ZNSt6vectorIiSaIiEE17_S_check_init_lenEmRKS0_, @function
_ZNSt6vectorIiSaIiEE17_S_check_init_lenEmRKS0_:
.LFB11028:
	.cfi_startproc
	endbr64	
	push	rbp	#
	.cfi_def_cfa_offset 16
	.cfi_offset 6, -16
	mov	rbp, rsp	#,
	.cfi_def_cfa_register 6
	push	rbx	#
	sub	rsp, 72	#,
	.cfi_offset 3, -24
	mov	QWORD PTR -72[rbp], rdi	# __n, __n
	mov	QWORD PTR -80[rbp], rsi	# __a, __a
# /usr/include/c++/13/bits/stl_vector.h:1907:       _S_check_init_len(size_type __n, const allocator_type& __a)
	mov	rax, QWORD PTR fs:40	# tmp93, MEM[(<address-space-1> long unsigned int *)40B]
	mov	QWORD PTR -24[rbp], rax	# D.233364, tmp93
	xor	eax, eax	# tmp93
	mov	rax, QWORD PTR -80[rbp]	# tmp86, __a
	mov	QWORD PTR -48[rbp], rax	# __a, tmp86
	lea	rax, -49[rbp]	# tmp87,
	mov	QWORD PTR -40[rbp], rax	# this, tmp87
	mov	rax, QWORD PTR -48[rbp]	# tmp88, __a
	mov	QWORD PTR -32[rbp], rax	# D.233206, tmp88
# /usr/include/c++/13/bits/new_allocator.h:92:       __new_allocator(const __new_allocator&) _GLIBCXX_USE_NOEXCEPT { }
	nop	
# /usr/include/c++/13/bits/allocator.h:168:       : __allocator_base<_Tp>(__a) { }
	nop	
# /usr/include/c++/13/bits/stl_vector.h:1909: 	if (__n > _S_max_size(_Tp_alloc_type(__a)))
	lea	rax, -49[rbp]	# tmp89,
	mov	rdi, rax	#, tmp89
	call	_ZNSt6vectorIiSaIiEE11_S_max_sizeERKS0_	#
# /usr/include/c++/13/bits/stl_vector.h:1909: 	if (__n > _S_max_size(_Tp_alloc_type(__a)))
	cmp	rax, QWORD PTR -72[rbp]	# _1, __n
	setb	bl	#, retval.20_6
# /usr/include/c++/13/bits/allocator.h:184:       ~allocator() _GLIBCXX_NOTHROW { }
	lea	rax, -49[rbp]	# tmp90,
	mov	rdi, rax	#, tmp90
	call	_ZNSt15__new_allocatorIiED2Ev	#
	nop	
# /usr/include/c++/13/bits/stl_vector.h:1909: 	if (__n > _S_max_size(_Tp_alloc_type(__a)))
	test	bl, bl	# retval.20_6
	je	.L170	#,
# /usr/include/c++/13/bits/stl_vector.h:1910: 	  __throw_length_error(
	mov	rax, QWORD PTR -24[rbp]	# tmp94, D.233364
	sub	rax, QWORD PTR fs:40	# tmp94, MEM[(<address-space-1> long unsigned int *)40B]
	je	.L171	#,
	call	__stack_chk_fail@PLT	#
.L171:
	lea	rax, .LC5[rip]	# tmp91,
	mov	rdi, rax	#, tmp91
	call	_ZSt20__throw_length_errorPKc@PLT	#
.L170:
# /usr/include/c++/13/bits/stl_vector.h:1912: 	return __n;
	mov	rax, QWORD PTR -72[rbp]	# _8, __n
# /usr/include/c++/13/bits/stl_vector.h:1913:       }
	mov	rdx, QWORD PTR -24[rbp]	# tmp95, D.233364
	sub	rdx, QWORD PTR fs:40	# tmp95, MEM[(<address-space-1> long unsigned int *)40B]
	je	.L173	#,
	call	__stack_chk_fail@PLT	#
.L173:
	mov	rbx, QWORD PTR -8[rbp]	#,
	leave	
	.cfi_def_cfa 7, 8
	ret	
	.cfi_endproc
.LFE11028:
	.size	_ZNSt6vectorIiSaIiEE17_S_check_init_lenEmRKS0_, .-_ZNSt6vectorIiSaIiEE17_S_check_init_lenEmRKS0_
	.section	.text._ZNSt12_Vector_baseIiSaIiEEC2EmRKS0_,"axG",@progbits,_ZNSt12_Vector_baseIiSaIiEEC5EmRKS0_,comdat
	.align 2
	.weak	_ZNSt12_Vector_baseIiSaIiEEC2EmRKS0_
	.type	_ZNSt12_Vector_baseIiSaIiEEC2EmRKS0_, @function
_ZNSt12_Vector_baseIiSaIiEEC2EmRKS0_:
.LFB11030:
	.cfi_startproc
	.cfi_personality 0x9b,DW.ref.__gxx_personality_v0
	.cfi_lsda 0x1b,.LLSDA11030
	endbr64	
	push	rbp	#
	.cfi_def_cfa_offset 16
	.cfi_offset 6, -16
	mov	rbp, rsp	#,
	.cfi_def_cfa_register 6
	push	rbx	#
	sub	rsp, 40	#,
	.cfi_offset 3, -24
	mov	QWORD PTR -24[rbp], rdi	# this, this
	mov	QWORD PTR -32[rbp], rsi	# __n, __n
	mov	QWORD PTR -40[rbp], rdx	# __a, __a
# /usr/include/c++/13/bits/stl_vector.h:334:       : _M_impl(__a)
	mov	rax, QWORD PTR -24[rbp]	# _1, this
	mov	rdx, QWORD PTR -40[rbp]	# tmp85, __a
	mov	rsi, rdx	#, tmp85
	mov	rdi, rax	#, _1
	call	_ZNSt12_Vector_baseIiSaIiEE12_Vector_implC1ERKS0_	#
# /usr/include/c++/13/bits/stl_vector.h:335:       { _M_create_storage(__n); }
	mov	rdx, QWORD PTR -32[rbp]	# tmp86, __n
	mov	rax, QWORD PTR -24[rbp]	# tmp87, this
	mov	rsi, rdx	#, tmp86
	mov	rdi, rax	#, tmp87
.LEHB23:
	call	_ZNSt12_Vector_baseIiSaIiEE17_M_create_storageEm	#
.LEHE23:
# /usr/include/c++/13/bits/stl_vector.h:335:       { _M_create_storage(__n); }
	jmp	.L177	#
.L176:
	endbr64	
# /usr/include/c++/13/bits/stl_vector.h:335:       { _M_create_storage(__n); }
	mov	rbx, rax	# tmp88,
	mov	rax, QWORD PTR -24[rbp]	# _2, this
	mov	rdi, rax	#, _2
	call	_ZNSt12_Vector_baseIiSaIiEE12_Vector_implD1Ev	#
	mov	rax, rbx	# D.233365, tmp88
	mov	rdi, rax	#, D.233365
.LEHB24:
	call	_Unwind_Resume@PLT	#
.LEHE24:
.L177:
# /usr/include/c++/13/bits/stl_vector.h:335:       { _M_create_storage(__n); }
	mov	rbx, QWORD PTR -8[rbp]	#,
	leave	
	.cfi_def_cfa 7, 8
	ret	
	.cfi_endproc
.LFE11030:
	.section	.gcc_except_table
.LLSDA11030:
	.byte	0xff
	.byte	0xff
	.byte	0x1
	.uleb128 .LLSDACSE11030-.LLSDACSB11030
.LLSDACSB11030:
	.uleb128 .LEHB23-.LFB11030
	.uleb128 .LEHE23-.LEHB23
	.uleb128 .L176-.LFB11030
	.uleb128 0
	.uleb128 .LEHB24-.LFB11030
	.uleb128 .LEHE24-.LEHB24
	.uleb128 0
	.uleb128 0
.LLSDACSE11030:
	.section	.text._ZNSt12_Vector_baseIiSaIiEEC2EmRKS0_,"axG",@progbits,_ZNSt12_Vector_baseIiSaIiEEC5EmRKS0_,comdat
	.size	_ZNSt12_Vector_baseIiSaIiEEC2EmRKS0_, .-_ZNSt12_Vector_baseIiSaIiEEC2EmRKS0_
	.weak	_ZNSt12_Vector_baseIiSaIiEEC1EmRKS0_
	.set	_ZNSt12_Vector_baseIiSaIiEEC1EmRKS0_,_ZNSt12_Vector_baseIiSaIiEEC2EmRKS0_
	.section	.text._ZNSt12_Vector_baseIiSaIiEED2Ev,"axG",@progbits,_ZNSt12_Vector_baseIiSaIiEED5Ev,comdat
	.align 2
	.weak	_ZNSt12_Vector_baseIiSaIiEED2Ev
	.type	_ZNSt12_Vector_baseIiSaIiEED2Ev, @function
_ZNSt12_Vector_baseIiSaIiEED2Ev:
.LFB11033:
	.cfi_startproc
	.cfi_personality 0x9b,DW.ref.__gxx_personality_v0
	.cfi_lsda 0x1b,.LLSDA11033
	endbr64	
	push	rbp	#
	.cfi_def_cfa_offset 16
	.cfi_offset 6, -16
	mov	rbp, rsp	#,
	.cfi_def_cfa_register 6
	sub	rsp, 16	#,
	mov	QWORD PTR -8[rbp], rdi	# this, this
# /usr/include/c++/13/bits/stl_vector.h:370: 		      _M_impl._M_end_of_storage - _M_impl._M_start);
	mov	rax, QWORD PTR -8[rbp]	# tmp89, this
	mov	rdx, QWORD PTR 16[rax]	# _1, this_9(D)->_M_impl.D.187644._M_end_of_storage
# /usr/include/c++/13/bits/stl_vector.h:370: 		      _M_impl._M_end_of_storage - _M_impl._M_start);
	mov	rax, QWORD PTR -8[rbp]	# tmp90, this
	mov	rax, QWORD PTR [rax]	# _2, this_9(D)->_M_impl.D.187644._M_start
# /usr/include/c++/13/bits/stl_vector.h:370: 		      _M_impl._M_end_of_storage - _M_impl._M_start);
	sub	rdx, rax	# _3, _2
	mov	rax, rdx	# _3, _3
	sar	rax, 2	# _3,
# /usr/include/c++/13/bits/stl_vector.h:369: 	_M_deallocate(_M_impl._M_start,
	mov	rdx, rax	# _5, _4
	mov	rax, QWORD PTR -8[rbp]	# tmp92, this
	mov	rcx, QWORD PTR [rax]	# _6, this_9(D)->_M_impl.D.187644._M_start
	mov	rax, QWORD PTR -8[rbp]	# tmp93, this
	mov	rsi, rcx	#, _6
	mov	rdi, rax	#, tmp93
	call	_ZNSt12_Vector_baseIiSaIiEE13_M_deallocateEPim	#
# /usr/include/c++/13/bits/stl_vector.h:371:       }
	mov	rax, QWORD PTR -8[rbp]	# _7, this
	mov	rdi, rax	#, _7
	call	_ZNSt12_Vector_baseIiSaIiEE12_Vector_implD1Ev	#
	nop	
	leave	
	.cfi_def_cfa 7, 8
	ret	
	.cfi_endproc
.LFE11033:
	.section	.gcc_except_table
.LLSDA11033:
	.byte	0xff
	.byte	0xff
	.byte	0x1
	.uleb128 .LLSDACSE11033-.LLSDACSB11033
.LLSDACSB11033:
.LLSDACSE11033:
	.section	.text._ZNSt12_Vector_baseIiSaIiEED2Ev,"axG",@progbits,_ZNSt12_Vector_baseIiSaIiEED5Ev,comdat
	.size	_ZNSt12_Vector_baseIiSaIiEED2Ev, .-_ZNSt12_Vector_baseIiSaIiEED2Ev
	.weak	_ZNSt12_Vector_baseIiSaIiEED1Ev
	.set	_ZNSt12_Vector_baseIiSaIiEED1Ev,_ZNSt12_Vector_baseIiSaIiEED2Ev
	.section	.text._ZNSt6vectorIiSaIiEE18_M_fill_initializeEmRKi,"axG",@progbits,_ZNSt6vectorIiSaIiEE18_M_fill_initializeEmRKi,comdat
	.align 2
	.weak	_ZNSt6vectorIiSaIiEE18_M_fill_initializeEmRKi
	.type	_ZNSt6vectorIiSaIiEE18_M_fill_initializeEmRKi, @function
_ZNSt6vectorIiSaIiEE18_M_fill_initializeEmRKi:
.LFB11035:
	.cfi_startproc
	endbr64	
	push	rbp	#
	.cfi_def_cfa_offset 16
	.cfi_offset 6, -16
	mov	rbp, rsp	#,
	.cfi_def_cfa_register 6
	sub	rsp, 32	#,
	mov	QWORD PTR -8[rbp], rdi	# this, this
	mov	QWORD PTR -16[rbp], rsi	# __n, __n
	mov	QWORD PTR -24[rbp], rdx	# __value, __value
# /usr/include/c++/13/bits/stl_vector.h:1708: 					_M_get_Tp_allocator());
	mov	rax, QWORD PTR -8[rbp]	# _1, this
	mov	rdi, rax	#, _1
	call	_ZNSt12_Vector_baseIiSaIiEE19_M_get_Tp_allocatorEv	#
	mov	rcx, rax	# _2,
# /usr/include/c++/13/bits/stl_vector.h:1707: 	  std::__uninitialized_fill_n_a(this->_M_impl._M_start, __n, __value,
	mov	rax, QWORD PTR -8[rbp]	# tmp86, this
	mov	rax, QWORD PTR [rax]	# _3, this_5(D)->D.188304._M_impl.D.187644._M_start
	mov	rdx, QWORD PTR -24[rbp]	# tmp87, __value
	mov	rsi, QWORD PTR -16[rbp]	# tmp88, __n
	mov	rdi, rax	#, _3
	call	_ZSt24__uninitialized_fill_n_aIPimiiET_S1_T0_RKT1_RSaIT2_E	#
# /usr/include/c++/13/bits/stl_vector.h:1706: 	this->_M_impl._M_finish =
	mov	rdx, QWORD PTR -8[rbp]	# tmp89, this
	mov	QWORD PTR 8[rdx], rax	# this_5(D)->D.188304._M_impl.D.187644._M_finish, _4
# /usr/include/c++/13/bits/stl_vector.h:1709:       }
	nop	
	leave	
	.cfi_def_cfa 7, 8
	ret	
	.cfi_endproc
.LFE11035:
	.size	_ZNSt6vectorIiSaIiEE18_M_fill_initializeEmRKi, .-_ZNSt6vectorIiSaIiEE18_M_fill_initializeEmRKi
	.section	.text._ZNSt12_Vector_baseIiSaIiEE19_M_get_Tp_allocatorEv,"axG",@progbits,_ZNSt12_Vector_baseIiSaIiEE19_M_get_Tp_allocatorEv,comdat
	.align 2
	.weak	_ZNSt12_Vector_baseIiSaIiEE19_M_get_Tp_allocatorEv
	.type	_ZNSt12_Vector_baseIiSaIiEE19_M_get_Tp_allocatorEv, @function
_ZNSt12_Vector_baseIiSaIiEE19_M_get_Tp_allocatorEv:
.LFB11036:
	.cfi_startproc
	endbr64	
	push	rbp	#
	.cfi_def_cfa_offset 16
	.cfi_offset 6, -16
	mov	rbp, rsp	#,
	.cfi_def_cfa_register 6
	mov	QWORD PTR -8[rbp], rdi	# this, this
# /usr/include/c++/13/bits/stl_vector.h:302:       { return this->_M_impl; }
	mov	rax, QWORD PTR -8[rbp]	# _2, this
# /usr/include/c++/13/bits/stl_vector.h:302:       { return this->_M_impl; }
	pop	rbp	#
	.cfi_def_cfa 7, 8
	ret	
	.cfi_endproc
.LFE11036:
	.size	_ZNSt12_Vector_baseIiSaIiEE19_M_get_Tp_allocatorEv, .-_ZNSt12_Vector_baseIiSaIiEE19_M_get_Tp_allocatorEv
	.section	.text._ZNSt6vectorIiSaIiEE5beginEv,"axG",@progbits,_ZNSt6vectorIiSaIiEE5beginEv,comdat
	.align 2
	.weak	_ZNSt6vectorIiSaIiEE5beginEv
	.type	_ZNSt6vectorIiSaIiEE5beginEv, @function
_ZNSt6vectorIiSaIiEE5beginEv:
.LFB11038:
	.cfi_startproc
	endbr64	
	push	rbp	#
	.cfi_def_cfa_offset 16
	.cfi_offset 6, -16
	mov	rbp, rsp	#,
	.cfi_def_cfa_register 6
	sub	rsp, 32	#,
	mov	QWORD PTR -24[rbp], rdi	# this, this
# /usr/include/c++/13/bits/stl_vector.h:873:       begin() _GLIBCXX_NOEXCEPT
	mov	rax, QWORD PTR fs:40	# tmp87, MEM[(<address-space-1> long unsigned int *)40B]
	mov	QWORD PTR -8[rbp], rax	# D.233366, tmp87
	xor	eax, eax	# tmp87
# /usr/include/c++/13/bits/stl_vector.h:874:       { return iterator(this->_M_impl._M_start); }
	mov	rdx, QWORD PTR -24[rbp]	# _1, this
# /usr/include/c++/13/bits/stl_vector.h:874:       { return iterator(this->_M_impl._M_start); }
	lea	rax, -16[rbp]	# tmp85,
	mov	rsi, rdx	#, _1
	mov	rdi, rax	#, tmp85
	call	_ZN9__gnu_cxx17__normal_iteratorIPiSt6vectorIiSaIiEEEC1ERKS1_	#
# /usr/include/c++/13/bits/stl_vector.h:874:       { return iterator(this->_M_impl._M_start); }
	mov	rax, QWORD PTR -16[rbp]	# D.232612, D.224749
# /usr/include/c++/13/bits/stl_vector.h:874:       { return iterator(this->_M_impl._M_start); }
	mov	rdx, QWORD PTR -8[rbp]	# tmp88, D.233366
	sub	rdx, QWORD PTR fs:40	# tmp88, MEM[(<address-space-1> long unsigned int *)40B]
	je	.L184	#,
	call	__stack_chk_fail@PLT	#
.L184:
	leave	
	.cfi_def_cfa 7, 8
	ret	
	.cfi_endproc
.LFE11038:
	.size	_ZNSt6vectorIiSaIiEE5beginEv, .-_ZNSt6vectorIiSaIiEE5beginEv
	.section	.text._ZNSt6vectorIiSaIiEE3endEv,"axG",@progbits,_ZNSt6vectorIiSaIiEE3endEv,comdat
	.align 2
	.weak	_ZNSt6vectorIiSaIiEE3endEv
	.type	_ZNSt6vectorIiSaIiEE3endEv, @function
_ZNSt6vectorIiSaIiEE3endEv:
.LFB11039:
	.cfi_startproc
	endbr64	
	push	rbp	#
	.cfi_def_cfa_offset 16
	.cfi_offset 6, -16
	mov	rbp, rsp	#,
	.cfi_def_cfa_register 6
	sub	rsp, 32	#,
	mov	QWORD PTR -24[rbp], rdi	# this, this
# /usr/include/c++/13/bits/stl_vector.h:893:       end() _GLIBCXX_NOEXCEPT
	mov	rax, QWORD PTR fs:40	# tmp88, MEM[(<address-space-1> long unsigned int *)40B]
	mov	QWORD PTR -8[rbp], rax	# D.233367, tmp88
	xor	eax, eax	# tmp88
# /usr/include/c++/13/bits/stl_vector.h:894:       { return iterator(this->_M_impl._M_finish); }
	mov	rax, QWORD PTR -24[rbp]	# tmp85, this
	lea	rdx, 8[rax]	# _1,
# /usr/include/c++/13/bits/stl_vector.h:894:       { return iterator(this->_M_impl._M_finish); }
	lea	rax, -16[rbp]	# tmp86,
	mov	rsi, rdx	#, _1
	mov	rdi, rax	#, tmp86
	call	_ZN9__gnu_cxx17__normal_iteratorIPiSt6vectorIiSaIiEEEC1ERKS1_	#
# /usr/include/c++/13/bits/stl_vector.h:894:       { return iterator(this->_M_impl._M_finish); }
	mov	rax, QWORD PTR -16[rbp]	# D.232609, D.224751
# /usr/include/c++/13/bits/stl_vector.h:894:       { return iterator(this->_M_impl._M_finish); }
	mov	rdx, QWORD PTR -8[rbp]	# tmp89, D.233367
	sub	rdx, QWORD PTR fs:40	# tmp89, MEM[(<address-space-1> long unsigned int *)40B]
	je	.L187	#,
	call	__stack_chk_fail@PLT	#
.L187:
	leave	
	.cfi_def_cfa 7, 8
	ret	
	.cfi_endproc
.LFE11039:
	.size	_ZNSt6vectorIiSaIiEE3endEv, .-_ZNSt6vectorIiSaIiEE3endEv
	.section	.text._ZSt4fillIN9__gnu_cxx17__normal_iteratorIPiSt6vectorIiSaIiEEEEiEvT_S7_RKT0_,"axG",@progbits,_ZSt4fillIN9__gnu_cxx17__normal_iteratorIPiSt6vectorIiSaIiEEEEiEvT_S7_RKT0_,comdat
	.weak	_ZSt4fillIN9__gnu_cxx17__normal_iteratorIPiSt6vectorIiSaIiEEEEiEvT_S7_RKT0_
	.type	_ZSt4fillIN9__gnu_cxx17__normal_iteratorIPiSt6vectorIiSaIiEEEEiEvT_S7_RKT0_, @function
_ZSt4fillIN9__gnu_cxx17__normal_iteratorIPiSt6vectorIiSaIiEEEEiEvT_S7_RKT0_:
.LFB11040:
	.cfi_startproc
	endbr64	
	push	rbp	#
	.cfi_def_cfa_offset 16
	.cfi_offset 6, -16
	mov	rbp, rsp	#,
	.cfi_def_cfa_register 6
	sub	rsp, 32	#,
	mov	QWORD PTR -8[rbp], rdi	# __first, __first
	mov	QWORD PTR -16[rbp], rsi	# __last, __last
	mov	QWORD PTR -24[rbp], rdx	# __value, __value
# /usr/include/c++/13/bits/stl_algobase.h:1007:       std::__fill_a(__first, __last, __value);
	mov	rdx, QWORD PTR -24[rbp]	# tmp82, __value
	mov	rcx, QWORD PTR -16[rbp]	# tmp83, __last
	mov	rax, QWORD PTR -8[rbp]	# tmp84, __first
	mov	rsi, rcx	#, tmp83
	mov	rdi, rax	#, tmp84
	call	_ZSt8__fill_aIN9__gnu_cxx17__normal_iteratorIPiSt6vectorIiSaIiEEEEiEvT_S7_RKT0_	#
# /usr/include/c++/13/bits/stl_algobase.h:1008:     }
	nop	
	leave	
	.cfi_def_cfa 7, 8
	ret	
	.cfi_endproc
.LFE11040:
	.size	_ZSt4fillIN9__gnu_cxx17__normal_iteratorIPiSt6vectorIiSaIiEEEEiEvT_S7_RKT0_, .-_ZSt4fillIN9__gnu_cxx17__normal_iteratorIPiSt6vectorIiSaIiEEEEiEvT_S7_RKT0_
	.section	.text._ZNSt14priority_queueISt4pairIiiESt6vectorIS1_SaIS1_EESt7greaterIS1_EEC2IS4_vEEv,"axG",@progbits,_ZNSt14priority_queueISt4pairIiiESt6vectorIS1_SaIS1_EESt7greaterIS1_EEC5IS4_vEEv,comdat
	.align 2
	.weak	_ZNSt14priority_queueISt4pairIiiESt6vectorIS1_SaIS1_EESt7greaterIS1_EEC2IS4_vEEv
	.type	_ZNSt14priority_queueISt4pairIiiESt6vectorIS1_SaIS1_EESt7greaterIS1_EEC2IS4_vEEv, @function
_ZNSt14priority_queueISt4pairIiiESt6vectorIS1_SaIS1_EESt7greaterIS1_EEC2IS4_vEEv:
.LFB11042:
	.cfi_startproc
	endbr64	
	push	rbp	#
	.cfi_def_cfa_offset 16
	.cfi_offset 6, -16
	mov	rbp, rsp	#,
	.cfi_def_cfa_register 6
	sub	rsp, 16	#,
	mov	QWORD PTR -8[rbp], rdi	# this, this
# /usr/include/c++/13/bits/stl_queue.h:557: 	: c(), comp() { }
	mov	rax, QWORD PTR -8[rbp]	# tmp84, this
	pxor	xmm0, xmm0	# tmp85
	movups	XMMWORD PTR [rax], xmm0	# this_4(D)->c, tmp85
	movq	QWORD PTR 16[rax], xmm0	# this_4(D)->c, tmp85
	mov	rax, QWORD PTR -8[rbp]	# _1, this
	mov	rdi, rax	#, _1
	call	_ZNSt6vectorISt4pairIiiESaIS1_EEC1Ev	#
# /usr/include/c++/13/bits/stl_queue.h:557: 	: c(), comp() { }
	nop	
	leave	
	.cfi_def_cfa 7, 8
	ret	
	.cfi_endproc
.LFE11042:
	.size	_ZNSt14priority_queueISt4pairIiiESt6vectorIS1_SaIS1_EESt7greaterIS1_EEC2IS4_vEEv, .-_ZNSt14priority_queueISt4pairIiiESt6vectorIS1_SaIS1_EESt7greaterIS1_EEC2IS4_vEEv
	.weak	_ZNSt14priority_queueISt4pairIiiESt6vectorIS1_SaIS1_EESt7greaterIS1_EEC1IS4_vEEv
	.set	_ZNSt14priority_queueISt4pairIiiESt6vectorIS1_SaIS1_EESt7greaterIS1_EEC1IS4_vEEv,_ZNSt14priority_queueISt4pairIiiESt6vectorIS1_SaIS1_EESt7greaterIS1_EEC2IS4_vEEv
	.section	.text._ZNSt4pairIiiEC2IiRiLb1EEEOT_OT0_,"axG",@progbits,_ZNSt4pairIiiEC5IiRiLb1EEEOT_OT0_,comdat
	.align 2
	.weak	_ZNSt4pairIiiEC2IiRiLb1EEEOT_OT0_
	.type	_ZNSt4pairIiiEC2IiRiLb1EEEOT_OT0_, @function
_ZNSt4pairIiiEC2IiRiLb1EEEOT_OT0_:
.LFB11045:
	.cfi_startproc
	endbr64	
	push	rbp	#
	.cfi_def_cfa_offset 16
	.cfi_offset 6, -16
	mov	rbp, rsp	#,
	.cfi_def_cfa_register 6
	sub	rsp, 32	#,
	mov	QWORD PTR -8[rbp], rdi	# this, this
	mov	QWORD PTR -16[rbp], rsi	# __x, __x
	mov	QWORD PTR -24[rbp], rdx	# __y, __y
# /usr/include/c++/13/bits/stl_pair.h:688: 	: first(std::forward<_U1>(__x)), second(std::forward<_U2>(__y))
	mov	rax, QWORD PTR -16[rbp]	# tmp86, __x
	mov	rdi, rax	#, tmp86
	call	_ZSt7forwardIiEOT_RNSt16remove_referenceIS0_E4typeE	#
# /usr/include/c++/13/bits/stl_pair.h:688: 	: first(std::forward<_U1>(__x)), second(std::forward<_U2>(__y))
	mov	edx, DWORD PTR [rax]	# _2, *_1
	mov	rax, QWORD PTR -8[rbp]	# tmp87, this
	mov	DWORD PTR [rax], edx	# this_6(D)->first, _2
# /usr/include/c++/13/bits/stl_pair.h:688: 	: first(std::forward<_U1>(__x)), second(std::forward<_U2>(__y))
	mov	rax, QWORD PTR -24[rbp]	# tmp88, __y
	mov	rdi, rax	#, tmp88
	call	_ZSt7forwardIRiEOT_RNSt16remove_referenceIS1_E4typeE	#
# /usr/include/c++/13/bits/stl_pair.h:688: 	: first(std::forward<_U1>(__x)), second(std::forward<_U2>(__y))
	mov	edx, DWORD PTR [rax]	# _4, *_3
	mov	rax, QWORD PTR -8[rbp]	# tmp89, this
	mov	DWORD PTR 4[rax], edx	# this_6(D)->second, _4
# /usr/include/c++/13/bits/stl_pair.h:689: 	{ __glibcxx_no_dangling_refs(_U1&&, _U2&&); }
	nop	
	leave	
	.cfi_def_cfa 7, 8
	ret	
	.cfi_endproc
.LFE11045:
	.size	_ZNSt4pairIiiEC2IiRiLb1EEEOT_OT0_, .-_ZNSt4pairIiiEC2IiRiLb1EEEOT_OT0_
	.weak	_ZNSt4pairIiiEC1IiRiLb1EEEOT_OT0_
	.set	_ZNSt4pairIiiEC1IiRiLb1EEEOT_OT0_,_ZNSt4pairIiiEC2IiRiLb1EEEOT_OT0_
	.section	.text._ZNSt14priority_queueISt4pairIiiESt6vectorIS1_SaIS1_EESt7greaterIS1_EE4pushEOS1_,"axG",@progbits,_ZNSt14priority_queueISt4pairIiiESt6vectorIS1_SaIS1_EESt7greaterIS1_EE4pushEOS1_,comdat
	.align 2
	.weak	_ZNSt14priority_queueISt4pairIiiESt6vectorIS1_SaIS1_EESt7greaterIS1_EE4pushEOS1_
	.type	_ZNSt14priority_queueISt4pairIiiESt6vectorIS1_SaIS1_EESt7greaterIS1_EE4pushEOS1_, @function
_ZNSt14priority_queueISt4pairIiiESt6vectorIS1_SaIS1_EESt7greaterIS1_EE4pushEOS1_:
.LFB11047:
	.cfi_startproc
	endbr64	
	push	rbp	#
	.cfi_def_cfa_offset 16
	.cfi_offset 6, -16
	mov	rbp, rsp	#,
	.cfi_def_cfa_register 6
	push	rbx	#
	sub	rsp, 24	#,
	.cfi_offset 3, -24
	mov	QWORD PTR -24[rbp], rdi	# this, this
	mov	QWORD PTR -32[rbp], rsi	# __x, __x
# /usr/include/c++/13/bits/stl_queue.h:748: 	c.push_back(std::move(__x));
	mov	rbx, QWORD PTR -24[rbp]	# _1, this
# /usr/include/c++/13/bits/stl_queue.h:748: 	c.push_back(std::move(__x));
	mov	rax, QWORD PTR -32[rbp]	# tmp89, __x
	mov	rdi, rax	#, tmp89
	call	_ZSt4moveIRSt4pairIiiEEONSt16remove_referenceIT_E4typeEOS4_	#
# /usr/include/c++/13/bits/stl_queue.h:748: 	c.push_back(std::move(__x));
	mov	rsi, rax	#, _2
	mov	rdi, rbx	#, _1
	call	_ZNSt6vectorISt4pairIiiESaIS1_EE9push_backEOS1_	#
# /usr/include/c++/13/bits/stl_queue.h:749: 	std::push_heap(c.begin(), c.end(), comp);
	mov	rax, QWORD PTR -24[rbp]	# _3, this
	mov	rdi, rax	#, _3
	call	_ZNSt6vectorISt4pairIiiESaIS1_EE3endEv	#
	mov	rbx, rax	# D.232706,
# /usr/include/c++/13/bits/stl_queue.h:749: 	std::push_heap(c.begin(), c.end(), comp);
	mov	rax, QWORD PTR -24[rbp]	# _4, this
	mov	rdi, rax	#, _4
	call	_ZNSt6vectorISt4pairIiiESaIS1_EE5beginEv	#
# /usr/include/c++/13/bits/stl_queue.h:749: 	std::push_heap(c.begin(), c.end(), comp);
	mov	rsi, rbx	#, D.232706
	mov	rdi, rax	#, D.232707
	call	_ZSt9push_heapIN9__gnu_cxx17__normal_iteratorIPSt4pairIiiESt6vectorIS3_SaIS3_EEEESt7greaterIS3_EEvT_SB_T0_	#
# /usr/include/c++/13/bits/stl_queue.h:750:       }
	nop	
	mov	rbx, QWORD PTR -8[rbp]	#,
	leave	
	.cfi_def_cfa 7, 8
	ret	
	.cfi_endproc
.LFE11047:
	.size	_ZNSt14priority_queueISt4pairIiiESt6vectorIS1_SaIS1_EESt7greaterIS1_EE4pushEOS1_, .-_ZNSt14priority_queueISt4pairIiiESt6vectorIS1_SaIS1_EESt7greaterIS1_EE4pushEOS1_
	.section	.text._ZNKSt14priority_queueISt4pairIiiESt6vectorIS1_SaIS1_EESt7greaterIS1_EE5emptyEv,"axG",@progbits,_ZNKSt14priority_queueISt4pairIiiESt6vectorIS1_SaIS1_EESt7greaterIS1_EE5emptyEv,comdat
	.align 2
	.weak	_ZNKSt14priority_queueISt4pairIiiESt6vectorIS1_SaIS1_EESt7greaterIS1_EE5emptyEv
	.type	_ZNKSt14priority_queueISt4pairIiiESt6vectorIS1_SaIS1_EESt7greaterIS1_EE5emptyEv, @function
_ZNKSt14priority_queueISt4pairIiiESt6vectorIS1_SaIS1_EESt7greaterIS1_EE5emptyEv:
.LFB11048:
	.cfi_startproc
	endbr64	
	push	rbp	#
	.cfi_def_cfa_offset 16
	.cfi_offset 6, -16
	mov	rbp, rsp	#,
	.cfi_def_cfa_register 6
	sub	rsp, 16	#,
	mov	QWORD PTR -8[rbp], rdi	# this, this
# /usr/include/c++/13/bits/stl_queue.h:709:       { return c.empty(); }
	mov	rax, QWORD PTR -8[rbp]	# _1, this
	mov	rdi, rax	#, _1
	call	_ZNKSt6vectorISt4pairIiiESaIS1_EE5emptyEv	#
# /usr/include/c++/13/bits/stl_queue.h:709:       { return c.empty(); }
	leave	
	.cfi_def_cfa 7, 8
	ret	
	.cfi_endproc
.LFE11048:
	.size	_ZNKSt14priority_queueISt4pairIiiESt6vectorIS1_SaIS1_EESt7greaterIS1_EE5emptyEv, .-_ZNKSt14priority_queueISt4pairIiiESt6vectorIS1_SaIS1_EESt7greaterIS1_EE5emptyEv
	.section	.text._ZNKSt14priority_queueISt4pairIiiESt6vectorIS1_SaIS1_EESt7greaterIS1_EE3topEv,"axG",@progbits,_ZNKSt14priority_queueISt4pairIiiESt6vectorIS1_SaIS1_EESt7greaterIS1_EE3topEv,comdat
	.align 2
	.weak	_ZNKSt14priority_queueISt4pairIiiESt6vectorIS1_SaIS1_EESt7greaterIS1_EE3topEv
	.type	_ZNKSt14priority_queueISt4pairIiiESt6vectorIS1_SaIS1_EESt7greaterIS1_EE3topEv, @function
_ZNKSt14priority_queueISt4pairIiiESt6vectorIS1_SaIS1_EESt7greaterIS1_EE3topEv:
.LFB11049:
	.cfi_startproc
	endbr64	
	push	rbp	#
	.cfi_def_cfa_offset 16
	.cfi_offset 6, -16
	mov	rbp, rsp	#,
	.cfi_def_cfa_register 6
	sub	rsp, 16	#,
	mov	QWORD PTR -8[rbp], rdi	# this, this
# /usr/include/c++/13/bits/stl_queue.h:726: 	return c.front();
	mov	rax, QWORD PTR -8[rbp]	# _1, this
	mov	rdi, rax	#, _1
	call	_ZNKSt6vectorISt4pairIiiESaIS1_EE5frontEv	#
# /usr/include/c++/13/bits/stl_queue.h:727:       }
	leave	
	.cfi_def_cfa 7, 8
	ret	
	.cfi_endproc
.LFE11049:
	.size	_ZNKSt14priority_queueISt4pairIiiESt6vectorIS1_SaIS1_EESt7greaterIS1_EE3topEv, .-_ZNKSt14priority_queueISt4pairIiiESt6vectorIS1_SaIS1_EESt7greaterIS1_EE3topEv
	.section	.text._ZNSt14priority_queueISt4pairIiiESt6vectorIS1_SaIS1_EESt7greaterIS1_EE3popEv,"axG",@progbits,_ZNSt14priority_queueISt4pairIiiESt6vectorIS1_SaIS1_EESt7greaterIS1_EE3popEv,comdat
	.align 2
	.weak	_ZNSt14priority_queueISt4pairIiiESt6vectorIS1_SaIS1_EESt7greaterIS1_EE3popEv
	.type	_ZNSt14priority_queueISt4pairIiiESt6vectorIS1_SaIS1_EESt7greaterIS1_EE3popEv, @function
_ZNSt14priority_queueISt4pairIiiESt6vectorIS1_SaIS1_EESt7greaterIS1_EE3popEv:
.LFB11050:
	.cfi_startproc
	endbr64	
	push	rbp	#
	.cfi_def_cfa_offset 16
	.cfi_offset 6, -16
	mov	rbp, rsp	#,
	.cfi_def_cfa_register 6
	push	rbx	#
	sub	rsp, 24	#,
	.cfi_offset 3, -24
	mov	QWORD PTR -24[rbp], rdi	# this, this
# /usr/include/c++/13/bits/stl_queue.h:776: 	std::pop_heap(c.begin(), c.end(), comp);
	mov	rax, QWORD PTR -24[rbp]	# _1, this
	mov	rdi, rax	#, _1
	call	_ZNSt6vectorISt4pairIiiESaIS1_EE3endEv	#
	mov	rbx, rax	# D.232625,
# /usr/include/c++/13/bits/stl_queue.h:776: 	std::pop_heap(c.begin(), c.end(), comp);
	mov	rax, QWORD PTR -24[rbp]	# _2, this
	mov	rdi, rax	#, _2
	call	_ZNSt6vectorISt4pairIiiESaIS1_EE5beginEv	#
# /usr/include/c++/13/bits/stl_queue.h:776: 	std::pop_heap(c.begin(), c.end(), comp);
	mov	rsi, rbx	#, D.232625
	mov	rdi, rax	#, D.232626
	call	_ZSt8pop_heapIN9__gnu_cxx17__normal_iteratorIPSt4pairIiiESt6vectorIS3_SaIS3_EEEESt7greaterIS3_EEvT_SB_T0_	#
# /usr/include/c++/13/bits/stl_queue.h:777: 	c.pop_back();
	mov	rax, QWORD PTR -24[rbp]	# _3, this
	mov	rdi, rax	#, _3
	call	_ZNSt6vectorISt4pairIiiESaIS1_EE8pop_backEv	#
# /usr/include/c++/13/bits/stl_queue.h:778:       }
	nop	
	mov	rbx, QWORD PTR -8[rbp]	#,
	leave	
	.cfi_def_cfa 7, 8
	ret	
	.cfi_endproc
.LFE11050:
	.size	_ZNSt14priority_queueISt4pairIiiESt6vectorIS1_SaIS1_EESt7greaterIS1_EE3popEv, .-_ZNSt14priority_queueISt4pairIiiESt6vectorIS1_SaIS1_EESt7greaterIS1_EE3popEv
	.section	.text._ZNSt6vectorIbSaIbEEixEm,"axG",@progbits,_ZNSt6vectorIbSaIbEEixEm,comdat
	.align 2
	.weak	_ZNSt6vectorIbSaIbEEixEm
	.type	_ZNSt6vectorIbSaIbEEixEm, @function
_ZNSt6vectorIbSaIbEEixEm:
.LFB11051:
	.cfi_startproc
	endbr64	
	push	rbp	#
	.cfi_def_cfa_offset 16
	.cfi_offset 6, -16
	mov	rbp, rsp	#,
	.cfi_def_cfa_register 6
	sub	rsp, 48	#,
	mov	QWORD PTR -40[rbp], rdi	# this, this
	mov	QWORD PTR -48[rbp], rsi	# __n, __n
# /usr/include/c++/13/bits/stl_bvector.h:1086:       operator[](size_type __n)
	mov	rax, QWORD PTR fs:40	# tmp89, MEM[(<address-space-1> long unsigned int *)40B]
	mov	QWORD PTR -8[rbp], rax	# D.233368, tmp89
	xor	eax, eax	# tmp89
# /usr/include/c++/13/bits/stl_bvector.h:1087:       { return begin()[__n]; }
	mov	rax, QWORD PTR -40[rbp]	# tmp85, this
	mov	rdi, rax	#, tmp85
	call	_ZNSt6vectorIbSaIbEE5beginEv	#
	mov	QWORD PTR -32[rbp], rax	# D.224812, tmp86
	mov	QWORD PTR -24[rbp], rdx	# D.224812,
# /usr/include/c++/13/bits/stl_bvector.h:1087:       { return begin()[__n]; }
	mov	rdx, QWORD PTR -48[rbp]	# __n.40_1, __n
	lea	rax, -32[rbp]	# tmp87,
	mov	rsi, rdx	#, __n.40_1
	mov	rdi, rax	#, tmp87
	call	_ZNKSt13_Bit_iteratorixEl	#
# /usr/include/c++/13/bits/stl_bvector.h:1087:       { return begin()[__n]; }
	mov	rcx, QWORD PTR -8[rbp]	# tmp90, D.233368
	sub	rcx, QWORD PTR fs:40	# tmp90, MEM[(<address-space-1> long unsigned int *)40B]
	je	.L199	#,
	call	__stack_chk_fail@PLT	#
.L199:
	leave	
	.cfi_def_cfa 7, 8
	ret	
	.cfi_endproc
.LFE11051:
	.size	_ZNSt6vectorIbSaIbEEixEm, .-_ZNSt6vectorIbSaIbEEixEm
	.section	.text._ZNSt6vectorISt4pairIiiESaIS1_EE5beginEv,"axG",@progbits,_ZNSt6vectorISt4pairIiiESaIS1_EE5beginEv,comdat
	.align 2
	.weak	_ZNSt6vectorISt4pairIiiESaIS1_EE5beginEv
	.type	_ZNSt6vectorISt4pairIiiESaIS1_EE5beginEv, @function
_ZNSt6vectorISt4pairIiiESaIS1_EE5beginEv:
.LFB11052:
	.cfi_startproc
	endbr64	
	push	rbp	#
	.cfi_def_cfa_offset 16
	.cfi_offset 6, -16
	mov	rbp, rsp	#,
	.cfi_def_cfa_register 6
	sub	rsp, 32	#,
	mov	QWORD PTR -24[rbp], rdi	# this, this
# /usr/include/c++/13/bits/stl_vector.h:873:       begin() _GLIBCXX_NOEXCEPT
	mov	rax, QWORD PTR fs:40	# tmp87, MEM[(<address-space-1> long unsigned int *)40B]
	mov	QWORD PTR -8[rbp], rax	# D.233369, tmp87
	xor	eax, eax	# tmp87
# /usr/include/c++/13/bits/stl_vector.h:874:       { return iterator(this->_M_impl._M_start); }
	mov	rdx, QWORD PTR -24[rbp]	# _1, this
# /usr/include/c++/13/bits/stl_vector.h:874:       { return iterator(this->_M_impl._M_start); }
	lea	rax, -16[rbp]	# tmp85,
	mov	rsi, rdx	#, _1
	mov	rdi, rax	#, tmp85
	call	_ZN9__gnu_cxx17__normal_iteratorIPSt4pairIiiESt6vectorIS2_SaIS2_EEEC1ERKS3_	#
# /usr/include/c++/13/bits/stl_vector.h:874:       { return iterator(this->_M_impl._M_start); }
	mov	rax, QWORD PTR -16[rbp]	# D.232437, D.224833
# /usr/include/c++/13/bits/stl_vector.h:874:       { return iterator(this->_M_impl._M_start); }
	mov	rdx, QWORD PTR -8[rbp]	# tmp88, D.233369
	sub	rdx, QWORD PTR fs:40	# tmp88, MEM[(<address-space-1> long unsigned int *)40B]
	je	.L202	#,
	call	__stack_chk_fail@PLT	#
.L202:
	leave	
	.cfi_def_cfa 7, 8
	ret	
	.cfi_endproc
.LFE11052:
	.size	_ZNSt6vectorISt4pairIiiESaIS1_EE5beginEv, .-_ZNSt6vectorISt4pairIiiESaIS1_EE5beginEv
	.section	.text._ZNSt6vectorISt4pairIiiESaIS1_EE3endEv,"axG",@progbits,_ZNSt6vectorISt4pairIiiESaIS1_EE3endEv,comdat
	.align 2
	.weak	_ZNSt6vectorISt4pairIiiESaIS1_EE3endEv
	.type	_ZNSt6vectorISt4pairIiiESaIS1_EE3endEv, @function
_ZNSt6vectorISt4pairIiiESaIS1_EE3endEv:
.LFB11053:
	.cfi_startproc
	endbr64	
	push	rbp	#
	.cfi_def_cfa_offset 16
	.cfi_offset 6, -16
	mov	rbp, rsp	#,
	.cfi_def_cfa_register 6
	sub	rsp, 32	#,
	mov	QWORD PTR -24[rbp], rdi	# this, this
# /usr/include/c++/13/bits/stl_vector.h:893:       end() _GLIBCXX_NOEXCEPT
	mov	rax, QWORD PTR fs:40	# tmp88, MEM[(<address-space-1> long unsigned int *)40B]
	mov	QWORD PTR -8[rbp], rax	# D.233370, tmp88
	xor	eax, eax	# tmp88
# /usr/include/c++/13/bits/stl_vector.h:894:       { return iterator(this->_M_impl._M_finish); }
	mov	rax, QWORD PTR -24[rbp]	# tmp85, this
	lea	rdx, 8[rax]	# _1,
# /usr/include/c++/13/bits/stl_vector.h:894:       { return iterator(this->_M_impl._M_finish); }
	lea	rax, -16[rbp]	# tmp86,
	mov	rsi, rdx	#, _1
	mov	rdi, rax	#, tmp86
	call	_ZN9__gnu_cxx17__normal_iteratorIPSt4pairIiiESt6vectorIS2_SaIS2_EEEC1ERKS3_	#
# /usr/include/c++/13/bits/stl_vector.h:894:       { return iterator(this->_M_impl._M_finish); }
	mov	rax, QWORD PTR -16[rbp]	# D.232406, D.224835
# /usr/include/c++/13/bits/stl_vector.h:894:       { return iterator(this->_M_impl._M_finish); }
	mov	rdx, QWORD PTR -8[rbp]	# tmp89, D.233370
	sub	rdx, QWORD PTR fs:40	# tmp89, MEM[(<address-space-1> long unsigned int *)40B]
	je	.L205	#,
	call	__stack_chk_fail@PLT	#
.L205:
	leave	
	.cfi_def_cfa 7, 8
	ret	
	.cfi_endproc
.LFE11053:
	.size	_ZNSt6vectorISt4pairIiiESaIS1_EE3endEv, .-_ZNSt6vectorISt4pairIiiESaIS1_EE3endEv
	.section	.text._ZN9__gnu_cxxneIPSt4pairIiiESt6vectorIS2_SaIS2_EEEEbRKNS_17__normal_iteratorIT_T0_EESC_,"axG",@progbits,_ZN9__gnu_cxxneIPSt4pairIiiESt6vectorIS2_SaIS2_EEEEbRKNS_17__normal_iteratorIT_T0_EESC_,comdat
	.weak	_ZN9__gnu_cxxneIPSt4pairIiiESt6vectorIS2_SaIS2_EEEEbRKNS_17__normal_iteratorIT_T0_EESC_
	.type	_ZN9__gnu_cxxneIPSt4pairIiiESt6vectorIS2_SaIS2_EEEEbRKNS_17__normal_iteratorIT_T0_EESC_, @function
_ZN9__gnu_cxxneIPSt4pairIiiESt6vectorIS2_SaIS2_EEEEbRKNS_17__normal_iteratorIT_T0_EESC_:
.LFB11054:
	.cfi_startproc
	endbr64	
	push	rbp	#
	.cfi_def_cfa_offset 16
	.cfi_offset 6, -16
	mov	rbp, rsp	#,
	.cfi_def_cfa_register 6
	push	rbx	#
	sub	rsp, 24	#,
	.cfi_offset 3, -24
	mov	QWORD PTR -24[rbp], rdi	# __lhs, __lhs
	mov	QWORD PTR -32[rbp], rsi	# __rhs, __rhs
# /usr/include/c++/13/bits/stl_iterator.h:1244:     { return __lhs.base() != __rhs.base(); }
	mov	rax, QWORD PTR -24[rbp]	# tmp88, __lhs
	mov	rdi, rax	#, tmp88
	call	_ZNK9__gnu_cxx17__normal_iteratorIPSt4pairIiiESt6vectorIS2_SaIS2_EEE4baseEv	#
# /usr/include/c++/13/bits/stl_iterator.h:1244:     { return __lhs.base() != __rhs.base(); }
	mov	rbx, QWORD PTR [rax]	# _2, *_1
# /usr/include/c++/13/bits/stl_iterator.h:1244:     { return __lhs.base() != __rhs.base(); }
	mov	rax, QWORD PTR -32[rbp]	# tmp89, __rhs
	mov	rdi, rax	#, tmp89
	call	_ZNK9__gnu_cxx17__normal_iteratorIPSt4pairIiiESt6vectorIS2_SaIS2_EEE4baseEv	#
# /usr/include/c++/13/bits/stl_iterator.h:1244:     { return __lhs.base() != __rhs.base(); }
	mov	rax, QWORD PTR [rax]	# _4, *_3
# /usr/include/c++/13/bits/stl_iterator.h:1244:     { return __lhs.base() != __rhs.base(); }
	cmp	rbx, rax	# _2, _4
	setne	al	#, _10
# /usr/include/c++/13/bits/stl_iterator.h:1244:     { return __lhs.base() != __rhs.base(); }
	mov	rbx, QWORD PTR -8[rbp]	#,
	leave	
	.cfi_def_cfa 7, 8
	ret	
	.cfi_endproc
.LFE11054:
	.size	_ZN9__gnu_cxxneIPSt4pairIiiESt6vectorIS2_SaIS2_EEEEbRKNS_17__normal_iteratorIT_T0_EESC_, .-_ZN9__gnu_cxxneIPSt4pairIiiESt6vectorIS2_SaIS2_EEEEbRKNS_17__normal_iteratorIT_T0_EESC_
	.section	.text._ZN9__gnu_cxx17__normal_iteratorIPSt4pairIiiESt6vectorIS2_SaIS2_EEEppEv,"axG",@progbits,_ZN9__gnu_cxx17__normal_iteratorIPSt4pairIiiESt6vectorIS2_SaIS2_EEEppEv,comdat
	.align 2
	.weak	_ZN9__gnu_cxx17__normal_iteratorIPSt4pairIiiESt6vectorIS2_SaIS2_EEEppEv
	.type	_ZN9__gnu_cxx17__normal_iteratorIPSt4pairIiiESt6vectorIS2_SaIS2_EEEppEv, @function
_ZN9__gnu_cxx17__normal_iteratorIPSt4pairIiiESt6vectorIS2_SaIS2_EEEppEv:
.LFB11055:
	.cfi_startproc
	endbr64	
	push	rbp	#
	.cfi_def_cfa_offset 16
	.cfi_offset 6, -16
	mov	rbp, rsp	#,
	.cfi_def_cfa_register 6
	mov	QWORD PTR -8[rbp], rdi	# this, this
# /usr/include/c++/13/bits/stl_iterator.h:1111: 	++_M_current;
	mov	rax, QWORD PTR -8[rbp]	# tmp86, this
	mov	rax, QWORD PTR [rax]	# _1, this_4(D)->_M_current
# /usr/include/c++/13/bits/stl_iterator.h:1111: 	++_M_current;
	lea	rdx, 8[rax]	# _2,
	mov	rax, QWORD PTR -8[rbp]	# tmp87, this
	mov	QWORD PTR [rax], rdx	# this_4(D)->_M_current, _2
# /usr/include/c++/13/bits/stl_iterator.h:1112: 	return *this;
	mov	rax, QWORD PTR -8[rbp]	# _6, this
# /usr/include/c++/13/bits/stl_iterator.h:1113:       }
	pop	rbp	#
	.cfi_def_cfa 7, 8
	ret	
	.cfi_endproc
.LFE11055:
	.size	_ZN9__gnu_cxx17__normal_iteratorIPSt4pairIiiESt6vectorIS2_SaIS2_EEEppEv, .-_ZN9__gnu_cxx17__normal_iteratorIPSt4pairIiiESt6vectorIS2_SaIS2_EEEppEv
	.section	.text._ZNK9__gnu_cxx17__normal_iteratorIPSt4pairIiiESt6vectorIS2_SaIS2_EEEdeEv,"axG",@progbits,_ZNK9__gnu_cxx17__normal_iteratorIPSt4pairIiiESt6vectorIS2_SaIS2_EEEdeEv,comdat
	.align 2
	.weak	_ZNK9__gnu_cxx17__normal_iteratorIPSt4pairIiiESt6vectorIS2_SaIS2_EEEdeEv
	.type	_ZNK9__gnu_cxx17__normal_iteratorIPSt4pairIiiESt6vectorIS2_SaIS2_EEEdeEv, @function
_ZNK9__gnu_cxx17__normal_iteratorIPSt4pairIiiESt6vectorIS2_SaIS2_EEEdeEv:
.LFB11056:
	.cfi_startproc
	endbr64	
	push	rbp	#
	.cfi_def_cfa_offset 16
	.cfi_offset 6, -16
	mov	rbp, rsp	#,
	.cfi_def_cfa_register 6
	mov	QWORD PTR -8[rbp], rdi	# this, this
# /usr/include/c++/13/bits/stl_iterator.h:1100:       { return *_M_current; }
	mov	rax, QWORD PTR -8[rbp]	# tmp84, this
	mov	rax, QWORD PTR [rax]	# _3, this_2(D)->_M_current
# /usr/include/c++/13/bits/stl_iterator.h:1100:       { return *_M_current; }
	pop	rbp	#
	.cfi_def_cfa 7, 8
	ret	
	.cfi_endproc
.LFE11056:
	.size	_ZNK9__gnu_cxx17__normal_iteratorIPSt4pairIiiESt6vectorIS2_SaIS2_EEEdeEv, .-_ZNK9__gnu_cxx17__normal_iteratorIPSt4pairIiiESt6vectorIS2_SaIS2_EEEdeEv
	.section	.text._ZNSt12_Vector_baseIiSaIiEE12_Vector_implC2Ev,"axG",@progbits,_ZNSt12_Vector_baseIiSaIiEE12_Vector_implC5Ev,comdat
	.align 2
	.weak	_ZNSt12_Vector_baseIiSaIiEE12_Vector_implC2Ev
	.type	_ZNSt12_Vector_baseIiSaIiEE12_Vector_implC2Ev, @function
_ZNSt12_Vector_baseIiSaIiEE12_Vector_implC2Ev:
.LFB11059:
	.cfi_startproc
	endbr64	
	push	rbp	#
	.cfi_def_cfa_offset 16
	.cfi_offset 6, -16
	mov	rbp, rsp	#,
	.cfi_def_cfa_register 6
	sub	rsp, 32	#,
	mov	QWORD PTR -24[rbp], rdi	# this, this
	mov	rax, QWORD PTR -24[rbp]	# tmp83, this
	mov	QWORD PTR -16[rbp], rax	# this, tmp83
	mov	rax, QWORD PTR -16[rbp]	# tmp84, this
	mov	QWORD PTR -8[rbp], rax	# this, tmp84
# /usr/include/c++/13/bits/new_allocator.h:88:       __new_allocator() _GLIBCXX_USE_NOEXCEPT { }
	nop	
# /usr/include/c++/13/bits/allocator.h:163:       allocator() _GLIBCXX_NOTHROW { }
	nop	
# /usr/include/c++/13/bits/stl_vector.h:142: 	: _Tp_alloc_type()
	mov	rax, QWORD PTR -24[rbp]	# _1, this
	mov	rdi, rax	#, _1
	call	_ZNSt12_Vector_baseIiSaIiEE17_Vector_impl_dataC2Ev	#
# /usr/include/c++/13/bits/stl_vector.h:143: 	{ }
	nop	
	leave	
	.cfi_def_cfa 7, 8
	ret	
	.cfi_endproc
.LFE11059:
	.size	_ZNSt12_Vector_baseIiSaIiEE12_Vector_implC2Ev, .-_ZNSt12_Vector_baseIiSaIiEE12_Vector_implC2Ev
	.weak	_ZNSt12_Vector_baseIiSaIiEE12_Vector_implC1Ev
	.set	_ZNSt12_Vector_baseIiSaIiEE12_Vector_implC1Ev,_ZNSt12_Vector_baseIiSaIiEE12_Vector_implC2Ev
	.section	.text._ZNSt6vectorIiSaIiEE9push_backERKi,"axG",@progbits,_ZNSt6vectorIiSaIiEE9push_backERKi,comdat
	.align 2
	.weak	_ZNSt6vectorIiSaIiEE9push_backERKi
	.type	_ZNSt6vectorIiSaIiEE9push_backERKi, @function
_ZNSt6vectorIiSaIiEE9push_backERKi:
.LFB11061:
	.cfi_startproc
	endbr64	
	push	rbp	#
	.cfi_def_cfa_offset 16
	.cfi_offset 6, -16
	mov	rbp, rsp	#,
	.cfi_def_cfa_register 6
	push	rbx	#
	sub	rsp, 72	#,
	.cfi_offset 3, -24
	mov	QWORD PTR -72[rbp], rdi	# this, this
	mov	QWORD PTR -80[rbp], rsi	# __x, __x
# /usr/include/c++/13/bits/stl_vector.h:1283: 	if (this->_M_impl._M_finish != this->_M_impl._M_end_of_storage)
	mov	rax, QWORD PTR -72[rbp]	# tmp96, this
	mov	rdx, QWORD PTR 8[rax]	# _1, this_9(D)->D.188304._M_impl.D.187644._M_finish
# /usr/include/c++/13/bits/stl_vector.h:1283: 	if (this->_M_impl._M_finish != this->_M_impl._M_end_of_storage)
	mov	rax, QWORD PTR -72[rbp]	# tmp97, this
	mov	rax, QWORD PTR 16[rax]	# _2, this_9(D)->D.188304._M_impl.D.187644._M_end_of_storage
# /usr/include/c++/13/bits/stl_vector.h:1283: 	if (this->_M_impl._M_finish != this->_M_impl._M_end_of_storage)
	cmp	rdx, rax	# _1, _2
	je	.L214	#,
# /usr/include/c++/13/bits/stl_vector.h:1286: 	    _Alloc_traits::construct(this->_M_impl, this->_M_impl._M_finish,
	mov	rax, QWORD PTR -72[rbp]	# tmp98, this
	mov	rax, QWORD PTR 8[rax]	# _3, this_9(D)->D.188304._M_impl.D.187644._M_finish
# /usr/include/c++/13/bits/stl_vector.h:1286: 	    _Alloc_traits::construct(this->_M_impl, this->_M_impl._M_finish,
	mov	rdx, QWORD PTR -72[rbp]	# _4, this
	mov	QWORD PTR -64[rbp], rdx	# __a, _4
	mov	QWORD PTR -56[rbp], rax	# __p, _3
	mov	rax, QWORD PTR -80[rbp]	# tmp99, __x
	mov	QWORD PTR -48[rbp], rax	# __args#0, tmp99
# /usr/include/c++/13/bits/alloc_traits.h:538: 	  __a.construct(__p, std::forward<_Args>(__args)...);
	mov	rax, QWORD PTR -48[rbp]	# tmp100, __args#0
	mov	rdi, rax	#, tmp100
	call	_ZSt7forwardIRKiEOT_RNSt16remove_referenceIS2_E4typeE	#
	mov	rdx, QWORD PTR -64[rbp]	# tmp101, __a
	mov	QWORD PTR -40[rbp], rdx	# this, tmp101
	mov	rdx, QWORD PTR -56[rbp]	# tmp102, __p
	mov	QWORD PTR -32[rbp], rdx	# __p, tmp102
	mov	QWORD PTR -24[rbp], rax	# __args#0, _17
# /usr/include/c++/13/bits/new_allocator.h:191: 	{ ::new((void *)__p) _Up(std::forward<_Args>(__args)...); }
	mov	rax, QWORD PTR -32[rbp]	# _21, __p
# /usr/include/c++/13/bits/new_allocator.h:191: 	{ ::new((void *)__p) _Up(std::forward<_Args>(__args)...); }
	mov	rsi, rax	#, _21
	mov	edi, 4	#,
	call	_ZnwmPv	#
	mov	rbx, rax	# _22,
# /usr/include/c++/13/bits/new_allocator.h:191: 	{ ::new((void *)__p) _Up(std::forward<_Args>(__args)...); }
	mov	rax, QWORD PTR -24[rbp]	# tmp103, __args#0
	mov	rdi, rax	#, tmp103
	call	_ZSt7forwardIRKiEOT_RNSt16remove_referenceIS2_E4typeE	#
# /usr/include/c++/13/bits/new_allocator.h:191: 	{ ::new((void *)__p) _Up(std::forward<_Args>(__args)...); }
	mov	eax, DWORD PTR [rax]	# _25, *_24
	mov	DWORD PTR [rbx], eax	# MEM[(int *)_22], _25
# /usr/include/c++/13/bits/new_allocator.h:191: 	{ ::new((void *)__p) _Up(std::forward<_Args>(__args)...); }
	nop	
# /usr/include/c++/13/bits/alloc_traits.h:542: 	}
	nop	
# /usr/include/c++/13/bits/stl_vector.h:1288: 	    ++this->_M_impl._M_finish;
	mov	rax, QWORD PTR -72[rbp]	# tmp104, this
	mov	rax, QWORD PTR 8[rax]	# _5, this_9(D)->D.188304._M_impl.D.187644._M_finish
# /usr/include/c++/13/bits/stl_vector.h:1288: 	    ++this->_M_impl._M_finish;
	lea	rdx, 4[rax]	# _6,
	mov	rax, QWORD PTR -72[rbp]	# tmp105, this
	mov	QWORD PTR 8[rax], rdx	# this_9(D)->D.188304._M_impl.D.187644._M_finish, _6
# /usr/include/c++/13/bits/stl_vector.h:1293:       }
	jmp	.L216	#
.L214:
# /usr/include/c++/13/bits/stl_vector.h:1292: 	  _M_realloc_insert(end(), __x);
	mov	rax, QWORD PTR -72[rbp]	# tmp106, this
	mov	rdi, rax	#, tmp106
	call	_ZNSt6vectorIiSaIiEE3endEv	#
	mov	rcx, rax	# D.232739,
# /usr/include/c++/13/bits/stl_vector.h:1292: 	  _M_realloc_insert(end(), __x);
	mov	rdx, QWORD PTR -80[rbp]	# tmp107, __x
	mov	rax, QWORD PTR -72[rbp]	# tmp108, this
	mov	rsi, rcx	#, D.232739
	mov	rdi, rax	#, tmp108
	call	_ZNSt6vectorIiSaIiEE17_M_realloc_insertIJRKiEEEvN9__gnu_cxx17__normal_iteratorIPiS1_EEDpOT_	#
.L216:
# /usr/include/c++/13/bits/stl_vector.h:1293:       }
	nop	
	mov	rbx, QWORD PTR -8[rbp]	#,
	leave	
	.cfi_def_cfa 7, 8
	ret	
	.cfi_endproc
.LFE11061:
	.size	_ZNSt6vectorIiSaIiEE9push_backERKi, .-_ZNSt6vectorIiSaIiEE9push_backERKi
	.section	.text._ZNKSt6vectorIiSaIiEE4sizeEv,"axG",@progbits,_ZNKSt6vectorIiSaIiEE4sizeEv,comdat
	.align 2
	.weak	_ZNKSt6vectorIiSaIiEE4sizeEv
	.type	_ZNKSt6vectorIiSaIiEE4sizeEv, @function
_ZNKSt6vectorIiSaIiEE4sizeEv:
.LFB11062:
	.cfi_startproc
	endbr64	
	push	rbp	#
	.cfi_def_cfa_offset 16
	.cfi_offset 6, -16
	mov	rbp, rsp	#,
	.cfi_def_cfa_register 6
	mov	QWORD PTR -8[rbp], rdi	# this, this
# /usr/include/c++/13/bits/stl_vector.h:993:       { return size_type(this->_M_impl._M_finish - this->_M_impl._M_start); }
	mov	rax, QWORD PTR -8[rbp]	# tmp88, this
	mov	rdx, QWORD PTR 8[rax]	# _1, this_6(D)->D.188304._M_impl.D.187644._M_finish
# /usr/include/c++/13/bits/stl_vector.h:993:       { return size_type(this->_M_impl._M_finish - this->_M_impl._M_start); }
	mov	rax, QWORD PTR -8[rbp]	# tmp89, this
	mov	rax, QWORD PTR [rax]	# _2, this_6(D)->D.188304._M_impl.D.187644._M_start
# /usr/include/c++/13/bits/stl_vector.h:993:       { return size_type(this->_M_impl._M_finish - this->_M_impl._M_start); }
	sub	rdx, rax	# _3, _2
	mov	rax, rdx	# _3, _3
	sar	rax, 2	# _3,
# /usr/include/c++/13/bits/stl_vector.h:993:       { return size_type(this->_M_impl._M_finish - this->_M_impl._M_start); }
	pop	rbp	#
	.cfi_def_cfa 7, 8
	ret	
	.cfi_endproc
.LFE11062:
	.size	_ZNKSt6vectorIiSaIiEE4sizeEv, .-_ZNKSt6vectorIiSaIiEE4sizeEv
	.section	.text._ZSt8_DestroyIPSt4pairIiiEEvT_S3_,"axG",@progbits,_ZSt8_DestroyIPSt4pairIiiEEvT_S3_,comdat
	.weak	_ZSt8_DestroyIPSt4pairIiiEEvT_S3_
	.type	_ZSt8_DestroyIPSt4pairIiiEEvT_S3_, @function
_ZSt8_DestroyIPSt4pairIiiEEvT_S3_:
.LFB11278:
	.cfi_startproc
	endbr64	
	push	rbp	#
	.cfi_def_cfa_offset 16
	.cfi_offset 6, -16
	mov	rbp, rsp	#,
	.cfi_def_cfa_register 6
	sub	rsp, 16	#,
	mov	QWORD PTR -8[rbp], rdi	# __first, __first
	mov	QWORD PTR -16[rbp], rsi	# __last, __last
# /usr/include/c++/13/bits/stl_construct.h:196: 	__destroy(__first, __last);
	mov	rdx, QWORD PTR -16[rbp]	# tmp82, __last
	mov	rax, QWORD PTR -8[rbp]	# tmp83, __first
	mov	rsi, rdx	#, tmp82
	mov	rdi, rax	#, tmp83
	call	_ZNSt12_Destroy_auxILb1EE9__destroyIPSt4pairIiiEEEvT_S5_	#
# /usr/include/c++/13/bits/stl_construct.h:197:     }
	nop	
	leave	
	.cfi_def_cfa 7, 8
	ret	
	.cfi_endproc
.LFE11278:
	.size	_ZSt8_DestroyIPSt4pairIiiEEvT_S3_, .-_ZSt8_DestroyIPSt4pairIiiEEvT_S3_
	.section	.text._ZNSt6vectorIS_ISt4pairIiiESaIS1_EESaIS3_EE11_S_max_sizeERKS4_,"axG",@progbits,_ZNSt6vectorIS_ISt4pairIiiESaIS1_EESaIS3_EE11_S_max_sizeERKS4_,comdat
	.weak	_ZNSt6vectorIS_ISt4pairIiiESaIS1_EESaIS3_EE11_S_max_sizeERKS4_
	.type	_ZNSt6vectorIS_ISt4pairIiiESaIS1_EESaIS3_EE11_S_max_sizeERKS4_, @function
_ZNSt6vectorIS_ISt4pairIiiESaIS1_EESaIS3_EE11_S_max_sizeERKS4_:
.LFB11279:
	.cfi_startproc
	endbr64	
	push	rbp	#
	.cfi_def_cfa_offset 16
	.cfi_offset 6, -16
	mov	rbp, rsp	#,
	.cfi_def_cfa_register 6
	sub	rsp, 64	#,
	mov	QWORD PTR -56[rbp], rdi	# __a, __a
# /usr/include/c++/13/bits/stl_vector.h:1916:       _S_max_size(const _Tp_alloc_type& __a) _GLIBCXX_NOEXCEPT
	mov	rax, QWORD PTR fs:40	# tmp92, MEM[(<address-space-1> long unsigned int *)40B]
	mov	QWORD PTR -8[rbp], rax	# D.233371, tmp92
	xor	eax, eax	# tmp92
# /usr/include/c++/13/bits/stl_vector.h:1921: 	const size_t __diffmax
	movabs	rax, 384307168202282325	# tmp95,
	mov	QWORD PTR -48[rbp], rax	# __diffmax, tmp95
	mov	rax, QWORD PTR -56[rbp]	# tmp86, __a
	mov	QWORD PTR -32[rbp], rax	# __a, tmp86
	mov	rax, QWORD PTR -32[rbp]	# tmp87, __a
	mov	QWORD PTR -24[rbp], rax	# this, tmp87
	mov	rax, QWORD PTR -24[rbp]	# tmp88, this
	mov	QWORD PTR -16[rbp], rax	# this, tmp88
# /usr/include/c++/13/bits/new_allocator.h:233: 	return std::size_t(__PTRDIFF_MAX__) / sizeof(_Tp);
	movabs	rax, 384307168202282325	# D.233159,
# /usr/include/c++/13/bits/new_allocator.h:183:       { return _M_max_size(); }
	nop	
# /usr/include/c++/13/bits/alloc_traits.h:574: 	return __a.max_size();
	nop	
# /usr/include/c++/13/bits/stl_vector.h:1923: 	const size_t __allocmax = _Alloc_traits::max_size(__a);
	mov	QWORD PTR -40[rbp], rax	# __allocmax, D.233159
# /usr/include/c++/13/bits/stl_vector.h:1924: 	return (std::min)(__diffmax, __allocmax);
	lea	rdx, -40[rbp]	# tmp89,
	lea	rax, -48[rbp]	# tmp90,
	mov	rsi, rdx	#, tmp89
	mov	rdi, rax	#, tmp90
	call	_ZSt3minImERKT_S2_S2_	#
# /usr/include/c++/13/bits/stl_vector.h:1924: 	return (std::min)(__diffmax, __allocmax);
	mov	rax, QWORD PTR [rax]	# _8, *_2
# /usr/include/c++/13/bits/stl_vector.h:1925:       }
	mov	rdx, QWORD PTR -8[rbp]	# tmp93, D.233371
	sub	rdx, QWORD PTR fs:40	# tmp93, MEM[(<address-space-1> long unsigned int *)40B]
	je	.L225	#,
	call	__stack_chk_fail@PLT	#
.L225:
	leave	
	.cfi_def_cfa 7, 8
	ret	
	.cfi_endproc
.LFE11279:
	.size	_ZNSt6vectorIS_ISt4pairIiiESaIS1_EESaIS3_EE11_S_max_sizeERKS4_, .-_ZNSt6vectorIS_ISt4pairIiiESaIS1_EESaIS3_EE11_S_max_sizeERKS4_
	.section	.text._ZNSt12_Vector_baseISt6vectorISt4pairIiiESaIS2_EESaIS4_EE12_Vector_implC2ERKS5_,"axG",@progbits,_ZNSt12_Vector_baseISt6vectorISt4pairIiiESaIS2_EESaIS4_EE12_Vector_implC5ERKS5_,comdat
	.align 2
	.weak	_ZNSt12_Vector_baseISt6vectorISt4pairIiiESaIS2_EESaIS4_EE12_Vector_implC2ERKS5_
	.type	_ZNSt12_Vector_baseISt6vectorISt4pairIiiESaIS2_EESaIS4_EE12_Vector_implC2ERKS5_, @function
_ZNSt12_Vector_baseISt6vectorISt4pairIiiESaIS2_EESaIS4_EE12_Vector_implC2ERKS5_:
.LFB11284:
	.cfi_startproc
	endbr64	
	push	rbp	#
	.cfi_def_cfa_offset 16
	.cfi_offset 6, -16
	mov	rbp, rsp	#,
	.cfi_def_cfa_register 6
	sub	rsp, 48	#,
	mov	QWORD PTR -40[rbp], rdi	# this, this
	mov	QWORD PTR -48[rbp], rsi	# __a, __a
	mov	rax, QWORD PTR -40[rbp]	# tmp83, this
	mov	QWORD PTR -32[rbp], rax	# this, tmp83
	mov	rax, QWORD PTR -48[rbp]	# tmp84, __a
	mov	QWORD PTR -24[rbp], rax	# __a, tmp84
	mov	rax, QWORD PTR -32[rbp]	# tmp85, this
	mov	QWORD PTR -16[rbp], rax	# this, tmp85
	mov	rax, QWORD PTR -24[rbp]	# tmp86, __a
	mov	QWORD PTR -8[rbp], rax	# D.233067, tmp86
# /usr/include/c++/13/bits/new_allocator.h:92:       __new_allocator(const __new_allocator&) _GLIBCXX_USE_NOEXCEPT { }
	nop	
# /usr/include/c++/13/bits/allocator.h:168:       : __allocator_base<_Tp>(__a) { }
	nop	
# /usr/include/c++/13/bits/stl_vector.h:147: 	: _Tp_alloc_type(__a)
	mov	rax, QWORD PTR -40[rbp]	# _1, this
	mov	rdi, rax	#, _1
	call	_ZNSt12_Vector_baseISt6vectorISt4pairIiiESaIS2_EESaIS4_EE17_Vector_impl_dataC2Ev	#
# /usr/include/c++/13/bits/stl_vector.h:148: 	{ }
	nop	
	leave	
	.cfi_def_cfa 7, 8
	ret	
	.cfi_endproc
.LFE11284:
	.size	_ZNSt12_Vector_baseISt6vectorISt4pairIiiESaIS2_EESaIS4_EE12_Vector_implC2ERKS5_, .-_ZNSt12_Vector_baseISt6vectorISt4pairIiiESaIS2_EESaIS4_EE12_Vector_implC2ERKS5_
	.weak	_ZNSt12_Vector_baseISt6vectorISt4pairIiiESaIS2_EESaIS4_EE12_Vector_implC1ERKS5_
	.set	_ZNSt12_Vector_baseISt6vectorISt4pairIiiESaIS2_EESaIS4_EE12_Vector_implC1ERKS5_,_ZNSt12_Vector_baseISt6vectorISt4pairIiiESaIS2_EESaIS4_EE12_Vector_implC2ERKS5_
	.section	.text._ZNSt12_Vector_baseISt6vectorISt4pairIiiESaIS2_EESaIS4_EE17_M_create_storageEm,"axG",@progbits,_ZNSt12_Vector_baseISt6vectorISt4pairIiiESaIS2_EESaIS4_EE17_M_create_storageEm,comdat
	.align 2
	.weak	_ZNSt12_Vector_baseISt6vectorISt4pairIiiESaIS2_EESaIS4_EE17_M_create_storageEm
	.type	_ZNSt12_Vector_baseISt6vectorISt4pairIiiESaIS2_EESaIS4_EE17_M_create_storageEm, @function
_ZNSt12_Vector_baseISt6vectorISt4pairIiiESaIS2_EESaIS4_EE17_M_create_storageEm:
.LFB11286:
	.cfi_startproc
	endbr64	
	push	rbp	#
	.cfi_def_cfa_offset 16
	.cfi_offset 6, -16
	mov	rbp, rsp	#,
	.cfi_def_cfa_register 6
	sub	rsp, 16	#,
	mov	QWORD PTR -8[rbp], rdi	# this, this
	mov	QWORD PTR -16[rbp], rsi	# __n, __n
# /usr/include/c++/13/bits/stl_vector.h:398: 	this->_M_impl._M_start = this->_M_allocate(__n);
	mov	rdx, QWORD PTR -16[rbp]	# tmp87, __n
	mov	rax, QWORD PTR -8[rbp]	# tmp88, this
	mov	rsi, rdx	#, tmp87
	mov	rdi, rax	#, tmp88
	call	_ZNSt12_Vector_baseISt6vectorISt4pairIiiESaIS2_EESaIS4_EE11_M_allocateEm	#
# /usr/include/c++/13/bits/stl_vector.h:398: 	this->_M_impl._M_start = this->_M_allocate(__n);
	mov	rdx, QWORD PTR -8[rbp]	# tmp89, this
	mov	QWORD PTR [rdx], rax	# this_7(D)->_M_impl.D.208581._M_start, _1
# /usr/include/c++/13/bits/stl_vector.h:399: 	this->_M_impl._M_finish = this->_M_impl._M_start;
	mov	rax, QWORD PTR -8[rbp]	# tmp90, this
	mov	rdx, QWORD PTR [rax]	# _2, this_7(D)->_M_impl.D.208581._M_start
# /usr/include/c++/13/bits/stl_vector.h:399: 	this->_M_impl._M_finish = this->_M_impl._M_start;
	mov	rax, QWORD PTR -8[rbp]	# tmp91, this
	mov	QWORD PTR 8[rax], rdx	# this_7(D)->_M_impl.D.208581._M_finish, _2
# /usr/include/c++/13/bits/stl_vector.h:400: 	this->_M_impl._M_end_of_storage = this->_M_impl._M_start + __n;
	mov	rax, QWORD PTR -8[rbp]	# tmp92, this
	mov	rcx, QWORD PTR [rax]	# _3, this_7(D)->_M_impl.D.208581._M_start
# /usr/include/c++/13/bits/stl_vector.h:400: 	this->_M_impl._M_end_of_storage = this->_M_impl._M_start + __n;
	mov	rdx, QWORD PTR -16[rbp]	# tmp93, __n
	mov	rax, rdx	# tmp94, tmp93
	add	rax, rax	# tmp94
	add	rax, rdx	# tmp94, tmp93
	sal	rax, 3	# tmp95,
	lea	rdx, [rcx+rax]	# _5,
# /usr/include/c++/13/bits/stl_vector.h:400: 	this->_M_impl._M_end_of_storage = this->_M_impl._M_start + __n;
	mov	rax, QWORD PTR -8[rbp]	# tmp96, this
	mov	QWORD PTR 16[rax], rdx	# this_7(D)->_M_impl.D.208581._M_end_of_storage, _5
# /usr/include/c++/13/bits/stl_vector.h:401:       }
	nop	
	leave	
	.cfi_def_cfa 7, 8
	ret	
	.cfi_endproc
.LFE11286:
	.size	_ZNSt12_Vector_baseISt6vectorISt4pairIiiESaIS2_EESaIS4_EE17_M_create_storageEm, .-_ZNSt12_Vector_baseISt6vectorISt4pairIiiESaIS2_EESaIS4_EE17_M_create_storageEm
	.section	.text._ZNSt12_Vector_baseISt6vectorISt4pairIiiESaIS2_EESaIS4_EE13_M_deallocateEPS4_m,"axG",@progbits,_ZNSt12_Vector_baseISt6vectorISt4pairIiiESaIS2_EESaIS4_EE13_M_deallocateEPS4_m,comdat
	.align 2
	.weak	_ZNSt12_Vector_baseISt6vectorISt4pairIiiESaIS2_EESaIS4_EE13_M_deallocateEPS4_m
	.type	_ZNSt12_Vector_baseISt6vectorISt4pairIiiESaIS2_EESaIS4_EE13_M_deallocateEPS4_m, @function
_ZNSt12_Vector_baseISt6vectorISt4pairIiiESaIS2_EESaIS4_EE13_M_deallocateEPS4_m:
.LFB11287:
	.cfi_startproc
	endbr64	
	push	rbp	#
	.cfi_def_cfa_offset 16
	.cfi_offset 6, -16
	mov	rbp, rsp	#,
	.cfi_def_cfa_register 6
	sub	rsp, 64	#,
	mov	QWORD PTR -40[rbp], rdi	# this, this
	mov	QWORD PTR -48[rbp], rsi	# __p, __p
	mov	QWORD PTR -56[rbp], rdx	# __n, __n
# /usr/include/c++/13/bits/stl_vector.h:389: 	if (__p)
	cmp	QWORD PTR -48[rbp], 0	# __p,
	je	.L230	#,
# /usr/include/c++/13/bits/stl_vector.h:390: 	  _Tr::deallocate(_M_impl, __p, __n);
	mov	rax, QWORD PTR -40[rbp]	# _1, this
	mov	QWORD PTR -24[rbp], rax	# __a, _1
	mov	rax, QWORD PTR -48[rbp]	# tmp83, __p
	mov	QWORD PTR -16[rbp], rax	# __p, tmp83
	mov	rax, QWORD PTR -56[rbp]	# tmp84, __n
	mov	QWORD PTR -8[rbp], rax	# __n, tmp84
# /usr/include/c++/13/bits/alloc_traits.h:517:       { __a.deallocate(__p, __n); }
	mov	rdx, QWORD PTR -8[rbp]	# tmp85, __n
	mov	rcx, QWORD PTR -16[rbp]	# tmp86, __p
	mov	rax, QWORD PTR -24[rbp]	# tmp87, __a
	mov	rsi, rcx	#, tmp86
	mov	rdi, rax	#, tmp87
	call	_ZNSt15__new_allocatorISt6vectorISt4pairIiiESaIS2_EEE10deallocateEPS4_m	#
# /usr/include/c++/13/bits/alloc_traits.h:517:       { __a.deallocate(__p, __n); }
	nop	
.L230:
# /usr/include/c++/13/bits/stl_vector.h:391:       }
	nop	
	leave	
	.cfi_def_cfa 7, 8
	ret	
	.cfi_endproc
.LFE11287:
	.size	_ZNSt12_Vector_baseISt6vectorISt4pairIiiESaIS2_EESaIS4_EE13_M_deallocateEPS4_m, .-_ZNSt12_Vector_baseISt6vectorISt4pairIiiESaIS2_EESaIS4_EE13_M_deallocateEPS4_m
	.section	.text._ZSt24__uninitialized_fill_n_aIPSt6vectorISt4pairIiiESaIS2_EEmS4_S4_ET_S6_T0_RKT1_RSaIT2_E,"axG",@progbits,_ZSt24__uninitialized_fill_n_aIPSt6vectorISt4pairIiiESaIS2_EEmS4_S4_ET_S6_T0_RKT1_RSaIT2_E,comdat
	.weak	_ZSt24__uninitialized_fill_n_aIPSt6vectorISt4pairIiiESaIS2_EEmS4_S4_ET_S6_T0_RKT1_RSaIT2_E
	.type	_ZSt24__uninitialized_fill_n_aIPSt6vectorISt4pairIiiESaIS2_EEmS4_S4_ET_S6_T0_RKT1_RSaIT2_E, @function
_ZSt24__uninitialized_fill_n_aIPSt6vectorISt4pairIiiESaIS2_EEmS4_S4_ET_S6_T0_RKT1_RSaIT2_E:
.LFB11288:
	.cfi_startproc
	endbr64	
	push	rbp	#
	.cfi_def_cfa_offset 16
	.cfi_offset 6, -16
	mov	rbp, rsp	#,
	.cfi_def_cfa_register 6
	sub	rsp, 32	#,
	mov	QWORD PTR -8[rbp], rdi	# __first, __first
	mov	QWORD PTR -16[rbp], rsi	# __n, __n
	mov	QWORD PTR -24[rbp], rdx	# __x, __x
	mov	QWORD PTR -32[rbp], rcx	# D.226562, D.226562
# /usr/include/c++/13/bits/stl_uninitialized.h:472:       return std::uninitialized_fill_n(__first, __n, __x);
	mov	rdx, QWORD PTR -24[rbp]	# tmp84, __x
	mov	rcx, QWORD PTR -16[rbp]	# tmp85, __n
	mov	rax, QWORD PTR -8[rbp]	# tmp86, __first
	mov	rsi, rcx	#, tmp85
	mov	rdi, rax	#, tmp86
	call	_ZSt20uninitialized_fill_nIPSt6vectorISt4pairIiiESaIS2_EEmS4_ET_S6_T0_RKT1_	#
# /usr/include/c++/13/bits/stl_uninitialized.h:473:     }
	leave	
	.cfi_def_cfa 7, 8
	ret	
	.cfi_endproc
.LFE11288:
	.size	_ZSt24__uninitialized_fill_n_aIPSt6vectorISt4pairIiiESaIS2_EEmS4_S4_ET_S6_T0_RKT1_RSaIT2_E, .-_ZSt24__uninitialized_fill_n_aIPSt6vectorISt4pairIiiESaIS2_EEmS4_S4_ET_S6_T0_RKT1_RSaIT2_E
	.section	.text._ZSt8_DestroyIPSt6vectorISt4pairIiiESaIS2_EEEvT_S6_,"axG",@progbits,_ZSt8_DestroyIPSt6vectorISt4pairIiiESaIS2_EEEvT_S6_,comdat
	.weak	_ZSt8_DestroyIPSt6vectorISt4pairIiiESaIS2_EEEvT_S6_
	.type	_ZSt8_DestroyIPSt6vectorISt4pairIiiESaIS2_EEEvT_S6_, @function
_ZSt8_DestroyIPSt6vectorISt4pairIiiESaIS2_EEEvT_S6_:
.LFB11289:
	.cfi_startproc
	endbr64	
	push	rbp	#
	.cfi_def_cfa_offset 16
	.cfi_offset 6, -16
	mov	rbp, rsp	#,
	.cfi_def_cfa_register 6
	sub	rsp, 16	#,
	mov	QWORD PTR -8[rbp], rdi	# __first, __first
	mov	QWORD PTR -16[rbp], rsi	# __last, __last
# /usr/include/c++/13/bits/stl_construct.h:196: 	__destroy(__first, __last);
	mov	rdx, QWORD PTR -16[rbp]	# tmp82, __last
	mov	rax, QWORD PTR -8[rbp]	# tmp83, __first
	mov	rsi, rdx	#, tmp82
	mov	rdi, rax	#, tmp83
	call	_ZNSt12_Destroy_auxILb0EE9__destroyIPSt6vectorISt4pairIiiESaIS4_EEEEvT_S8_	#
# /usr/include/c++/13/bits/stl_construct.h:197:     }
	nop	
	leave	
	.cfi_def_cfa 7, 8
	ret	
	.cfi_endproc
.LFE11289:
	.size	_ZSt8_DestroyIPSt6vectorISt4pairIiiESaIS2_EEEvT_S6_, .-_ZSt8_DestroyIPSt6vectorISt4pairIiiESaIS2_EEEvT_S6_
	.section	.text._ZSt7forwardISt4pairIiiEEOT_RNSt16remove_referenceIS2_E4typeE,"axG",@progbits,_ZSt7forwardISt4pairIiiEEOT_RNSt16remove_referenceIS2_E4typeE,comdat
	.weak	_ZSt7forwardISt4pairIiiEEOT_RNSt16remove_referenceIS2_E4typeE
	.type	_ZSt7forwardISt4pairIiiEEOT_RNSt16remove_referenceIS2_E4typeE, @function
_ZSt7forwardISt4pairIiiEEOT_RNSt16remove_referenceIS2_E4typeE:
.LFB11290:
	.cfi_startproc
	endbr64	
	push	rbp	#
	.cfi_def_cfa_offset 16
	.cfi_offset 6, -16
	mov	rbp, rsp	#,
	.cfi_def_cfa_register 6
	mov	QWORD PTR -8[rbp], rdi	# __t, __t
# /usr/include/c++/13/bits/move.h:71:     { return static_cast<_Tp&&>(__t); }
	mov	rax, QWORD PTR -8[rbp]	# _2, __t
# /usr/include/c++/13/bits/move.h:71:     { return static_cast<_Tp&&>(__t); }
	pop	rbp	#
	.cfi_def_cfa 7, 8
	ret	
	.cfi_endproc
.LFE11290:
	.size	_ZSt7forwardISt4pairIiiEEOT_RNSt16remove_referenceIS2_E4typeE, .-_ZSt7forwardISt4pairIiiEEOT_RNSt16remove_referenceIS2_E4typeE
	.section	.rodata
.LC6:
	.string	"vector::_M_realloc_insert"
	.section	.text._ZNSt6vectorISt4pairIiiESaIS1_EE17_M_realloc_insertIJS1_EEEvN9__gnu_cxx17__normal_iteratorIPS1_S3_EEDpOT_,"axG",@progbits,_ZNSt6vectorISt4pairIiiESaIS1_EE17_M_realloc_insertIJS1_EEEvN9__gnu_cxx17__normal_iteratorIPS1_S3_EEDpOT_,comdat
	.align 2
	.weak	_ZNSt6vectorISt4pairIiiESaIS1_EE17_M_realloc_insertIJS1_EEEvN9__gnu_cxx17__normal_iteratorIPS1_S3_EEDpOT_
	.type	_ZNSt6vectorISt4pairIiiESaIS1_EE17_M_realloc_insertIJS1_EEEvN9__gnu_cxx17__normal_iteratorIPS1_S3_EEDpOT_, @function
_ZNSt6vectorISt4pairIiiESaIS1_EE17_M_realloc_insertIJS1_EEEvN9__gnu_cxx17__normal_iteratorIPS1_S3_EEDpOT_:
.LFB11292:
	.cfi_startproc
	endbr64	
	push	rbp	#
	.cfi_def_cfa_offset 16
	.cfi_offset 6, -16
	mov	rbp, rsp	#,
	.cfi_def_cfa_register 6
	push	rbx	#
	sub	rsp, 152	#,
	.cfi_offset 3, -24
	mov	QWORD PTR -136[rbp], rdi	# this, this
	mov	QWORD PTR -144[rbp], rsi	# __position, __position
	mov	QWORD PTR -152[rbp], rdx	# __args#0, __args#0
# /usr/include/c++/13/bits/vector.tcc:445:       vector<_Tp, _Alloc>::
	mov	rax, QWORD PTR fs:40	# tmp157, MEM[(<address-space-1> long unsigned int *)40B]
	mov	QWORD PTR -24[rbp], rax	# D.233372, tmp157
	xor	eax, eax	# tmp157
# /usr/include/c++/13/bits/vector.tcc:455: 	_M_check_len(size_type(1), "vector::_M_realloc_insert");
	mov	rax, QWORD PTR -136[rbp]	# tmp118, this
	lea	rdx, .LC6[rip]	# tmp119,
	mov	esi, 1	#,
	mov	rdi, rax	#, tmp118
	call	_ZNKSt6vectorISt4pairIiiESaIS1_EE12_M_check_lenEmPKc	#
# /usr/include/c++/13/bits/vector.tcc:455: 	_M_check_len(size_type(1), "vector::_M_realloc_insert");
	mov	QWORD PTR -120[rbp], rax	# __len, _32
# /usr/include/c++/13/bits/vector.tcc:456:       pointer __old_start = this->_M_impl._M_start;
	mov	rax, QWORD PTR -136[rbp]	# tmp120, this
	mov	rax, QWORD PTR [rax]	# tmp121, this_30(D)->D.210289._M_impl.D.209628._M_start
	mov	QWORD PTR -112[rbp], rax	# __old_start, tmp121
# /usr/include/c++/13/bits/vector.tcc:457:       pointer __old_finish = this->_M_impl._M_finish;
	mov	rax, QWORD PTR -136[rbp]	# tmp122, this
	mov	rax, QWORD PTR 8[rax]	# tmp123, this_30(D)->D.210289._M_impl.D.209628._M_finish
	mov	QWORD PTR -104[rbp], rax	# __old_finish, tmp123
# /usr/include/c++/13/bits/vector.tcc:458:       const size_type __elems_before = __position - begin();
	mov	rax, QWORD PTR -136[rbp]	# tmp124, this
	mov	rdi, rax	#, tmp124
	call	_ZNSt6vectorISt4pairIiiESaIS1_EE5beginEv	#
	mov	QWORD PTR -128[rbp], rax	# D.226735, tmp126
# /usr/include/c++/13/bits/vector.tcc:458:       const size_type __elems_before = __position - begin();
	lea	rdx, -128[rbp]	# tmp127,
	lea	rax, -144[rbp]	# tmp128,
	mov	rsi, rdx	#, tmp127
	mov	rdi, rax	#, tmp128
	call	_ZN9__gnu_cxxmiIPSt4pairIiiESt6vectorIS2_SaIS2_EEEENS_17__normal_iteratorIT_T0_E15difference_typeERKSA_SD_	#
# /usr/include/c++/13/bits/vector.tcc:458:       const size_type __elems_before = __position - begin();
	mov	QWORD PTR -96[rbp], rax	# __elems_before, _1
# /usr/include/c++/13/bits/vector.tcc:459:       pointer __new_start(this->_M_allocate(__len));
	mov	rax, QWORD PTR -136[rbp]	# _2, this
	mov	rdx, QWORD PTR -120[rbp]	# tmp129, __len
	mov	rsi, rdx	#, tmp129
	mov	rdi, rax	#, _2
	call	_ZNSt12_Vector_baseISt4pairIiiESaIS1_EE11_M_allocateEm	#
# /usr/include/c++/13/bits/vector.tcc:459:       pointer __new_start(this->_M_allocate(__len));
	mov	QWORD PTR -88[rbp], rax	# __new_start, _41
# /usr/include/c++/13/bits/vector.tcc:460:       pointer __new_finish(__new_start);
	mov	rax, QWORD PTR -88[rbp]	# tmp130, __new_start
	mov	QWORD PTR -80[rbp], rax	# __new_finish, tmp130
# /usr/include/c++/13/bits/vector.tcc:468: 	  _Alloc_traits::construct(this->_M_impl,
	mov	rax, QWORD PTR -152[rbp]	# tmp131, __args#0
	mov	rdi, rax	#, tmp131
	call	_ZSt7forwardISt4pairIiiEEOT_RNSt16remove_referenceIS2_E4typeE	#
# /usr/include/c++/13/bits/vector.tcc:469: 				   __new_start + __elems_before,
	mov	rdx, QWORD PTR -96[rbp]	# tmp132, __elems_before
	lea	rcx, 0[0+rdx*8]	# _4,
# /usr/include/c++/13/bits/vector.tcc:468: 	  _Alloc_traits::construct(this->_M_impl,
	mov	rdx, QWORD PTR -88[rbp]	# tmp133, __new_start
	add	rcx, rdx	# _5, tmp133
# /usr/include/c++/13/bits/vector.tcc:468: 	  _Alloc_traits::construct(this->_M_impl,
	mov	rdx, QWORD PTR -136[rbp]	# _6, this
	mov	QWORD PTR -72[rbp], rdx	# __a, _6
	mov	QWORD PTR -64[rbp], rcx	# __p, _5
	mov	QWORD PTR -56[rbp], rax	# __args#0, _3
# /usr/include/c++/13/bits/alloc_traits.h:538: 	  __a.construct(__p, std::forward<_Args>(__args)...);
	mov	rax, QWORD PTR -56[rbp]	# tmp134, __args#0
	mov	rdi, rax	#, tmp134
	call	_ZSt7forwardISt4pairIiiEEOT_RNSt16remove_referenceIS2_E4typeE	#
	mov	rdx, QWORD PTR -72[rbp]	# tmp135, __a
	mov	QWORD PTR -48[rbp], rdx	# this, tmp135
	mov	rdx, QWORD PTR -64[rbp]	# tmp136, __p
	mov	QWORD PTR -40[rbp], rdx	# __p, tmp136
	mov	QWORD PTR -32[rbp], rax	# __args#0, _63
# /usr/include/c++/13/bits/new_allocator.h:191: 	{ ::new((void *)__p) _Up(std::forward<_Args>(__args)...); }
	mov	rax, QWORD PTR -40[rbp]	# _67, __p
# /usr/include/c++/13/bits/new_allocator.h:191: 	{ ::new((void *)__p) _Up(std::forward<_Args>(__args)...); }
	mov	rsi, rax	#, _67
	mov	edi, 8	#,
	call	_ZnwmPv	#
	mov	rbx, rax	# _68,
# /usr/include/c++/13/bits/new_allocator.h:191: 	{ ::new((void *)__p) _Up(std::forward<_Args>(__args)...); }
	mov	rax, QWORD PTR -32[rbp]	# tmp137, __args#0
	mov	rdi, rax	#, tmp137
	call	_ZSt7forwardISt4pairIiiEEOT_RNSt16remove_referenceIS2_E4typeE	#
# /usr/include/c++/13/bits/new_allocator.h:191: 	{ ::new((void *)__p) _Up(std::forward<_Args>(__args)...); }
	mov	rax, QWORD PTR [rax]	# tmp138, *_70
	mov	QWORD PTR [rbx], rax	# MEM[(struct pair *)_68], tmp138
# /usr/include/c++/13/bits/new_allocator.h:191: 	{ ::new((void *)__p) _Up(std::forward<_Args>(__args)...); }
	nop	
# /usr/include/c++/13/bits/alloc_traits.h:542: 	}
	nop	
# /usr/include/c++/13/bits/vector.tcc:475: 	  __new_finish = pointer();
	mov	QWORD PTR -80[rbp], 0	# __new_finish,
# /usr/include/c++/13/bits/vector.tcc:481: 					 __new_start, _M_get_Tp_allocator());
	mov	rax, QWORD PTR -136[rbp]	# _7, this
	mov	rdi, rax	#, _7
	call	_ZNSt12_Vector_baseISt4pairIiiESaIS1_EE19_M_get_Tp_allocatorEv	#
	mov	rbx, rax	# _8,
# /usr/include/c++/13/bits/vector.tcc:480: 	      __new_finish = _S_relocate(__old_start, __position.base(),
	lea	rax, -144[rbp]	# tmp139,
	mov	rdi, rax	#, tmp139
	call	_ZNK9__gnu_cxx17__normal_iteratorIPSt4pairIiiESt6vectorIS2_SaIS2_EEE4baseEv	#
# /usr/include/c++/13/bits/vector.tcc:480: 	      __new_finish = _S_relocate(__old_start, __position.base(),
	mov	rsi, QWORD PTR [rax]	# _10, *_9
	mov	rdx, QWORD PTR -88[rbp]	# tmp140, __new_start
	mov	rax, QWORD PTR -112[rbp]	# tmp141, __old_start
	mov	rcx, rbx	#, _8
	mov	rdi, rax	#, tmp141
	call	_ZNSt6vectorISt4pairIiiESaIS1_EE11_S_relocateEPS1_S4_S4_RS2_	#
	mov	QWORD PTR -80[rbp], rax	# __new_finish, tmp142
# /usr/include/c++/13/bits/vector.tcc:483: 	      ++__new_finish;
	add	QWORD PTR -80[rbp], 8	# __new_finish,
# /usr/include/c++/13/bits/vector.tcc:486: 					 __new_finish, _M_get_Tp_allocator());
	mov	rax, QWORD PTR -136[rbp]	# _11, this
	mov	rdi, rax	#, _11
	call	_ZNSt12_Vector_baseISt4pairIiiESaIS1_EE19_M_get_Tp_allocatorEv	#
	mov	rbx, rax	# _12,
# /usr/include/c++/13/bits/vector.tcc:485: 	      __new_finish = _S_relocate(__position.base(), __old_finish,
	lea	rax, -144[rbp]	# tmp143,
	mov	rdi, rax	#, tmp143
	call	_ZNK9__gnu_cxx17__normal_iteratorIPSt4pairIiiESt6vectorIS2_SaIS2_EEE4baseEv	#
# /usr/include/c++/13/bits/vector.tcc:485: 	      __new_finish = _S_relocate(__position.base(), __old_finish,
	mov	rax, QWORD PTR [rax]	# _14, *_13
	mov	rdx, QWORD PTR -80[rbp]	# tmp144, __new_finish
	mov	rsi, QWORD PTR -104[rbp]	# tmp145, __old_finish
	mov	rcx, rbx	#, _12
	mov	rdi, rax	#, _14
	call	_ZNSt6vectorISt4pairIiiESaIS1_EE11_S_relocateEPS1_S4_S4_RS2_	#
	mov	QWORD PTR -80[rbp], rax	# __new_finish, tmp146
# /usr/include/c++/13/bits/vector.tcc:519:       _M_deallocate(__old_start,
	mov	rax, QWORD PTR -136[rbp]	# _22, this
# /usr/include/c++/13/bits/vector.tcc:520: 		    this->_M_impl._M_end_of_storage - __old_start);
	mov	rdx, QWORD PTR -136[rbp]	# tmp147, this
	mov	rdx, QWORD PTR 16[rdx]	# _23, this_30(D)->D.210289._M_impl.D.209628._M_end_of_storage
# /usr/include/c++/13/bits/vector.tcc:520: 		    this->_M_impl._M_end_of_storage - __old_start);
	sub	rdx, QWORD PTR -112[rbp]	# _24, __old_start
	sar	rdx, 3	# tmp148,
# /usr/include/c++/13/bits/vector.tcc:519:       _M_deallocate(__old_start,
	mov	rcx, QWORD PTR -112[rbp]	# tmp149, __old_start
	mov	rsi, rcx	#, tmp149
	mov	rdi, rax	#, _22
	call	_ZNSt12_Vector_baseISt4pairIiiESaIS1_EE13_M_deallocateEPS1_m	#
# /usr/include/c++/13/bits/vector.tcc:521:       this->_M_impl._M_start = __new_start;
	mov	rax, QWORD PTR -136[rbp]	# tmp150, this
	mov	rdx, QWORD PTR -88[rbp]	# tmp151, __new_start
	mov	QWORD PTR [rax], rdx	# this_30(D)->D.210289._M_impl.D.209628._M_start, tmp151
# /usr/include/c++/13/bits/vector.tcc:522:       this->_M_impl._M_finish = __new_finish;
	mov	rax, QWORD PTR -136[rbp]	# tmp152, this
	mov	rdx, QWORD PTR -80[rbp]	# tmp153, __new_finish
	mov	QWORD PTR 8[rax], rdx	# this_30(D)->D.210289._M_impl.D.209628._M_finish, tmp153
# /usr/include/c++/13/bits/vector.tcc:523:       this->_M_impl._M_end_of_storage = __new_start + __len;
	mov	rax, QWORD PTR -120[rbp]	# tmp154, __len
	lea	rdx, 0[0+rax*8]	# _27,
	mov	rax, QWORD PTR -88[rbp]	# tmp155, __new_start
	add	rdx, rax	# _28, tmp155
# /usr/include/c++/13/bits/vector.tcc:523:       this->_M_impl._M_end_of_storage = __new_start + __len;
	mov	rax, QWORD PTR -136[rbp]	# tmp156, this
	mov	QWORD PTR 16[rax], rdx	# this_30(D)->D.210289._M_impl.D.209628._M_end_of_storage, _28
# /usr/include/c++/13/bits/vector.tcc:524:     }
	nop	
	mov	rax, QWORD PTR -24[rbp]	# tmp158, D.233372
	sub	rax, QWORD PTR fs:40	# tmp158, MEM[(<address-space-1> long unsigned int *)40B]
	je	.L237	#,
	call	__stack_chk_fail@PLT	#
.L237:
	mov	rbx, QWORD PTR -8[rbp]	#,
	leave	
	.cfi_def_cfa 7, 8
	ret	
	.cfi_endproc
.LFE11292:
	.size	_ZNSt6vectorISt4pairIiiESaIS1_EE17_M_realloc_insertIJS1_EEEvN9__gnu_cxx17__normal_iteratorIPS1_S3_EEDpOT_, .-_ZNSt6vectorISt4pairIiiESaIS1_EE17_M_realloc_insertIJS1_EEEvN9__gnu_cxx17__normal_iteratorIPS1_S3_EEDpOT_
	.section	.text._ZNSt6vectorISt4pairIiiESaIS1_EE4backEv,"axG",@progbits,_ZNSt6vectorISt4pairIiiESaIS1_EE4backEv,comdat
	.align 2
	.weak	_ZNSt6vectorISt4pairIiiESaIS1_EE4backEv
	.type	_ZNSt6vectorISt4pairIiiESaIS1_EE4backEv, @function
_ZNSt6vectorISt4pairIiiESaIS1_EE4backEv:
.LFB11296:
	.cfi_startproc
	endbr64	
	push	rbp	#
	.cfi_def_cfa_offset 16
	.cfi_offset 6, -16
	mov	rbp, rsp	#,
	.cfi_def_cfa_register 6
	sub	rsp, 48	#,
	mov	QWORD PTR -40[rbp], rdi	# this, this
# /usr/include/c++/13/bits/stl_vector.h:1233:       back() _GLIBCXX_NOEXCEPT
	mov	rax, QWORD PTR fs:40	# tmp92, MEM[(<address-space-1> long unsigned int *)40B]
	mov	QWORD PTR -8[rbp], rax	# D.233374, tmp92
	xor	eax, eax	# tmp92
# /usr/include/c++/13/bits/stl_vector.h:1236: 	return *(end() - 1);
	mov	rax, QWORD PTR -40[rbp]	# tmp84, this
	mov	rdi, rax	#, tmp84
	call	_ZNSt6vectorISt4pairIiiESaIS1_EE3endEv	#
	mov	QWORD PTR -24[rbp], rax	# D.226977, tmp86
# /usr/include/c++/13/bits/stl_vector.h:1236: 	return *(end() - 1);
	lea	rax, -24[rbp]	# tmp87,
	mov	esi, 1	#,
	mov	rdi, rax	#, tmp87
	call	_ZNK9__gnu_cxx17__normal_iteratorIPSt4pairIiiESt6vectorIS2_SaIS2_EEEmiEl	#
	mov	QWORD PTR -16[rbp], rax	# D.226978, tmp89
# /usr/include/c++/13/bits/stl_vector.h:1236: 	return *(end() - 1);
	lea	rax, -16[rbp]	# tmp90,
	mov	rdi, rax	#, tmp90
	call	_ZNK9__gnu_cxx17__normal_iteratorIPSt4pairIiiESt6vectorIS2_SaIS2_EEEdeEv	#
# /usr/include/c++/13/bits/stl_vector.h:1237:       }
	mov	rdx, QWORD PTR -8[rbp]	# tmp93, D.233374
	sub	rdx, QWORD PTR fs:40	# tmp93, MEM[(<address-space-1> long unsigned int *)40B]
	je	.L240	#,
	call	__stack_chk_fail@PLT	#
.L240:
	leave	
	.cfi_def_cfa 7, 8
	ret	
	.cfi_endproc
.LFE11296:
	.size	_ZNSt6vectorISt4pairIiiESaIS1_EE4backEv, .-_ZNSt6vectorISt4pairIiiESaIS1_EE4backEv
	.section	.text._ZNSt13_Bvector_baseISaIbEE13_Bvector_implC2ERKSaImE,"axG",@progbits,_ZNSt13_Bvector_baseISaIbEE13_Bvector_implC5ERKSaImE,comdat
	.align 2
	.weak	_ZNSt13_Bvector_baseISaIbEE13_Bvector_implC2ERKSaImE
	.type	_ZNSt13_Bvector_baseISaIbEE13_Bvector_implC2ERKSaImE, @function
_ZNSt13_Bvector_baseISaIbEE13_Bvector_implC2ERKSaImE:
.LFB11301:
	.cfi_startproc
	endbr64	
	push	rbp	#
	.cfi_def_cfa_offset 16
	.cfi_offset 6, -16
	mov	rbp, rsp	#,
	.cfi_def_cfa_register 6
	sub	rsp, 48	#,
	mov	QWORD PTR -40[rbp], rdi	# this, this
	mov	QWORD PTR -48[rbp], rsi	# __a, __a
	mov	rax, QWORD PTR -40[rbp]	# tmp83, this
	mov	QWORD PTR -32[rbp], rax	# this, tmp83
	mov	rax, QWORD PTR -48[rbp]	# tmp84, __a
	mov	QWORD PTR -24[rbp], rax	# __a, tmp84
	mov	rax, QWORD PTR -32[rbp]	# tmp85, this
	mov	QWORD PTR -16[rbp], rax	# this, tmp85
	mov	rax, QWORD PTR -24[rbp]	# tmp86, __a
	mov	QWORD PTR -8[rbp], rax	# D.233130, tmp86
# /usr/include/c++/13/bits/new_allocator.h:92:       __new_allocator(const __new_allocator&) _GLIBCXX_USE_NOEXCEPT { }
	nop	
# /usr/include/c++/13/bits/allocator.h:168:       : __allocator_base<_Tp>(__a) { }
	nop	
# /usr/include/c++/13/bits/stl_bvector.h:604: 	: _Bit_alloc_type(__a)
	mov	rax, QWORD PTR -40[rbp]	# _1, this
	mov	rdi, rax	#, _1
	call	_ZNSt13_Bvector_baseISaIbEE18_Bvector_impl_dataC2Ev	#
# /usr/include/c++/13/bits/stl_bvector.h:605: 	{ }
	nop	
	leave	
	.cfi_def_cfa 7, 8
	ret	
	.cfi_endproc
.LFE11301:
	.size	_ZNSt13_Bvector_baseISaIbEE13_Bvector_implC2ERKSaImE, .-_ZNSt13_Bvector_baseISaIbEE13_Bvector_implC2ERKSaImE
	.weak	_ZNSt13_Bvector_baseISaIbEE13_Bvector_implC1ERKSaImE
	.set	_ZNSt13_Bvector_baseISaIbEE13_Bvector_implC1ERKSaImE,_ZNSt13_Bvector_baseISaIbEE13_Bvector_implC2ERKSaImE
	.section	.text._ZNSt13_Bvector_baseISaIbEE13_M_deallocateEv,"axG",@progbits,_ZNSt13_Bvector_baseISaIbEE13_M_deallocateEv,comdat
	.align 2
	.weak	_ZNSt13_Bvector_baseISaIbEE13_M_deallocateEv
	.type	_ZNSt13_Bvector_baseISaIbEE13_M_deallocateEv, @function
_ZNSt13_Bvector_baseISaIbEE13_M_deallocateEv:
.LFB11303:
	.cfi_startproc
	endbr64	
	push	rbp	#
	.cfi_def_cfa_offset 16
	.cfi_offset 6, -16
	mov	rbp, rsp	#,
	.cfi_def_cfa_register 6
	sub	rsp, 48	#,
	mov	QWORD PTR -40[rbp], rdi	# this, this
# /usr/include/c++/13/bits/stl_bvector.h:695: 	if (_M_impl._M_start._M_p)
	mov	rax, QWORD PTR -40[rbp]	# tmp94, this
	mov	rax, QWORD PTR [rax]	# _1, this_15(D)->_M_impl.D.211589._M_start.D.58751._M_p
# /usr/include/c++/13/bits/stl_bvector.h:695: 	if (_M_impl._M_start._M_p)
	test	rax, rax	# _1
	je	.L244	#,
# /usr/include/c++/13/bits/stl_bvector.h:697: 	    const size_t __n = _M_impl._M_end_addr() - _M_impl._M_start._M_p;
	mov	rax, QWORD PTR -40[rbp]	# _2, this
	mov	rdi, rax	#, _2
	call	_ZNKSt13_Bvector_baseISaIbEE13_Bvector_impl11_M_end_addrEv	#
	mov	rdx, rax	# _3,
# /usr/include/c++/13/bits/stl_bvector.h:697: 	    const size_t __n = _M_impl._M_end_addr() - _M_impl._M_start._M_p;
	mov	rax, QWORD PTR -40[rbp]	# tmp95, this
	mov	rax, QWORD PTR [rax]	# _4, this_15(D)->_M_impl.D.211589._M_start.D.58751._M_p
# /usr/include/c++/13/bits/stl_bvector.h:697: 	    const size_t __n = _M_impl._M_end_addr() - _M_impl._M_start._M_p;
	sub	rdx, rax	# _5, _4
	mov	rax, rdx	# _5, _5
	sar	rax, 3	# _5,
# /usr/include/c++/13/bits/stl_bvector.h:697: 	    const size_t __n = _M_impl._M_end_addr() - _M_impl._M_start._M_p;
	mov	QWORD PTR -32[rbp], rax	# __n, _6
# /usr/include/c++/13/bits/stl_bvector.h:699: 					  _M_impl._M_end_of_storage - __n,
	mov	rax, QWORD PTR -40[rbp]	# tmp97, this
	mov	rax, QWORD PTR 32[rax]	# _7, this_15(D)->_M_impl.D.211589._M_end_of_storage
# /usr/include/c++/13/bits/stl_bvector.h:699: 					  _M_impl._M_end_of_storage - __n,
	mov	rdx, QWORD PTR -32[rbp]	# tmp98, __n
	sal	rdx, 3	# _8,
	neg	rdx	# _9
# /usr/include/c++/13/bits/stl_bvector.h:698: 	    _Bit_alloc_traits::deallocate(_M_impl,
	add	rdx, rax	# _10, _7
# /usr/include/c++/13/bits/stl_bvector.h:698: 	    _Bit_alloc_traits::deallocate(_M_impl,
	mov	rax, QWORD PTR -40[rbp]	# _11, this
	mov	QWORD PTR -24[rbp], rax	# __a, _11
	mov	QWORD PTR -16[rbp], rdx	# __p, _10
	mov	rax, QWORD PTR -32[rbp]	# tmp99, __n
	mov	QWORD PTR -8[rbp], rax	# __n, tmp99
# /usr/include/c++/13/bits/alloc_traits.h:517:       { __a.deallocate(__p, __n); }
	mov	rdx, QWORD PTR -8[rbp]	# tmp100, __n
	mov	rcx, QWORD PTR -16[rbp]	# tmp101, __p
	mov	rax, QWORD PTR -24[rbp]	# tmp102, __a
	mov	rsi, rcx	#, tmp101
	mov	rdi, rax	#, tmp102
	call	_ZNSt15__new_allocatorImE10deallocateEPmm	#
# /usr/include/c++/13/bits/alloc_traits.h:517:       { __a.deallocate(__p, __n); }
	nop	
# /usr/include/c++/13/bits/stl_bvector.h:701: 	    _M_impl._M_reset();
	mov	rax, QWORD PTR -40[rbp]	# _12, this
	mov	rdi, rax	#, _12
	call	_ZNSt13_Bvector_baseISaIbEE18_Bvector_impl_data8_M_resetEv	#
.L244:
# /usr/include/c++/13/bits/stl_bvector.h:703:       }
	nop	
	leave	
	.cfi_def_cfa 7, 8
	ret	
	.cfi_endproc
.LFE11303:
	.size	_ZNSt13_Bvector_baseISaIbEE13_M_deallocateEv, .-_ZNSt13_Bvector_baseISaIbEE13_M_deallocateEv
	.section	.text._ZNSt13_Bvector_baseISaIbEE11_M_allocateEm,"axG",@progbits,_ZNSt13_Bvector_baseISaIbEE11_M_allocateEm,comdat
	.align 2
	.weak	_ZNSt13_Bvector_baseISaIbEE11_M_allocateEm
	.type	_ZNSt13_Bvector_baseISaIbEE11_M_allocateEm, @function
_ZNSt13_Bvector_baseISaIbEE11_M_allocateEm:
.LFB11304:
	.cfi_startproc
	endbr64	
	push	rbp	#
	.cfi_def_cfa_offset 16
	.cfi_offset 6, -16
	mov	rbp, rsp	#,
	.cfi_def_cfa_register 6
	sub	rsp, 48	#,
	mov	QWORD PTR -40[rbp], rdi	# this, this
	mov	QWORD PTR -48[rbp], rsi	# __n, __n
# /usr/include/c++/13/bits/stl_bvector.h:679: 	_Bit_pointer __p = _Bit_alloc_traits::allocate(_M_impl, _S_nword(__n));
	mov	rax, QWORD PTR -48[rbp]	# tmp87, __n
	mov	rdi, rax	#, tmp87
	call	_ZNSt13_Bvector_baseISaIbEE8_S_nwordEm	#
# /usr/include/c++/13/bits/stl_bvector.h:679: 	_Bit_pointer __p = _Bit_alloc_traits::allocate(_M_impl, _S_nword(__n));
	mov	rdx, QWORD PTR -40[rbp]	# _2, this
	mov	QWORD PTR -16[rbp], rdx	# __a, _2
	mov	QWORD PTR -8[rbp], rax	# __n, _1
# /usr/include/c++/13/bits/alloc_traits.h:482:       { return __a.allocate(__n); }
	mov	rcx, QWORD PTR -8[rbp]	# tmp88, __n
	mov	rax, QWORD PTR -16[rbp]	# tmp89, __a
	mov	edx, 0	#,
	mov	rsi, rcx	#, tmp88
	mov	rdi, rax	#, tmp89
	call	_ZNSt15__new_allocatorImE8allocateEmPKv	#
# /usr/include/c++/13/bits/alloc_traits.h:482:       { return __a.allocate(__n); }
	nop	
# /usr/include/c++/13/bits/stl_bvector.h:679: 	_Bit_pointer __p = _Bit_alloc_traits::allocate(_M_impl, _S_nword(__n));
	mov	QWORD PTR -24[rbp], rax	# __p, D.233086
# /usr/include/c++/13/bits/stl_bvector.h:688: 	return __p;
	mov	rax, QWORD PTR -24[rbp]	# _9, __p
# /usr/include/c++/13/bits/stl_bvector.h:689:       }
	leave	
	.cfi_def_cfa 7, 8
	ret	
	.cfi_endproc
.LFE11304:
	.size	_ZNSt13_Bvector_baseISaIbEE11_M_allocateEm, .-_ZNSt13_Bvector_baseISaIbEE11_M_allocateEm
	.section	.text._ZNSt13_Bvector_baseISaIbEE8_S_nwordEm,"axG",@progbits,_ZNSt13_Bvector_baseISaIbEE8_S_nwordEm,comdat
	.weak	_ZNSt13_Bvector_baseISaIbEE8_S_nwordEm
	.type	_ZNSt13_Bvector_baseISaIbEE8_S_nwordEm, @function
_ZNSt13_Bvector_baseISaIbEE8_S_nwordEm:
.LFB11305:
	.cfi_startproc
	endbr64	
	push	rbp	#
	.cfi_def_cfa_offset 16
	.cfi_offset 6, -16
	mov	rbp, rsp	#,
	.cfi_def_cfa_register 6
	mov	QWORD PTR -8[rbp], rdi	# __n, __n
# /usr/include/c++/13/bits/stl_bvector.h:715:       { return (__n + int(_S_word_bit) - 1) / int(_S_word_bit); }
	mov	rax, QWORD PTR -8[rbp]	# tmp85, __n
	add	rax, 63	# _1,
# /usr/include/c++/13/bits/stl_bvector.h:715:       { return (__n + int(_S_word_bit) - 1) / int(_S_word_bit); }
	shr	rax, 6	# _3,
# /usr/include/c++/13/bits/stl_bvector.h:715:       { return (__n + int(_S_word_bit) - 1) / int(_S_word_bit); }
	pop	rbp	#
	.cfi_def_cfa 7, 8
	ret	
	.cfi_endproc
.LFE11305:
	.size	_ZNSt13_Bvector_baseISaIbEE8_S_nwordEm, .-_ZNSt13_Bvector_baseISaIbEE8_S_nwordEm
	.section	.text._ZSt11__addressofImEPT_RS0_,"axG",@progbits,_ZSt11__addressofImEPT_RS0_,comdat
	.weak	_ZSt11__addressofImEPT_RS0_
	.type	_ZSt11__addressofImEPT_RS0_, @function
_ZSt11__addressofImEPT_RS0_:
.LFB11306:
	.cfi_startproc
	endbr64	
	push	rbp	#
	.cfi_def_cfa_offset 16
	.cfi_offset 6, -16
	mov	rbp, rsp	#,
	.cfi_def_cfa_register 6
	mov	QWORD PTR -8[rbp], rdi	# __r, __r
# /usr/include/c++/13/bits/move.h:52:     { return __builtin_addressof(__r); }
	mov	rax, QWORD PTR -8[rbp]	# _2, __r
# /usr/include/c++/13/bits/move.h:52:     { return __builtin_addressof(__r); }
	pop	rbp	#
	.cfi_def_cfa 7, 8
	ret	
	.cfi_endproc
.LFE11306:
	.size	_ZSt11__addressofImEPT_RS0_, .-_ZSt11__addressofImEPT_RS0_
	.section	.text._ZNKSt13_Bvector_baseISaIbEE13_Bvector_impl11_M_end_addrEv,"axG",@progbits,_ZNKSt13_Bvector_baseISaIbEE13_Bvector_impl11_M_end_addrEv,comdat
	.align 2
	.weak	_ZNKSt13_Bvector_baseISaIbEE13_Bvector_impl11_M_end_addrEv
	.type	_ZNKSt13_Bvector_baseISaIbEE13_Bvector_impl11_M_end_addrEv, @function
_ZNKSt13_Bvector_baseISaIbEE13_Bvector_impl11_M_end_addrEv:
.LFB11307:
	.cfi_startproc
	endbr64	
	push	rbp	#
	.cfi_def_cfa_offset 16
	.cfi_offset 6, -16
	mov	rbp, rsp	#,
	.cfi_def_cfa_register 6
	sub	rsp, 16	#,
	mov	QWORD PTR -8[rbp], rdi	# this, this
# /usr/include/c++/13/bits/stl_bvector.h:625: 	  if (this->_M_end_of_storage)
	mov	rax, QWORD PTR -8[rbp]	# tmp88, this
	mov	rax, QWORD PTR 32[rax]	# _1, this_8(D)->D.211589._M_end_of_storage
# /usr/include/c++/13/bits/stl_bvector.h:625: 	  if (this->_M_end_of_storage)
	test	rax, rax	# _1
	je	.L253	#,
# /usr/include/c++/13/bits/stl_bvector.h:626: 	    return std::__addressof(this->_M_end_of_storage[-1]) + 1;
	mov	rax, QWORD PTR -8[rbp]	# tmp89, this
	mov	rax, QWORD PTR 32[rax]	# _2, this_8(D)->D.211589._M_end_of_storage
# /usr/include/c++/13/bits/stl_bvector.h:626: 	    return std::__addressof(this->_M_end_of_storage[-1]) + 1;
	sub	rax, 8	# _3,
	mov	rdi, rax	#, _3
	call	_ZSt11__addressofImEPT_RS0_	#
# /usr/include/c++/13/bits/stl_bvector.h:626: 	    return std::__addressof(this->_M_end_of_storage[-1]) + 1;
	add	rax, 8	# _5,
# /usr/include/c++/13/bits/stl_bvector.h:626: 	    return std::__addressof(this->_M_end_of_storage[-1]) + 1;
	jmp	.L254	#
.L253:
# /usr/include/c++/13/bits/stl_bvector.h:627: 	  return 0;
	mov	eax, 0	# _5,
.L254:
# /usr/include/c++/13/bits/stl_bvector.h:628: 	}
	leave	
	.cfi_def_cfa 7, 8
	ret	
	.cfi_endproc
.LFE11307:
	.size	_ZNKSt13_Bvector_baseISaIbEE13_Bvector_impl11_M_end_addrEv, .-_ZNKSt13_Bvector_baseISaIbEE13_Bvector_impl11_M_end_addrEv
	.section	.text._ZNSt6vectorIiSaIiEE11_S_max_sizeERKS0_,"axG",@progbits,_ZNSt6vectorIiSaIiEE11_S_max_sizeERKS0_,comdat
	.weak	_ZNSt6vectorIiSaIiEE11_S_max_sizeERKS0_
	.type	_ZNSt6vectorIiSaIiEE11_S_max_sizeERKS0_, @function
_ZNSt6vectorIiSaIiEE11_S_max_sizeERKS0_:
.LFB11308:
	.cfi_startproc
	endbr64	
	push	rbp	#
	.cfi_def_cfa_offset 16
	.cfi_offset 6, -16
	mov	rbp, rsp	#,
	.cfi_def_cfa_register 6
	sub	rsp, 64	#,
	mov	QWORD PTR -56[rbp], rdi	# __a, __a
# /usr/include/c++/13/bits/stl_vector.h:1916:       _S_max_size(const _Tp_alloc_type& __a) _GLIBCXX_NOEXCEPT
	mov	rax, QWORD PTR fs:40	# tmp92, MEM[(<address-space-1> long unsigned int *)40B]
	mov	QWORD PTR -8[rbp], rax	# D.233375, tmp92
	xor	eax, eax	# tmp92
# /usr/include/c++/13/bits/stl_vector.h:1921: 	const size_t __diffmax
	movabs	rax, 2305843009213693951	# tmp95,
	mov	QWORD PTR -48[rbp], rax	# __diffmax, tmp95
	mov	rax, QWORD PTR -56[rbp]	# tmp86, __a
	mov	QWORD PTR -32[rbp], rax	# __a, tmp86
	mov	rax, QWORD PTR -32[rbp]	# tmp87, __a
	mov	QWORD PTR -24[rbp], rax	# this, tmp87
	mov	rax, QWORD PTR -24[rbp]	# tmp88, this
	mov	QWORD PTR -16[rbp], rax	# this, tmp88
# /usr/include/c++/13/bits/new_allocator.h:233: 	return std::size_t(__PTRDIFF_MAX__) / sizeof(_Tp);
	movabs	rax, 2305843009213693951	# D.233196,
# /usr/include/c++/13/bits/new_allocator.h:183:       { return _M_max_size(); }
	nop	
# /usr/include/c++/13/bits/alloc_traits.h:574: 	return __a.max_size();
	nop	
# /usr/include/c++/13/bits/stl_vector.h:1923: 	const size_t __allocmax = _Alloc_traits::max_size(__a);
	mov	QWORD PTR -40[rbp], rax	# __allocmax, D.233196
# /usr/include/c++/13/bits/stl_vector.h:1924: 	return (std::min)(__diffmax, __allocmax);
	lea	rdx, -40[rbp]	# tmp89,
	lea	rax, -48[rbp]	# tmp90,
	mov	rsi, rdx	#, tmp89
	mov	rdi, rax	#, tmp90
	call	_ZSt3minImERKT_S2_S2_	#
# /usr/include/c++/13/bits/stl_vector.h:1924: 	return (std::min)(__diffmax, __allocmax);
	mov	rax, QWORD PTR [rax]	# _8, *_2
# /usr/include/c++/13/bits/stl_vector.h:1925:       }
	mov	rdx, QWORD PTR -8[rbp]	# tmp93, D.233375
	sub	rdx, QWORD PTR fs:40	# tmp93, MEM[(<address-space-1> long unsigned int *)40B]
	je	.L260	#,
	call	__stack_chk_fail@PLT	#
.L260:
	leave	
	.cfi_def_cfa 7, 8
	ret	
	.cfi_endproc
.LFE11308:
	.size	_ZNSt6vectorIiSaIiEE11_S_max_sizeERKS0_, .-_ZNSt6vectorIiSaIiEE11_S_max_sizeERKS0_
	.section	.text._ZNSt12_Vector_baseIiSaIiEE12_Vector_implC2ERKS0_,"axG",@progbits,_ZNSt12_Vector_baseIiSaIiEE12_Vector_implC5ERKS0_,comdat
	.align 2
	.weak	_ZNSt12_Vector_baseIiSaIiEE12_Vector_implC2ERKS0_
	.type	_ZNSt12_Vector_baseIiSaIiEE12_Vector_implC2ERKS0_, @function
_ZNSt12_Vector_baseIiSaIiEE12_Vector_implC2ERKS0_:
.LFB11313:
	.cfi_startproc
	endbr64	
	push	rbp	#
	.cfi_def_cfa_offset 16
	.cfi_offset 6, -16
	mov	rbp, rsp	#,
	.cfi_def_cfa_register 6
	sub	rsp, 48	#,
	mov	QWORD PTR -40[rbp], rdi	# this, this
	mov	QWORD PTR -48[rbp], rsi	# __a, __a
	mov	rax, QWORD PTR -40[rbp]	# tmp83, this
	mov	QWORD PTR -32[rbp], rax	# this, tmp83
	mov	rax, QWORD PTR -48[rbp]	# tmp84, __a
	mov	QWORD PTR -24[rbp], rax	# __a, tmp84
	mov	rax, QWORD PTR -32[rbp]	# tmp85, this
	mov	QWORD PTR -16[rbp], rax	# this, tmp85
	mov	rax, QWORD PTR -24[rbp]	# tmp86, __a
	mov	QWORD PTR -8[rbp], rax	# D.233094, tmp86
# /usr/include/c++/13/bits/new_allocator.h:92:       __new_allocator(const __new_allocator&) _GLIBCXX_USE_NOEXCEPT { }
	nop	
# /usr/include/c++/13/bits/allocator.h:168:       : __allocator_base<_Tp>(__a) { }
	nop	
# /usr/include/c++/13/bits/stl_vector.h:147: 	: _Tp_alloc_type(__a)
	mov	rax, QWORD PTR -40[rbp]	# _1, this
	mov	rdi, rax	#, _1
	call	_ZNSt12_Vector_baseIiSaIiEE17_Vector_impl_dataC2Ev	#
# /usr/include/c++/13/bits/stl_vector.h:148: 	{ }
	nop	
	leave	
	.cfi_def_cfa 7, 8
	ret	
	.cfi_endproc
.LFE11313:
	.size	_ZNSt12_Vector_baseIiSaIiEE12_Vector_implC2ERKS0_, .-_ZNSt12_Vector_baseIiSaIiEE12_Vector_implC2ERKS0_
	.weak	_ZNSt12_Vector_baseIiSaIiEE12_Vector_implC1ERKS0_
	.set	_ZNSt12_Vector_baseIiSaIiEE12_Vector_implC1ERKS0_,_ZNSt12_Vector_baseIiSaIiEE12_Vector_implC2ERKS0_
	.section	.text._ZNSt12_Vector_baseIiSaIiEE17_M_create_storageEm,"axG",@progbits,_ZNSt12_Vector_baseIiSaIiEE17_M_create_storageEm,comdat
	.align 2
	.weak	_ZNSt12_Vector_baseIiSaIiEE17_M_create_storageEm
	.type	_ZNSt12_Vector_baseIiSaIiEE17_M_create_storageEm, @function
_ZNSt12_Vector_baseIiSaIiEE17_M_create_storageEm:
.LFB11315:
	.cfi_startproc
	endbr64	
	push	rbp	#
	.cfi_def_cfa_offset 16
	.cfi_offset 6, -16
	mov	rbp, rsp	#,
	.cfi_def_cfa_register 6
	sub	rsp, 16	#,
	mov	QWORD PTR -8[rbp], rdi	# this, this
	mov	QWORD PTR -16[rbp], rsi	# __n, __n
# /usr/include/c++/13/bits/stl_vector.h:398: 	this->_M_impl._M_start = this->_M_allocate(__n);
	mov	rdx, QWORD PTR -16[rbp]	# tmp87, __n
	mov	rax, QWORD PTR -8[rbp]	# tmp88, this
	mov	rsi, rdx	#, tmp87
	mov	rdi, rax	#, tmp88
	call	_ZNSt12_Vector_baseIiSaIiEE11_M_allocateEm	#
# /usr/include/c++/13/bits/stl_vector.h:398: 	this->_M_impl._M_start = this->_M_allocate(__n);
	mov	rdx, QWORD PTR -8[rbp]	# tmp89, this
	mov	QWORD PTR [rdx], rax	# this_7(D)->_M_impl.D.187644._M_start, _1
# /usr/include/c++/13/bits/stl_vector.h:399: 	this->_M_impl._M_finish = this->_M_impl._M_start;
	mov	rax, QWORD PTR -8[rbp]	# tmp90, this
	mov	rdx, QWORD PTR [rax]	# _2, this_7(D)->_M_impl.D.187644._M_start
# /usr/include/c++/13/bits/stl_vector.h:399: 	this->_M_impl._M_finish = this->_M_impl._M_start;
	mov	rax, QWORD PTR -8[rbp]	# tmp91, this
	mov	QWORD PTR 8[rax], rdx	# this_7(D)->_M_impl.D.187644._M_finish, _2
# /usr/include/c++/13/bits/stl_vector.h:400: 	this->_M_impl._M_end_of_storage = this->_M_impl._M_start + __n;
	mov	rax, QWORD PTR -8[rbp]	# tmp92, this
	mov	rax, QWORD PTR [rax]	# _3, this_7(D)->_M_impl.D.187644._M_start
# /usr/include/c++/13/bits/stl_vector.h:400: 	this->_M_impl._M_end_of_storage = this->_M_impl._M_start + __n;
	mov	rdx, QWORD PTR -16[rbp]	# tmp93, __n
	sal	rdx, 2	# _4,
	add	rdx, rax	# _5, _3
# /usr/include/c++/13/bits/stl_vector.h:400: 	this->_M_impl._M_end_of_storage = this->_M_impl._M_start + __n;
	mov	rax, QWORD PTR -8[rbp]	# tmp94, this
	mov	QWORD PTR 16[rax], rdx	# this_7(D)->_M_impl.D.187644._M_end_of_storage, _5
# /usr/include/c++/13/bits/stl_vector.h:401:       }
	nop	
	leave	
	.cfi_def_cfa 7, 8
	ret	
	.cfi_endproc
.LFE11315:
	.size	_ZNSt12_Vector_baseIiSaIiEE17_M_create_storageEm, .-_ZNSt12_Vector_baseIiSaIiEE17_M_create_storageEm
	.section	.text._ZNSt12_Vector_baseIiSaIiEE13_M_deallocateEPim,"axG",@progbits,_ZNSt12_Vector_baseIiSaIiEE13_M_deallocateEPim,comdat
	.align 2
	.weak	_ZNSt12_Vector_baseIiSaIiEE13_M_deallocateEPim
	.type	_ZNSt12_Vector_baseIiSaIiEE13_M_deallocateEPim, @function
_ZNSt12_Vector_baseIiSaIiEE13_M_deallocateEPim:
.LFB11316:
	.cfi_startproc
	endbr64	
	push	rbp	#
	.cfi_def_cfa_offset 16
	.cfi_offset 6, -16
	mov	rbp, rsp	#,
	.cfi_def_cfa_register 6
	sub	rsp, 64	#,
	mov	QWORD PTR -40[rbp], rdi	# this, this
	mov	QWORD PTR -48[rbp], rsi	# __p, __p
	mov	QWORD PTR -56[rbp], rdx	# __n, __n
# /usr/include/c++/13/bits/stl_vector.h:389: 	if (__p)
	cmp	QWORD PTR -48[rbp], 0	# __p,
	je	.L265	#,
# /usr/include/c++/13/bits/stl_vector.h:390: 	  _Tr::deallocate(_M_impl, __p, __n);
	mov	rax, QWORD PTR -40[rbp]	# _1, this
	mov	QWORD PTR -24[rbp], rax	# __a, _1
	mov	rax, QWORD PTR -48[rbp]	# tmp83, __p
	mov	QWORD PTR -16[rbp], rax	# __p, tmp83
	mov	rax, QWORD PTR -56[rbp]	# tmp84, __n
	mov	QWORD PTR -8[rbp], rax	# __n, tmp84
# /usr/include/c++/13/bits/alloc_traits.h:517:       { __a.deallocate(__p, __n); }
	mov	rdx, QWORD PTR -8[rbp]	# tmp85, __n
	mov	rcx, QWORD PTR -16[rbp]	# tmp86, __p
	mov	rax, QWORD PTR -24[rbp]	# tmp87, __a
	mov	rsi, rcx	#, tmp86
	mov	rdi, rax	#, tmp87
	call	_ZNSt15__new_allocatorIiE10deallocateEPim	#
# /usr/include/c++/13/bits/alloc_traits.h:517:       { __a.deallocate(__p, __n); }
	nop	
.L265:
# /usr/include/c++/13/bits/stl_vector.h:391:       }
	nop	
	leave	
	.cfi_def_cfa 7, 8
	ret	
	.cfi_endproc
.LFE11316:
	.size	_ZNSt12_Vector_baseIiSaIiEE13_M_deallocateEPim, .-_ZNSt12_Vector_baseIiSaIiEE13_M_deallocateEPim
	.section	.text._ZSt24__uninitialized_fill_n_aIPimiiET_S1_T0_RKT1_RSaIT2_E,"axG",@progbits,_ZSt24__uninitialized_fill_n_aIPimiiET_S1_T0_RKT1_RSaIT2_E,comdat
	.weak	_ZSt24__uninitialized_fill_n_aIPimiiET_S1_T0_RKT1_RSaIT2_E
	.type	_ZSt24__uninitialized_fill_n_aIPimiiET_S1_T0_RKT1_RSaIT2_E, @function
_ZSt24__uninitialized_fill_n_aIPimiiET_S1_T0_RKT1_RSaIT2_E:
.LFB11317:
	.cfi_startproc
	endbr64	
	push	rbp	#
	.cfi_def_cfa_offset 16
	.cfi_offset 6, -16
	mov	rbp, rsp	#,
	.cfi_def_cfa_register 6
	sub	rsp, 32	#,
	mov	QWORD PTR -8[rbp], rdi	# __first, __first
	mov	QWORD PTR -16[rbp], rsi	# __n, __n
	mov	QWORD PTR -24[rbp], rdx	# __x, __x
	mov	QWORD PTR -32[rbp], rcx	# D.227031, D.227031
# /usr/include/c++/13/bits/stl_uninitialized.h:472:       return std::uninitialized_fill_n(__first, __n, __x);
	mov	rdx, QWORD PTR -24[rbp]	# tmp84, __x
	mov	rcx, QWORD PTR -16[rbp]	# tmp85, __n
	mov	rax, QWORD PTR -8[rbp]	# tmp86, __first
	mov	rsi, rcx	#, tmp85
	mov	rdi, rax	#, tmp86
	call	_ZSt20uninitialized_fill_nIPimiET_S1_T0_RKT1_	#
# /usr/include/c++/13/bits/stl_uninitialized.h:473:     }
	leave	
	.cfi_def_cfa 7, 8
	ret	
	.cfi_endproc
.LFE11317:
	.size	_ZSt24__uninitialized_fill_n_aIPimiiET_S1_T0_RKT1_RSaIT2_E, .-_ZSt24__uninitialized_fill_n_aIPimiiET_S1_T0_RKT1_RSaIT2_E
	.section	.text._ZSt8_DestroyIPiEvT_S1_,"axG",@progbits,_ZSt8_DestroyIPiEvT_S1_,comdat
	.weak	_ZSt8_DestroyIPiEvT_S1_
	.type	_ZSt8_DestroyIPiEvT_S1_, @function
_ZSt8_DestroyIPiEvT_S1_:
.LFB11318:
	.cfi_startproc
	endbr64	
	push	rbp	#
	.cfi_def_cfa_offset 16
	.cfi_offset 6, -16
	mov	rbp, rsp	#,
	.cfi_def_cfa_register 6
	sub	rsp, 16	#,
	mov	QWORD PTR -8[rbp], rdi	# __first, __first
	mov	QWORD PTR -16[rbp], rsi	# __last, __last
# /usr/include/c++/13/bits/stl_construct.h:196: 	__destroy(__first, __last);
	mov	rdx, QWORD PTR -16[rbp]	# tmp82, __last
	mov	rax, QWORD PTR -8[rbp]	# tmp83, __first
	mov	rsi, rdx	#, tmp82
	mov	rdi, rax	#, tmp83
	call	_ZNSt12_Destroy_auxILb1EE9__destroyIPiEEvT_S3_	#
# /usr/include/c++/13/bits/stl_construct.h:197:     }
	nop	
	leave	
	.cfi_def_cfa 7, 8
	ret	
	.cfi_endproc
.LFE11318:
	.size	_ZSt8_DestroyIPiEvT_S1_, .-_ZSt8_DestroyIPiEvT_S1_
	.section	.text._ZN9__gnu_cxx17__normal_iteratorIPiSt6vectorIiSaIiEEEC2ERKS1_,"axG",@progbits,_ZN9__gnu_cxx17__normal_iteratorIPiSt6vectorIiSaIiEEEC5ERKS1_,comdat
	.align 2
	.weak	_ZN9__gnu_cxx17__normal_iteratorIPiSt6vectorIiSaIiEEEC2ERKS1_
	.type	_ZN9__gnu_cxx17__normal_iteratorIPiSt6vectorIiSaIiEEEC2ERKS1_, @function
_ZN9__gnu_cxx17__normal_iteratorIPiSt6vectorIiSaIiEEEC2ERKS1_:
.LFB11320:
	.cfi_startproc
	endbr64	
	push	rbp	#
	.cfi_def_cfa_offset 16
	.cfi_offset 6, -16
	mov	rbp, rsp	#,
	.cfi_def_cfa_register 6
	mov	QWORD PTR -8[rbp], rdi	# this, this
	mov	QWORD PTR -16[rbp], rsi	# __i, __i
# /usr/include/c++/13/bits/stl_iterator.h:1077:       : _M_current(__i) { }
	mov	rax, QWORD PTR -16[rbp]	# tmp83, __i
	mov	rdx, QWORD PTR [rax]	# _1, *__i_5(D)
	mov	rax, QWORD PTR -8[rbp]	# tmp84, this
	mov	QWORD PTR [rax], rdx	# this_3(D)->_M_current, _1
# /usr/include/c++/13/bits/stl_iterator.h:1077:       : _M_current(__i) { }
	nop	
	pop	rbp	#
	.cfi_def_cfa 7, 8
	ret	
	.cfi_endproc
.LFE11320:
	.size	_ZN9__gnu_cxx17__normal_iteratorIPiSt6vectorIiSaIiEEEC2ERKS1_, .-_ZN9__gnu_cxx17__normal_iteratorIPiSt6vectorIiSaIiEEEC2ERKS1_
	.weak	_ZN9__gnu_cxx17__normal_iteratorIPiSt6vectorIiSaIiEEEC1ERKS1_
	.set	_ZN9__gnu_cxx17__normal_iteratorIPiSt6vectorIiSaIiEEEC1ERKS1_,_ZN9__gnu_cxx17__normal_iteratorIPiSt6vectorIiSaIiEEEC2ERKS1_
	.section	.text._ZSt8__fill_aIN9__gnu_cxx17__normal_iteratorIPiSt6vectorIiSaIiEEEEiEvT_S7_RKT0_,"axG",@progbits,_ZSt8__fill_aIN9__gnu_cxx17__normal_iteratorIPiSt6vectorIiSaIiEEEEiEvT_S7_RKT0_,comdat
	.weak	_ZSt8__fill_aIN9__gnu_cxx17__normal_iteratorIPiSt6vectorIiSaIiEEEEiEvT_S7_RKT0_
	.type	_ZSt8__fill_aIN9__gnu_cxx17__normal_iteratorIPiSt6vectorIiSaIiEEEEiEvT_S7_RKT0_, @function
_ZSt8__fill_aIN9__gnu_cxx17__normal_iteratorIPiSt6vectorIiSaIiEEEEiEvT_S7_RKT0_:
.LFB11322:
	.cfi_startproc
	endbr64	
	push	rbp	#
	.cfi_def_cfa_offset 16
	.cfi_offset 6, -16
	mov	rbp, rsp	#,
	.cfi_def_cfa_register 6
	sub	rsp, 32	#,
	mov	QWORD PTR -8[rbp], rdi	# __first, __first
	mov	QWORD PTR -16[rbp], rsi	# __last, __last
	mov	QWORD PTR -24[rbp], rdx	# __value, __value
# /usr/include/c++/13/bits/stl_algobase.h:977:     { std::__fill_a1(__first, __last, __value); }
	mov	rdx, QWORD PTR -24[rbp]	# tmp82, __value
	mov	rcx, QWORD PTR -16[rbp]	# tmp83, __last
	mov	rax, QWORD PTR -8[rbp]	# tmp84, __first
	mov	rsi, rcx	#, tmp83
	mov	rdi, rax	#, tmp84
	call	_ZSt9__fill_a1IPiSt6vectorIiSaIiEEiEvN9__gnu_cxx17__normal_iteratorIT_T0_EES8_RKT1_	#
# /usr/include/c++/13/bits/stl_algobase.h:977:     { std::__fill_a1(__first, __last, __value); }
	nop	
	leave	
	.cfi_def_cfa 7, 8
	ret	
	.cfi_endproc
.LFE11322:
	.size	_ZSt8__fill_aIN9__gnu_cxx17__normal_iteratorIPiSt6vectorIiSaIiEEEEiEvT_S7_RKT0_, .-_ZSt8__fill_aIN9__gnu_cxx17__normal_iteratorIPiSt6vectorIiSaIiEEEEiEvT_S7_RKT0_
	.section	.text._ZSt9push_heapIN9__gnu_cxx17__normal_iteratorIPSt4pairIiiESt6vectorIS3_SaIS3_EEEESt7greaterIS3_EEvT_SB_T0_,"axG",@progbits,_ZSt9push_heapIN9__gnu_cxx17__normal_iteratorIPSt4pairIiiESt6vectorIS3_SaIS3_EEEESt7greaterIS3_EEvT_SB_T0_,comdat
	.weak	_ZSt9push_heapIN9__gnu_cxx17__normal_iteratorIPSt4pairIiiESt6vectorIS3_SaIS3_EEEESt7greaterIS3_EEvT_SB_T0_
	.type	_ZSt9push_heapIN9__gnu_cxx17__normal_iteratorIPSt4pairIiiESt6vectorIS3_SaIS3_EEEESt7greaterIS3_EEvT_SB_T0_, @function
_ZSt9push_heapIN9__gnu_cxx17__normal_iteratorIPSt4pairIiiESt6vectorIS3_SaIS3_EEEESt7greaterIS3_EEvT_SB_T0_:
.LFB11323:
	.cfi_startproc
	endbr64	
	push	rbp	#
	.cfi_def_cfa_offset 16
	.cfi_offset 6, -16
	mov	rbp, rsp	#,
	.cfi_def_cfa_register 6
	push	rbx	#
	sub	rsp, 72	#,
	.cfi_offset 3, -24
	mov	QWORD PTR -56[rbp], rdi	# __first, __first
	mov	QWORD PTR -64[rbp], rsi	# __last, __last
# /usr/include/c++/13/bits/stl_heap.h:198:     push_heap(_RandomAccessIterator __first, _RandomAccessIterator __last,
	mov	rax, QWORD PTR fs:40	# tmp102, MEM[(<address-space-1> long unsigned int *)40B]
	mov	QWORD PTR -24[rbp], rax	# D.233376, tmp102
	xor	eax, eax	# tmp102
# /usr/include/c++/13/bits/stl_heap.h:214: 	__cmp(_GLIBCXX_MOVE(__comp));
	lea	rax, -65[rbp]	# tmp89,
	mov	rdi, rax	#, tmp89
	call	_ZSt4moveIRSt7greaterISt4pairIiiEEEONSt16remove_referenceIT_E4typeEOS6_	#
# /usr/include/c++/13/bits/stl_heap.h:214: 	__cmp(_GLIBCXX_MOVE(__comp));
	lea	rax, -41[rbp]	# tmp90,
	mov	rdi, rax	#, tmp90
	call	_ZN9__gnu_cxx5__ops14_Iter_comp_valISt7greaterISt4pairIiiEEEC1ES5_	#
# /usr/include/c++/13/bits/stl_heap.h:215:       _ValueType __value = _GLIBCXX_MOVE(*(__last - 1));
	lea	rax, -64[rbp]	# tmp91,
	mov	esi, 1	#,
	mov	rdi, rax	#, tmp91
	call	_ZNK9__gnu_cxx17__normal_iteratorIPSt4pairIiiESt6vectorIS2_SaIS2_EEEmiEl	#
	mov	QWORD PTR -40[rbp], rax	# D.227288, tmp93
# /usr/include/c++/13/bits/stl_heap.h:215:       _ValueType __value = _GLIBCXX_MOVE(*(__last - 1));
	lea	rax, -40[rbp]	# tmp94,
	mov	rdi, rax	#, tmp94
	call	_ZNK9__gnu_cxx17__normal_iteratorIPSt4pairIiiESt6vectorIS2_SaIS2_EEEdeEv	#
# /usr/include/c++/13/bits/stl_heap.h:215:       _ValueType __value = _GLIBCXX_MOVE(*(__last - 1));
	mov	rdi, rax	#, _2
	call	_ZSt4moveIRSt4pairIiiEEONSt16remove_referenceIT_E4typeEOS4_	#
# /usr/include/c++/13/bits/stl_heap.h:215:       _ValueType __value = _GLIBCXX_MOVE(*(__last - 1));
	mov	rax, QWORD PTR [rax]	# tmp95, MEM[(struct pair &)_3]
	mov	QWORD PTR -32[rbp], rax	# __value, tmp95
# /usr/include/c++/13/bits/stl_heap.h:217: 		       _DistanceType(0), _GLIBCXX_MOVE(__value), __cmp);
	lea	rax, -32[rbp]	# tmp96,
	mov	rdi, rax	#, tmp96
	call	_ZSt4moveIRSt4pairIiiEEONSt16remove_referenceIT_E4typeEOS4_	#
	mov	rbx, rax	# _4,
# /usr/include/c++/13/bits/stl_heap.h:216:       std::__push_heap(__first, _DistanceType((__last - __first) - 1),
	lea	rdx, -56[rbp]	# tmp97,
	lea	rax, -64[rbp]	# tmp98,
	mov	rsi, rdx	#, tmp97
	mov	rdi, rax	#, tmp98
	call	_ZN9__gnu_cxxmiIPSt4pairIiiESt6vectorIS2_SaIS2_EEEENS_17__normal_iteratorIT_T0_E15difference_typeERKSA_SD_	#
# /usr/include/c++/13/bits/stl_heap.h:216:       std::__push_heap(__first, _DistanceType((__last - __first) - 1),
	lea	rsi, -1[rax]	# _6,
# /usr/include/c++/13/bits/stl_heap.h:216:       std::__push_heap(__first, _DistanceType((__last - __first) - 1),
	lea	rcx, -41[rbp]	# tmp99,
	mov	rdx, QWORD PTR [rbx]	# tmp100, MEM[(struct pair &)_4]
	mov	rax, QWORD PTR -56[rbp]	# tmp101, __first
	mov	r8, rcx	#, tmp99
	mov	rcx, rdx	#, tmp100
	mov	edx, 0	#,
	mov	rdi, rax	#, tmp101
	call	_ZSt11__push_heapIN9__gnu_cxx17__normal_iteratorIPSt4pairIiiESt6vectorIS3_SaIS3_EEEElS3_NS0_5__ops14_Iter_comp_valISt7greaterIS3_EEEEvT_T0_SF_T1_RT2_	#
# /usr/include/c++/13/bits/stl_heap.h:218:     }
	nop	
	mov	rax, QWORD PTR -24[rbp]	# tmp103, D.233376
	sub	rax, QWORD PTR fs:40	# tmp103, MEM[(<address-space-1> long unsigned int *)40B]
	je	.L272	#,
	call	__stack_chk_fail@PLT	#
.L272:
	mov	rbx, QWORD PTR -8[rbp]	#,
	leave	
	.cfi_def_cfa 7, 8
	ret	
	.cfi_endproc
.LFE11323:
	.size	_ZSt9push_heapIN9__gnu_cxx17__normal_iteratorIPSt4pairIiiESt6vectorIS3_SaIS3_EEEESt7greaterIS3_EEvT_SB_T0_, .-_ZSt9push_heapIN9__gnu_cxx17__normal_iteratorIPSt4pairIiiESt6vectorIS3_SaIS3_EEEESt7greaterIS3_EEvT_SB_T0_
	.section	.text._ZNKSt6vectorISt4pairIiiESaIS1_EE5emptyEv,"axG",@progbits,_ZNKSt6vectorISt4pairIiiESaIS1_EE5emptyEv,comdat
	.align 2
	.weak	_ZNKSt6vectorISt4pairIiiESaIS1_EE5emptyEv
	.type	_ZNKSt6vectorISt4pairIiiESaIS1_EE5emptyEv, @function
_ZNKSt6vectorISt4pairIiiESaIS1_EE5emptyEv:
.LFB11324:
	.cfi_startproc
	endbr64	
	push	rbp	#
	.cfi_def_cfa_offset 16
	.cfi_offset 6, -16
	mov	rbp, rsp	#,
	.cfi_def_cfa_register 6
	sub	rsp, 48	#,
	mov	QWORD PTR -40[rbp], rdi	# this, this
# /usr/include/c++/13/bits/stl_vector.h:1088:       empty() const _GLIBCXX_NOEXCEPT
	mov	rax, QWORD PTR fs:40	# tmp93, MEM[(<address-space-1> long unsigned int *)40B]
	mov	QWORD PTR -8[rbp], rax	# D.233377, tmp93
	xor	eax, eax	# tmp93
# /usr/include/c++/13/bits/stl_vector.h:1089:       { return begin() == end(); }
	mov	rax, QWORD PTR -40[rbp]	# tmp84, this
	mov	rdi, rax	#, tmp84
	call	_ZNKSt6vectorISt4pairIiiESaIS1_EE3endEv	#
	mov	QWORD PTR -16[rbp], rax	# D.227414, tmp86
# /usr/include/c++/13/bits/stl_vector.h:1089:       { return begin() == end(); }
	mov	rax, QWORD PTR -40[rbp]	# tmp87, this
	mov	rdi, rax	#, tmp87
	call	_ZNKSt6vectorISt4pairIiiESaIS1_EE5beginEv	#
	mov	QWORD PTR -24[rbp], rax	# D.227404, tmp89
# /usr/include/c++/13/bits/stl_vector.h:1089:       { return begin() == end(); }
	lea	rdx, -16[rbp]	# tmp90,
	lea	rax, -24[rbp]	# tmp91,
	mov	rsi, rdx	#, tmp90
	mov	rdi, rax	#, tmp91
	call	_ZN9__gnu_cxxeqIPKSt4pairIiiESt6vectorIS2_SaIS2_EEEEbRKNS_17__normal_iteratorIT_T0_EESD_	#
# /usr/include/c++/13/bits/stl_vector.h:1089:       { return begin() == end(); }
	mov	rdx, QWORD PTR -8[rbp]	# tmp94, D.233377
	sub	rdx, QWORD PTR fs:40	# tmp94, MEM[(<address-space-1> long unsigned int *)40B]
	je	.L275	#,
	call	__stack_chk_fail@PLT	#
.L275:
	leave	
	.cfi_def_cfa 7, 8
	ret	
	.cfi_endproc
.LFE11324:
	.size	_ZNKSt6vectorISt4pairIiiESaIS1_EE5emptyEv, .-_ZNKSt6vectorISt4pairIiiESaIS1_EE5emptyEv
	.section	.text._ZNKSt6vectorISt4pairIiiESaIS1_EE5frontEv,"axG",@progbits,_ZNKSt6vectorISt4pairIiiESaIS1_EE5frontEv,comdat
	.align 2
	.weak	_ZNKSt6vectorISt4pairIiiESaIS1_EE5frontEv
	.type	_ZNKSt6vectorISt4pairIiiESaIS1_EE5frontEv, @function
_ZNKSt6vectorISt4pairIiiESaIS1_EE5frontEv:
.LFB11325:
	.cfi_startproc
	endbr64	
	push	rbp	#
	.cfi_def_cfa_offset 16
	.cfi_offset 6, -16
	mov	rbp, rsp	#,
	.cfi_def_cfa_register 6
	sub	rsp, 32	#,
	mov	QWORD PTR -24[rbp], rdi	# this, this
# /usr/include/c++/13/bits/stl_vector.h:1221:       front() const _GLIBCXX_NOEXCEPT
	mov	rax, QWORD PTR fs:40	# tmp89, MEM[(<address-space-1> long unsigned int *)40B]
	mov	QWORD PTR -8[rbp], rax	# D.233378, tmp89
	xor	eax, eax	# tmp89
# /usr/include/c++/13/bits/stl_vector.h:1224: 	return *begin();
	mov	rax, QWORD PTR -24[rbp]	# tmp84, this
	mov	rdi, rax	#, tmp84
	call	_ZNKSt6vectorISt4pairIiiESaIS1_EE5beginEv	#
	mov	QWORD PTR -16[rbp], rax	# D.227440, tmp86
# /usr/include/c++/13/bits/stl_vector.h:1224: 	return *begin();
	lea	rax, -16[rbp]	# tmp87,
	mov	rdi, rax	#, tmp87
	call	_ZNK9__gnu_cxx17__normal_iteratorIPKSt4pairIiiESt6vectorIS2_SaIS2_EEEdeEv	#
# /usr/include/c++/13/bits/stl_vector.h:1225:       }
	mov	rdx, QWORD PTR -8[rbp]	# tmp90, D.233378
	sub	rdx, QWORD PTR fs:40	# tmp90, MEM[(<address-space-1> long unsigned int *)40B]
	je	.L278	#,
	call	__stack_chk_fail@PLT	#
.L278:
	leave	
	.cfi_def_cfa 7, 8
	ret	
	.cfi_endproc
.LFE11325:
	.size	_ZNKSt6vectorISt4pairIiiESaIS1_EE5frontEv, .-_ZNKSt6vectorISt4pairIiiESaIS1_EE5frontEv
	.section	.text._ZSt4moveIRSt7greaterISt4pairIiiEEEONSt16remove_referenceIT_E4typeEOS6_,"axG",@progbits,_ZSt4moveIRSt7greaterISt4pairIiiEEEONSt16remove_referenceIT_E4typeEOS6_,comdat
	.weak	_ZSt4moveIRSt7greaterISt4pairIiiEEEONSt16remove_referenceIT_E4typeEOS6_
	.type	_ZSt4moveIRSt7greaterISt4pairIiiEEEONSt16remove_referenceIT_E4typeEOS6_, @function
_ZSt4moveIRSt7greaterISt4pairIiiEEEONSt16remove_referenceIT_E4typeEOS6_:
.LFB11327:
	.cfi_startproc
	endbr64	
	push	rbp	#
	.cfi_def_cfa_offset 16
	.cfi_offset 6, -16
	mov	rbp, rsp	#,
	.cfi_def_cfa_register 6
	mov	QWORD PTR -8[rbp], rdi	# __t, __t
# /usr/include/c++/13/bits/move.h:98:     { return static_cast<typename std::remove_reference<_Tp>::type&&>(__t); }
	mov	rax, QWORD PTR -8[rbp]	# _2, __t
# /usr/include/c++/13/bits/move.h:98:     { return static_cast<typename std::remove_reference<_Tp>::type&&>(__t); }
	pop	rbp	#
	.cfi_def_cfa 7, 8
	ret	
	.cfi_endproc
.LFE11327:
	.size	_ZSt4moveIRSt7greaterISt4pairIiiEEEONSt16remove_referenceIT_E4typeEOS6_, .-_ZSt4moveIRSt7greaterISt4pairIiiEEEONSt16remove_referenceIT_E4typeEOS6_
	.section	.text._ZSt8pop_heapIN9__gnu_cxx17__normal_iteratorIPSt4pairIiiESt6vectorIS3_SaIS3_EEEESt7greaterIS3_EEvT_SB_T0_,"axG",@progbits,_ZSt8pop_heapIN9__gnu_cxx17__normal_iteratorIPSt4pairIiiESt6vectorIS3_SaIS3_EEEESt7greaterIS3_EEvT_SB_T0_,comdat
	.weak	_ZSt8pop_heapIN9__gnu_cxx17__normal_iteratorIPSt4pairIiiESt6vectorIS3_SaIS3_EEEESt7greaterIS3_EEvT_SB_T0_
	.type	_ZSt8pop_heapIN9__gnu_cxx17__normal_iteratorIPSt4pairIiiESt6vectorIS3_SaIS3_EEEESt7greaterIS3_EEvT_SB_T0_, @function
_ZSt8pop_heapIN9__gnu_cxx17__normal_iteratorIPSt4pairIiiESt6vectorIS3_SaIS3_EEEESt7greaterIS3_EEvT_SB_T0_:
.LFB11326:
	.cfi_startproc
	endbr64	
	push	rbp	#
	.cfi_def_cfa_offset 16
	.cfi_offset 6, -16
	mov	rbp, rsp	#,
	.cfi_def_cfa_register 6
	sub	rsp, 48	#,
	mov	QWORD PTR -24[rbp], rdi	# __first, __first
	mov	QWORD PTR -32[rbp], rsi	# __last, __last
# /usr/include/c++/13/bits/stl_heap.h:317:     pop_heap(_RandomAccessIterator __first,
	mov	rax, QWORD PTR fs:40	# tmp91, MEM[(<address-space-1> long unsigned int *)40B]
	mov	QWORD PTR -8[rbp], rax	# D.233379, tmp91
	xor	eax, eax	# tmp91
# /usr/include/c++/13/bits/stl_heap.h:328:       if (__last - __first > 1)
	lea	rdx, -24[rbp]	# tmp84,
	lea	rax, -32[rbp]	# tmp85,
	mov	rsi, rdx	#, tmp84
	mov	rdi, rax	#, tmp85
	call	_ZN9__gnu_cxxmiIPSt4pairIiiESt6vectorIS2_SaIS2_EEEENS_17__normal_iteratorIT_T0_E15difference_typeERKSA_SD_	#
# /usr/include/c++/13/bits/stl_heap.h:328:       if (__last - __first > 1)
	cmp	rax, 1	# _1,
	setg	al	#, retval.34_5
# /usr/include/c++/13/bits/stl_heap.h:328:       if (__last - __first > 1)
	test	al, al	# retval.34_5
	je	.L284	#,
# /usr/include/c++/13/bits/stl_heap.h:332: 	  --__last;
	lea	rax, -32[rbp]	# tmp86,
	mov	rdi, rax	#, tmp86
	call	_ZN9__gnu_cxx17__normal_iteratorIPSt4pairIiiESt6vectorIS2_SaIS2_EEEmmEv	#
# /usr/include/c++/13/bits/stl_heap.h:333: 	  std::__pop_heap(__first, __last, __last, __cmp);
	lea	rcx, -9[rbp]	# tmp87,
	mov	rdx, QWORD PTR -32[rbp]	# tmp88, __last
	mov	rsi, QWORD PTR -32[rbp]	# tmp89, __last
	mov	rax, QWORD PTR -24[rbp]	# tmp90, __first
	mov	rdi, rax	#, tmp90
	call	_ZSt10__pop_heapIN9__gnu_cxx17__normal_iteratorIPSt4pairIiiESt6vectorIS3_SaIS3_EEEENS0_5__ops15_Iter_comp_iterISt7greaterIS3_EEEEvT_SE_SE_RT0_	#
.L284:
# /usr/include/c++/13/bits/stl_heap.h:335:     }
	nop	
	mov	rax, QWORD PTR -8[rbp]	# tmp92, D.233379
	sub	rax, QWORD PTR fs:40	# tmp92, MEM[(<address-space-1> long unsigned int *)40B]
	je	.L283	#,
	call	__stack_chk_fail@PLT	#
.L283:
	leave	
	.cfi_def_cfa 7, 8
	ret	
	.cfi_endproc
.LFE11326:
	.size	_ZSt8pop_heapIN9__gnu_cxx17__normal_iteratorIPSt4pairIiiESt6vectorIS3_SaIS3_EEEESt7greaterIS3_EEvT_SB_T0_, .-_ZSt8pop_heapIN9__gnu_cxx17__normal_iteratorIPSt4pairIiiESt6vectorIS3_SaIS3_EEEESt7greaterIS3_EEvT_SB_T0_
	.section	.text._ZNSt6vectorISt4pairIiiESaIS1_EE8pop_backEv,"axG",@progbits,_ZNSt6vectorISt4pairIiiESaIS1_EE8pop_backEv,comdat
	.align 2
	.weak	_ZNSt6vectorISt4pairIiiESaIS1_EE8pop_backEv
	.type	_ZNSt6vectorISt4pairIiiESaIS1_EE8pop_backEv, @function
_ZNSt6vectorISt4pairIiiESaIS1_EE8pop_backEv:
.LFB11331:
	.cfi_startproc
	endbr64	
	push	rbp	#
	.cfi_def_cfa_offset 16
	.cfi_offset 6, -16
	mov	rbp, rsp	#,
	.cfi_def_cfa_register 6
	mov	QWORD PTR -40[rbp], rdi	# this, this
# /usr/include/c++/13/bits/stl_vector.h:1325: 	--this->_M_impl._M_finish;
	mov	rax, QWORD PTR -40[rbp]	# tmp86, this
	mov	rax, QWORD PTR 8[rax]	# _1, this_6(D)->D.210289._M_impl.D.209628._M_finish
# /usr/include/c++/13/bits/stl_vector.h:1325: 	--this->_M_impl._M_finish;
	lea	rdx, -8[rax]	# _2,
	mov	rax, QWORD PTR -40[rbp]	# tmp87, this
	mov	QWORD PTR 8[rax], rdx	# this_6(D)->D.210289._M_impl.D.209628._M_finish, _2
# /usr/include/c++/13/bits/stl_vector.h:1326: 	_Alloc_traits::destroy(this->_M_impl, this->_M_impl._M_finish);
	mov	rax, QWORD PTR -40[rbp]	# tmp88, this
	mov	rax, QWORD PTR 8[rax]	# _3, this_6(D)->D.210289._M_impl.D.209628._M_finish
# /usr/include/c++/13/bits/stl_vector.h:1326: 	_Alloc_traits::destroy(this->_M_impl, this->_M_impl._M_finish);
	mov	rdx, QWORD PTR -40[rbp]	# _4, this
	mov	QWORD PTR -32[rbp], rdx	# __a, _4
	mov	QWORD PTR -24[rbp], rax	# __p, _3
	mov	rax, QWORD PTR -32[rbp]	# tmp89, __a
	mov	QWORD PTR -16[rbp], rax	# this, tmp89
	mov	rax, QWORD PTR -24[rbp]	# tmp90, __p
	mov	QWORD PTR -8[rbp], rax	# __p, tmp90
# /usr/include/c++/13/bits/new_allocator.h:198: 	{ __p->~_Up(); }
	nop	
# /usr/include/c++/13/bits/alloc_traits.h:562: 	}
	nop	
# /usr/include/c++/13/bits/stl_vector.h:1328:       }
	nop	
	pop	rbp	#
	.cfi_def_cfa 7, 8
	ret	
	.cfi_endproc
.LFE11331:
	.size	_ZNSt6vectorISt4pairIiiESaIS1_EE8pop_backEv, .-_ZNSt6vectorISt4pairIiiESaIS1_EE8pop_backEv
	.section	.text._ZNSt6vectorIbSaIbEE5beginEv,"axG",@progbits,_ZNSt6vectorIbSaIbEE5beginEv,comdat
	.align 2
	.weak	_ZNSt6vectorIbSaIbEE5beginEv
	.type	_ZNSt6vectorIbSaIbEE5beginEv, @function
_ZNSt6vectorIbSaIbEE5beginEv:
.LFB11332:
	.cfi_startproc
	endbr64	
	push	rbp	#
	.cfi_def_cfa_offset 16
	.cfi_offset 6, -16
	mov	rbp, rsp	#,
	.cfi_def_cfa_register 6
	sub	rsp, 80	#,
	mov	QWORD PTR -56[rbp], rdi	# this, this
# /usr/include/c++/13/bits/stl_bvector.h:995:       begin() _GLIBCXX_NOEXCEPT
	mov	rax, QWORD PTR fs:40	# tmp88, MEM[(<address-space-1> long unsigned int *)40B]
	mov	QWORD PTR -8[rbp], rax	# D.233380, tmp88
	xor	eax, eax	# tmp88
# /usr/include/c++/13/bits/stl_bvector.h:996:       { return iterator(this->_M_impl._M_start._M_p, 0); }
	mov	rax, QWORD PTR -56[rbp]	# tmp84, this
	mov	rcx, QWORD PTR [rax]	# _1, this_3(D)->D.212115._M_impl.D.211589._M_start.D.58751._M_p
	lea	rax, -48[rbp]	# tmp85,
	mov	edx, 0	#,
	mov	rsi, rcx	#, _1
	mov	rdi, rax	#, tmp85
	call	_ZNSt13_Bit_iteratorC1EPmj	#
# /usr/include/c++/13/bits/stl_bvector.h:996:       { return iterator(this->_M_impl._M_start._M_p, 0); }
	mov	rax, QWORD PTR -48[rbp]	# tmp86, D.227479
	mov	rdx, QWORD PTR -40[rbp]	#, D.227479
	mov	QWORD PTR -32[rbp], rax	# D.232691, tmp86
	mov	QWORD PTR -24[rbp], rdx	# D.232691,
# /usr/include/c++/13/bits/stl_bvector.h:996:       { return iterator(this->_M_impl._M_start._M_p, 0); }
	mov	rax, QWORD PTR -32[rbp]	# tmp87, D.232691
	mov	rdx, QWORD PTR -24[rbp]	#, D.232691
# /usr/include/c++/13/bits/stl_bvector.h:996:       { return iterator(this->_M_impl._M_start._M_p, 0); }
	mov	rcx, QWORD PTR -8[rbp]	# tmp89, D.233380
	sub	rcx, QWORD PTR fs:40	# tmp89, MEM[(<address-space-1> long unsigned int *)40B]
	je	.L288	#,
	call	__stack_chk_fail@PLT	#
.L288:
	leave	
	.cfi_def_cfa 7, 8
	ret	
	.cfi_endproc
.LFE11332:
	.size	_ZNSt6vectorIbSaIbEE5beginEv, .-_ZNSt6vectorIbSaIbEE5beginEv
	.section	.text._ZN9__gnu_cxx17__normal_iteratorIPSt4pairIiiESt6vectorIS2_SaIS2_EEEC2ERKS3_,"axG",@progbits,_ZN9__gnu_cxx17__normal_iteratorIPSt4pairIiiESt6vectorIS2_SaIS2_EEEC5ERKS3_,comdat
	.align 2
	.weak	_ZN9__gnu_cxx17__normal_iteratorIPSt4pairIiiESt6vectorIS2_SaIS2_EEEC2ERKS3_
	.type	_ZN9__gnu_cxx17__normal_iteratorIPSt4pairIiiESt6vectorIS2_SaIS2_EEEC2ERKS3_, @function
_ZN9__gnu_cxx17__normal_iteratorIPSt4pairIiiESt6vectorIS2_SaIS2_EEEC2ERKS3_:
.LFB11334:
	.cfi_startproc
	endbr64	
	push	rbp	#
	.cfi_def_cfa_offset 16
	.cfi_offset 6, -16
	mov	rbp, rsp	#,
	.cfi_def_cfa_register 6
	mov	QWORD PTR -8[rbp], rdi	# this, this
	mov	QWORD PTR -16[rbp], rsi	# __i, __i
# /usr/include/c++/13/bits/stl_iterator.h:1077:       : _M_current(__i) { }
	mov	rax, QWORD PTR -16[rbp]	# tmp83, __i
	mov	rdx, QWORD PTR [rax]	# _1, *__i_5(D)
	mov	rax, QWORD PTR -8[rbp]	# tmp84, this
	mov	QWORD PTR [rax], rdx	# this_3(D)->_M_current, _1
# /usr/include/c++/13/bits/stl_iterator.h:1077:       : _M_current(__i) { }
	nop	
	pop	rbp	#
	.cfi_def_cfa 7, 8
	ret	
	.cfi_endproc
.LFE11334:
	.size	_ZN9__gnu_cxx17__normal_iteratorIPSt4pairIiiESt6vectorIS2_SaIS2_EEEC2ERKS3_, .-_ZN9__gnu_cxx17__normal_iteratorIPSt4pairIiiESt6vectorIS2_SaIS2_EEEC2ERKS3_
	.weak	_ZN9__gnu_cxx17__normal_iteratorIPSt4pairIiiESt6vectorIS2_SaIS2_EEEC1ERKS3_
	.set	_ZN9__gnu_cxx17__normal_iteratorIPSt4pairIiiESt6vectorIS2_SaIS2_EEEC1ERKS3_,_ZN9__gnu_cxx17__normal_iteratorIPSt4pairIiiESt6vectorIS2_SaIS2_EEEC2ERKS3_
	.section	.text._ZNK9__gnu_cxx17__normal_iteratorIPSt4pairIiiESt6vectorIS2_SaIS2_EEE4baseEv,"axG",@progbits,_ZNK9__gnu_cxx17__normal_iteratorIPSt4pairIiiESt6vectorIS2_SaIS2_EEE4baseEv,comdat
	.align 2
	.weak	_ZNK9__gnu_cxx17__normal_iteratorIPSt4pairIiiESt6vectorIS2_SaIS2_EEE4baseEv
	.type	_ZNK9__gnu_cxx17__normal_iteratorIPSt4pairIiiESt6vectorIS2_SaIS2_EEE4baseEv, @function
_ZNK9__gnu_cxx17__normal_iteratorIPSt4pairIiiESt6vectorIS2_SaIS2_EEE4baseEv:
.LFB11336:
	.cfi_startproc
	endbr64	
	push	rbp	#
	.cfi_def_cfa_offset 16
	.cfi_offset 6, -16
	mov	rbp, rsp	#,
	.cfi_def_cfa_register 6
	mov	QWORD PTR -8[rbp], rdi	# this, this
# /usr/include/c++/13/bits/stl_iterator.h:1163:       { return _M_current; }
	mov	rax, QWORD PTR -8[rbp]	# _2, this
# /usr/include/c++/13/bits/stl_iterator.h:1163:       { return _M_current; }
	pop	rbp	#
	.cfi_def_cfa 7, 8
	ret	
	.cfi_endproc
.LFE11336:
	.size	_ZNK9__gnu_cxx17__normal_iteratorIPSt4pairIiiESt6vectorIS2_SaIS2_EEE4baseEv, .-_ZNK9__gnu_cxx17__normal_iteratorIPSt4pairIiiESt6vectorIS2_SaIS2_EEE4baseEv
	.section	.text._ZNSt12_Vector_baseIiSaIiEE17_Vector_impl_dataC2Ev,"axG",@progbits,_ZNSt12_Vector_baseIiSaIiEE17_Vector_impl_dataC5Ev,comdat
	.align 2
	.weak	_ZNSt12_Vector_baseIiSaIiEE17_Vector_impl_dataC2Ev
	.type	_ZNSt12_Vector_baseIiSaIiEE17_Vector_impl_dataC2Ev, @function
_ZNSt12_Vector_baseIiSaIiEE17_Vector_impl_dataC2Ev:
.LFB11339:
	.cfi_startproc
	endbr64	
	push	rbp	#
	.cfi_def_cfa_offset 16
	.cfi_offset 6, -16
	mov	rbp, rsp	#,
	.cfi_def_cfa_register 6
	mov	QWORD PTR -8[rbp], rdi	# this, this
# /usr/include/c++/13/bits/stl_vector.h:100: 	: _M_start(), _M_finish(), _M_end_of_storage()
	mov	rax, QWORD PTR -8[rbp]	# tmp82, this
	mov	QWORD PTR [rax], 0	# this_2(D)->_M_start,
# /usr/include/c++/13/bits/stl_vector.h:100: 	: _M_start(), _M_finish(), _M_end_of_storage()
	mov	rax, QWORD PTR -8[rbp]	# tmp83, this
	mov	QWORD PTR 8[rax], 0	# this_2(D)->_M_finish,
# /usr/include/c++/13/bits/stl_vector.h:100: 	: _M_start(), _M_finish(), _M_end_of_storage()
	mov	rax, QWORD PTR -8[rbp]	# tmp84, this
	mov	QWORD PTR 16[rax], 0	# this_2(D)->_M_end_of_storage,
# /usr/include/c++/13/bits/stl_vector.h:101: 	{ }
	nop	
	pop	rbp	#
	.cfi_def_cfa 7, 8
	ret	
	.cfi_endproc
.LFE11339:
	.size	_ZNSt12_Vector_baseIiSaIiEE17_Vector_impl_dataC2Ev, .-_ZNSt12_Vector_baseIiSaIiEE17_Vector_impl_dataC2Ev
	.weak	_ZNSt12_Vector_baseIiSaIiEE17_Vector_impl_dataC1Ev
	.set	_ZNSt12_Vector_baseIiSaIiEE17_Vector_impl_dataC1Ev,_ZNSt12_Vector_baseIiSaIiEE17_Vector_impl_dataC2Ev
	.section	.text._ZNSt6vectorIiSaIiEE17_M_realloc_insertIJRKiEEEvN9__gnu_cxx17__normal_iteratorIPiS1_EEDpOT_,"axG",@progbits,_ZNSt6vectorIiSaIiEE17_M_realloc_insertIJRKiEEEvN9__gnu_cxx17__normal_iteratorIPiS1_EEDpOT_,comdat
	.align 2
	.weak	_ZNSt6vectorIiSaIiEE17_M_realloc_insertIJRKiEEEvN9__gnu_cxx17__normal_iteratorIPiS1_EEDpOT_
	.type	_ZNSt6vectorIiSaIiEE17_M_realloc_insertIJRKiEEEvN9__gnu_cxx17__normal_iteratorIPiS1_EEDpOT_, @function
_ZNSt6vectorIiSaIiEE17_M_realloc_insertIJRKiEEEvN9__gnu_cxx17__normal_iteratorIPiS1_EEDpOT_:
.LFB11342:
	.cfi_startproc
	endbr64	
	push	rbp	#
	.cfi_def_cfa_offset 16
	.cfi_offset 6, -16
	mov	rbp, rsp	#,
	.cfi_def_cfa_register 6
	push	rbx	#
	sub	rsp, 152	#,
	.cfi_offset 3, -24
	mov	QWORD PTR -136[rbp], rdi	# this, this
	mov	QWORD PTR -144[rbp], rsi	# __position, __position
	mov	QWORD PTR -152[rbp], rdx	# __args#0, __args#0
# /usr/include/c++/13/bits/vector.tcc:445:       vector<_Tp, _Alloc>::
	mov	rax, QWORD PTR fs:40	# tmp157, MEM[(<address-space-1> long unsigned int *)40B]
	mov	QWORD PTR -24[rbp], rax	# D.233381, tmp157
	xor	eax, eax	# tmp157
# /usr/include/c++/13/bits/vector.tcc:455: 	_M_check_len(size_type(1), "vector::_M_realloc_insert");
	mov	rax, QWORD PTR -136[rbp]	# tmp119, this
	lea	rdx, .LC6[rip]	# tmp120,
	mov	esi, 1	#,
	mov	rdi, rax	#, tmp119
	call	_ZNKSt6vectorIiSaIiEE12_M_check_lenEmPKc	#
# /usr/include/c++/13/bits/vector.tcc:455: 	_M_check_len(size_type(1), "vector::_M_realloc_insert");
	mov	QWORD PTR -120[rbp], rax	# __len, _32
# /usr/include/c++/13/bits/vector.tcc:456:       pointer __old_start = this->_M_impl._M_start;
	mov	rax, QWORD PTR -136[rbp]	# tmp121, this
	mov	rax, QWORD PTR [rax]	# tmp122, this_30(D)->D.188304._M_impl.D.187644._M_start
	mov	QWORD PTR -112[rbp], rax	# __old_start, tmp122
# /usr/include/c++/13/bits/vector.tcc:457:       pointer __old_finish = this->_M_impl._M_finish;
	mov	rax, QWORD PTR -136[rbp]	# tmp123, this
	mov	rax, QWORD PTR 8[rax]	# tmp124, this_30(D)->D.188304._M_impl.D.187644._M_finish
	mov	QWORD PTR -104[rbp], rax	# __old_finish, tmp124
# /usr/include/c++/13/bits/vector.tcc:458:       const size_type __elems_before = __position - begin();
	mov	rax, QWORD PTR -136[rbp]	# tmp125, this
	mov	rdi, rax	#, tmp125
	call	_ZNSt6vectorIiSaIiEE5beginEv	#
	mov	QWORD PTR -128[rbp], rax	# D.227513, tmp127
# /usr/include/c++/13/bits/vector.tcc:458:       const size_type __elems_before = __position - begin();
	lea	rdx, -128[rbp]	# tmp128,
	lea	rax, -144[rbp]	# tmp129,
	mov	rsi, rdx	#, tmp128
	mov	rdi, rax	#, tmp129
	call	_ZN9__gnu_cxxmiIPiSt6vectorIiSaIiEEEENS_17__normal_iteratorIT_T0_E15difference_typeERKS8_SB_	#
# /usr/include/c++/13/bits/vector.tcc:458:       const size_type __elems_before = __position - begin();
	mov	QWORD PTR -96[rbp], rax	# __elems_before, _1
# /usr/include/c++/13/bits/vector.tcc:459:       pointer __new_start(this->_M_allocate(__len));
	mov	rax, QWORD PTR -136[rbp]	# _2, this
	mov	rdx, QWORD PTR -120[rbp]	# tmp130, __len
	mov	rsi, rdx	#, tmp130
	mov	rdi, rax	#, _2
	call	_ZNSt12_Vector_baseIiSaIiEE11_M_allocateEm	#
# /usr/include/c++/13/bits/vector.tcc:459:       pointer __new_start(this->_M_allocate(__len));
	mov	QWORD PTR -88[rbp], rax	# __new_start, _41
# /usr/include/c++/13/bits/vector.tcc:460:       pointer __new_finish(__new_start);
	mov	rax, QWORD PTR -88[rbp]	# tmp131, __new_start
	mov	QWORD PTR -80[rbp], rax	# __new_finish, tmp131
# /usr/include/c++/13/bits/vector.tcc:468: 	  _Alloc_traits::construct(this->_M_impl,
	mov	rax, QWORD PTR -152[rbp]	# tmp132, __args#0
	mov	rdi, rax	#, tmp132
	call	_ZSt7forwardIRKiEOT_RNSt16remove_referenceIS2_E4typeE	#
# /usr/include/c++/13/bits/vector.tcc:469: 				   __new_start + __elems_before,
	mov	rdx, QWORD PTR -96[rbp]	# tmp133, __elems_before
	lea	rcx, 0[0+rdx*4]	# _4,
# /usr/include/c++/13/bits/vector.tcc:468: 	  _Alloc_traits::construct(this->_M_impl,
	mov	rdx, QWORD PTR -88[rbp]	# tmp134, __new_start
	add	rcx, rdx	# _5, tmp134
# /usr/include/c++/13/bits/vector.tcc:468: 	  _Alloc_traits::construct(this->_M_impl,
	mov	rdx, QWORD PTR -136[rbp]	# _6, this
	mov	QWORD PTR -72[rbp], rdx	# __a, _6
	mov	QWORD PTR -64[rbp], rcx	# __p, _5
	mov	QWORD PTR -56[rbp], rax	# __args#0, _3
# /usr/include/c++/13/bits/alloc_traits.h:538: 	  __a.construct(__p, std::forward<_Args>(__args)...);
	mov	rax, QWORD PTR -56[rbp]	# tmp135, __args#0
	mov	rdi, rax	#, tmp135
	call	_ZSt7forwardIRKiEOT_RNSt16remove_referenceIS2_E4typeE	#
	mov	rdx, QWORD PTR -72[rbp]	# tmp136, __a
	mov	QWORD PTR -48[rbp], rdx	# this, tmp136
	mov	rdx, QWORD PTR -64[rbp]	# tmp137, __p
	mov	QWORD PTR -40[rbp], rdx	# __p, tmp137
	mov	QWORD PTR -32[rbp], rax	# __args#0, _63
# /usr/include/c++/13/bits/new_allocator.h:191: 	{ ::new((void *)__p) _Up(std::forward<_Args>(__args)...); }
	mov	rax, QWORD PTR -40[rbp]	# _67, __p
# /usr/include/c++/13/bits/new_allocator.h:191: 	{ ::new((void *)__p) _Up(std::forward<_Args>(__args)...); }
	mov	rsi, rax	#, _67
	mov	edi, 4	#,
	call	_ZnwmPv	#
	mov	rbx, rax	# _68,
# /usr/include/c++/13/bits/new_allocator.h:191: 	{ ::new((void *)__p) _Up(std::forward<_Args>(__args)...); }
	mov	rax, QWORD PTR -32[rbp]	# tmp138, __args#0
	mov	rdi, rax	#, tmp138
	call	_ZSt7forwardIRKiEOT_RNSt16remove_referenceIS2_E4typeE	#
# /usr/include/c++/13/bits/new_allocator.h:191: 	{ ::new((void *)__p) _Up(std::forward<_Args>(__args)...); }
	mov	eax, DWORD PTR [rax]	# _71, *_70
	mov	DWORD PTR [rbx], eax	# MEM[(int *)_68], _71
# /usr/include/c++/13/bits/new_allocator.h:191: 	{ ::new((void *)__p) _Up(std::forward<_Args>(__args)...); }
	nop	
# /usr/include/c++/13/bits/alloc_traits.h:542: 	}
	nop	
# /usr/include/c++/13/bits/vector.tcc:475: 	  __new_finish = pointer();
	mov	QWORD PTR -80[rbp], 0	# __new_finish,
# /usr/include/c++/13/bits/vector.tcc:481: 					 __new_start, _M_get_Tp_allocator());
	mov	rax, QWORD PTR -136[rbp]	# _7, this
	mov	rdi, rax	#, _7
	call	_ZNSt12_Vector_baseIiSaIiEE19_M_get_Tp_allocatorEv	#
	mov	rbx, rax	# _8,
# /usr/include/c++/13/bits/vector.tcc:480: 	      __new_finish = _S_relocate(__old_start, __position.base(),
	lea	rax, -144[rbp]	# tmp139,
	mov	rdi, rax	#, tmp139
	call	_ZNK9__gnu_cxx17__normal_iteratorIPiSt6vectorIiSaIiEEE4baseEv	#
# /usr/include/c++/13/bits/vector.tcc:480: 	      __new_finish = _S_relocate(__old_start, __position.base(),
	mov	rsi, QWORD PTR [rax]	# _10, *_9
	mov	rdx, QWORD PTR -88[rbp]	# tmp140, __new_start
	mov	rax, QWORD PTR -112[rbp]	# tmp141, __old_start
	mov	rcx, rbx	#, _8
	mov	rdi, rax	#, tmp141
	call	_ZNSt6vectorIiSaIiEE11_S_relocateEPiS2_S2_RS0_	#
	mov	QWORD PTR -80[rbp], rax	# __new_finish, tmp142
# /usr/include/c++/13/bits/vector.tcc:483: 	      ++__new_finish;
	add	QWORD PTR -80[rbp], 4	# __new_finish,
# /usr/include/c++/13/bits/vector.tcc:486: 					 __new_finish, _M_get_Tp_allocator());
	mov	rax, QWORD PTR -136[rbp]	# _11, this
	mov	rdi, rax	#, _11
	call	_ZNSt12_Vector_baseIiSaIiEE19_M_get_Tp_allocatorEv	#
	mov	rbx, rax	# _12,
# /usr/include/c++/13/bits/vector.tcc:485: 	      __new_finish = _S_relocate(__position.base(), __old_finish,
	lea	rax, -144[rbp]	# tmp143,
	mov	rdi, rax	#, tmp143
	call	_ZNK9__gnu_cxx17__normal_iteratorIPiSt6vectorIiSaIiEEE4baseEv	#
# /usr/include/c++/13/bits/vector.tcc:485: 	      __new_finish = _S_relocate(__position.base(), __old_finish,
	mov	rax, QWORD PTR [rax]	# _14, *_13
	mov	rdx, QWORD PTR -80[rbp]	# tmp144, __new_finish
	mov	rsi, QWORD PTR -104[rbp]	# tmp145, __old_finish
	mov	rcx, rbx	#, _12
	mov	rdi, rax	#, _14
	call	_ZNSt6vectorIiSaIiEE11_S_relocateEPiS2_S2_RS0_	#
	mov	QWORD PTR -80[rbp], rax	# __new_finish, tmp146
# /usr/include/c++/13/bits/vector.tcc:519:       _M_deallocate(__old_start,
	mov	rax, QWORD PTR -136[rbp]	# _22, this
# /usr/include/c++/13/bits/vector.tcc:520: 		    this->_M_impl._M_end_of_storage - __old_start);
	mov	rdx, QWORD PTR -136[rbp]	# tmp147, this
	mov	rdx, QWORD PTR 16[rdx]	# _23, this_30(D)->D.188304._M_impl.D.187644._M_end_of_storage
# /usr/include/c++/13/bits/vector.tcc:520: 		    this->_M_impl._M_end_of_storage - __old_start);
	sub	rdx, QWORD PTR -112[rbp]	# _24, __old_start
	sar	rdx, 2	# tmp148,
# /usr/include/c++/13/bits/vector.tcc:519:       _M_deallocate(__old_start,
	mov	rcx, QWORD PTR -112[rbp]	# tmp149, __old_start
	mov	rsi, rcx	#, tmp149
	mov	rdi, rax	#, _22
	call	_ZNSt12_Vector_baseIiSaIiEE13_M_deallocateEPim	#
# /usr/include/c++/13/bits/vector.tcc:521:       this->_M_impl._M_start = __new_start;
	mov	rax, QWORD PTR -136[rbp]	# tmp150, this
	mov	rdx, QWORD PTR -88[rbp]	# tmp151, __new_start
	mov	QWORD PTR [rax], rdx	# this_30(D)->D.188304._M_impl.D.187644._M_start, tmp151
# /usr/include/c++/13/bits/vector.tcc:522:       this->_M_impl._M_finish = __new_finish;
	mov	rax, QWORD PTR -136[rbp]	# tmp152, this
	mov	rdx, QWORD PTR -80[rbp]	# tmp153, __new_finish
	mov	QWORD PTR 8[rax], rdx	# this_30(D)->D.188304._M_impl.D.187644._M_finish, tmp153
# /usr/include/c++/13/bits/vector.tcc:523:       this->_M_impl._M_end_of_storage = __new_start + __len;
	mov	rax, QWORD PTR -120[rbp]	# tmp154, __len
	lea	rdx, 0[0+rax*4]	# _27,
	mov	rax, QWORD PTR -88[rbp]	# tmp155, __new_start
	add	rdx, rax	# _28, tmp155
# /usr/include/c++/13/bits/vector.tcc:523:       this->_M_impl._M_end_of_storage = __new_start + __len;
	mov	rax, QWORD PTR -136[rbp]	# tmp156, this
	mov	QWORD PTR 16[rax], rdx	# this_30(D)->D.188304._M_impl.D.187644._M_end_of_storage, _28
# /usr/include/c++/13/bits/vector.tcc:524:     }
	nop	
	mov	rax, QWORD PTR -24[rbp]	# tmp158, D.233381
	sub	rax, QWORD PTR fs:40	# tmp158, MEM[(<address-space-1> long unsigned int *)40B]
	je	.L294	#,
	call	__stack_chk_fail@PLT	#
.L294:
	mov	rbx, QWORD PTR -8[rbp]	#,
	leave	
	.cfi_def_cfa 7, 8
	ret	
	.cfi_endproc
.LFE11342:
	.size	_ZNSt6vectorIiSaIiEE17_M_realloc_insertIJRKiEEEvN9__gnu_cxx17__normal_iteratorIPiS1_EEDpOT_, .-_ZNSt6vectorIiSaIiEE17_M_realloc_insertIJRKiEEEvN9__gnu_cxx17__normal_iteratorIPiS1_EEDpOT_
	.section	.text._ZNSt15__new_allocatorImE10deallocateEPmm,"axG",@progbits,_ZNSt15__new_allocatorImE10deallocateEPmm,comdat
	.align 2
	.weak	_ZNSt15__new_allocatorImE10deallocateEPmm
	.type	_ZNSt15__new_allocatorImE10deallocateEPmm, @function
_ZNSt15__new_allocatorImE10deallocateEPmm:
.LFB11458:
	.cfi_startproc
	endbr64	
	push	rbp	#
	.cfi_def_cfa_offset 16
	.cfi_offset 6, -16
	mov	rbp, rsp	#,
	.cfi_def_cfa_register 6
	sub	rsp, 32	#,
	mov	QWORD PTR -8[rbp], rdi	# this, this
	mov	QWORD PTR -16[rbp], rsi	# __p, __p
	mov	QWORD PTR -24[rbp], rdx	# __n, __n
# /usr/include/c++/13/bits/new_allocator.h:172: 	_GLIBCXX_OPERATOR_DELETE(_GLIBCXX_SIZED_DEALLOC(__p, __n));
	mov	rax, QWORD PTR -24[rbp]	# tmp83, __n
	lea	rdx, 0[0+rax*8]	# _2,
	mov	rax, QWORD PTR -16[rbp]	# tmp84, __p
	mov	rsi, rdx	#, _2
	mov	rdi, rax	#, tmp84
	call	_ZdlPvm@PLT	#
# /usr/include/c++/13/bits/new_allocator.h:173:       }
	leave	
	.cfi_def_cfa 7, 8
	ret	
	.cfi_endproc
.LFE11458:
	.size	_ZNSt15__new_allocatorImE10deallocateEPmm, .-_ZNSt15__new_allocatorImE10deallocateEPmm
	.section	.text._ZNSt15__new_allocatorISt4pairIiiEE10deallocateEPS1_m,"axG",@progbits,_ZNSt15__new_allocatorISt4pairIiiEE10deallocateEPS1_m,comdat
	.align 2
	.weak	_ZNSt15__new_allocatorISt4pairIiiEE10deallocateEPS1_m
	.type	_ZNSt15__new_allocatorISt4pairIiiEE10deallocateEPS1_m, @function
_ZNSt15__new_allocatorISt4pairIiiEE10deallocateEPS1_m:
.LFB11492:
	.cfi_startproc
	endbr64	
	push	rbp	#
	.cfi_def_cfa_offset 16
	.cfi_offset 6, -16
	mov	rbp, rsp	#,
	.cfi_def_cfa_register 6
	sub	rsp, 32	#,
	mov	QWORD PTR -8[rbp], rdi	# this, this
	mov	QWORD PTR -16[rbp], rsi	# __p, __p
	mov	QWORD PTR -24[rbp], rdx	# __n, __n
# /usr/include/c++/13/bits/new_allocator.h:172: 	_GLIBCXX_OPERATOR_DELETE(_GLIBCXX_SIZED_DEALLOC(__p, __n));
	mov	rax, QWORD PTR -24[rbp]	# tmp83, __n
	lea	rdx, 0[0+rax*8]	# _2,
	mov	rax, QWORD PTR -16[rbp]	# tmp84, __p
	mov	rsi, rdx	#, _2
	mov	rdi, rax	#, tmp84
	call	_ZdlPvm@PLT	#
# /usr/include/c++/13/bits/new_allocator.h:173:       }
	leave	
	.cfi_def_cfa 7, 8
	ret	
	.cfi_endproc
.LFE11492:
	.size	_ZNSt15__new_allocatorISt4pairIiiEE10deallocateEPS1_m, .-_ZNSt15__new_allocatorISt4pairIiiEE10deallocateEPS1_m
	.section	.text._ZNSt12_Destroy_auxILb1EE9__destroyIPSt4pairIiiEEEvT_S5_,"axG",@progbits,_ZNSt12_Destroy_auxILb1EE9__destroyIPSt4pairIiiEEEvT_S5_,comdat
	.weak	_ZNSt12_Destroy_auxILb1EE9__destroyIPSt4pairIiiEEEvT_S5_
	.type	_ZNSt12_Destroy_auxILb1EE9__destroyIPSt4pairIiiEEEvT_S5_, @function
_ZNSt12_Destroy_auxILb1EE9__destroyIPSt4pairIiiEEEvT_S5_:
.LFB11493:
	.cfi_startproc
	endbr64	
	push	rbp	#
	.cfi_def_cfa_offset 16
	.cfi_offset 6, -16
	mov	rbp, rsp	#,
	.cfi_def_cfa_register 6
	mov	QWORD PTR -8[rbp], rdi	# D.229873, D.229873
	mov	QWORD PTR -16[rbp], rsi	# D.229874, D.229874
# /usr/include/c++/13/bits/stl_construct.h:172:         __destroy(_ForwardIterator, _ForwardIterator) { }
	nop	
	pop	rbp	#
	.cfi_def_cfa 7, 8
	ret	
	.cfi_endproc
.LFE11493:
	.size	_ZNSt12_Destroy_auxILb1EE9__destroyIPSt4pairIiiEEEvT_S5_, .-_ZNSt12_Destroy_auxILb1EE9__destroyIPSt4pairIiiEEEvT_S5_
	.section	.text._ZNSt12_Vector_baseISt6vectorISt4pairIiiESaIS2_EESaIS4_EE17_Vector_impl_dataC2Ev,"axG",@progbits,_ZNSt12_Vector_baseISt6vectorISt4pairIiiESaIS2_EESaIS4_EE17_Vector_impl_dataC5Ev,comdat
	.align 2
	.weak	_ZNSt12_Vector_baseISt6vectorISt4pairIiiESaIS2_EESaIS4_EE17_Vector_impl_dataC2Ev
	.type	_ZNSt12_Vector_baseISt6vectorISt4pairIiiESaIS2_EESaIS4_EE17_Vector_impl_dataC2Ev, @function
_ZNSt12_Vector_baseISt6vectorISt4pairIiiESaIS2_EESaIS4_EE17_Vector_impl_dataC2Ev:
.LFB11499:
	.cfi_startproc
	endbr64	
	push	rbp	#
	.cfi_def_cfa_offset 16
	.cfi_offset 6, -16
	mov	rbp, rsp	#,
	.cfi_def_cfa_register 6
	mov	QWORD PTR -8[rbp], rdi	# this, this
# /usr/include/c++/13/bits/stl_vector.h:100: 	: _M_start(), _M_finish(), _M_end_of_storage()
	mov	rax, QWORD PTR -8[rbp]	# tmp82, this
	mov	QWORD PTR [rax], 0	# this_2(D)->_M_start,
# /usr/include/c++/13/bits/stl_vector.h:100: 	: _M_start(), _M_finish(), _M_end_of_storage()
	mov	rax, QWORD PTR -8[rbp]	# tmp83, this
	mov	QWORD PTR 8[rax], 0	# this_2(D)->_M_finish,
# /usr/include/c++/13/bits/stl_vector.h:100: 	: _M_start(), _M_finish(), _M_end_of_storage()
	mov	rax, QWORD PTR -8[rbp]	# tmp84, this
	mov	QWORD PTR 16[rax], 0	# this_2(D)->_M_end_of_storage,
# /usr/include/c++/13/bits/stl_vector.h:101: 	{ }
	nop	
	pop	rbp	#
	.cfi_def_cfa 7, 8
	ret	
	.cfi_endproc
.LFE11499:
	.size	_ZNSt12_Vector_baseISt6vectorISt4pairIiiESaIS2_EESaIS4_EE17_Vector_impl_dataC2Ev, .-_ZNSt12_Vector_baseISt6vectorISt4pairIiiESaIS2_EESaIS4_EE17_Vector_impl_dataC2Ev
	.weak	_ZNSt12_Vector_baseISt6vectorISt4pairIiiESaIS2_EESaIS4_EE17_Vector_impl_dataC1Ev
	.set	_ZNSt12_Vector_baseISt6vectorISt4pairIiiESaIS2_EESaIS4_EE17_Vector_impl_dataC1Ev,_ZNSt12_Vector_baseISt6vectorISt4pairIiiESaIS2_EESaIS4_EE17_Vector_impl_dataC2Ev
	.section	.text._ZNSt12_Vector_baseISt6vectorISt4pairIiiESaIS2_EESaIS4_EE11_M_allocateEm,"axG",@progbits,_ZNSt12_Vector_baseISt6vectorISt4pairIiiESaIS2_EESaIS4_EE11_M_allocateEm,comdat
	.align 2
	.weak	_ZNSt12_Vector_baseISt6vectorISt4pairIiiESaIS2_EESaIS4_EE11_M_allocateEm
	.type	_ZNSt12_Vector_baseISt6vectorISt4pairIiiESaIS2_EESaIS4_EE11_M_allocateEm, @function
_ZNSt12_Vector_baseISt6vectorISt4pairIiiESaIS2_EESaIS4_EE11_M_allocateEm:
.LFB11501:
	.cfi_startproc
	endbr64	
	push	rbp	#
	.cfi_def_cfa_offset 16
	.cfi_offset 6, -16
	mov	rbp, rsp	#,
	.cfi_def_cfa_register 6
	sub	rsp, 32	#,
	mov	QWORD PTR -24[rbp], rdi	# this, this
	mov	QWORD PTR -32[rbp], rsi	# __n, __n
# /usr/include/c++/13/bits/stl_vector.h:381: 	return __n != 0 ? _Tr::allocate(_M_impl, __n) : pointer();
	cmp	QWORD PTR -32[rbp], 0	# __n,
	je	.L302	#,
# /usr/include/c++/13/bits/stl_vector.h:381: 	return __n != 0 ? _Tr::allocate(_M_impl, __n) : pointer();
	mov	rax, QWORD PTR -24[rbp]	# _1, this
	mov	QWORD PTR -16[rbp], rax	# __a, _1
	mov	rax, QWORD PTR -32[rbp]	# tmp85, __n
	mov	QWORD PTR -8[rbp], rax	# __n, tmp85
# /usr/include/c++/13/bits/alloc_traits.h:482:       { return __a.allocate(__n); }
	mov	rcx, QWORD PTR -8[rbp]	# tmp86, __n
	mov	rax, QWORD PTR -16[rbp]	# tmp87, __a
	mov	edx, 0	#,
	mov	rsi, rcx	#, tmp86
	mov	rdi, rax	#, tmp87
	call	_ZNSt15__new_allocatorISt6vectorISt4pairIiiESaIS2_EEE8allocateEmPKv	#
# /usr/include/c++/13/bits/alloc_traits.h:482:       { return __a.allocate(__n); }
	nop	
	jmp	.L304	#
.L302:
# /usr/include/c++/13/bits/stl_vector.h:381: 	return __n != 0 ? _Tr::allocate(_M_impl, __n) : pointer();
	mov	eax, 0	# D.233110,
.L304:
# /usr/include/c++/13/bits/stl_vector.h:382:       }
	leave	
	.cfi_def_cfa 7, 8
	ret	
	.cfi_endproc
.LFE11501:
	.size	_ZNSt12_Vector_baseISt6vectorISt4pairIiiESaIS2_EESaIS4_EE11_M_allocateEm, .-_ZNSt12_Vector_baseISt6vectorISt4pairIiiESaIS2_EESaIS4_EE11_M_allocateEm
	.section	.text._ZSt20uninitialized_fill_nIPSt6vectorISt4pairIiiESaIS2_EEmS4_ET_S6_T0_RKT1_,"axG",@progbits,_ZSt20uninitialized_fill_nIPSt6vectorISt4pairIiiESaIS2_EEmS4_ET_S6_T0_RKT1_,comdat
	.weak	_ZSt20uninitialized_fill_nIPSt6vectorISt4pairIiiESaIS2_EEmS4_ET_S6_T0_RKT1_
	.type	_ZSt20uninitialized_fill_nIPSt6vectorISt4pairIiiESaIS2_EEmS4_ET_S6_T0_RKT1_, @function
_ZSt20uninitialized_fill_nIPSt6vectorISt4pairIiiESaIS2_EEmS4_ET_S6_T0_RKT1_:
.LFB11503:
	.cfi_startproc
	endbr64	
	push	rbp	#
	.cfi_def_cfa_offset 16
	.cfi_offset 6, -16
	mov	rbp, rsp	#,
	.cfi_def_cfa_register 6
	sub	rsp, 48	#,
	mov	QWORD PTR -24[rbp], rdi	# __first, __first
	mov	QWORD PTR -32[rbp], rsi	# __n, __n
	mov	QWORD PTR -40[rbp], rdx	# __x, __x
# /usr/include/c++/13/bits/stl_uninitialized.h:319:       const bool __can_fill
	mov	BYTE PTR -1[rbp], 0	# __can_fill,
# /usr/include/c++/13/bits/stl_uninitialized.h:327: 	__uninit_fill_n(__first, __n, __x);
	mov	rdx, QWORD PTR -40[rbp]	# tmp84, __x
	mov	rcx, QWORD PTR -32[rbp]	# tmp85, __n
	mov	rax, QWORD PTR -24[rbp]	# tmp86, __first
	mov	rsi, rcx	#, tmp85
	mov	rdi, rax	#, tmp86
	call	_ZNSt22__uninitialized_fill_nILb0EE15__uninit_fill_nIPSt6vectorISt4pairIiiESaIS4_EEmS6_EET_S8_T0_RKT1_	#
# /usr/include/c++/13/bits/stl_uninitialized.h:328:     }
	leave	
	.cfi_def_cfa 7, 8
	ret	
	.cfi_endproc
.LFE11503:
	.size	_ZSt20uninitialized_fill_nIPSt6vectorISt4pairIiiESaIS2_EEmS4_ET_S6_T0_RKT1_, .-_ZSt20uninitialized_fill_nIPSt6vectorISt4pairIiiESaIS2_EEmS4_ET_S6_T0_RKT1_
	.section	.text._ZNSt12_Destroy_auxILb0EE9__destroyIPSt6vectorISt4pairIiiESaIS4_EEEEvT_S8_,"axG",@progbits,_ZNSt12_Destroy_auxILb0EE9__destroyIPSt6vectorISt4pairIiiESaIS4_EEEEvT_S8_,comdat
	.weak	_ZNSt12_Destroy_auxILb0EE9__destroyIPSt6vectorISt4pairIiiESaIS4_EEEEvT_S8_
	.type	_ZNSt12_Destroy_auxILb0EE9__destroyIPSt6vectorISt4pairIiiESaIS4_EEEEvT_S8_, @function
_ZNSt12_Destroy_auxILb0EE9__destroyIPSt6vectorISt4pairIiiESaIS4_EEEEvT_S8_:
.LFB11505:
	.cfi_startproc
	endbr64	
	push	rbp	#
	.cfi_def_cfa_offset 16
	.cfi_offset 6, -16
	mov	rbp, rsp	#,
	.cfi_def_cfa_register 6
	sub	rsp, 16	#,
	mov	QWORD PTR -8[rbp], rdi	# __first, __first
	mov	QWORD PTR -16[rbp], rsi	# __last, __last
# /usr/include/c++/13/bits/stl_construct.h:162: 	  for (; __first != __last; ++__first)
	jmp	.L309	#
.L310:
# /usr/include/c++/13/bits/stl_construct.h:163: 	    std::_Destroy(std::__addressof(*__first));
	mov	rax, QWORD PTR -8[rbp]	# tmp83, __first
	mov	rdi, rax	#, tmp83
	call	_ZSt11__addressofISt6vectorISt4pairIiiESaIS2_EEEPT_RS5_	#
# /usr/include/c++/13/bits/stl_construct.h:163: 	    std::_Destroy(std::__addressof(*__first));
	mov	rdi, rax	#, _1
	call	_ZSt8_DestroyISt6vectorISt4pairIiiESaIS2_EEEvPT_	#
# /usr/include/c++/13/bits/stl_construct.h:162: 	  for (; __first != __last; ++__first)
	add	QWORD PTR -8[rbp], 24	# __first,
.L309:
# /usr/include/c++/13/bits/stl_construct.h:162: 	  for (; __first != __last; ++__first)
	mov	rax, QWORD PTR -8[rbp]	# tmp84, __first
	cmp	rax, QWORD PTR -16[rbp]	# tmp84, __last
	jne	.L310	#,
# /usr/include/c++/13/bits/stl_construct.h:164: 	}
	nop	
	nop	
	leave	
	.cfi_def_cfa 7, 8
	ret	
	.cfi_endproc
.LFE11505:
	.size	_ZNSt12_Destroy_auxILb0EE9__destroyIPSt6vectorISt4pairIiiESaIS4_EEEEvT_S8_, .-_ZNSt12_Destroy_auxILb0EE9__destroyIPSt6vectorISt4pairIiiESaIS4_EEEEvT_S8_
	.section	.text._ZNKSt6vectorISt4pairIiiESaIS1_EE12_M_check_lenEmPKc,"axG",@progbits,_ZNKSt6vectorISt4pairIiiESaIS1_EE12_M_check_lenEmPKc,comdat
	.align 2
	.weak	_ZNKSt6vectorISt4pairIiiESaIS1_EE12_M_check_lenEmPKc
	.type	_ZNKSt6vectorISt4pairIiiESaIS1_EE12_M_check_lenEmPKc, @function
_ZNKSt6vectorISt4pairIiiESaIS1_EE12_M_check_lenEmPKc:
.LFB11507:
	.cfi_startproc
	endbr64	
	push	rbp	#
	.cfi_def_cfa_offset 16
	.cfi_offset 6, -16
	mov	rbp, rsp	#,
	.cfi_def_cfa_register 6
	push	rbx	#
	sub	rsp, 72	#,
	.cfi_offset 3, -24
	mov	QWORD PTR -56[rbp], rdi	# this, this
	mov	QWORD PTR -64[rbp], rsi	# __n, __n
	mov	QWORD PTR -72[rbp], rdx	# __s, __s
# /usr/include/c++/13/bits/stl_vector.h:1896:       _M_check_len(size_type __n, const char* __s) const
	mov	rax, QWORD PTR fs:40	# tmp107, MEM[(<address-space-1> long unsigned int *)40B]
	mov	QWORD PTR -24[rbp], rax	# D.233382, tmp107
	xor	eax, eax	# tmp107
# /usr/include/c++/13/bits/stl_vector.h:1898: 	if (max_size() - size() < __n)
	mov	rax, QWORD PTR -56[rbp]	# tmp95, this
	mov	rdi, rax	#, tmp95
	call	_ZNKSt6vectorISt4pairIiiESaIS1_EE8max_sizeEv	#
	mov	rbx, rax	# _1,
# /usr/include/c++/13/bits/stl_vector.h:1898: 	if (max_size() - size() < __n)
	mov	rax, QWORD PTR -56[rbp]	# tmp96, this
	mov	rdi, rax	#, tmp96
	call	_ZNKSt6vectorISt4pairIiiESaIS1_EE4sizeEv	#
# /usr/include/c++/13/bits/stl_vector.h:1898: 	if (max_size() - size() < __n)
	sub	rbx, rax	# _1, _2
	mov	rdx, rbx	# _3, _1
# /usr/include/c++/13/bits/stl_vector.h:1898: 	if (max_size() - size() < __n)
	mov	rax, QWORD PTR -64[rbp]	# __n.14_4, __n
	cmp	rdx, rax	# _3, __n.14_4
	setb	al	#, retval.13_18
# /usr/include/c++/13/bits/stl_vector.h:1898: 	if (max_size() - size() < __n)
	test	al, al	# retval.13_18
	je	.L312	#,
# /usr/include/c++/13/bits/stl_vector.h:1899: 	  __throw_length_error(__N(__s));
	mov	rax, QWORD PTR -24[rbp]	# tmp108, D.233382
	sub	rax, QWORD PTR fs:40	# tmp108, MEM[(<address-space-1> long unsigned int *)40B]
	je	.L313	#,
	call	__stack_chk_fail@PLT	#
.L313:
	mov	rax, QWORD PTR -72[rbp]	# tmp97, __s
	mov	rdi, rax	#, tmp97
	call	_ZSt20__throw_length_errorPKc@PLT	#
.L312:
# /usr/include/c++/13/bits/stl_vector.h:1901: 	const size_type __len = size() + (std::max)(size(), __n);
	mov	rax, QWORD PTR -56[rbp]	# tmp98, this
	mov	rdi, rax	#, tmp98
	call	_ZNKSt6vectorISt4pairIiiESaIS1_EE4sizeEv	#
	mov	rbx, rax	# _5,
# /usr/include/c++/13/bits/stl_vector.h:1901: 	const size_type __len = size() + (std::max)(size(), __n);
	mov	rax, QWORD PTR -56[rbp]	# tmp99, this
	mov	rdi, rax	#, tmp99
	call	_ZNKSt6vectorISt4pairIiiESaIS1_EE4sizeEv	#
# /usr/include/c++/13/bits/stl_vector.h:1901: 	const size_type __len = size() + (std::max)(size(), __n);
	mov	QWORD PTR -40[rbp], rax	# D.230000, _6
# /usr/include/c++/13/bits/stl_vector.h:1901: 	const size_type __len = size() + (std::max)(size(), __n);
	lea	rdx, -64[rbp]	# tmp100,
	lea	rax, -40[rbp]	# tmp101,
	mov	rsi, rdx	#, tmp100
	mov	rdi, rax	#, tmp101
	call	_ZSt3maxImERKT_S2_S2_	#
# /usr/include/c++/13/bits/stl_vector.h:1901: 	const size_type __len = size() + (std::max)(size(), __n);
	mov	rax, QWORD PTR [rax]	# _8, *_7
# /usr/include/c++/13/bits/stl_vector.h:1901: 	const size_type __len = size() + (std::max)(size(), __n);
	add	rax, rbx	# tmp102, _5
	mov	QWORD PTR -32[rbp], rax	# __len, tmp102
# /usr/include/c++/13/bits/stl_vector.h:1902: 	return (__len < size() || __len > max_size()) ? max_size() : __len;
	mov	rax, QWORD PTR -56[rbp]	# tmp103, this
	mov	rdi, rax	#, tmp103
	call	_ZNKSt6vectorISt4pairIiiESaIS1_EE4sizeEv	#
# /usr/include/c++/13/bits/stl_vector.h:1902: 	return (__len < size() || __len > max_size()) ? max_size() : __len;
	cmp	QWORD PTR -32[rbp], rax	# __len, _9
	jb	.L314	#,
# /usr/include/c++/13/bits/stl_vector.h:1902: 	return (__len < size() || __len > max_size()) ? max_size() : __len;
	mov	rax, QWORD PTR -56[rbp]	# tmp104, this
	mov	rdi, rax	#, tmp104
	call	_ZNKSt6vectorISt4pairIiiESaIS1_EE8max_sizeEv	#
# /usr/include/c++/13/bits/stl_vector.h:1902: 	return (__len < size() || __len > max_size()) ? max_size() : __len;
	cmp	rax, QWORD PTR -32[rbp]	# _10, __len
	jnb	.L315	#,
.L314:
# /usr/include/c++/13/bits/stl_vector.h:1902: 	return (__len < size() || __len > max_size()) ? max_size() : __len;
	mov	rax, QWORD PTR -56[rbp]	# tmp105, this
	mov	rdi, rax	#, tmp105
	call	_ZNKSt6vectorISt4pairIiiESaIS1_EE8max_sizeEv	#
# /usr/include/c++/13/bits/stl_vector.h:1902: 	return (__len < size() || __len > max_size()) ? max_size() : __len;
	jmp	.L316	#
.L315:
# /usr/include/c++/13/bits/stl_vector.h:1902: 	return (__len < size() || __len > max_size()) ? max_size() : __len;
	mov	rax, QWORD PTR -32[rbp]	# iftmp.15_11, __len
.L316:
# /usr/include/c++/13/bits/stl_vector.h:1903:       }
	mov	rdx, QWORD PTR -24[rbp]	# tmp109, D.233382
	sub	rdx, QWORD PTR fs:40	# tmp109, MEM[(<address-space-1> long unsigned int *)40B]
	je	.L318	#,
	call	__stack_chk_fail@PLT	#
.L318:
	mov	rbx, QWORD PTR -8[rbp]	#,
	leave	
	.cfi_def_cfa 7, 8
	ret	
	.cfi_endproc
.LFE11507:
	.size	_ZNKSt6vectorISt4pairIiiESaIS1_EE12_M_check_lenEmPKc, .-_ZNKSt6vectorISt4pairIiiESaIS1_EE12_M_check_lenEmPKc
	.section	.text._ZN9__gnu_cxxmiIPSt4pairIiiESt6vectorIS2_SaIS2_EEEENS_17__normal_iteratorIT_T0_E15difference_typeERKSA_SD_,"axG",@progbits,_ZN9__gnu_cxxmiIPSt4pairIiiESt6vectorIS2_SaIS2_EEEENS_17__normal_iteratorIT_T0_E15difference_typeERKSA_SD_,comdat
	.weak	_ZN9__gnu_cxxmiIPSt4pairIiiESt6vectorIS2_SaIS2_EEEENS_17__normal_iteratorIT_T0_E15difference_typeERKSA_SD_
	.type	_ZN9__gnu_cxxmiIPSt4pairIiiESt6vectorIS2_SaIS2_EEEENS_17__normal_iteratorIT_T0_E15difference_typeERKSA_SD_, @function
_ZN9__gnu_cxxmiIPSt4pairIiiESt6vectorIS2_SaIS2_EEEENS_17__normal_iteratorIT_T0_E15difference_typeERKSA_SD_:
.LFB11508:
	.cfi_startproc
	endbr64	
	push	rbp	#
	.cfi_def_cfa_offset 16
	.cfi_offset 6, -16
	mov	rbp, rsp	#,
	.cfi_def_cfa_register 6
	push	rbx	#
	sub	rsp, 24	#,
	.cfi_offset 3, -24
	mov	QWORD PTR -24[rbp], rdi	# __lhs, __lhs
	mov	QWORD PTR -32[rbp], rsi	# __rhs, __rhs
# /usr/include/c++/13/bits/stl_iterator.h:1337:     { return __lhs.base() - __rhs.base(); }
	mov	rax, QWORD PTR -24[rbp]	# tmp89, __lhs
	mov	rdi, rax	#, tmp89
	call	_ZNK9__gnu_cxx17__normal_iteratorIPSt4pairIiiESt6vectorIS2_SaIS2_EEE4baseEv	#
# /usr/include/c++/13/bits/stl_iterator.h:1337:     { return __lhs.base() - __rhs.base(); }
	mov	rbx, QWORD PTR [rax]	# _2, *_1
# /usr/include/c++/13/bits/stl_iterator.h:1337:     { return __lhs.base() - __rhs.base(); }
	mov	rax, QWORD PTR -32[rbp]	# tmp90, __rhs
	mov	rdi, rax	#, tmp90
	call	_ZNK9__gnu_cxx17__normal_iteratorIPSt4pairIiiESt6vectorIS2_SaIS2_EEE4baseEv	#
# /usr/include/c++/13/bits/stl_iterator.h:1337:     { return __lhs.base() - __rhs.base(); }
	mov	rax, QWORD PTR [rax]	# _4, *_3
	mov	rdx, rbx	# _2, _2
	sub	rdx, rax	# _2, _4
# /usr/include/c++/13/bits/stl_iterator.h:1337:     { return __lhs.base() - __rhs.base(); }
	mov	rax, rdx	# _5, _5
	sar	rax, 3	# _5,
# /usr/include/c++/13/bits/stl_iterator.h:1337:     { return __lhs.base() - __rhs.base(); }
	mov	rbx, QWORD PTR -8[rbp]	#,
	leave	
	.cfi_def_cfa 7, 8
	ret	
	.cfi_endproc
.LFE11508:
	.size	_ZN9__gnu_cxxmiIPSt4pairIiiESt6vectorIS2_SaIS2_EEEENS_17__normal_iteratorIT_T0_E15difference_typeERKSA_SD_, .-_ZN9__gnu_cxxmiIPSt4pairIiiESt6vectorIS2_SaIS2_EEEENS_17__normal_iteratorIT_T0_E15difference_typeERKSA_SD_
	.section	.text._ZNSt12_Vector_baseISt4pairIiiESaIS1_EE11_M_allocateEm,"axG",@progbits,_ZNSt12_Vector_baseISt4pairIiiESaIS1_EE11_M_allocateEm,comdat
	.align 2
	.weak	_ZNSt12_Vector_baseISt4pairIiiESaIS1_EE11_M_allocateEm
	.type	_ZNSt12_Vector_baseISt4pairIiiESaIS1_EE11_M_allocateEm, @function
_ZNSt12_Vector_baseISt4pairIiiESaIS1_EE11_M_allocateEm:
.LFB11509:
	.cfi_startproc
	endbr64	
	push	rbp	#
	.cfi_def_cfa_offset 16
	.cfi_offset 6, -16
	mov	rbp, rsp	#,
	.cfi_def_cfa_register 6
	sub	rsp, 32	#,
	mov	QWORD PTR -24[rbp], rdi	# this, this
	mov	QWORD PTR -32[rbp], rsi	# __n, __n
# /usr/include/c++/13/bits/stl_vector.h:381: 	return __n != 0 ? _Tr::allocate(_M_impl, __n) : pointer();
	cmp	QWORD PTR -32[rbp], 0	# __n,
	je	.L322	#,
# /usr/include/c++/13/bits/stl_vector.h:381: 	return __n != 0 ? _Tr::allocate(_M_impl, __n) : pointer();
	mov	rax, QWORD PTR -24[rbp]	# _1, this
	mov	QWORD PTR -16[rbp], rax	# __a, _1
	mov	rax, QWORD PTR -32[rbp]	# tmp85, __n
	mov	QWORD PTR -8[rbp], rax	# __n, tmp85
# /usr/include/c++/13/bits/alloc_traits.h:482:       { return __a.allocate(__n); }
	mov	rcx, QWORD PTR -8[rbp]	# tmp86, __n
	mov	rax, QWORD PTR -16[rbp]	# tmp87, __a
	mov	edx, 0	#,
	mov	rsi, rcx	#, tmp86
	mov	rdi, rax	#, tmp87
	call	_ZNSt15__new_allocatorISt4pairIiiEE8allocateEmPKv	#
# /usr/include/c++/13/bits/alloc_traits.h:482:       { return __a.allocate(__n); }
	nop	
	jmp	.L324	#
.L322:
# /usr/include/c++/13/bits/stl_vector.h:381: 	return __n != 0 ? _Tr::allocate(_M_impl, __n) : pointer();
	mov	eax, 0	# D.233116,
.L324:
# /usr/include/c++/13/bits/stl_vector.h:382:       }
	leave	
	.cfi_def_cfa 7, 8
	ret	
	.cfi_endproc
.LFE11509:
	.size	_ZNSt12_Vector_baseISt4pairIiiESaIS1_EE11_M_allocateEm, .-_ZNSt12_Vector_baseISt4pairIiiESaIS1_EE11_M_allocateEm
	.section	.text._ZNSt6vectorISt4pairIiiESaIS1_EE11_S_relocateEPS1_S4_S4_RS2_,"axG",@progbits,_ZNSt6vectorISt4pairIiiESaIS1_EE11_S_relocateEPS1_S4_S4_RS2_,comdat
	.weak	_ZNSt6vectorISt4pairIiiESaIS1_EE11_S_relocateEPS1_S4_S4_RS2_
	.type	_ZNSt6vectorISt4pairIiiESaIS1_EE11_S_relocateEPS1_S4_S4_RS2_, @function
_ZNSt6vectorISt4pairIiiESaIS1_EE11_S_relocateEPS1_S4_S4_RS2_:
.LFB11510:
	.cfi_startproc
	endbr64	
	push	rbp	#
	.cfi_def_cfa_offset 16
	.cfi_offset 6, -16
	mov	rbp, rsp	#,
	.cfi_def_cfa_register 6
	sub	rsp, 32	#,
	mov	QWORD PTR -8[rbp], rdi	# __first, __first
	mov	QWORD PTR -16[rbp], rsi	# __last, __last
	mov	QWORD PTR -24[rbp], rdx	# __result, __result
	mov	QWORD PTR -32[rbp], rcx	# __alloc, __alloc
# /usr/include/c++/13/bits/stl_vector.h:509: 	return std::__relocate_a(__first, __last, __result, __alloc);
	mov	rcx, QWORD PTR -32[rbp]	# tmp84, __alloc
	mov	rdx, QWORD PTR -24[rbp]	# tmp85, __result
	mov	rsi, QWORD PTR -16[rbp]	# tmp86, __last
	mov	rax, QWORD PTR -8[rbp]	# tmp87, __first
	mov	rdi, rax	#, tmp87
	call	_ZSt12__relocate_aIPSt4pairIiiES2_SaIS1_EET0_T_S5_S4_RT1_	#
# /usr/include/c++/13/bits/stl_vector.h:514:       }
	leave	
	.cfi_def_cfa 7, 8
	ret	
	.cfi_endproc
.LFE11510:
	.size	_ZNSt6vectorISt4pairIiiESaIS1_EE11_S_relocateEPS1_S4_S4_RS2_, .-_ZNSt6vectorISt4pairIiiESaIS1_EE11_S_relocateEPS1_S4_S4_RS2_
	.section	.text._ZNK9__gnu_cxx17__normal_iteratorIPSt4pairIiiESt6vectorIS2_SaIS2_EEEmiEl,"axG",@progbits,_ZNK9__gnu_cxx17__normal_iteratorIPSt4pairIiiESt6vectorIS2_SaIS2_EEEmiEl,comdat
	.align 2
	.weak	_ZNK9__gnu_cxx17__normal_iteratorIPSt4pairIiiESt6vectorIS2_SaIS2_EEEmiEl
	.type	_ZNK9__gnu_cxx17__normal_iteratorIPSt4pairIiiESt6vectorIS2_SaIS2_EEEmiEl, @function
_ZNK9__gnu_cxx17__normal_iteratorIPSt4pairIiiESt6vectorIS2_SaIS2_EEEmiEl:
.LFB11512:
	.cfi_startproc
	endbr64	
	push	rbp	#
	.cfi_def_cfa_offset 16
	.cfi_offset 6, -16
	mov	rbp, rsp	#,
	.cfi_def_cfa_register 6
	sub	rsp, 48	#,
	mov	QWORD PTR -40[rbp], rdi	# this, this
	mov	QWORD PTR -48[rbp], rsi	# __n, __n
# /usr/include/c++/13/bits/stl_iterator.h:1157:       operator-(difference_type __n) const _GLIBCXX_NOEXCEPT
	mov	rax, QWORD PTR fs:40	# tmp93, MEM[(<address-space-1> long unsigned int *)40B]
	mov	QWORD PTR -8[rbp], rax	# D.233383, tmp93
	xor	eax, eax	# tmp93
# /usr/include/c++/13/bits/stl_iterator.h:1158:       { return __normal_iterator(_M_current - __n); }
	mov	rax, QWORD PTR -40[rbp]	# tmp89, this
	mov	rax, QWORD PTR [rax]	# _1, this_7(D)->_M_current
# /usr/include/c++/13/bits/stl_iterator.h:1158:       { return __normal_iterator(_M_current - __n); }
	mov	rdx, QWORD PTR -48[rbp]	# __n.16_2, __n
# /usr/include/c++/13/bits/stl_iterator.h:1158:       { return __normal_iterator(_M_current - __n); }
	sal	rdx, 3	# _3,
	neg	rdx	# _4
	add	rax, rdx	# _5, _4
	mov	QWORD PTR -24[rbp], rax	# D.230020, _5
# /usr/include/c++/13/bits/stl_iterator.h:1158:       { return __normal_iterator(_M_current - __n); }
	lea	rdx, -24[rbp]	# tmp90,
	lea	rax, -16[rbp]	# tmp91,
	mov	rsi, rdx	#, tmp90
	mov	rdi, rax	#, tmp91
	call	_ZN9__gnu_cxx17__normal_iteratorIPSt4pairIiiESt6vectorIS2_SaIS2_EEEC1ERKS3_	#
# /usr/include/c++/13/bits/stl_iterator.h:1158:       { return __normal_iterator(_M_current - __n); }
	mov	rax, QWORD PTR -16[rbp]	# D.232456, D.230021
# /usr/include/c++/13/bits/stl_iterator.h:1158:       { return __normal_iterator(_M_current - __n); }
	mov	rdx, QWORD PTR -8[rbp]	# tmp94, D.233383
	sub	rdx, QWORD PTR fs:40	# tmp94, MEM[(<address-space-1> long unsigned int *)40B]
	je	.L330	#,
	call	__stack_chk_fail@PLT	#
.L330:
	leave	
	.cfi_def_cfa 7, 8
	ret	
	.cfi_endproc
.LFE11512:
	.size	_ZNK9__gnu_cxx17__normal_iteratorIPSt4pairIiiESt6vectorIS2_SaIS2_EEEmiEl, .-_ZNK9__gnu_cxx17__normal_iteratorIPSt4pairIiiESt6vectorIS2_SaIS2_EEEmiEl
	.section	.text._ZNSt13_Bvector_baseISaIbEE18_Bvector_impl_dataC2Ev,"axG",@progbits,_ZNSt13_Bvector_baseISaIbEE18_Bvector_impl_dataC5Ev,comdat
	.align 2
	.weak	_ZNSt13_Bvector_baseISaIbEE18_Bvector_impl_dataC2Ev
	.type	_ZNSt13_Bvector_baseISaIbEE18_Bvector_impl_dataC2Ev, @function
_ZNSt13_Bvector_baseISaIbEE18_Bvector_impl_dataC2Ev:
.LFB11517:
	.cfi_startproc
	endbr64	
	push	rbp	#
	.cfi_def_cfa_offset 16
	.cfi_offset 6, -16
	mov	rbp, rsp	#,
	.cfi_def_cfa_register 6
	sub	rsp, 16	#,
	mov	QWORD PTR -8[rbp], rdi	# this, this
# /usr/include/c++/13/bits/stl_bvector.h:552: 	: _M_start(), _M_finish(), _M_end_of_storage()
	mov	rax, QWORD PTR -8[rbp]	# _1, this
	mov	rdi, rax	#, _1
	call	_ZNSt13_Bit_iteratorC1Ev	#
# /usr/include/c++/13/bits/stl_bvector.h:552: 	: _M_start(), _M_finish(), _M_end_of_storage()
	mov	rax, QWORD PTR -8[rbp]	# tmp84, this
	add	rax, 16	# _2,
	mov	rdi, rax	#, _2
	call	_ZNSt13_Bit_iteratorC1Ev	#
# /usr/include/c++/13/bits/stl_bvector.h:552: 	: _M_start(), _M_finish(), _M_end_of_storage()
	mov	rax, QWORD PTR -8[rbp]	# tmp85, this
	mov	QWORD PTR 32[rax], 0	# this_4(D)->_M_end_of_storage,
# /usr/include/c++/13/bits/stl_bvector.h:553: 	{ }
	nop	
	leave	
	.cfi_def_cfa 7, 8
	ret	
	.cfi_endproc
.LFE11517:
	.size	_ZNSt13_Bvector_baseISaIbEE18_Bvector_impl_dataC2Ev, .-_ZNSt13_Bvector_baseISaIbEE18_Bvector_impl_dataC2Ev
	.weak	_ZNSt13_Bvector_baseISaIbEE18_Bvector_impl_dataC1Ev
	.set	_ZNSt13_Bvector_baseISaIbEE18_Bvector_impl_dataC1Ev,_ZNSt13_Bvector_baseISaIbEE18_Bvector_impl_dataC2Ev
	.section	.text._ZNSt13_Bvector_baseISaIbEE18_Bvector_impl_data8_M_resetEv,"axG",@progbits,_ZNSt13_Bvector_baseISaIbEE18_Bvector_impl_data8_M_resetEv,comdat
	.align 2
	.weak	_ZNSt13_Bvector_baseISaIbEE18_Bvector_impl_data8_M_resetEv
	.type	_ZNSt13_Bvector_baseISaIbEE18_Bvector_impl_data8_M_resetEv, @function
_ZNSt13_Bvector_baseISaIbEE18_Bvector_impl_data8_M_resetEv:
.LFB11519:
	.cfi_startproc
	endbr64	
	push	rbp	#
	.cfi_def_cfa_offset 16
	.cfi_offset 6, -16
	mov	rbp, rsp	#,
	.cfi_def_cfa_register 6
	push	rbx	#
	sub	rsp, 72	#,
	.cfi_offset 3, -24
	mov	QWORD PTR -72[rbp], rdi	# this, this
# /usr/include/c++/13/bits/stl_bvector.h:577: 	_M_reset() _GLIBCXX_NOEXCEPT
	mov	rax, QWORD PTR fs:40	# tmp88, MEM[(<address-space-1> long unsigned int *)40B]
	mov	QWORD PTR -24[rbp], rax	# D.233384, tmp88
	xor	eax, eax	# tmp88
# /usr/include/c++/13/bits/stl_bvector.h:578: 	{ *this = _Bvector_impl_data(); }
	lea	rax, -64[rbp]	# tmp83,
	mov	rdi, rax	#, tmp83
	call	_ZNSt13_Bvector_baseISaIbEE18_Bvector_impl_dataC1Ev	#
# /usr/include/c++/13/bits/stl_bvector.h:578: 	{ *this = _Bvector_impl_data(); }
	lea	rdx, -64[rbp]	# _1,
# /usr/include/c++/13/bits/stl_bvector.h:578: 	{ *this = _Bvector_impl_data(); }
	mov	rax, QWORD PTR -72[rbp]	# tmp84, this
	mov	rcx, QWORD PTR [rdx]	# tmp85, MEM[(const struct _Bvector_impl_data &)_1]
	mov	rbx, QWORD PTR 8[rdx]	#, MEM[(const struct _Bvector_impl_data &)_1]
	mov	QWORD PTR [rax], rcx	# *this_4(D), tmp85
	mov	QWORD PTR 8[rax], rbx	# *this_4(D),
	mov	rcx, QWORD PTR 16[rdx]	# tmp86, MEM[(const struct _Bvector_impl_data &)_1]
	mov	rbx, QWORD PTR 24[rdx]	#, MEM[(const struct _Bvector_impl_data &)_1]
	mov	QWORD PTR 16[rax], rcx	# *this_4(D), tmp86
	mov	QWORD PTR 24[rax], rbx	# *this_4(D),
	mov	rdx, QWORD PTR 32[rdx]	# tmp87, MEM[(const struct _Bvector_impl_data &)_1]
	mov	QWORD PTR 32[rax], rdx	# *this_4(D), tmp87
# /usr/include/c++/13/bits/stl_bvector.h:578: 	{ *this = _Bvector_impl_data(); }
	nop	
	mov	rax, QWORD PTR -24[rbp]	# tmp89, D.233384
	sub	rax, QWORD PTR fs:40	# tmp89, MEM[(<address-space-1> long unsigned int *)40B]
	je	.L333	#,
	call	__stack_chk_fail@PLT	#
.L333:
	mov	rbx, QWORD PTR -8[rbp]	#,
	leave	
	.cfi_def_cfa 7, 8
	ret	
	.cfi_endproc
.LFE11519:
	.size	_ZNSt13_Bvector_baseISaIbEE18_Bvector_impl_data8_M_resetEv, .-_ZNSt13_Bvector_baseISaIbEE18_Bvector_impl_data8_M_resetEv
	.section	.text._ZNSt12_Vector_baseIiSaIiEE11_M_allocateEm,"axG",@progbits,_ZNSt12_Vector_baseIiSaIiEE11_M_allocateEm,comdat
	.align 2
	.weak	_ZNSt12_Vector_baseIiSaIiEE11_M_allocateEm
	.type	_ZNSt12_Vector_baseIiSaIiEE11_M_allocateEm, @function
_ZNSt12_Vector_baseIiSaIiEE11_M_allocateEm:
.LFB11525:
	.cfi_startproc
	endbr64	
	push	rbp	#
	.cfi_def_cfa_offset 16
	.cfi_offset 6, -16
	mov	rbp, rsp	#,
	.cfi_def_cfa_register 6
	sub	rsp, 32	#,
	mov	QWORD PTR -24[rbp], rdi	# this, this
	mov	QWORD PTR -32[rbp], rsi	# __n, __n
# /usr/include/c++/13/bits/stl_vector.h:381: 	return __n != 0 ? _Tr::allocate(_M_impl, __n) : pointer();
	cmp	QWORD PTR -32[rbp], 0	# __n,
	je	.L335	#,
# /usr/include/c++/13/bits/stl_vector.h:381: 	return __n != 0 ? _Tr::allocate(_M_impl, __n) : pointer();
	mov	rax, QWORD PTR -24[rbp]	# _1, this
	mov	QWORD PTR -16[rbp], rax	# __a, _1
	mov	rax, QWORD PTR -32[rbp]	# tmp85, __n
	mov	QWORD PTR -8[rbp], rax	# __n, tmp85
# /usr/include/c++/13/bits/alloc_traits.h:482:       { return __a.allocate(__n); }
	mov	rcx, QWORD PTR -8[rbp]	# tmp86, __n
	mov	rax, QWORD PTR -16[rbp]	# tmp87, __a
	mov	edx, 0	#,
	mov	rsi, rcx	#, tmp86
	mov	rdi, rax	#, tmp87
	call	_ZNSt15__new_allocatorIiE8allocateEmPKv	#
# /usr/include/c++/13/bits/alloc_traits.h:482:       { return __a.allocate(__n); }
	nop	
	jmp	.L337	#
.L335:
# /usr/include/c++/13/bits/stl_vector.h:381: 	return __n != 0 ? _Tr::allocate(_M_impl, __n) : pointer();
	mov	eax, 0	# D.233138,
.L337:
# /usr/include/c++/13/bits/stl_vector.h:382:       }
	leave	
	.cfi_def_cfa 7, 8
	ret	
	.cfi_endproc
.LFE11525:
	.size	_ZNSt12_Vector_baseIiSaIiEE11_M_allocateEm, .-_ZNSt12_Vector_baseIiSaIiEE11_M_allocateEm
	.section	.text._ZSt20uninitialized_fill_nIPimiET_S1_T0_RKT1_,"axG",@progbits,_ZSt20uninitialized_fill_nIPimiET_S1_T0_RKT1_,comdat
	.weak	_ZSt20uninitialized_fill_nIPimiET_S1_T0_RKT1_
	.type	_ZSt20uninitialized_fill_nIPimiET_S1_T0_RKT1_, @function
_ZSt20uninitialized_fill_nIPimiET_S1_T0_RKT1_:
.LFB11527:
	.cfi_startproc
	endbr64	
	push	rbp	#
	.cfi_def_cfa_offset 16
	.cfi_offset 6, -16
	mov	rbp, rsp	#,
	.cfi_def_cfa_register 6
	sub	rsp, 48	#,
	mov	QWORD PTR -24[rbp], rdi	# __first, __first
	mov	QWORD PTR -32[rbp], rsi	# __n, __n
	mov	QWORD PTR -40[rbp], rdx	# __x, __x
# /usr/include/c++/13/bits/stl_uninitialized.h:319:       const bool __can_fill
	mov	BYTE PTR -1[rbp], 1	# __can_fill,
# /usr/include/c++/13/bits/stl_uninitialized.h:327: 	__uninit_fill_n(__first, __n, __x);
	mov	rdx, QWORD PTR -40[rbp]	# tmp84, __x
	mov	rcx, QWORD PTR -32[rbp]	# tmp85, __n
	mov	rax, QWORD PTR -24[rbp]	# tmp86, __first
	mov	rsi, rcx	#, tmp85
	mov	rdi, rax	#, tmp86
	call	_ZNSt22__uninitialized_fill_nILb1EE15__uninit_fill_nIPimiEET_S3_T0_RKT1_	#
# /usr/include/c++/13/bits/stl_uninitialized.h:328:     }
	leave	
	.cfi_def_cfa 7, 8
	ret	
	.cfi_endproc
.LFE11527:
	.size	_ZSt20uninitialized_fill_nIPimiET_S1_T0_RKT1_, .-_ZSt20uninitialized_fill_nIPimiET_S1_T0_RKT1_
	.section	.text._ZNSt12_Destroy_auxILb1EE9__destroyIPiEEvT_S3_,"axG",@progbits,_ZNSt12_Destroy_auxILb1EE9__destroyIPiEEvT_S3_,comdat
	.weak	_ZNSt12_Destroy_auxILb1EE9__destroyIPiEEvT_S3_
	.type	_ZNSt12_Destroy_auxILb1EE9__destroyIPiEEvT_S3_, @function
_ZNSt12_Destroy_auxILb1EE9__destroyIPiEEvT_S3_:
.LFB11529:
	.cfi_startproc
	endbr64	
	push	rbp	#
	.cfi_def_cfa_offset 16
	.cfi_offset 6, -16
	mov	rbp, rsp	#,
	.cfi_def_cfa_register 6
	mov	QWORD PTR -8[rbp], rdi	# D.230073, D.230073
	mov	QWORD PTR -16[rbp], rsi	# D.230074, D.230074
# /usr/include/c++/13/bits/stl_construct.h:172:         __destroy(_ForwardIterator, _ForwardIterator) { }
	nop	
	pop	rbp	#
	.cfi_def_cfa 7, 8
	ret	
	.cfi_endproc
.LFE11529:
	.size	_ZNSt12_Destroy_auxILb1EE9__destroyIPiEEvT_S3_, .-_ZNSt12_Destroy_auxILb1EE9__destroyIPiEEvT_S3_
	.section	.text._ZSt9__fill_a1IPiSt6vectorIiSaIiEEiEvN9__gnu_cxx17__normal_iteratorIT_T0_EES8_RKT1_,"axG",@progbits,_ZSt9__fill_a1IPiSt6vectorIiSaIiEEiEvN9__gnu_cxx17__normal_iteratorIT_T0_EES8_RKT1_,comdat
	.weak	_ZSt9__fill_a1IPiSt6vectorIiSaIiEEiEvN9__gnu_cxx17__normal_iteratorIT_T0_EES8_RKT1_
	.type	_ZSt9__fill_a1IPiSt6vectorIiSaIiEEiEvN9__gnu_cxx17__normal_iteratorIT_T0_EES8_RKT1_, @function
_ZSt9__fill_a1IPiSt6vectorIiSaIiEEiEvN9__gnu_cxx17__normal_iteratorIT_T0_EES8_RKT1_:
.LFB11530:
	.cfi_startproc
	endbr64	
	push	rbp	#
	.cfi_def_cfa_offset 16
	.cfi_offset 6, -16
	mov	rbp, rsp	#,
	.cfi_def_cfa_register 6
	push	rbx	#
	sub	rsp, 40	#,
	.cfi_offset 3, -24
	mov	QWORD PTR -24[rbp], rdi	# __first, __first
	mov	QWORD PTR -32[rbp], rsi	# __last, __last
	mov	QWORD PTR -40[rbp], rdx	# __value, __value
# /usr/include/c++/13/bits/stl_algobase.h:960:     { std::__fill_a1(__first.base(), __last.base(), __value); }
	lea	rax, -32[rbp]	# tmp86,
	mov	rdi, rax	#, tmp86
	call	_ZNK9__gnu_cxx17__normal_iteratorIPiSt6vectorIiSaIiEEE4baseEv	#
# /usr/include/c++/13/bits/stl_algobase.h:960:     { std::__fill_a1(__first.base(), __last.base(), __value); }
	mov	rbx, QWORD PTR [rax]	# _2, *_1
# /usr/include/c++/13/bits/stl_algobase.h:960:     { std::__fill_a1(__first.base(), __last.base(), __value); }
	lea	rax, -24[rbp]	# tmp87,
	mov	rdi, rax	#, tmp87
	call	_ZNK9__gnu_cxx17__normal_iteratorIPiSt6vectorIiSaIiEEE4baseEv	#
# /usr/include/c++/13/bits/stl_algobase.h:960:     { std::__fill_a1(__first.base(), __last.base(), __value); }
	mov	rax, QWORD PTR [rax]	# _4, *_3
	mov	rdx, QWORD PTR -40[rbp]	# tmp88, __value
	mov	rsi, rbx	#, _2
	mov	rdi, rax	#, _4
	call	_ZSt9__fill_a1IPiiEN9__gnu_cxx11__enable_ifIXsrSt11__is_scalarIT0_E7__valueEvE6__typeET_S8_RKS4_	#
# /usr/include/c++/13/bits/stl_algobase.h:960:     { std::__fill_a1(__first.base(), __last.base(), __value); }
	nop	
	mov	rbx, QWORD PTR -8[rbp]	#,
	leave	
	.cfi_def_cfa 7, 8
	ret	
	.cfi_endproc
.LFE11530:
	.size	_ZSt9__fill_a1IPiSt6vectorIiSaIiEEiEvN9__gnu_cxx17__normal_iteratorIT_T0_EES8_RKT1_, .-_ZSt9__fill_a1IPiSt6vectorIiSaIiEEiEvN9__gnu_cxx17__normal_iteratorIT_T0_EES8_RKT1_
	.section	.text._ZN9__gnu_cxx5__ops14_Iter_comp_valISt7greaterISt4pairIiiEEEC2ES5_,"axG",@progbits,_ZN9__gnu_cxx5__ops14_Iter_comp_valISt7greaterISt4pairIiiEEEC5ES5_,comdat
	.align 2
	.weak	_ZN9__gnu_cxx5__ops14_Iter_comp_valISt7greaterISt4pairIiiEEEC2ES5_
	.type	_ZN9__gnu_cxx5__ops14_Iter_comp_valISt7greaterISt4pairIiiEEEC2ES5_, @function
_ZN9__gnu_cxx5__ops14_Iter_comp_valISt7greaterISt4pairIiiEEEC2ES5_:
.LFB11532:
	.cfi_startproc
	endbr64	
	push	rbp	#
	.cfi_def_cfa_offset 16
	.cfi_offset 6, -16
	mov	rbp, rsp	#,
	.cfi_def_cfa_register 6
	sub	rsp, 16	#,
	mov	QWORD PTR -8[rbp], rdi	# this, this
# /usr/include/c++/13/bits/predefined_ops.h:175: 	: _M_comp(_GLIBCXX_MOVE(__comp))
	lea	rax, -9[rbp]	# tmp83,
	mov	rdi, rax	#, tmp83
	call	_ZSt4moveIRSt7greaterISt4pairIiiEEEONSt16remove_referenceIT_E4typeEOS6_	#
# /usr/include/c++/13/bits/predefined_ops.h:176:       { }
	nop	
	leave	
	.cfi_def_cfa 7, 8
	ret	
	.cfi_endproc
.LFE11532:
	.size	_ZN9__gnu_cxx5__ops14_Iter_comp_valISt7greaterISt4pairIiiEEEC2ES5_, .-_ZN9__gnu_cxx5__ops14_Iter_comp_valISt7greaterISt4pairIiiEEEC2ES5_
	.weak	_ZN9__gnu_cxx5__ops14_Iter_comp_valISt7greaterISt4pairIiiEEEC1ES5_
	.set	_ZN9__gnu_cxx5__ops14_Iter_comp_valISt7greaterISt4pairIiiEEEC1ES5_,_ZN9__gnu_cxx5__ops14_Iter_comp_valISt7greaterISt4pairIiiEEEC2ES5_
	.section	.text._ZSt11__push_heapIN9__gnu_cxx17__normal_iteratorIPSt4pairIiiESt6vectorIS3_SaIS3_EEEElS3_NS0_5__ops14_Iter_comp_valISt7greaterIS3_EEEEvT_T0_SF_T1_RT2_,"axG",@progbits,_ZSt11__push_heapIN9__gnu_cxx17__normal_iteratorIPSt4pairIiiESt6vectorIS3_SaIS3_EEEElS3_NS0_5__ops14_Iter_comp_valISt7greaterIS3_EEEEvT_T0_SF_T1_RT2_,comdat
	.weak	_ZSt11__push_heapIN9__gnu_cxx17__normal_iteratorIPSt4pairIiiESt6vectorIS3_SaIS3_EEEElS3_NS0_5__ops14_Iter_comp_valISt7greaterIS3_EEEEvT_T0_SF_T1_RT2_
	.type	_ZSt11__push_heapIN9__gnu_cxx17__normal_iteratorIPSt4pairIiiESt6vectorIS3_SaIS3_EEEElS3_NS0_5__ops14_Iter_comp_valISt7greaterIS3_EEEEvT_T0_SF_T1_RT2_, @function
_ZSt11__push_heapIN9__gnu_cxx17__normal_iteratorIPSt4pairIiiESt6vectorIS3_SaIS3_EEEElS3_NS0_5__ops14_Iter_comp_valISt7greaterIS3_EEEEvT_T0_SF_T1_RT2_:
.LFB11534:
	.cfi_startproc
	endbr64	
	push	rbp	#
	.cfi_def_cfa_offset 16
	.cfi_offset 6, -16
	mov	rbp, rsp	#,
	.cfi_def_cfa_register 6
	push	rbx	#
	sub	rsp, 88	#,
	.cfi_offset 3, -24
	mov	QWORD PTR -56[rbp], rdi	# __first, __first
	mov	QWORD PTR -64[rbp], rsi	# __holeIndex, __holeIndex
	mov	QWORD PTR -72[rbp], rdx	# __topIndex, __topIndex
	mov	QWORD PTR -80[rbp], rcx	# __value, __value
	mov	QWORD PTR -88[rbp], r8	# __comp, __comp
# /usr/include/c++/13/bits/stl_heap.h:135:     __push_heap(_RandomAccessIterator __first,
	mov	rax, QWORD PTR fs:40	# tmp122, MEM[(<address-space-1> long unsigned int *)40B]
	mov	QWORD PTR -24[rbp], rax	# D.233386, tmp122
	xor	eax, eax	# tmp122
# /usr/include/c++/13/bits/stl_heap.h:139:       _Distance __parent = (__holeIndex - 1) / 2;
	mov	rax, QWORD PTR -64[rbp]	# tmp92, __holeIndex
	sub	rax, 1	# _1,
# /usr/include/c++/13/bits/stl_heap.h:139:       _Distance __parent = (__holeIndex - 1) / 2;
	mov	rdx, rax	# tmp93, _1
	shr	rdx, 63	# tmp93,
	add	rax, rdx	# tmp94, tmp93
	sar	rax	# tmp95
	mov	QWORD PTR -32[rbp], rax	# __parent, tmp95
# /usr/include/c++/13/bits/stl_heap.h:140:       while (__holeIndex > __topIndex && __comp(__first + __parent, __value))
	jmp	.L345	#
.L348:
# /usr/include/c++/13/bits/stl_heap.h:142: 	  *(__first + __holeIndex) = _GLIBCXX_MOVE(*(__first + __parent));
	mov	rdx, QWORD PTR -32[rbp]	# tmp96, __parent
	lea	rax, -56[rbp]	# tmp97,
	mov	rsi, rdx	#, tmp96
	mov	rdi, rax	#, tmp97
	call	_ZNK9__gnu_cxx17__normal_iteratorIPSt4pairIiiESt6vectorIS2_SaIS2_EEEplEl	#
	mov	QWORD PTR -40[rbp], rax	# MEM[(struct __normal_iterator *)_41], tmp99
# /usr/include/c++/13/bits/stl_heap.h:142: 	  *(__first + __holeIndex) = _GLIBCXX_MOVE(*(__first + __parent));
	lea	rax, -40[rbp]	# tmp100,
	mov	rdi, rax	#, tmp100
	call	_ZNK9__gnu_cxx17__normal_iteratorIPSt4pairIiiESt6vectorIS2_SaIS2_EEEdeEv	#
# /usr/include/c++/13/bits/stl_heap.h:142: 	  *(__first + __holeIndex) = _GLIBCXX_MOVE(*(__first + __parent));
	mov	rdi, rax	#, _2
	call	_ZSt4moveIRSt4pairIiiEEONSt16remove_referenceIT_E4typeEOS4_	#
	mov	rbx, rax	# _3,
# /usr/include/c++/13/bits/stl_heap.h:142: 	  *(__first + __holeIndex) = _GLIBCXX_MOVE(*(__first + __parent));
	mov	rdx, QWORD PTR -64[rbp]	# tmp101, __holeIndex
	lea	rax, -56[rbp]	# tmp102,
	mov	rsi, rdx	#, tmp101
	mov	rdi, rax	#, tmp102
	call	_ZNK9__gnu_cxx17__normal_iteratorIPSt4pairIiiESt6vectorIS2_SaIS2_EEEplEl	#
	mov	QWORD PTR -48[rbp], rax	# D.230107, tmp104
# /usr/include/c++/13/bits/stl_heap.h:142: 	  *(__first + __holeIndex) = _GLIBCXX_MOVE(*(__first + __parent));
	lea	rax, -48[rbp]	# tmp105,
	mov	rdi, rax	#, tmp105
	call	_ZNK9__gnu_cxx17__normal_iteratorIPSt4pairIiiESt6vectorIS2_SaIS2_EEEdeEv	#
# /usr/include/c++/13/bits/stl_heap.h:142: 	  *(__first + __holeIndex) = _GLIBCXX_MOVE(*(__first + __parent));
	mov	rsi, rbx	#, _3
	mov	rdi, rax	#, _4
	call	_ZNSt4pairIiiEaSEOS0_	#
# /usr/include/c++/13/bits/stl_heap.h:143: 	  __holeIndex = __parent;
	mov	rax, QWORD PTR -32[rbp]	# tmp106, __parent
	mov	QWORD PTR -64[rbp], rax	# __holeIndex, tmp106
# /usr/include/c++/13/bits/stl_heap.h:144: 	  __parent = (__holeIndex - 1) / 2;
	mov	rax, QWORD PTR -64[rbp]	# tmp107, __holeIndex
	sub	rax, 1	# _5,
# /usr/include/c++/13/bits/stl_heap.h:144: 	  __parent = (__holeIndex - 1) / 2;
	mov	rdx, rax	# tmp108, _5
	shr	rdx, 63	# tmp108,
	add	rax, rdx	# tmp109, tmp108
	sar	rax	# tmp110
	mov	QWORD PTR -32[rbp], rax	# __parent, tmp110
.L345:
# /usr/include/c++/13/bits/stl_heap.h:140:       while (__holeIndex > __topIndex && __comp(__first + __parent, __value))
	mov	rax, QWORD PTR -64[rbp]	# tmp111, __holeIndex
	cmp	rax, QWORD PTR -72[rbp]	# tmp111, __topIndex
	jle	.L346	#,
# /usr/include/c++/13/bits/stl_heap.h:140:       while (__holeIndex > __topIndex && __comp(__first + __parent, __value))
	mov	rdx, QWORD PTR -32[rbp]	# tmp112, __parent
	lea	rax, -56[rbp]	# tmp113,
	mov	rsi, rdx	#, tmp112
	mov	rdi, rax	#, tmp113
	call	_ZNK9__gnu_cxx17__normal_iteratorIPSt4pairIiiESt6vectorIS2_SaIS2_EEEplEl	#
	mov	rcx, rax	# D.232679,
	lea	rdx, -80[rbp]	# tmp114,
	mov	rax, QWORD PTR -88[rbp]	# tmp115, __comp
	mov	rsi, rcx	#, D.232679
	mov	rdi, rax	#, tmp115
	call	_ZN9__gnu_cxx5__ops14_Iter_comp_valISt7greaterISt4pairIiiEEEclINS_17__normal_iteratorIPS4_St6vectorIS4_SaIS4_EEEES4_EEbT_RT0_	#
# /usr/include/c++/13/bits/stl_heap.h:140:       while (__holeIndex > __topIndex && __comp(__first + __parent, __value))
	test	al, al	# _6
	je	.L346	#,
# /usr/include/c++/13/bits/stl_heap.h:140:       while (__holeIndex > __topIndex && __comp(__first + __parent, __value))
	mov	eax, 1	# iftmp.39_11,
# /usr/include/c++/13/bits/stl_heap.h:140:       while (__holeIndex > __topIndex && __comp(__first + __parent, __value))
	jmp	.L347	#
.L346:
# /usr/include/c++/13/bits/stl_heap.h:140:       while (__holeIndex > __topIndex && __comp(__first + __parent, __value))
	mov	eax, 0	# iftmp.39_11,
.L347:
# /usr/include/c++/13/bits/stl_heap.h:140:       while (__holeIndex > __topIndex && __comp(__first + __parent, __value))
	test	al, al	# iftmp.39_11
	jne	.L348	#,
# /usr/include/c++/13/bits/stl_heap.h:146:       *(__first + __holeIndex) = _GLIBCXX_MOVE(__value);
	lea	rax, -80[rbp]	# tmp116,
	mov	rdi, rax	#, tmp116
	call	_ZSt4moveIRSt4pairIiiEEONSt16remove_referenceIT_E4typeEOS4_	#
	mov	rbx, rax	# _7,
# /usr/include/c++/13/bits/stl_heap.h:146:       *(__first + __holeIndex) = _GLIBCXX_MOVE(__value);
	mov	rdx, QWORD PTR -64[rbp]	# tmp117, __holeIndex
	lea	rax, -56[rbp]	# tmp118,
	mov	rsi, rdx	#, tmp117
	mov	rdi, rax	#, tmp118
	call	_ZNK9__gnu_cxx17__normal_iteratorIPSt4pairIiiESt6vectorIS2_SaIS2_EEEplEl	#
	mov	QWORD PTR -40[rbp], rax	# MEM[(struct __normal_iterator *)_41], tmp120
# /usr/include/c++/13/bits/stl_heap.h:146:       *(__first + __holeIndex) = _GLIBCXX_MOVE(__value);
	lea	rax, -40[rbp]	# tmp121,
	mov	rdi, rax	#, tmp121
	call	_ZNK9__gnu_cxx17__normal_iteratorIPSt4pairIiiESt6vectorIS2_SaIS2_EEEdeEv	#
# /usr/include/c++/13/bits/stl_heap.h:146:       *(__first + __holeIndex) = _GLIBCXX_MOVE(__value);
	mov	rsi, rbx	#, _7
	mov	rdi, rax	#, _8
	call	_ZNSt4pairIiiEaSEOS0_	#
# /usr/include/c++/13/bits/stl_heap.h:147:     }
	nop	
	mov	rax, QWORD PTR -24[rbp]	# tmp123, D.233386
	sub	rax, QWORD PTR fs:40	# tmp123, MEM[(<address-space-1> long unsigned int *)40B]
	je	.L349	#,
	call	__stack_chk_fail@PLT	#
.L349:
	mov	rbx, QWORD PTR -8[rbp]	#,
	leave	
	.cfi_def_cfa 7, 8
	ret	
	.cfi_endproc
.LFE11534:
	.size	_ZSt11__push_heapIN9__gnu_cxx17__normal_iteratorIPSt4pairIiiESt6vectorIS3_SaIS3_EEEElS3_NS0_5__ops14_Iter_comp_valISt7greaterIS3_EEEEvT_T0_SF_T1_RT2_, .-_ZSt11__push_heapIN9__gnu_cxx17__normal_iteratorIPSt4pairIiiESt6vectorIS3_SaIS3_EEEElS3_NS0_5__ops14_Iter_comp_valISt7greaterIS3_EEEEvT_T0_SF_T1_RT2_
	.section	.text._ZNKSt6vectorISt4pairIiiESaIS1_EE5beginEv,"axG",@progbits,_ZNKSt6vectorISt4pairIiiESaIS1_EE5beginEv,comdat
	.align 2
	.weak	_ZNKSt6vectorISt4pairIiiESaIS1_EE5beginEv
	.type	_ZNKSt6vectorISt4pairIiiESaIS1_EE5beginEv, @function
_ZNKSt6vectorISt4pairIiiESaIS1_EE5beginEv:
.LFB11535:
	.cfi_startproc
	endbr64	
	push	rbp	#
	.cfi_def_cfa_offset 16
	.cfi_offset 6, -16
	mov	rbp, rsp	#,
	.cfi_def_cfa_register 6
	sub	rsp, 32	#,
	mov	QWORD PTR -24[rbp], rdi	# this, this
# /usr/include/c++/13/bits/stl_vector.h:883:       begin() const _GLIBCXX_NOEXCEPT
	mov	rax, QWORD PTR fs:40	# tmp87, MEM[(<address-space-1> long unsigned int *)40B]
	mov	QWORD PTR -8[rbp], rax	# D.233387, tmp87
	xor	eax, eax	# tmp87
# /usr/include/c++/13/bits/stl_vector.h:884:       { return const_iterator(this->_M_impl._M_start); }
	mov	rdx, QWORD PTR -24[rbp]	# _1, this
# /usr/include/c++/13/bits/stl_vector.h:884:       { return const_iterator(this->_M_impl._M_start); }
	lea	rax, -16[rbp]	# tmp85,
	mov	rsi, rdx	#, _1
	mov	rdi, rax	#, tmp85
	call	_ZN9__gnu_cxx17__normal_iteratorIPKSt4pairIiiESt6vectorIS2_SaIS2_EEEC1ERKS4_	#
# /usr/include/c++/13/bits/stl_vector.h:884:       { return const_iterator(this->_M_impl._M_start); }
	mov	rax, QWORD PTR -16[rbp]	# D.232347, D.230148
# /usr/include/c++/13/bits/stl_vector.h:884:       { return const_iterator(this->_M_impl._M_start); }
	mov	rdx, QWORD PTR -8[rbp]	# tmp88, D.233387
	sub	rdx, QWORD PTR fs:40	# tmp88, MEM[(<address-space-1> long unsigned int *)40B]
	je	.L352	#,
	call	__stack_chk_fail@PLT	#
.L352:
	leave	
	.cfi_def_cfa 7, 8
	ret	
	.cfi_endproc
.LFE11535:
	.size	_ZNKSt6vectorISt4pairIiiESaIS1_EE5beginEv, .-_ZNKSt6vectorISt4pairIiiESaIS1_EE5beginEv
	.section	.text._ZNKSt6vectorISt4pairIiiESaIS1_EE3endEv,"axG",@progbits,_ZNKSt6vectorISt4pairIiiESaIS1_EE3endEv,comdat
	.align 2
	.weak	_ZNKSt6vectorISt4pairIiiESaIS1_EE3endEv
	.type	_ZNKSt6vectorISt4pairIiiESaIS1_EE3endEv, @function
_ZNKSt6vectorISt4pairIiiESaIS1_EE3endEv:
.LFB11536:
	.cfi_startproc
	endbr64	
	push	rbp	#
	.cfi_def_cfa_offset 16
	.cfi_offset 6, -16
	mov	rbp, rsp	#,
	.cfi_def_cfa_register 6
	sub	rsp, 32	#,
	mov	QWORD PTR -24[rbp], rdi	# this, this
# /usr/include/c++/13/bits/stl_vector.h:903:       end() const _GLIBCXX_NOEXCEPT
	mov	rax, QWORD PTR fs:40	# tmp88, MEM[(<address-space-1> long unsigned int *)40B]
	mov	QWORD PTR -8[rbp], rax	# D.233388, tmp88
	xor	eax, eax	# tmp88
# /usr/include/c++/13/bits/stl_vector.h:904:       { return const_iterator(this->_M_impl._M_finish); }
	mov	rax, QWORD PTR -24[rbp]	# tmp85, this
	lea	rdx, 8[rax]	# _1,
# /usr/include/c++/13/bits/stl_vector.h:904:       { return const_iterator(this->_M_impl._M_finish); }
	lea	rax, -16[rbp]	# tmp86,
	mov	rsi, rdx	#, _1
	mov	rdi, rax	#, tmp86
	call	_ZN9__gnu_cxx17__normal_iteratorIPKSt4pairIiiESt6vectorIS2_SaIS2_EEEC1ERKS4_	#
# /usr/include/c++/13/bits/stl_vector.h:904:       { return const_iterator(this->_M_impl._M_finish); }
	mov	rax, QWORD PTR -16[rbp]	# D.232344, D.230150
# /usr/include/c++/13/bits/stl_vector.h:904:       { return const_iterator(this->_M_impl._M_finish); }
	mov	rdx, QWORD PTR -8[rbp]	# tmp89, D.233388
	sub	rdx, QWORD PTR fs:40	# tmp89, MEM[(<address-space-1> long unsigned int *)40B]
	je	.L355	#,
	call	__stack_chk_fail@PLT	#
.L355:
	leave	
	.cfi_def_cfa 7, 8
	ret	
	.cfi_endproc
.LFE11536:
	.size	_ZNKSt6vectorISt4pairIiiESaIS1_EE3endEv, .-_ZNKSt6vectorISt4pairIiiESaIS1_EE3endEv
	.section	.text._ZN9__gnu_cxxeqIPKSt4pairIiiESt6vectorIS2_SaIS2_EEEEbRKNS_17__normal_iteratorIT_T0_EESD_,"axG",@progbits,_ZN9__gnu_cxxeqIPKSt4pairIiiESt6vectorIS2_SaIS2_EEEEbRKNS_17__normal_iteratorIT_T0_EESD_,comdat
	.weak	_ZN9__gnu_cxxeqIPKSt4pairIiiESt6vectorIS2_SaIS2_EEEEbRKNS_17__normal_iteratorIT_T0_EESD_
	.type	_ZN9__gnu_cxxeqIPKSt4pairIiiESt6vectorIS2_SaIS2_EEEEbRKNS_17__normal_iteratorIT_T0_EESD_, @function
_ZN9__gnu_cxxeqIPKSt4pairIiiESt6vectorIS2_SaIS2_EEEEbRKNS_17__normal_iteratorIT_T0_EESD_:
.LFB11537:
	.cfi_startproc
	endbr64	
	push	rbp	#
	.cfi_def_cfa_offset 16
	.cfi_offset 6, -16
	mov	rbp, rsp	#,
	.cfi_def_cfa_register 6
	push	rbx	#
	sub	rsp, 24	#,
	.cfi_offset 3, -24
	mov	QWORD PTR -24[rbp], rdi	# __lhs, __lhs
	mov	QWORD PTR -32[rbp], rsi	# __rhs, __rhs
# /usr/include/c++/13/bits/stl_iterator.h:1228:     { return __lhs.base() == __rhs.base(); }
	mov	rax, QWORD PTR -24[rbp]	# tmp88, __lhs
	mov	rdi, rax	#, tmp88
	call	_ZNK9__gnu_cxx17__normal_iteratorIPKSt4pairIiiESt6vectorIS2_SaIS2_EEE4baseEv	#
# /usr/include/c++/13/bits/stl_iterator.h:1228:     { return __lhs.base() == __rhs.base(); }
	mov	rbx, QWORD PTR [rax]	# _2, *_1
# /usr/include/c++/13/bits/stl_iterator.h:1228:     { return __lhs.base() == __rhs.base(); }
	mov	rax, QWORD PTR -32[rbp]	# tmp89, __rhs
	mov	rdi, rax	#, tmp89
	call	_ZNK9__gnu_cxx17__normal_iteratorIPKSt4pairIiiESt6vectorIS2_SaIS2_EEE4baseEv	#
# /usr/include/c++/13/bits/stl_iterator.h:1228:     { return __lhs.base() == __rhs.base(); }
	mov	rax, QWORD PTR [rax]	# _4, *_3
# /usr/include/c++/13/bits/stl_iterator.h:1228:     { return __lhs.base() == __rhs.base(); }
	cmp	rbx, rax	# _2, _4
	sete	al	#, _10
# /usr/include/c++/13/bits/stl_iterator.h:1228:     { return __lhs.base() == __rhs.base(); }
	mov	rbx, QWORD PTR -8[rbp]	#,
	leave	
	.cfi_def_cfa 7, 8
	ret	
	.cfi_endproc
.LFE11537:
	.size	_ZN9__gnu_cxxeqIPKSt4pairIiiESt6vectorIS2_SaIS2_EEEEbRKNS_17__normal_iteratorIT_T0_EESD_, .-_ZN9__gnu_cxxeqIPKSt4pairIiiESt6vectorIS2_SaIS2_EEEEbRKNS_17__normal_iteratorIT_T0_EESD_
	.section	.text._ZNK9__gnu_cxx17__normal_iteratorIPKSt4pairIiiESt6vectorIS2_SaIS2_EEEdeEv,"axG",@progbits,_ZNK9__gnu_cxx17__normal_iteratorIPKSt4pairIiiESt6vectorIS2_SaIS2_EEEdeEv,comdat
	.align 2
	.weak	_ZNK9__gnu_cxx17__normal_iteratorIPKSt4pairIiiESt6vectorIS2_SaIS2_EEEdeEv
	.type	_ZNK9__gnu_cxx17__normal_iteratorIPKSt4pairIiiESt6vectorIS2_SaIS2_EEEdeEv, @function
_ZNK9__gnu_cxx17__normal_iteratorIPKSt4pairIiiESt6vectorIS2_SaIS2_EEEdeEv:
.LFB11538:
	.cfi_startproc
	endbr64	
	push	rbp	#
	.cfi_def_cfa_offset 16
	.cfi_offset 6, -16
	mov	rbp, rsp	#,
	.cfi_def_cfa_register 6
	mov	QWORD PTR -8[rbp], rdi	# this, this
# /usr/include/c++/13/bits/stl_iterator.h:1100:       { return *_M_current; }
	mov	rax, QWORD PTR -8[rbp]	# tmp84, this
	mov	rax, QWORD PTR [rax]	# _3, this_2(D)->_M_current
# /usr/include/c++/13/bits/stl_iterator.h:1100:       { return *_M_current; }
	pop	rbp	#
	.cfi_def_cfa 7, 8
	ret	
	.cfi_endproc
.LFE11538:
	.size	_ZNK9__gnu_cxx17__normal_iteratorIPKSt4pairIiiESt6vectorIS2_SaIS2_EEEdeEv, .-_ZNK9__gnu_cxx17__normal_iteratorIPKSt4pairIiiESt6vectorIS2_SaIS2_EEEdeEv
	.section	.text._ZN9__gnu_cxx17__normal_iteratorIPSt4pairIiiESt6vectorIS2_SaIS2_EEEmmEv,"axG",@progbits,_ZN9__gnu_cxx17__normal_iteratorIPSt4pairIiiESt6vectorIS2_SaIS2_EEEmmEv,comdat
	.align 2
	.weak	_ZN9__gnu_cxx17__normal_iteratorIPSt4pairIiiESt6vectorIS2_SaIS2_EEEmmEv
	.type	_ZN9__gnu_cxx17__normal_iteratorIPSt4pairIiiESt6vectorIS2_SaIS2_EEEmmEv, @function
_ZN9__gnu_cxx17__normal_iteratorIPSt4pairIiiESt6vectorIS2_SaIS2_EEEmmEv:
.LFB11539:
	.cfi_startproc
	endbr64	
	push	rbp	#
	.cfi_def_cfa_offset 16
	.cfi_offset 6, -16
	mov	rbp, rsp	#,
	.cfi_def_cfa_register 6
	mov	QWORD PTR -8[rbp], rdi	# this, this
# /usr/include/c++/13/bits/stl_iterator.h:1125: 	--_M_current;
	mov	rax, QWORD PTR -8[rbp]	# tmp86, this
	mov	rax, QWORD PTR [rax]	# _1, this_4(D)->_M_current
# /usr/include/c++/13/bits/stl_iterator.h:1125: 	--_M_current;
	lea	rdx, -8[rax]	# _2,
	mov	rax, QWORD PTR -8[rbp]	# tmp87, this
	mov	QWORD PTR [rax], rdx	# this_4(D)->_M_current, _2
# /usr/include/c++/13/bits/stl_iterator.h:1126: 	return *this;
	mov	rax, QWORD PTR -8[rbp]	# _6, this
# /usr/include/c++/13/bits/stl_iterator.h:1127:       }
	pop	rbp	#
	.cfi_def_cfa 7, 8
	ret	
	.cfi_endproc
.LFE11539:
	.size	_ZN9__gnu_cxx17__normal_iteratorIPSt4pairIiiESt6vectorIS2_SaIS2_EEEmmEv, .-_ZN9__gnu_cxx17__normal_iteratorIPSt4pairIiiESt6vectorIS2_SaIS2_EEEmmEv
	.section	.text._ZSt10__pop_heapIN9__gnu_cxx17__normal_iteratorIPSt4pairIiiESt6vectorIS3_SaIS3_EEEENS0_5__ops15_Iter_comp_iterISt7greaterIS3_EEEEvT_SE_SE_RT0_,"axG",@progbits,_ZSt10__pop_heapIN9__gnu_cxx17__normal_iteratorIPSt4pairIiiESt6vectorIS3_SaIS3_EEEENS0_5__ops15_Iter_comp_iterISt7greaterIS3_EEEEvT_SE_SE_RT0_,comdat
	.weak	_ZSt10__pop_heapIN9__gnu_cxx17__normal_iteratorIPSt4pairIiiESt6vectorIS3_SaIS3_EEEENS0_5__ops15_Iter_comp_iterISt7greaterIS3_EEEEvT_SE_SE_RT0_
	.type	_ZSt10__pop_heapIN9__gnu_cxx17__normal_iteratorIPSt4pairIiiESt6vectorIS3_SaIS3_EEEENS0_5__ops15_Iter_comp_iterISt7greaterIS3_EEEEvT_SE_SE_RT0_, @function
_ZSt10__pop_heapIN9__gnu_cxx17__normal_iteratorIPSt4pairIiiESt6vectorIS3_SaIS3_EEEENS0_5__ops15_Iter_comp_iterISt7greaterIS3_EEEEvT_SE_SE_RT0_:
.LFB11540:
	.cfi_startproc
	endbr64	
	push	rbp	#
	.cfi_def_cfa_offset 16
	.cfi_offset 6, -16
	mov	rbp, rsp	#,
	.cfi_def_cfa_register 6
	push	rbx	#
	sub	rsp, 56	#,
	.cfi_offset 3, -24
	mov	QWORD PTR -40[rbp], rdi	# __first, __first
	mov	QWORD PTR -48[rbp], rsi	# __last, __last
	mov	QWORD PTR -56[rbp], rdx	# __result, __result
	mov	QWORD PTR -64[rbp], rcx	# __comp, __comp
# /usr/include/c++/13/bits/stl_heap.h:254:     __pop_heap(_RandomAccessIterator __first, _RandomAccessIterator __last,
	mov	rax, QWORD PTR fs:40	# tmp99, MEM[(<address-space-1> long unsigned int *)40B]
	mov	QWORD PTR -24[rbp], rax	# D.233389, tmp99
	xor	eax, eax	# tmp99
# /usr/include/c++/13/bits/stl_heap.h:262:       _ValueType __value = _GLIBCXX_MOVE(*__result);
	lea	rax, -56[rbp]	# tmp89,
	mov	rdi, rax	#, tmp89
	call	_ZNK9__gnu_cxx17__normal_iteratorIPSt4pairIiiESt6vectorIS2_SaIS2_EEEdeEv	#
# /usr/include/c++/13/bits/stl_heap.h:262:       _ValueType __value = _GLIBCXX_MOVE(*__result);
	mov	rdi, rax	#, _1
	call	_ZSt4moveIRSt4pairIiiEEONSt16remove_referenceIT_E4typeEOS4_	#
# /usr/include/c++/13/bits/stl_heap.h:262:       _ValueType __value = _GLIBCXX_MOVE(*__result);
	mov	rax, QWORD PTR [rax]	# tmp90, MEM[(struct pair &)_2]
	mov	QWORD PTR -32[rbp], rax	# __value, tmp90
# /usr/include/c++/13/bits/stl_heap.h:263:       *__result = _GLIBCXX_MOVE(*__first);
	lea	rax, -40[rbp]	# tmp91,
	mov	rdi, rax	#, tmp91
	call	_ZNK9__gnu_cxx17__normal_iteratorIPSt4pairIiiESt6vectorIS2_SaIS2_EEEdeEv	#
# /usr/include/c++/13/bits/stl_heap.h:263:       *__result = _GLIBCXX_MOVE(*__first);
	mov	rdi, rax	#, _3
	call	_ZSt4moveIRSt4pairIiiEEONSt16remove_referenceIT_E4typeEOS4_	#
	mov	rbx, rax	# _4,
# /usr/include/c++/13/bits/stl_heap.h:263:       *__result = _GLIBCXX_MOVE(*__first);
	lea	rax, -56[rbp]	# tmp92,
	mov	rdi, rax	#, tmp92
	call	_ZNK9__gnu_cxx17__normal_iteratorIPSt4pairIiiESt6vectorIS2_SaIS2_EEEdeEv	#
# /usr/include/c++/13/bits/stl_heap.h:263:       *__result = _GLIBCXX_MOVE(*__first);
	mov	rsi, rbx	#, _4
	mov	rdi, rax	#, _5
	call	_ZNSt4pairIiiEaSEOS0_	#
# /usr/include/c++/13/bits/stl_heap.h:266: 			 _GLIBCXX_MOVE(__value), __comp);
	lea	rax, -32[rbp]	# tmp93,
	mov	rdi, rax	#, tmp93
	call	_ZSt4moveIRSt4pairIiiEEONSt16remove_referenceIT_E4typeEOS4_	#
	mov	rbx, rax	# _6,
# /usr/include/c++/13/bits/stl_heap.h:265: 			 _DistanceType(__last - __first),
	lea	rdx, -40[rbp]	# tmp94,
	lea	rax, -48[rbp]	# tmp95,
	mov	rsi, rdx	#, tmp94
	mov	rdi, rax	#, tmp95
	call	_ZN9__gnu_cxxmiIPSt4pairIiiESt6vectorIS2_SaIS2_EEEENS_17__normal_iteratorIT_T0_E15difference_typeERKSA_SD_	#
	mov	rsi, rax	# _7,
# /usr/include/c++/13/bits/stl_heap.h:264:       std::__adjust_heap(__first, _DistanceType(0),
	mov	rdx, QWORD PTR [rbx]	# tmp96, MEM[(struct pair &)_6]
	mov	rax, QWORD PTR -40[rbp]	# tmp97, __first
	mov	rcx, rdx	#, tmp96
	mov	rdx, rsi	#, _7
	mov	esi, 0	#,
	mov	rdi, rax	#, tmp97
	call	_ZSt13__adjust_heapIN9__gnu_cxx17__normal_iteratorIPSt4pairIiiESt6vectorIS3_SaIS3_EEEElS3_NS0_5__ops15_Iter_comp_iterISt7greaterIS3_EEEEvT_T0_SF_T1_T2_	#
# /usr/include/c++/13/bits/stl_heap.h:267:     }
	nop	
	mov	rax, QWORD PTR -24[rbp]	# tmp100, D.233389
	sub	rax, QWORD PTR fs:40	# tmp100, MEM[(<address-space-1> long unsigned int *)40B]
	je	.L363	#,
	call	__stack_chk_fail@PLT	#
.L363:
	mov	rbx, QWORD PTR -8[rbp]	#,
	leave	
	.cfi_def_cfa 7, 8
	ret	
	.cfi_endproc
.LFE11540:
	.size	_ZSt10__pop_heapIN9__gnu_cxx17__normal_iteratorIPSt4pairIiiESt6vectorIS3_SaIS3_EEEENS0_5__ops15_Iter_comp_iterISt7greaterIS3_EEEEvT_SE_SE_RT0_, .-_ZSt10__pop_heapIN9__gnu_cxx17__normal_iteratorIPSt4pairIiiESt6vectorIS3_SaIS3_EEEENS0_5__ops15_Iter_comp_iterISt7greaterIS3_EEEEvT_SE_SE_RT0_
	.section	.text._ZSt7forwardIRKiEOT_RNSt16remove_referenceIS2_E4typeE,"axG",@progbits,_ZSt7forwardIRKiEOT_RNSt16remove_referenceIS2_E4typeE,comdat
	.weak	_ZSt7forwardIRKiEOT_RNSt16remove_referenceIS2_E4typeE
	.type	_ZSt7forwardIRKiEOT_RNSt16remove_referenceIS2_E4typeE, @function
_ZSt7forwardIRKiEOT_RNSt16remove_referenceIS2_E4typeE:
.LFB11541:
	.cfi_startproc
	endbr64	
	push	rbp	#
	.cfi_def_cfa_offset 16
	.cfi_offset 6, -16
	mov	rbp, rsp	#,
	.cfi_def_cfa_register 6
	mov	QWORD PTR -8[rbp], rdi	# __t, __t
# /usr/include/c++/13/bits/move.h:71:     { return static_cast<_Tp&&>(__t); }
	mov	rax, QWORD PTR -8[rbp]	# _2, __t
# /usr/include/c++/13/bits/move.h:71:     { return static_cast<_Tp&&>(__t); }
	pop	rbp	#
	.cfi_def_cfa 7, 8
	ret	
	.cfi_endproc
.LFE11541:
	.size	_ZSt7forwardIRKiEOT_RNSt16remove_referenceIS2_E4typeE, .-_ZSt7forwardIRKiEOT_RNSt16remove_referenceIS2_E4typeE
	.section	.text._ZNKSt6vectorIiSaIiEE12_M_check_lenEmPKc,"axG",@progbits,_ZNKSt6vectorIiSaIiEE12_M_check_lenEmPKc,comdat
	.align 2
	.weak	_ZNKSt6vectorIiSaIiEE12_M_check_lenEmPKc
	.type	_ZNKSt6vectorIiSaIiEE12_M_check_lenEmPKc, @function
_ZNKSt6vectorIiSaIiEE12_M_check_lenEmPKc:
.LFB11543:
	.cfi_startproc
	endbr64	
	push	rbp	#
	.cfi_def_cfa_offset 16
	.cfi_offset 6, -16
	mov	rbp, rsp	#,
	.cfi_def_cfa_register 6
	push	rbx	#
	sub	rsp, 72	#,
	.cfi_offset 3, -24
	mov	QWORD PTR -56[rbp], rdi	# this, this
	mov	QWORD PTR -64[rbp], rsi	# __n, __n
	mov	QWORD PTR -72[rbp], rdx	# __s, __s
# /usr/include/c++/13/bits/stl_vector.h:1896:       _M_check_len(size_type __n, const char* __s) const
	mov	rax, QWORD PTR fs:40	# tmp107, MEM[(<address-space-1> long unsigned int *)40B]
	mov	QWORD PTR -24[rbp], rax	# D.233390, tmp107
	xor	eax, eax	# tmp107
# /usr/include/c++/13/bits/stl_vector.h:1898: 	if (max_size() - size() < __n)
	mov	rax, QWORD PTR -56[rbp]	# tmp95, this
	mov	rdi, rax	#, tmp95
	call	_ZNKSt6vectorIiSaIiEE8max_sizeEv	#
	mov	rbx, rax	# _1,
# /usr/include/c++/13/bits/stl_vector.h:1898: 	if (max_size() - size() < __n)
	mov	rax, QWORD PTR -56[rbp]	# tmp96, this
	mov	rdi, rax	#, tmp96
	call	_ZNKSt6vectorIiSaIiEE4sizeEv	#
# /usr/include/c++/13/bits/stl_vector.h:1898: 	if (max_size() - size() < __n)
	sub	rbx, rax	# _1, _2
	mov	rdx, rbx	# _3, _1
# /usr/include/c++/13/bits/stl_vector.h:1898: 	if (max_size() - size() < __n)
	mov	rax, QWORD PTR -64[rbp]	# __n.45_4, __n
	cmp	rdx, rax	# _3, __n.45_4
	setb	al	#, retval.44_18
# /usr/include/c++/13/bits/stl_vector.h:1898: 	if (max_size() - size() < __n)
	test	al, al	# retval.44_18
	je	.L367	#,
# /usr/include/c++/13/bits/stl_vector.h:1899: 	  __throw_length_error(__N(__s));
	mov	rax, QWORD PTR -24[rbp]	# tmp108, D.233390
	sub	rax, QWORD PTR fs:40	# tmp108, MEM[(<address-space-1> long unsigned int *)40B]
	je	.L368	#,
	call	__stack_chk_fail@PLT	#
.L368:
	mov	rax, QWORD PTR -72[rbp]	# tmp97, __s
	mov	rdi, rax	#, tmp97
	call	_ZSt20__throw_length_errorPKc@PLT	#
.L367:
# /usr/include/c++/13/bits/stl_vector.h:1901: 	const size_type __len = size() + (std::max)(size(), __n);
	mov	rax, QWORD PTR -56[rbp]	# tmp98, this
	mov	rdi, rax	#, tmp98
	call	_ZNKSt6vectorIiSaIiEE4sizeEv	#
	mov	rbx, rax	# _5,
# /usr/include/c++/13/bits/stl_vector.h:1901: 	const size_type __len = size() + (std::max)(size(), __n);
	mov	rax, QWORD PTR -56[rbp]	# tmp99, this
	mov	rdi, rax	#, tmp99
	call	_ZNKSt6vectorIiSaIiEE4sizeEv	#
# /usr/include/c++/13/bits/stl_vector.h:1901: 	const size_type __len = size() + (std::max)(size(), __n);
	mov	QWORD PTR -40[rbp], rax	# D.230188, _6
# /usr/include/c++/13/bits/stl_vector.h:1901: 	const size_type __len = size() + (std::max)(size(), __n);
	lea	rdx, -64[rbp]	# tmp100,
	lea	rax, -40[rbp]	# tmp101,
	mov	rsi, rdx	#, tmp100
	mov	rdi, rax	#, tmp101
	call	_ZSt3maxImERKT_S2_S2_	#
# /usr/include/c++/13/bits/stl_vector.h:1901: 	const size_type __len = size() + (std::max)(size(), __n);
	mov	rax, QWORD PTR [rax]	# _8, *_7
# /usr/include/c++/13/bits/stl_vector.h:1901: 	const size_type __len = size() + (std::max)(size(), __n);
	add	rax, rbx	# tmp102, _5
	mov	QWORD PTR -32[rbp], rax	# __len, tmp102
# /usr/include/c++/13/bits/stl_vector.h:1902: 	return (__len < size() || __len > max_size()) ? max_size() : __len;
	mov	rax, QWORD PTR -56[rbp]	# tmp103, this
	mov	rdi, rax	#, tmp103
	call	_ZNKSt6vectorIiSaIiEE4sizeEv	#
# /usr/include/c++/13/bits/stl_vector.h:1902: 	return (__len < size() || __len > max_size()) ? max_size() : __len;
	cmp	QWORD PTR -32[rbp], rax	# __len, _9
	jb	.L369	#,
# /usr/include/c++/13/bits/stl_vector.h:1902: 	return (__len < size() || __len > max_size()) ? max_size() : __len;
	mov	rax, QWORD PTR -56[rbp]	# tmp104, this
	mov	rdi, rax	#, tmp104
	call	_ZNKSt6vectorIiSaIiEE8max_sizeEv	#
# /usr/include/c++/13/bits/stl_vector.h:1902: 	return (__len < size() || __len > max_size()) ? max_size() : __len;
	cmp	rax, QWORD PTR -32[rbp]	# _10, __len
	jnb	.L370	#,
.L369:
# /usr/include/c++/13/bits/stl_vector.h:1902: 	return (__len < size() || __len > max_size()) ? max_size() : __len;
	mov	rax, QWORD PTR -56[rbp]	# tmp105, this
	mov	rdi, rax	#, tmp105
	call	_ZNKSt6vectorIiSaIiEE8max_sizeEv	#
# /usr/include/c++/13/bits/stl_vector.h:1902: 	return (__len < size() || __len > max_size()) ? max_size() : __len;
	jmp	.L371	#
.L370:
# /usr/include/c++/13/bits/stl_vector.h:1902: 	return (__len < size() || __len > max_size()) ? max_size() : __len;
	mov	rax, QWORD PTR -32[rbp]	# iftmp.46_11, __len
.L371:
# /usr/include/c++/13/bits/stl_vector.h:1903:       }
	mov	rdx, QWORD PTR -24[rbp]	# tmp109, D.233390
	sub	rdx, QWORD PTR fs:40	# tmp109, MEM[(<address-space-1> long unsigned int *)40B]
	je	.L373	#,
	call	__stack_chk_fail@PLT	#
.L373:
	mov	rbx, QWORD PTR -8[rbp]	#,
	leave	
	.cfi_def_cfa 7, 8
	ret	
	.cfi_endproc
.LFE11543:
	.size	_ZNKSt6vectorIiSaIiEE12_M_check_lenEmPKc, .-_ZNKSt6vectorIiSaIiEE12_M_check_lenEmPKc
	.section	.text._ZN9__gnu_cxxmiIPiSt6vectorIiSaIiEEEENS_17__normal_iteratorIT_T0_E15difference_typeERKS8_SB_,"axG",@progbits,_ZN9__gnu_cxxmiIPiSt6vectorIiSaIiEEEENS_17__normal_iteratorIT_T0_E15difference_typeERKS8_SB_,comdat
	.weak	_ZN9__gnu_cxxmiIPiSt6vectorIiSaIiEEEENS_17__normal_iteratorIT_T0_E15difference_typeERKS8_SB_
	.type	_ZN9__gnu_cxxmiIPiSt6vectorIiSaIiEEEENS_17__normal_iteratorIT_T0_E15difference_typeERKS8_SB_, @function
_ZN9__gnu_cxxmiIPiSt6vectorIiSaIiEEEENS_17__normal_iteratorIT_T0_E15difference_typeERKS8_SB_:
.LFB11544:
	.cfi_startproc
	endbr64	
	push	rbp	#
	.cfi_def_cfa_offset 16
	.cfi_offset 6, -16
	mov	rbp, rsp	#,
	.cfi_def_cfa_register 6
	push	rbx	#
	sub	rsp, 24	#,
	.cfi_offset 3, -24
	mov	QWORD PTR -24[rbp], rdi	# __lhs, __lhs
	mov	QWORD PTR -32[rbp], rsi	# __rhs, __rhs
# /usr/include/c++/13/bits/stl_iterator.h:1337:     { return __lhs.base() - __rhs.base(); }
	mov	rax, QWORD PTR -24[rbp]	# tmp89, __lhs
	mov	rdi, rax	#, tmp89
	call	_ZNK9__gnu_cxx17__normal_iteratorIPiSt6vectorIiSaIiEEE4baseEv	#
# /usr/include/c++/13/bits/stl_iterator.h:1337:     { return __lhs.base() - __rhs.base(); }
	mov	rbx, QWORD PTR [rax]	# _2, *_1
# /usr/include/c++/13/bits/stl_iterator.h:1337:     { return __lhs.base() - __rhs.base(); }
	mov	rax, QWORD PTR -32[rbp]	# tmp90, __rhs
	mov	rdi, rax	#, tmp90
	call	_ZNK9__gnu_cxx17__normal_iteratorIPiSt6vectorIiSaIiEEE4baseEv	#
# /usr/include/c++/13/bits/stl_iterator.h:1337:     { return __lhs.base() - __rhs.base(); }
	mov	rax, QWORD PTR [rax]	# _4, *_3
	mov	rdx, rbx	# _2, _2
	sub	rdx, rax	# _2, _4
# /usr/include/c++/13/bits/stl_iterator.h:1337:     { return __lhs.base() - __rhs.base(); }
	mov	rax, rdx	# _5, _5
	sar	rax, 2	# _5,
# /usr/include/c++/13/bits/stl_iterator.h:1337:     { return __lhs.base() - __rhs.base(); }
	mov	rbx, QWORD PTR -8[rbp]	#,
	leave	
	.cfi_def_cfa 7, 8
	ret	
	.cfi_endproc
.LFE11544:
	.size	_ZN9__gnu_cxxmiIPiSt6vectorIiSaIiEEEENS_17__normal_iteratorIT_T0_E15difference_typeERKS8_SB_, .-_ZN9__gnu_cxxmiIPiSt6vectorIiSaIiEEEENS_17__normal_iteratorIT_T0_E15difference_typeERKS8_SB_
	.section	.text._ZNSt6vectorIiSaIiEE11_S_relocateEPiS2_S2_RS0_,"axG",@progbits,_ZNSt6vectorIiSaIiEE11_S_relocateEPiS2_S2_RS0_,comdat
	.weak	_ZNSt6vectorIiSaIiEE11_S_relocateEPiS2_S2_RS0_
	.type	_ZNSt6vectorIiSaIiEE11_S_relocateEPiS2_S2_RS0_, @function
_ZNSt6vectorIiSaIiEE11_S_relocateEPiS2_S2_RS0_:
.LFB11545:
	.cfi_startproc
	endbr64	
	push	rbp	#
	.cfi_def_cfa_offset 16
	.cfi_offset 6, -16
	mov	rbp, rsp	#,
	.cfi_def_cfa_register 6
	sub	rsp, 32	#,
	mov	QWORD PTR -8[rbp], rdi	# __first, __first
	mov	QWORD PTR -16[rbp], rsi	# __last, __last
	mov	QWORD PTR -24[rbp], rdx	# __result, __result
	mov	QWORD PTR -32[rbp], rcx	# __alloc, __alloc
# /usr/include/c++/13/bits/stl_vector.h:509: 	return std::__relocate_a(__first, __last, __result, __alloc);
	mov	rcx, QWORD PTR -32[rbp]	# tmp84, __alloc
	mov	rdx, QWORD PTR -24[rbp]	# tmp85, __result
	mov	rsi, QWORD PTR -16[rbp]	# tmp86, __last
	mov	rax, QWORD PTR -8[rbp]	# tmp87, __first
	mov	rdi, rax	#, tmp87
	call	_ZSt12__relocate_aIPiS0_SaIiEET0_T_S3_S2_RT1_	#
# /usr/include/c++/13/bits/stl_vector.h:514:       }
	leave	
	.cfi_def_cfa 7, 8
	ret	
	.cfi_endproc
.LFE11545:
	.size	_ZNSt6vectorIiSaIiEE11_S_relocateEPiS2_S2_RS0_, .-_ZNSt6vectorIiSaIiEE11_S_relocateEPiS2_S2_RS0_
	.section	.text._ZNK9__gnu_cxx17__normal_iteratorIPiSt6vectorIiSaIiEEE4baseEv,"axG",@progbits,_ZNK9__gnu_cxx17__normal_iteratorIPiSt6vectorIiSaIiEEE4baseEv,comdat
	.align 2
	.weak	_ZNK9__gnu_cxx17__normal_iteratorIPiSt6vectorIiSaIiEEE4baseEv
	.type	_ZNK9__gnu_cxx17__normal_iteratorIPiSt6vectorIiSaIiEEE4baseEv, @function
_ZNK9__gnu_cxx17__normal_iteratorIPiSt6vectorIiSaIiEEE4baseEv:
.LFB11546:
	.cfi_startproc
	endbr64	
	push	rbp	#
	.cfi_def_cfa_offset 16
	.cfi_offset 6, -16
	mov	rbp, rsp	#,
	.cfi_def_cfa_register 6
	mov	QWORD PTR -8[rbp], rdi	# this, this
# /usr/include/c++/13/bits/stl_iterator.h:1163:       { return _M_current; }
	mov	rax, QWORD PTR -8[rbp]	# _2, this
# /usr/include/c++/13/bits/stl_iterator.h:1163:       { return _M_current; }
	pop	rbp	#
	.cfi_def_cfa 7, 8
	ret	
	.cfi_endproc
.LFE11546:
	.size	_ZNK9__gnu_cxx17__normal_iteratorIPiSt6vectorIiSaIiEEE4baseEv, .-_ZNK9__gnu_cxx17__normal_iteratorIPiSt6vectorIiSaIiEEE4baseEv
	.section	.text._ZNSt15__new_allocatorISt6vectorISt4pairIiiESaIS2_EEE10deallocateEPS4_m,"axG",@progbits,_ZNSt15__new_allocatorISt6vectorISt4pairIiiESaIS2_EEE10deallocateEPS4_m,comdat
	.align 2
	.weak	_ZNSt15__new_allocatorISt6vectorISt4pairIiiESaIS2_EEE10deallocateEPS4_m
	.type	_ZNSt15__new_allocatorISt6vectorISt4pairIiiESaIS2_EEE10deallocateEPS4_m, @function
_ZNSt15__new_allocatorISt6vectorISt4pairIiiESaIS2_EEE10deallocateEPS4_m:
.LFB11651:
	.cfi_startproc
	endbr64	
	push	rbp	#
	.cfi_def_cfa_offset 16
	.cfi_offset 6, -16
	mov	rbp, rsp	#,
	.cfi_def_cfa_register 6
	sub	rsp, 32	#,
	mov	QWORD PTR -8[rbp], rdi	# this, this
	mov	QWORD PTR -16[rbp], rsi	# __p, __p
	mov	QWORD PTR -24[rbp], rdx	# __n, __n
# /usr/include/c++/13/bits/new_allocator.h:172: 	_GLIBCXX_OPERATOR_DELETE(_GLIBCXX_SIZED_DEALLOC(__p, __n));
	mov	rdx, QWORD PTR -24[rbp]	# tmp83, __n
	mov	rax, rdx	# tmp84, tmp83
	add	rax, rax	# tmp84
	add	rax, rdx	# tmp84, tmp83
	sal	rax, 3	# tmp85,
	mov	rdx, rax	# _2, tmp84
	mov	rax, QWORD PTR -16[rbp]	# tmp86, __p
	mov	rsi, rdx	#, _2
	mov	rdi, rax	#, tmp86
	call	_ZdlPvm@PLT	#
# /usr/include/c++/13/bits/new_allocator.h:173:       }
	leave	
	.cfi_def_cfa 7, 8
	ret	
	.cfi_endproc
.LFE11651:
	.size	_ZNSt15__new_allocatorISt6vectorISt4pairIiiESaIS2_EEE10deallocateEPS4_m, .-_ZNSt15__new_allocatorISt6vectorISt4pairIiiESaIS2_EEE10deallocateEPS4_m
	.section	.text._ZNSt22__uninitialized_fill_nILb0EE15__uninit_fill_nIPSt6vectorISt4pairIiiESaIS4_EEmS6_EET_S8_T0_RKT1_,"axG",@progbits,_ZNSt22__uninitialized_fill_nILb0EE15__uninit_fill_nIPSt6vectorISt4pairIiiESaIS4_EEmS6_EET_S8_T0_RKT1_,comdat
	.weak	_ZNSt22__uninitialized_fill_nILb0EE15__uninit_fill_nIPSt6vectorISt4pairIiiESaIS4_EEmS6_EET_S8_T0_RKT1_
	.type	_ZNSt22__uninitialized_fill_nILb0EE15__uninit_fill_nIPSt6vectorISt4pairIiiESaIS4_EEmS6_EET_S8_T0_RKT1_, @function
_ZNSt22__uninitialized_fill_nILb0EE15__uninit_fill_nIPSt6vectorISt4pairIiiESaIS4_EEmS6_EET_S8_T0_RKT1_:
.LFB11652:
	.cfi_startproc
	endbr64	
	push	rbp	#
	.cfi_def_cfa_offset 16
	.cfi_offset 6, -16
	mov	rbp, rsp	#,
	.cfi_def_cfa_register 6
	sub	rsp, 32	#,
	mov	QWORD PTR -8[rbp], rdi	# __first, __first
	mov	QWORD PTR -16[rbp], rsi	# __n, __n
	mov	QWORD PTR -24[rbp], rdx	# __x, __x
# /usr/include/c++/13/bits/stl_uninitialized.h:284: 	{ return std::__do_uninit_fill_n(__first, __n, __x); }
	mov	rdx, QWORD PTR -24[rbp]	# tmp84, __x
	mov	rcx, QWORD PTR -16[rbp]	# tmp85, __n
	mov	rax, QWORD PTR -8[rbp]	# tmp86, __first
	mov	rsi, rcx	#, tmp85
	mov	rdi, rax	#, tmp86
	call	_ZSt18__do_uninit_fill_nIPSt6vectorISt4pairIiiESaIS2_EEmS4_ET_S6_T0_RKT1_	#
# /usr/include/c++/13/bits/stl_uninitialized.h:284: 	{ return std::__do_uninit_fill_n(__first, __n, __x); }
	leave	
	.cfi_def_cfa 7, 8
	ret	
	.cfi_endproc
.LFE11652:
	.size	_ZNSt22__uninitialized_fill_nILb0EE15__uninit_fill_nIPSt6vectorISt4pairIiiESaIS4_EEmS6_EET_S8_T0_RKT1_, .-_ZNSt22__uninitialized_fill_nILb0EE15__uninit_fill_nIPSt6vectorISt4pairIiiESaIS4_EEmS6_EET_S8_T0_RKT1_
	.section	.text._ZSt11__addressofISt6vectorISt4pairIiiESaIS2_EEEPT_RS5_,"axG",@progbits,_ZSt11__addressofISt6vectorISt4pairIiiESaIS2_EEEPT_RS5_,comdat
	.weak	_ZSt11__addressofISt6vectorISt4pairIiiESaIS2_EEEPT_RS5_
	.type	_ZSt11__addressofISt6vectorISt4pairIiiESaIS2_EEEPT_RS5_, @function
_ZSt11__addressofISt6vectorISt4pairIiiESaIS2_EEEPT_RS5_:
.LFB11653:
	.cfi_startproc
	endbr64	
	push	rbp	#
	.cfi_def_cfa_offset 16
	.cfi_offset 6, -16
	mov	rbp, rsp	#,
	.cfi_def_cfa_register 6
	mov	QWORD PTR -8[rbp], rdi	# __r, __r
# /usr/include/c++/13/bits/move.h:52:     { return __builtin_addressof(__r); }
	mov	rax, QWORD PTR -8[rbp]	# _2, __r
# /usr/include/c++/13/bits/move.h:52:     { return __builtin_addressof(__r); }
	pop	rbp	#
	.cfi_def_cfa 7, 8
	ret	
	.cfi_endproc
.LFE11653:
	.size	_ZSt11__addressofISt6vectorISt4pairIiiESaIS2_EEEPT_RS5_, .-_ZSt11__addressofISt6vectorISt4pairIiiESaIS2_EEEPT_RS5_
	.section	.text._ZSt8_DestroyISt6vectorISt4pairIiiESaIS2_EEEvPT_,"axG",@progbits,_ZSt8_DestroyISt6vectorISt4pairIiiESaIS2_EEEvPT_,comdat
	.weak	_ZSt8_DestroyISt6vectorISt4pairIiiESaIS2_EEEvPT_
	.type	_ZSt8_DestroyISt6vectorISt4pairIiiESaIS2_EEEvPT_, @function
_ZSt8_DestroyISt6vectorISt4pairIiiESaIS2_EEEvPT_:
.LFB11654:
	.cfi_startproc
	endbr64	
	push	rbp	#
	.cfi_def_cfa_offset 16
	.cfi_offset 6, -16
	mov	rbp, rsp	#,
	.cfi_def_cfa_register 6
	sub	rsp, 16	#,
	mov	QWORD PTR -8[rbp], rdi	# __pointer, __pointer
# /usr/include/c++/13/bits/stl_construct.h:151:       __pointer->~_Tp();
	mov	rax, QWORD PTR -8[rbp]	# tmp82, __pointer
	mov	rdi, rax	#, tmp82
	call	_ZNSt6vectorISt4pairIiiESaIS1_EED1Ev	#
# /usr/include/c++/13/bits/stl_construct.h:153:     }
	nop	
	leave	
	.cfi_def_cfa 7, 8
	ret	
	.cfi_endproc
.LFE11654:
	.size	_ZSt8_DestroyISt6vectorISt4pairIiiESaIS2_EEEvPT_, .-_ZSt8_DestroyISt6vectorISt4pairIiiESaIS2_EEEvPT_
	.section	.text._ZNKSt6vectorISt4pairIiiESaIS1_EE8max_sizeEv,"axG",@progbits,_ZNKSt6vectorISt4pairIiiESaIS1_EE8max_sizeEv,comdat
	.align 2
	.weak	_ZNKSt6vectorISt4pairIiiESaIS1_EE8max_sizeEv
	.type	_ZNKSt6vectorISt4pairIiiESaIS1_EE8max_sizeEv, @function
_ZNKSt6vectorISt4pairIiiESaIS1_EE8max_sizeEv:
.LFB11655:
	.cfi_startproc
	endbr64	
	push	rbp	#
	.cfi_def_cfa_offset 16
	.cfi_offset 6, -16
	mov	rbp, rsp	#,
	.cfi_def_cfa_register 6
	sub	rsp, 16	#,
	mov	QWORD PTR -8[rbp], rdi	# this, this
# /usr/include/c++/13/bits/stl_vector.h:999:       { return _S_max_size(_M_get_Tp_allocator()); }
	mov	rax, QWORD PTR -8[rbp]	# _1, this
	mov	rdi, rax	#, _1
	call	_ZNKSt12_Vector_baseISt4pairIiiESaIS1_EE19_M_get_Tp_allocatorEv	#
# /usr/include/c++/13/bits/stl_vector.h:999:       { return _S_max_size(_M_get_Tp_allocator()); }
	mov	rdi, rax	#, _2
	call	_ZNSt6vectorISt4pairIiiESaIS1_EE11_S_max_sizeERKS2_	#
# /usr/include/c++/13/bits/stl_vector.h:999:       { return _S_max_size(_M_get_Tp_allocator()); }
	leave	
	.cfi_def_cfa 7, 8
	ret	
	.cfi_endproc
.LFE11655:
	.size	_ZNKSt6vectorISt4pairIiiESaIS1_EE8max_sizeEv, .-_ZNKSt6vectorISt4pairIiiESaIS1_EE8max_sizeEv
	.section	.text._ZNKSt6vectorISt4pairIiiESaIS1_EE4sizeEv,"axG",@progbits,_ZNKSt6vectorISt4pairIiiESaIS1_EE4sizeEv,comdat
	.align 2
	.weak	_ZNKSt6vectorISt4pairIiiESaIS1_EE4sizeEv
	.type	_ZNKSt6vectorISt4pairIiiESaIS1_EE4sizeEv, @function
_ZNKSt6vectorISt4pairIiiESaIS1_EE4sizeEv:
.LFB11656:
	.cfi_startproc
	endbr64	
	push	rbp	#
	.cfi_def_cfa_offset 16
	.cfi_offset 6, -16
	mov	rbp, rsp	#,
	.cfi_def_cfa_register 6
	mov	QWORD PTR -8[rbp], rdi	# this, this
# /usr/include/c++/13/bits/stl_vector.h:993:       { return size_type(this->_M_impl._M_finish - this->_M_impl._M_start); }
	mov	rax, QWORD PTR -8[rbp]	# tmp88, this
	mov	rdx, QWORD PTR 8[rax]	# _1, this_6(D)->D.210289._M_impl.D.209628._M_finish
# /usr/include/c++/13/bits/stl_vector.h:993:       { return size_type(this->_M_impl._M_finish - this->_M_impl._M_start); }
	mov	rax, QWORD PTR -8[rbp]	# tmp89, this
	mov	rax, QWORD PTR [rax]	# _2, this_6(D)->D.210289._M_impl.D.209628._M_start
# /usr/include/c++/13/bits/stl_vector.h:993:       { return size_type(this->_M_impl._M_finish - this->_M_impl._M_start); }
	sub	rdx, rax	# _3, _2
	mov	rax, rdx	# _3, _3
	sar	rax, 3	# _3,
# /usr/include/c++/13/bits/stl_vector.h:993:       { return size_type(this->_M_impl._M_finish - this->_M_impl._M_start); }
	pop	rbp	#
	.cfi_def_cfa 7, 8
	ret	
	.cfi_endproc
.LFE11656:
	.size	_ZNKSt6vectorISt4pairIiiESaIS1_EE4sizeEv, .-_ZNKSt6vectorISt4pairIiiESaIS1_EE4sizeEv
	.section	.text._ZSt12__relocate_aIPSt4pairIiiES2_SaIS1_EET0_T_S5_S4_RT1_,"axG",@progbits,_ZSt12__relocate_aIPSt4pairIiiES2_SaIS1_EET0_T_S5_S4_RT1_,comdat
	.weak	_ZSt12__relocate_aIPSt4pairIiiES2_SaIS1_EET0_T_S5_S4_RT1_
	.type	_ZSt12__relocate_aIPSt4pairIiiES2_SaIS1_EET0_T_S5_S4_RT1_, @function
_ZSt12__relocate_aIPSt4pairIiiES2_SaIS1_EET0_T_S5_S4_RT1_:
.LFB11658:
	.cfi_startproc
	endbr64	
	push	rbp	#
	.cfi_def_cfa_offset 16
	.cfi_offset 6, -16
	mov	rbp, rsp	#,
	.cfi_def_cfa_register 6
	push	r12	#
	push	rbx	#
	sub	rsp, 32	#,
	.cfi_offset 12, -24
	.cfi_offset 3, -32
	mov	QWORD PTR -24[rbp], rdi	# __first, __first
	mov	QWORD PTR -32[rbp], rsi	# __last, __last
	mov	QWORD PTR -40[rbp], rdx	# __result, __result
	mov	QWORD PTR -48[rbp], rcx	# __alloc, __alloc
# /usr/include/c++/13/bits/stl_uninitialized.h:1147:       return std::__relocate_a_1(std::__niter_base(__first),
	mov	rax, QWORD PTR -40[rbp]	# tmp87, __result
	mov	rdi, rax	#, tmp87
	call	_ZSt12__niter_baseIPSt4pairIiiEET_S3_	#
	mov	r12, rax	# _1,
# /usr/include/c++/13/bits/stl_uninitialized.h:1147:       return std::__relocate_a_1(std::__niter_base(__first),
	mov	rax, QWORD PTR -32[rbp]	# tmp88, __last
	mov	rdi, rax	#, tmp88
	call	_ZSt12__niter_baseIPSt4pairIiiEET_S3_	#
	mov	rbx, rax	# _2,
# /usr/include/c++/13/bits/stl_uninitialized.h:1147:       return std::__relocate_a_1(std::__niter_base(__first),
	mov	rax, QWORD PTR -24[rbp]	# tmp89, __first
	mov	rdi, rax	#, tmp89
	call	_ZSt12__niter_baseIPSt4pairIiiEET_S3_	#
	mov	rdi, rax	# _3,
# /usr/include/c++/13/bits/stl_uninitialized.h:1147:       return std::__relocate_a_1(std::__niter_base(__first),
	mov	rax, QWORD PTR -48[rbp]	# tmp90, __alloc
	mov	rcx, rax	#, tmp90
	mov	rdx, r12	#, _1
	mov	rsi, rbx	#, _2
	call	_ZSt14__relocate_a_1IPSt4pairIiiES2_SaIS1_EET0_T_S5_S4_RT1_	#
# /usr/include/c++/13/bits/stl_uninitialized.h:1150:     }
	add	rsp, 32	#,
	pop	rbx	#
	pop	r12	#
	pop	rbp	#
	.cfi_def_cfa 7, 8
	ret	
	.cfi_endproc
.LFE11658:
	.size	_ZSt12__relocate_aIPSt4pairIiiES2_SaIS1_EET0_T_S5_S4_RT1_, .-_ZSt12__relocate_aIPSt4pairIiiES2_SaIS1_EET0_T_S5_S4_RT1_
	.section	.text._ZNSt15__new_allocatorImE8allocateEmPKv,"axG",@progbits,_ZNSt15__new_allocatorImE8allocateEmPKv,comdat
	.align 2
	.weak	_ZNSt15__new_allocatorImE8allocateEmPKv
	.type	_ZNSt15__new_allocatorImE8allocateEmPKv, @function
_ZNSt15__new_allocatorImE8allocateEmPKv:
.LFB11663:
	.cfi_startproc
	endbr64	
	push	rbp	#
	.cfi_def_cfa_offset 16
	.cfi_offset 6, -16
	mov	rbp, rsp	#,
	.cfi_def_cfa_register 6
	sub	rsp, 48	#,
	mov	QWORD PTR -24[rbp], rdi	# this, this
	mov	QWORD PTR -32[rbp], rsi	# __n, __n
	mov	QWORD PTR -40[rbp], rdx	# D.230910, D.230910
	mov	rax, QWORD PTR -24[rbp]	# tmp90, this
	mov	QWORD PTR -8[rbp], rax	# this, tmp90
# /usr/include/c++/13/bits/new_allocator.h:233: 	return std::size_t(__PTRDIFF_MAX__) / sizeof(_Tp);
	movabs	rax, 1152921504606846975	# D.233176,
# /usr/include/c++/13/bits/new_allocator.h:134: 	if (__builtin_expect(__n > this->_M_max_size(), false))
	cmp	rax, QWORD PTR -32[rbp]	# D.233176, __n
	setb	al	#, _2
# /usr/include/c++/13/bits/new_allocator.h:134: 	if (__builtin_expect(__n > this->_M_max_size(), false))
	movzx	eax, al	# _3, _2
# /usr/include/c++/13/bits/new_allocator.h:134: 	if (__builtin_expect(__n > this->_M_max_size(), false))
	test	rax, rax	# _4
	setne	al	#, retval.18_9
# /usr/include/c++/13/bits/new_allocator.h:134: 	if (__builtin_expect(__n > this->_M_max_size(), false))
	test	al, al	# retval.18_9
	je	.L395	#,
# /usr/include/c++/13/bits/new_allocator.h:138: 	    if (__n > (std::size_t(-1) / sizeof(_Tp)))
	movabs	rax, 2305843009213693951	# tmp91,
	cmp	rax, QWORD PTR -32[rbp]	# tmp91, __n
	jnb	.L396	#,
# /usr/include/c++/13/bits/new_allocator.h:139: 	      std::__throw_bad_array_new_length();
	call	_ZSt28__throw_bad_array_new_lengthv@PLT	#
.L396:
# /usr/include/c++/13/bits/new_allocator.h:140: 	    std::__throw_bad_alloc();
	call	_ZSt17__throw_bad_allocv@PLT	#
.L395:
# /usr/include/c++/13/bits/new_allocator.h:151: 	return static_cast<_Tp*>(_GLIBCXX_OPERATOR_NEW(__n * sizeof(_Tp)));
	mov	rax, QWORD PTR -32[rbp]	# tmp92, __n
	sal	rax, 3	# _6,
	mov	rdi, rax	#, _6
	call	_Znwm@PLT	#
# /usr/include/c++/13/bits/new_allocator.h:151: 	return static_cast<_Tp*>(_GLIBCXX_OPERATOR_NEW(__n * sizeof(_Tp)));
	nop	
# /usr/include/c++/13/bits/new_allocator.h:152:       }
	leave	
	.cfi_def_cfa 7, 8
	ret	
	.cfi_endproc
.LFE11663:
	.size	_ZNSt15__new_allocatorImE8allocateEmPKv, .-_ZNSt15__new_allocatorImE8allocateEmPKv
	.section	.text._ZNSt15__new_allocatorIiE10deallocateEPim,"axG",@progbits,_ZNSt15__new_allocatorIiE10deallocateEPim,comdat
	.align 2
	.weak	_ZNSt15__new_allocatorIiE10deallocateEPim
	.type	_ZNSt15__new_allocatorIiE10deallocateEPim, @function
_ZNSt15__new_allocatorIiE10deallocateEPim:
.LFB11666:
	.cfi_startproc
	endbr64	
	push	rbp	#
	.cfi_def_cfa_offset 16
	.cfi_offset 6, -16
	mov	rbp, rsp	#,
	.cfi_def_cfa_register 6
	sub	rsp, 32	#,
	mov	QWORD PTR -8[rbp], rdi	# this, this
	mov	QWORD PTR -16[rbp], rsi	# __p, __p
	mov	QWORD PTR -24[rbp], rdx	# __n, __n
# /usr/include/c++/13/bits/new_allocator.h:172: 	_GLIBCXX_OPERATOR_DELETE(_GLIBCXX_SIZED_DEALLOC(__p, __n));
	mov	rax, QWORD PTR -24[rbp]	# tmp83, __n
	lea	rdx, 0[0+rax*4]	# _2,
	mov	rax, QWORD PTR -16[rbp]	# tmp84, __p
	mov	rsi, rdx	#, _2
	mov	rdi, rax	#, tmp84
	call	_ZdlPvm@PLT	#
# /usr/include/c++/13/bits/new_allocator.h:173:       }
	leave	
	.cfi_def_cfa 7, 8
	ret	
	.cfi_endproc
.LFE11666:
	.size	_ZNSt15__new_allocatorIiE10deallocateEPim, .-_ZNSt15__new_allocatorIiE10deallocateEPim
	.section	.text._ZNSt22__uninitialized_fill_nILb1EE15__uninit_fill_nIPimiEET_S3_T0_RKT1_,"axG",@progbits,_ZNSt22__uninitialized_fill_nILb1EE15__uninit_fill_nIPimiEET_S3_T0_RKT1_,comdat
	.weak	_ZNSt22__uninitialized_fill_nILb1EE15__uninit_fill_nIPimiEET_S3_T0_RKT1_
	.type	_ZNSt22__uninitialized_fill_nILb1EE15__uninit_fill_nIPimiEET_S3_T0_RKT1_, @function
_ZNSt22__uninitialized_fill_nILb1EE15__uninit_fill_nIPimiEET_S3_T0_RKT1_:
.LFB11667:
	.cfi_startproc
	endbr64	
	push	rbp	#
	.cfi_def_cfa_offset 16
	.cfi_offset 6, -16
	mov	rbp, rsp	#,
	.cfi_def_cfa_register 6
	sub	rsp, 32	#,
	mov	QWORD PTR -8[rbp], rdi	# __first, __first
	mov	QWORD PTR -16[rbp], rsi	# __n, __n
	mov	QWORD PTR -24[rbp], rdx	# __x, __x
# /usr/include/c++/13/bits/stl_uninitialized.h:294:         { return std::fill_n(__first, __n, __x); }
	mov	rdx, QWORD PTR -24[rbp]	# tmp84, __x
	mov	rcx, QWORD PTR -16[rbp]	# tmp85, __n
	mov	rax, QWORD PTR -8[rbp]	# tmp86, __first
	mov	rsi, rcx	#, tmp85
	mov	rdi, rax	#, tmp86
	call	_ZSt6fill_nIPimiET_S1_T0_RKT1_	#
# /usr/include/c++/13/bits/stl_uninitialized.h:294:         { return std::fill_n(__first, __n, __x); }
	leave	
	.cfi_def_cfa 7, 8
	ret	
	.cfi_endproc
.LFE11667:
	.size	_ZNSt22__uninitialized_fill_nILb1EE15__uninit_fill_nIPimiEET_S3_T0_RKT1_, .-_ZNSt22__uninitialized_fill_nILb1EE15__uninit_fill_nIPimiEET_S3_T0_RKT1_
	.section	.text._ZSt9__fill_a1IPiiEN9__gnu_cxx11__enable_ifIXsrSt11__is_scalarIT0_E7__valueEvE6__typeET_S8_RKS4_,"axG",@progbits,_ZSt9__fill_a1IPiiEN9__gnu_cxx11__enable_ifIXsrSt11__is_scalarIT0_E7__valueEvE6__typeET_S8_RKS4_,comdat
	.weak	_ZSt9__fill_a1IPiiEN9__gnu_cxx11__enable_ifIXsrSt11__is_scalarIT0_E7__valueEvE6__typeET_S8_RKS4_
	.type	_ZSt9__fill_a1IPiiEN9__gnu_cxx11__enable_ifIXsrSt11__is_scalarIT0_E7__valueEvE6__typeET_S8_RKS4_, @function
_ZSt9__fill_a1IPiiEN9__gnu_cxx11__enable_ifIXsrSt11__is_scalarIT0_E7__valueEvE6__typeET_S8_RKS4_:
.LFB11668:
	.cfi_startproc
	endbr64	
	push	rbp	#
	.cfi_def_cfa_offset 16
	.cfi_offset 6, -16
	mov	rbp, rsp	#,
	.cfi_def_cfa_register 6
	mov	QWORD PTR -24[rbp], rdi	# __first, __first
	mov	QWORD PTR -32[rbp], rsi	# __last, __last
	mov	QWORD PTR -40[rbp], rdx	# __value, __value
# /usr/include/c++/13/bits/stl_algobase.h:929:       const _Tp __tmp = __value;
	mov	rax, QWORD PTR -40[rbp]	# tmp82, __value
	mov	eax, DWORD PTR [rax]	# tmp83, *__value_4(D)
	mov	DWORD PTR -4[rbp], eax	# __tmp, tmp83
# /usr/include/c++/13/bits/stl_algobase.h:930:       for (; __first != __last; ++__first)
	jmp	.L403	#
.L404:
# /usr/include/c++/13/bits/stl_algobase.h:931: 	*__first = __tmp;
	mov	rax, QWORD PTR -24[rbp]	# tmp84, __first
	mov	edx, DWORD PTR -4[rbp]	# tmp85, __tmp
	mov	DWORD PTR [rax], edx	# *__first_1, tmp85
# /usr/include/c++/13/bits/stl_algobase.h:930:       for (; __first != __last; ++__first)
	add	QWORD PTR -24[rbp], 4	# __first,
.L403:
# /usr/include/c++/13/bits/stl_algobase.h:930:       for (; __first != __last; ++__first)
	mov	rax, QWORD PTR -24[rbp]	# tmp86, __first
	cmp	rax, QWORD PTR -32[rbp]	# tmp86, __last
	jne	.L404	#,
# /usr/include/c++/13/bits/stl_algobase.h:932:     }
	nop	
	nop	
	pop	rbp	#
	.cfi_def_cfa 7, 8
	ret	
	.cfi_endproc
.LFE11668:
	.size	_ZSt9__fill_a1IPiiEN9__gnu_cxx11__enable_ifIXsrSt11__is_scalarIT0_E7__valueEvE6__typeET_S8_RKS4_, .-_ZSt9__fill_a1IPiiEN9__gnu_cxx11__enable_ifIXsrSt11__is_scalarIT0_E7__valueEvE6__typeET_S8_RKS4_
	.section	.text._ZNK9__gnu_cxx17__normal_iteratorIPSt4pairIiiESt6vectorIS2_SaIS2_EEEplEl,"axG",@progbits,_ZNK9__gnu_cxx17__normal_iteratorIPSt4pairIiiESt6vectorIS2_SaIS2_EEEplEl,comdat
	.align 2
	.weak	_ZNK9__gnu_cxx17__normal_iteratorIPSt4pairIiiESt6vectorIS2_SaIS2_EEEplEl
	.type	_ZNK9__gnu_cxx17__normal_iteratorIPSt4pairIiiESt6vectorIS2_SaIS2_EEEplEl, @function
_ZNK9__gnu_cxx17__normal_iteratorIPSt4pairIiiESt6vectorIS2_SaIS2_EEEplEl:
.LFB11669:
	.cfi_startproc
	endbr64	
	push	rbp	#
	.cfi_def_cfa_offset 16
	.cfi_offset 6, -16
	mov	rbp, rsp	#,
	.cfi_def_cfa_register 6
	sub	rsp, 48	#,
	mov	QWORD PTR -40[rbp], rdi	# this, this
	mov	QWORD PTR -48[rbp], rsi	# __n, __n
# /usr/include/c++/13/bits/stl_iterator.h:1147:       operator+(difference_type __n) const _GLIBCXX_NOEXCEPT
	mov	rax, QWORD PTR fs:40	# tmp92, MEM[(<address-space-1> long unsigned int *)40B]
	mov	QWORD PTR -8[rbp], rax	# D.233391, tmp92
	xor	eax, eax	# tmp92
# /usr/include/c++/13/bits/stl_iterator.h:1148:       { return __normal_iterator(_M_current + __n); }
	mov	rax, QWORD PTR -40[rbp]	# tmp88, this
	mov	rax, QWORD PTR [rax]	# _1, this_6(D)->_M_current
# /usr/include/c++/13/bits/stl_iterator.h:1148:       { return __normal_iterator(_M_current + __n); }
	mov	rdx, QWORD PTR -48[rbp]	# __n.37_2, __n
# /usr/include/c++/13/bits/stl_iterator.h:1148:       { return __normal_iterator(_M_current + __n); }
	sal	rdx, 3	# _3,
	add	rax, rdx	# _4, _3
	mov	QWORD PTR -24[rbp], rax	# D.230939, _4
# /usr/include/c++/13/bits/stl_iterator.h:1148:       { return __normal_iterator(_M_current + __n); }
	lea	rdx, -24[rbp]	# tmp89,
	lea	rax, -16[rbp]	# tmp90,
	mov	rsi, rdx	#, tmp89
	mov	rdi, rax	#, tmp90
	call	_ZN9__gnu_cxx17__normal_iteratorIPSt4pairIiiESt6vectorIS2_SaIS2_EEEC1ERKS3_	#
# /usr/include/c++/13/bits/stl_iterator.h:1148:       { return __normal_iterator(_M_current + __n); }
	mov	rax, QWORD PTR -16[rbp]	# D.232666, D.230940
# /usr/include/c++/13/bits/stl_iterator.h:1148:       { return __normal_iterator(_M_current + __n); }
	mov	rdx, QWORD PTR -8[rbp]	# tmp93, D.233391
	sub	rdx, QWORD PTR fs:40	# tmp93, MEM[(<address-space-1> long unsigned int *)40B]
	je	.L407	#,
	call	__stack_chk_fail@PLT	#
.L407:
	leave	
	.cfi_def_cfa 7, 8
	ret	
	.cfi_endproc
.LFE11669:
	.size	_ZNK9__gnu_cxx17__normal_iteratorIPSt4pairIiiESt6vectorIS2_SaIS2_EEEplEl, .-_ZNK9__gnu_cxx17__normal_iteratorIPSt4pairIiiESt6vectorIS2_SaIS2_EEEplEl
	.section	.text._ZN9__gnu_cxx5__ops14_Iter_comp_valISt7greaterISt4pairIiiEEEclINS_17__normal_iteratorIPS4_St6vectorIS4_SaIS4_EEEES4_EEbT_RT0_,"axG",@progbits,_ZN9__gnu_cxx5__ops14_Iter_comp_valISt7greaterISt4pairIiiEEEclINS_17__normal_iteratorIPS4_St6vectorIS4_SaIS4_EEEES4_EEbT_RT0_,comdat
	.align 2
	.weak	_ZN9__gnu_cxx5__ops14_Iter_comp_valISt7greaterISt4pairIiiEEEclINS_17__normal_iteratorIPS4_St6vectorIS4_SaIS4_EEEES4_EEbT_RT0_
	.type	_ZN9__gnu_cxx5__ops14_Iter_comp_valISt7greaterISt4pairIiiEEEclINS_17__normal_iteratorIPS4_St6vectorIS4_SaIS4_EEEES4_EEbT_RT0_, @function
_ZN9__gnu_cxx5__ops14_Iter_comp_valISt7greaterISt4pairIiiEEEclINS_17__normal_iteratorIPS4_St6vectorIS4_SaIS4_EEEES4_EEbT_RT0_:
.LFB11670:
	.cfi_startproc
	endbr64	
	push	rbp	#
	.cfi_def_cfa_offset 16
	.cfi_offset 6, -16
	mov	rbp, rsp	#,
	.cfi_def_cfa_register 6
	push	rbx	#
	sub	rsp, 40	#,
	.cfi_offset 3, -24
	mov	QWORD PTR -24[rbp], rdi	# this, this
	mov	QWORD PTR -32[rbp], rsi	# __it, __it
	mov	QWORD PTR -40[rbp], rdx	# __val, __val
# /usr/include/c++/13/bits/predefined_ops.h:196: 	{ return bool(_M_comp(*__it, __val)); }
	mov	rbx, QWORD PTR -24[rbp]	# _1, this
# /usr/include/c++/13/bits/predefined_ops.h:196: 	{ return bool(_M_comp(*__it, __val)); }
	lea	rax, -32[rbp]	# tmp86,
	mov	rdi, rax	#, tmp86
	call	_ZNK9__gnu_cxx17__normal_iteratorIPSt4pairIiiESt6vectorIS2_SaIS2_EEEdeEv	#
	mov	rcx, rax	# _2,
# /usr/include/c++/13/bits/predefined_ops.h:196: 	{ return bool(_M_comp(*__it, __val)); }
	mov	rax, QWORD PTR -40[rbp]	# tmp87, __val
	mov	rdx, rax	#, tmp87
	mov	rsi, rcx	#, _2
	mov	rdi, rbx	#, _1
	call	_ZNKSt7greaterISt4pairIiiEEclERKS1_S4_	#
# /usr/include/c++/13/bits/predefined_ops.h:196: 	{ return bool(_M_comp(*__it, __val)); }
	mov	rbx, QWORD PTR -8[rbp]	#,
	leave	
	.cfi_def_cfa 7, 8
	ret	
	.cfi_endproc
.LFE11670:
	.size	_ZN9__gnu_cxx5__ops14_Iter_comp_valISt7greaterISt4pairIiiEEEclINS_17__normal_iteratorIPS4_St6vectorIS4_SaIS4_EEEES4_EEbT_RT0_, .-_ZN9__gnu_cxx5__ops14_Iter_comp_valISt7greaterISt4pairIiiEEEclINS_17__normal_iteratorIPS4_St6vectorIS4_SaIS4_EEEES4_EEbT_RT0_
	.section	.text._ZNSt4pairIiiEaSEOS0_,"axG",@progbits,_ZNSt4pairIiiEaSEOS0_,comdat
	.align 2
	.weak	_ZNSt4pairIiiEaSEOS0_
	.type	_ZNSt4pairIiiEaSEOS0_, @function
_ZNSt4pairIiiEaSEOS0_:
.LFB11671:
	.cfi_startproc
	endbr64	
	push	rbp	#
	.cfi_def_cfa_offset 16
	.cfi_offset 6, -16
	mov	rbp, rsp	#,
	.cfi_def_cfa_register 6
	sub	rsp, 16	#,
	mov	QWORD PTR -8[rbp], rdi	# this, this
	mov	QWORD PTR -16[rbp], rsi	# __p, __p
# /usr/include/c++/13/bits/stl_pair.h:743: 	first = std::forward<first_type>(__p.first);
	mov	rax, QWORD PTR -16[rbp]	# _1, __p
# /usr/include/c++/13/bits/stl_pair.h:743: 	first = std::forward<first_type>(__p.first);
	mov	rdi, rax	#, _1
	call	_ZSt7forwardIiEOT_RNSt16remove_referenceIS0_E4typeE	#
# /usr/include/c++/13/bits/stl_pair.h:743: 	first = std::forward<first_type>(__p.first);
	mov	edx, DWORD PTR [rax]	# _3, *_2
	mov	rax, QWORD PTR -8[rbp]	# tmp90, this
	mov	DWORD PTR [rax], edx	# this_10(D)->first, _3
# /usr/include/c++/13/bits/stl_pair.h:744: 	second = std::forward<second_type>(__p.second);
	mov	rax, QWORD PTR -16[rbp]	# tmp91, __p
	add	rax, 4	# _4,
# /usr/include/c++/13/bits/stl_pair.h:744: 	second = std::forward<second_type>(__p.second);
	mov	rdi, rax	#, _4
	call	_ZSt7forwardIiEOT_RNSt16remove_referenceIS0_E4typeE	#
# /usr/include/c++/13/bits/stl_pair.h:744: 	second = std::forward<second_type>(__p.second);
	mov	edx, DWORD PTR [rax]	# _6, *_5
	mov	rax, QWORD PTR -8[rbp]	# tmp92, this
	mov	DWORD PTR 4[rax], edx	# this_10(D)->second, _6
# /usr/include/c++/13/bits/stl_pair.h:745: 	return *this;
	mov	rax, QWORD PTR -8[rbp]	# _14, this
# /usr/include/c++/13/bits/stl_pair.h:746:       }
	leave	
	.cfi_def_cfa 7, 8
	ret	
	.cfi_endproc
.LFE11671:
	.size	_ZNSt4pairIiiEaSEOS0_, .-_ZNSt4pairIiiEaSEOS0_
	.section	.text._ZN9__gnu_cxx17__normal_iteratorIPKSt4pairIiiESt6vectorIS2_SaIS2_EEEC2ERKS4_,"axG",@progbits,_ZN9__gnu_cxx17__normal_iteratorIPKSt4pairIiiESt6vectorIS2_SaIS2_EEEC5ERKS4_,comdat
	.align 2
	.weak	_ZN9__gnu_cxx17__normal_iteratorIPKSt4pairIiiESt6vectorIS2_SaIS2_EEEC2ERKS4_
	.type	_ZN9__gnu_cxx17__normal_iteratorIPKSt4pairIiiESt6vectorIS2_SaIS2_EEEC2ERKS4_, @function
_ZN9__gnu_cxx17__normal_iteratorIPKSt4pairIiiESt6vectorIS2_SaIS2_EEEC2ERKS4_:
.LFB11673:
	.cfi_startproc
	endbr64	
	push	rbp	#
	.cfi_def_cfa_offset 16
	.cfi_offset 6, -16
	mov	rbp, rsp	#,
	.cfi_def_cfa_register 6
	mov	QWORD PTR -8[rbp], rdi	# this, this
	mov	QWORD PTR -16[rbp], rsi	# __i, __i
# /usr/include/c++/13/bits/stl_iterator.h:1077:       : _M_current(__i) { }
	mov	rax, QWORD PTR -16[rbp]	# tmp83, __i
	mov	rdx, QWORD PTR [rax]	# _1, *__i_5(D)
	mov	rax, QWORD PTR -8[rbp]	# tmp84, this
	mov	QWORD PTR [rax], rdx	# this_3(D)->_M_current, _1
# /usr/include/c++/13/bits/stl_iterator.h:1077:       : _M_current(__i) { }
	nop	
	pop	rbp	#
	.cfi_def_cfa 7, 8
	ret	
	.cfi_endproc
.LFE11673:
	.size	_ZN9__gnu_cxx17__normal_iteratorIPKSt4pairIiiESt6vectorIS2_SaIS2_EEEC2ERKS4_, .-_ZN9__gnu_cxx17__normal_iteratorIPKSt4pairIiiESt6vectorIS2_SaIS2_EEEC2ERKS4_
	.weak	_ZN9__gnu_cxx17__normal_iteratorIPKSt4pairIiiESt6vectorIS2_SaIS2_EEEC1ERKS4_
	.set	_ZN9__gnu_cxx17__normal_iteratorIPKSt4pairIiiESt6vectorIS2_SaIS2_EEEC1ERKS4_,_ZN9__gnu_cxx17__normal_iteratorIPKSt4pairIiiESt6vectorIS2_SaIS2_EEEC2ERKS4_
	.section	.text._ZNK9__gnu_cxx17__normal_iteratorIPKSt4pairIiiESt6vectorIS2_SaIS2_EEE4baseEv,"axG",@progbits,_ZNK9__gnu_cxx17__normal_iteratorIPKSt4pairIiiESt6vectorIS2_SaIS2_EEE4baseEv,comdat
	.align 2
	.weak	_ZNK9__gnu_cxx17__normal_iteratorIPKSt4pairIiiESt6vectorIS2_SaIS2_EEE4baseEv
	.type	_ZNK9__gnu_cxx17__normal_iteratorIPKSt4pairIiiESt6vectorIS2_SaIS2_EEE4baseEv, @function
_ZNK9__gnu_cxx17__normal_iteratorIPKSt4pairIiiESt6vectorIS2_SaIS2_EEE4baseEv:
.LFB11675:
	.cfi_startproc
	endbr64	
	push	rbp	#
	.cfi_def_cfa_offset 16
	.cfi_offset 6, -16
	mov	rbp, rsp	#,
	.cfi_def_cfa_register 6
	mov	QWORD PTR -8[rbp], rdi	# this, this
# /usr/include/c++/13/bits/stl_iterator.h:1163:       { return _M_current; }
	mov	rax, QWORD PTR -8[rbp]	# _2, this
# /usr/include/c++/13/bits/stl_iterator.h:1163:       { return _M_current; }
	pop	rbp	#
	.cfi_def_cfa 7, 8
	ret	
	.cfi_endproc
.LFE11675:
	.size	_ZNK9__gnu_cxx17__normal_iteratorIPKSt4pairIiiESt6vectorIS2_SaIS2_EEE4baseEv, .-_ZNK9__gnu_cxx17__normal_iteratorIPKSt4pairIiiESt6vectorIS2_SaIS2_EEE4baseEv
	.section	.text._ZSt13__adjust_heapIN9__gnu_cxx17__normal_iteratorIPSt4pairIiiESt6vectorIS3_SaIS3_EEEElS3_NS0_5__ops15_Iter_comp_iterISt7greaterIS3_EEEEvT_T0_SF_T1_T2_,"axG",@progbits,_ZSt13__adjust_heapIN9__gnu_cxx17__normal_iteratorIPSt4pairIiiESt6vectorIS3_SaIS3_EEEElS3_NS0_5__ops15_Iter_comp_iterISt7greaterIS3_EEEEvT_T0_SF_T1_T2_,comdat
	.weak	_ZSt13__adjust_heapIN9__gnu_cxx17__normal_iteratorIPSt4pairIiiESt6vectorIS3_SaIS3_EEEElS3_NS0_5__ops15_Iter_comp_iterISt7greaterIS3_EEEEvT_T0_SF_T1_T2_
	.type	_ZSt13__adjust_heapIN9__gnu_cxx17__normal_iteratorIPSt4pairIiiESt6vectorIS3_SaIS3_EEEElS3_NS0_5__ops15_Iter_comp_iterISt7greaterIS3_EEEEvT_T0_SF_T1_T2_, @function
_ZSt13__adjust_heapIN9__gnu_cxx17__normal_iteratorIPSt4pairIiiESt6vectorIS3_SaIS3_EEEElS3_NS0_5__ops15_Iter_comp_iterISt7greaterIS3_EEEEvT_T0_SF_T1_T2_:
.LFB11676:
	.cfi_startproc
	endbr64	
	push	rbp	#
	.cfi_def_cfa_offset 16
	.cfi_offset 6, -16
	mov	rbp, rsp	#,
	.cfi_def_cfa_register 6
	push	rbx	#
	sub	rsp, 104	#,
	.cfi_offset 3, -24
	mov	QWORD PTR -72[rbp], rdi	# __first, __first
	mov	QWORD PTR -80[rbp], rsi	# __holeIndex, __holeIndex
	mov	QWORD PTR -88[rbp], rdx	# __len, __len
	mov	QWORD PTR -96[rbp], rcx	# __value, __value
# /usr/include/c++/13/bits/stl_heap.h:224:     __adjust_heap(_RandomAccessIterator __first, _Distance __holeIndex,
	mov	rax, QWORD PTR fs:40	# tmp155, MEM[(<address-space-1> long unsigned int *)40B]
	mov	QWORD PTR -24[rbp], rax	# D.233393, tmp155
	xor	eax, eax	# tmp155
# /usr/include/c++/13/bits/stl_heap.h:227:       const _Distance __topIndex = __holeIndex;
	mov	rax, QWORD PTR -80[rbp]	# tmp102, __holeIndex
	mov	QWORD PTR -32[rbp], rax	# __topIndex, tmp102
# /usr/include/c++/13/bits/stl_heap.h:228:       _Distance __secondChild = __holeIndex;
	mov	rax, QWORD PTR -80[rbp]	# tmp103, __holeIndex
	mov	QWORD PTR -40[rbp], rax	# __secondChild, tmp103
# /usr/include/c++/13/bits/stl_heap.h:229:       while (__secondChild < (__len - 1) / 2)
	jmp	.L416	#
.L418:
# /usr/include/c++/13/bits/stl_heap.h:231: 	  __secondChild = 2 * (__secondChild + 1);
	mov	rax, QWORD PTR -40[rbp]	# tmp104, __secondChild
	add	rax, 1	# _1,
# /usr/include/c++/13/bits/stl_heap.h:231: 	  __secondChild = 2 * (__secondChild + 1);
	add	rax, rax	# tmp105
	mov	QWORD PTR -40[rbp], rax	# __secondChild, tmp105
# /usr/include/c++/13/bits/stl_heap.h:232: 	  if (__comp(__first + __secondChild,
	mov	rax, QWORD PTR -40[rbp]	# tmp106, __secondChild
	lea	rdx, -1[rax]	# _2,
	lea	rax, -72[rbp]	# tmp107,
	mov	rsi, rdx	#, _2
	mov	rdi, rax	#, tmp107
	call	_ZNK9__gnu_cxx17__normal_iteratorIPSt4pairIiiESt6vectorIS2_SaIS2_EEEplEl	#
	mov	rbx, rax	# D.232638,
# /usr/include/c++/13/bits/stl_heap.h:232: 	  if (__comp(__first + __secondChild,
	mov	rdx, QWORD PTR -40[rbp]	# tmp108, __secondChild
	lea	rax, -72[rbp]	# tmp109,
	mov	rsi, rdx	#, tmp108
	mov	rdi, rax	#, tmp109
	call	_ZNK9__gnu_cxx17__normal_iteratorIPSt4pairIiiESt6vectorIS2_SaIS2_EEEplEl	#
	mov	rcx, rax	# D.232639,
# /usr/include/c++/13/bits/stl_heap.h:232: 	  if (__comp(__first + __secondChild,
	lea	rax, -97[rbp]	# tmp110,
	mov	rdx, rbx	#, D.232638
	mov	rsi, rcx	#, D.232639
	mov	rdi, rax	#, tmp110
	call	_ZN9__gnu_cxx5__ops15_Iter_comp_iterISt7greaterISt4pairIiiEEEclINS_17__normal_iteratorIPS4_St6vectorIS4_SaIS4_EEEESD_EEbT_T0_	#
# /usr/include/c++/13/bits/stl_heap.h:232: 	  if (__comp(__first + __secondChild,
	test	al, al	# _49
	je	.L417	#,
# /usr/include/c++/13/bits/stl_heap.h:234: 	    __secondChild--;
	sub	QWORD PTR -40[rbp], 1	# __secondChild,
.L417:
# /usr/include/c++/13/bits/stl_heap.h:235: 	  *(__first + __holeIndex) = _GLIBCXX_MOVE(*(__first + __secondChild));
	mov	rdx, QWORD PTR -40[rbp]	# tmp111, __secondChild
	lea	rax, -72[rbp]	# tmp112,
	mov	rsi, rdx	#, tmp111
	mov	rdi, rax	#, tmp112
	call	_ZNK9__gnu_cxx17__normal_iteratorIPSt4pairIiiESt6vectorIS2_SaIS2_EEEplEl	#
	mov	QWORD PTR -48[rbp], rax	# MEM[(struct __normal_iterator *)_61], tmp114
# /usr/include/c++/13/bits/stl_heap.h:235: 	  *(__first + __holeIndex) = _GLIBCXX_MOVE(*(__first + __secondChild));
	lea	rax, -48[rbp]	# tmp115,
	mov	rdi, rax	#, tmp115
	call	_ZNK9__gnu_cxx17__normal_iteratorIPSt4pairIiiESt6vectorIS2_SaIS2_EEEdeEv	#
# /usr/include/c++/13/bits/stl_heap.h:235: 	  *(__first + __holeIndex) = _GLIBCXX_MOVE(*(__first + __secondChild));
	mov	rdi, rax	#, _3
	call	_ZSt4moveIRSt4pairIiiEEONSt16remove_referenceIT_E4typeEOS4_	#
	mov	rbx, rax	# _4,
# /usr/include/c++/13/bits/stl_heap.h:235: 	  *(__first + __holeIndex) = _GLIBCXX_MOVE(*(__first + __secondChild));
	mov	rdx, QWORD PTR -80[rbp]	# tmp116, __holeIndex
	lea	rax, -72[rbp]	# tmp117,
	mov	rsi, rdx	#, tmp116
	mov	rdi, rax	#, tmp117
	call	_ZNK9__gnu_cxx17__normal_iteratorIPSt4pairIiiESt6vectorIS2_SaIS2_EEEplEl	#
	mov	QWORD PTR -56[rbp], rax	# MEM[(struct __normal_iterator *)_24], tmp119
# /usr/include/c++/13/bits/stl_heap.h:235: 	  *(__first + __holeIndex) = _GLIBCXX_MOVE(*(__first + __secondChild));
	lea	rax, -56[rbp]	# tmp120,
	mov	rdi, rax	#, tmp120
	call	_ZNK9__gnu_cxx17__normal_iteratorIPSt4pairIiiESt6vectorIS2_SaIS2_EEEdeEv	#
# /usr/include/c++/13/bits/stl_heap.h:235: 	  *(__first + __holeIndex) = _GLIBCXX_MOVE(*(__first + __secondChild));
	mov	rsi, rbx	#, _4
	mov	rdi, rax	#, _5
	call	_ZNSt4pairIiiEaSEOS0_	#
# /usr/include/c++/13/bits/stl_heap.h:236: 	  __holeIndex = __secondChild;
	mov	rax, QWORD PTR -40[rbp]	# tmp121, __secondChild
	mov	QWORD PTR -80[rbp], rax	# __holeIndex, tmp121
.L416:
# /usr/include/c++/13/bits/stl_heap.h:229:       while (__secondChild < (__len - 1) / 2)
	mov	rax, QWORD PTR -88[rbp]	# tmp122, __len
	sub	rax, 1	# _6,
# /usr/include/c++/13/bits/stl_heap.h:229:       while (__secondChild < (__len - 1) / 2)
	mov	rdx, rax	# tmp123, _6
	shr	rdx, 63	# tmp123,
	add	rax, rdx	# tmp124, tmp123
	sar	rax	# tmp125
# /usr/include/c++/13/bits/stl_heap.h:229:       while (__secondChild < (__len - 1) / 2)
	cmp	QWORD PTR -40[rbp], rax	# __secondChild, _7
	jl	.L418	#,
# /usr/include/c++/13/bits/stl_heap.h:238:       if ((__len & 1) == 0 && __secondChild == (__len - 2) / 2)
	mov	rax, QWORD PTR -88[rbp]	# tmp126, __len
	and	eax, 1	# _8,
# /usr/include/c++/13/bits/stl_heap.h:238:       if ((__len & 1) == 0 && __secondChild == (__len - 2) / 2)
	test	rax, rax	# _8
	jne	.L419	#,
# /usr/include/c++/13/bits/stl_heap.h:238:       if ((__len & 1) == 0 && __secondChild == (__len - 2) / 2)
	mov	rax, QWORD PTR -88[rbp]	# tmp127, __len
	sub	rax, 2	# _9,
# /usr/include/c++/13/bits/stl_heap.h:238:       if ((__len & 1) == 0 && __secondChild == (__len - 2) / 2)
	mov	rdx, rax	# tmp128, _9
	shr	rdx, 63	# tmp128,
	add	rax, rdx	# tmp129, tmp128
	sar	rax	# tmp130
# /usr/include/c++/13/bits/stl_heap.h:238:       if ((__len & 1) == 0 && __secondChild == (__len - 2) / 2)
	cmp	QWORD PTR -40[rbp], rax	# __secondChild, _10
	jne	.L419	#,
# /usr/include/c++/13/bits/stl_heap.h:240: 	  __secondChild = 2 * (__secondChild + 1);
	mov	rax, QWORD PTR -40[rbp]	# tmp131, __secondChild
	add	rax, 1	# _11,
# /usr/include/c++/13/bits/stl_heap.h:240: 	  __secondChild = 2 * (__secondChild + 1);
	add	rax, rax	# tmp132
	mov	QWORD PTR -40[rbp], rax	# __secondChild, tmp132
# /usr/include/c++/13/bits/stl_heap.h:241: 	  *(__first + __holeIndex) = _GLIBCXX_MOVE(*(__first
	mov	rax, QWORD PTR -40[rbp]	# tmp133, __secondChild
	lea	rdx, -1[rax]	# _12,
	lea	rax, -72[rbp]	# tmp134,
	mov	rsi, rdx	#, _12
	mov	rdi, rax	#, tmp134
	call	_ZNK9__gnu_cxx17__normal_iteratorIPSt4pairIiiESt6vectorIS2_SaIS2_EEEplEl	#
	mov	QWORD PTR -48[rbp], rax	# MEM[(struct __normal_iterator *)_61], tmp136
# /usr/include/c++/13/bits/stl_heap.h:241: 	  *(__first + __holeIndex) = _GLIBCXX_MOVE(*(__first
	lea	rax, -48[rbp]	# tmp137,
	mov	rdi, rax	#, tmp137
	call	_ZNK9__gnu_cxx17__normal_iteratorIPSt4pairIiiESt6vectorIS2_SaIS2_EEEdeEv	#
# /usr/include/c++/13/bits/stl_heap.h:241: 	  *(__first + __holeIndex) = _GLIBCXX_MOVE(*(__first
	mov	rdi, rax	#, _13
	call	_ZSt4moveIRSt4pairIiiEEONSt16remove_referenceIT_E4typeEOS4_	#
	mov	rbx, rax	# _14,
# /usr/include/c++/13/bits/stl_heap.h:241: 	  *(__first + __holeIndex) = _GLIBCXX_MOVE(*(__first
	mov	rdx, QWORD PTR -80[rbp]	# tmp138, __holeIndex
	lea	rax, -72[rbp]	# tmp139,
	mov	rsi, rdx	#, tmp138
	mov	rdi, rax	#, tmp139
	call	_ZNK9__gnu_cxx17__normal_iteratorIPSt4pairIiiESt6vectorIS2_SaIS2_EEEplEl	#
	mov	QWORD PTR -56[rbp], rax	# MEM[(struct __normal_iterator *)_24], tmp141
# /usr/include/c++/13/bits/stl_heap.h:241: 	  *(__first + __holeIndex) = _GLIBCXX_MOVE(*(__first
	lea	rax, -56[rbp]	# tmp142,
	mov	rdi, rax	#, tmp142
	call	_ZNK9__gnu_cxx17__normal_iteratorIPSt4pairIiiESt6vectorIS2_SaIS2_EEEdeEv	#
# /usr/include/c++/13/bits/stl_heap.h:241: 	  *(__first + __holeIndex) = _GLIBCXX_MOVE(*(__first
	mov	rsi, rbx	#, _14
	mov	rdi, rax	#, _15
	call	_ZNSt4pairIiiEaSEOS0_	#
# /usr/include/c++/13/bits/stl_heap.h:243: 	  __holeIndex = __secondChild - 1;
	mov	rax, QWORD PTR -40[rbp]	# tmp146, __secondChild
	sub	rax, 1	# tmp145,
	mov	QWORD PTR -80[rbp], rax	# __holeIndex, tmp145
.L419:
# /usr/include/c++/13/bits/stl_heap.h:246: 	__cmp(_GLIBCXX_MOVE(__comp));
	lea	rax, -97[rbp]	# tmp147,
	mov	rdi, rax	#, tmp147
	call	_ZSt4moveIRN9__gnu_cxx5__ops15_Iter_comp_iterISt7greaterISt4pairIiiEEEEEONSt16remove_referenceIT_E4typeEOSA_	#
	mov	rdx, rax	# _16,
# /usr/include/c++/13/bits/stl_heap.h:246: 	__cmp(_GLIBCXX_MOVE(__comp));
	lea	rax, -48[rbp]	# tmp148,
	mov	rsi, rdx	#, _16
	mov	rdi, rax	#, tmp148
	call	_ZN9__gnu_cxx5__ops14_Iter_comp_valISt7greaterISt4pairIiiEEEC1EONS0_15_Iter_comp_iterIS5_EE	#
# /usr/include/c++/13/bits/stl_heap.h:248: 		       _GLIBCXX_MOVE(__value), __cmp);
	lea	rax, -96[rbp]	# tmp149,
	mov	rdi, rax	#, tmp149
	call	_ZSt4moveIRSt4pairIiiEEONSt16remove_referenceIT_E4typeEOS4_	#
# /usr/include/c++/13/bits/stl_heap.h:247:       std::__push_heap(__first, __holeIndex, __topIndex,
	lea	rdi, -48[rbp]	# tmp150,
	mov	rcx, QWORD PTR [rax]	# tmp151, MEM[(struct pair &)_17]
	mov	rdx, QWORD PTR -32[rbp]	# tmp152, __topIndex
	mov	rsi, QWORD PTR -80[rbp]	# tmp153, __holeIndex
	mov	rax, QWORD PTR -72[rbp]	# tmp154, __first
	mov	r8, rdi	#, tmp150
	mov	rdi, rax	#, tmp154
	call	_ZSt11__push_heapIN9__gnu_cxx17__normal_iteratorIPSt4pairIiiESt6vectorIS3_SaIS3_EEEElS3_NS0_5__ops14_Iter_comp_valISt7greaterIS3_EEEEvT_T0_SF_T1_RT2_	#
# /usr/include/c++/13/bits/stl_heap.h:249:     }
	nop	
	mov	rax, QWORD PTR -24[rbp]	# tmp156, D.233393
	sub	rax, QWORD PTR fs:40	# tmp156, MEM[(<address-space-1> long unsigned int *)40B]
	je	.L420	#,
	call	__stack_chk_fail@PLT	#
.L420:
	mov	rbx, QWORD PTR -8[rbp]	#,
	leave	
	.cfi_def_cfa 7, 8
	ret	
	.cfi_endproc
.LFE11676:
	.size	_ZSt13__adjust_heapIN9__gnu_cxx17__normal_iteratorIPSt4pairIiiESt6vectorIS3_SaIS3_EEEElS3_NS0_5__ops15_Iter_comp_iterISt7greaterIS3_EEEEvT_T0_SF_T1_T2_, .-_ZSt13__adjust_heapIN9__gnu_cxx17__normal_iteratorIPSt4pairIiiESt6vectorIS3_SaIS3_EEEElS3_NS0_5__ops15_Iter_comp_iterISt7greaterIS3_EEEEvT_T0_SF_T1_T2_
	.section	.text._ZNKSt6vectorIiSaIiEE8max_sizeEv,"axG",@progbits,_ZNKSt6vectorIiSaIiEE8max_sizeEv,comdat
	.align 2
	.weak	_ZNKSt6vectorIiSaIiEE8max_sizeEv
	.type	_ZNKSt6vectorIiSaIiEE8max_sizeEv, @function
_ZNKSt6vectorIiSaIiEE8max_sizeEv:
.LFB11677:
	.cfi_startproc
	endbr64	
	push	rbp	#
	.cfi_def_cfa_offset 16
	.cfi_offset 6, -16
	mov	rbp, rsp	#,
	.cfi_def_cfa_register 6
	sub	rsp, 16	#,
	mov	QWORD PTR -8[rbp], rdi	# this, this
# /usr/include/c++/13/bits/stl_vector.h:999:       { return _S_max_size(_M_get_Tp_allocator()); }
	mov	rax, QWORD PTR -8[rbp]	# _1, this
	mov	rdi, rax	#, _1
	call	_ZNKSt12_Vector_baseIiSaIiEE19_M_get_Tp_allocatorEv	#
# /usr/include/c++/13/bits/stl_vector.h:999:       { return _S_max_size(_M_get_Tp_allocator()); }
	mov	rdi, rax	#, _2
	call	_ZNSt6vectorIiSaIiEE11_S_max_sizeERKS0_	#
# /usr/include/c++/13/bits/stl_vector.h:999:       { return _S_max_size(_M_get_Tp_allocator()); }
	leave	
	.cfi_def_cfa 7, 8
	ret	
	.cfi_endproc
.LFE11677:
	.size	_ZNKSt6vectorIiSaIiEE8max_sizeEv, .-_ZNKSt6vectorIiSaIiEE8max_sizeEv
	.section	.text._ZSt12__relocate_aIPiS0_SaIiEET0_T_S3_S2_RT1_,"axG",@progbits,_ZSt12__relocate_aIPiS0_SaIiEET0_T_S3_S2_RT1_,comdat
	.weak	_ZSt12__relocate_aIPiS0_SaIiEET0_T_S3_S2_RT1_
	.type	_ZSt12__relocate_aIPiS0_SaIiEET0_T_S3_S2_RT1_, @function
_ZSt12__relocate_aIPiS0_SaIiEET0_T_S3_S2_RT1_:
.LFB11678:
	.cfi_startproc
	endbr64	
	push	rbp	#
	.cfi_def_cfa_offset 16
	.cfi_offset 6, -16
	mov	rbp, rsp	#,
	.cfi_def_cfa_register 6
	push	r12	#
	push	rbx	#
	sub	rsp, 32	#,
	.cfi_offset 12, -24
	.cfi_offset 3, -32
	mov	QWORD PTR -24[rbp], rdi	# __first, __first
	mov	QWORD PTR -32[rbp], rsi	# __last, __last
	mov	QWORD PTR -40[rbp], rdx	# __result, __result
	mov	QWORD PTR -48[rbp], rcx	# __alloc, __alloc
# /usr/include/c++/13/bits/stl_uninitialized.h:1147:       return std::__relocate_a_1(std::__niter_base(__first),
	mov	rax, QWORD PTR -40[rbp]	# tmp87, __result
	mov	rdi, rax	#, tmp87
	call	_ZSt12__niter_baseIPiET_S1_	#
	mov	r12, rax	# _1,
# /usr/include/c++/13/bits/stl_uninitialized.h:1147:       return std::__relocate_a_1(std::__niter_base(__first),
	mov	rax, QWORD PTR -32[rbp]	# tmp88, __last
	mov	rdi, rax	#, tmp88
	call	_ZSt12__niter_baseIPiET_S1_	#
	mov	rbx, rax	# _2,
# /usr/include/c++/13/bits/stl_uninitialized.h:1147:       return std::__relocate_a_1(std::__niter_base(__first),
	mov	rax, QWORD PTR -24[rbp]	# tmp89, __first
	mov	rdi, rax	#, tmp89
	call	_ZSt12__niter_baseIPiET_S1_	#
	mov	rdi, rax	# _3,
# /usr/include/c++/13/bits/stl_uninitialized.h:1147:       return std::__relocate_a_1(std::__niter_base(__first),
	mov	rax, QWORD PTR -48[rbp]	# tmp90, __alloc
	mov	rcx, rax	#, tmp90
	mov	rdx, r12	#, _1
	mov	rsi, rbx	#, _2
	call	_ZSt14__relocate_a_1IiiENSt9enable_ifIXsrSt24__is_bitwise_relocatableIT_vE5valueEPS2_E4typeES4_S4_S4_RSaIT0_E	#
# /usr/include/c++/13/bits/stl_uninitialized.h:1150:     }
	add	rsp, 32	#,
	pop	rbx	#
	pop	r12	#
	pop	rbp	#
	.cfi_def_cfa 7, 8
	ret	
	.cfi_endproc
.LFE11678:
	.size	_ZSt12__relocate_aIPiS0_SaIiEET0_T_S3_S2_RT1_, .-_ZSt12__relocate_aIPiS0_SaIiEET0_T_S3_S2_RT1_
	.section	.text._ZNSt15__new_allocatorISt6vectorISt4pairIiiESaIS2_EEE8allocateEmPKv,"axG",@progbits,_ZNSt15__new_allocatorISt6vectorISt4pairIiiESaIS2_EEE8allocateEmPKv,comdat
	.align 2
	.weak	_ZNSt15__new_allocatorISt6vectorISt4pairIiiESaIS2_EEE8allocateEmPKv
	.type	_ZNSt15__new_allocatorISt6vectorISt4pairIiiESaIS2_EEE8allocateEmPKv, @function
_ZNSt15__new_allocatorISt6vectorISt4pairIiiESaIS2_EEE8allocateEmPKv:
.LFB11765:
	.cfi_startproc
	endbr64	
	push	rbp	#
	.cfi_def_cfa_offset 16
	.cfi_offset 6, -16
	mov	rbp, rsp	#,
	.cfi_def_cfa_register 6
	sub	rsp, 48	#,
	mov	QWORD PTR -24[rbp], rdi	# this, this
	mov	QWORD PTR -32[rbp], rsi	# __n, __n
	mov	QWORD PTR -40[rbp], rdx	# D.231272, D.231272
	mov	rax, QWORD PTR -24[rbp]	# tmp90, this
	mov	QWORD PTR -8[rbp], rax	# this, tmp90
# /usr/include/c++/13/bits/new_allocator.h:233: 	return std::size_t(__PTRDIFF_MAX__) / sizeof(_Tp);
	movabs	rax, 384307168202282325	# D.233172,
# /usr/include/c++/13/bits/new_allocator.h:134: 	if (__builtin_expect(__n > this->_M_max_size(), false))
	cmp	rax, QWORD PTR -32[rbp]	# D.233172, __n
	setb	al	#, _2
# /usr/include/c++/13/bits/new_allocator.h:134: 	if (__builtin_expect(__n > this->_M_max_size(), false))
	movzx	eax, al	# _3, _2
# /usr/include/c++/13/bits/new_allocator.h:134: 	if (__builtin_expect(__n > this->_M_max_size(), false))
	test	rax, rax	# _4
	setne	al	#, retval.9_9
# /usr/include/c++/13/bits/new_allocator.h:134: 	if (__builtin_expect(__n > this->_M_max_size(), false))
	test	al, al	# retval.9_9
	je	.L427	#,
# /usr/include/c++/13/bits/new_allocator.h:138: 	    if (__n > (std::size_t(-1) / sizeof(_Tp)))
	movabs	rax, 768614336404564650	# tmp91,
	cmp	rax, QWORD PTR -32[rbp]	# tmp91, __n
	jnb	.L428	#,
# /usr/include/c++/13/bits/new_allocator.h:139: 	      std::__throw_bad_array_new_length();
	call	_ZSt28__throw_bad_array_new_lengthv@PLT	#
.L428:
# /usr/include/c++/13/bits/new_allocator.h:140: 	    std::__throw_bad_alloc();
	call	_ZSt17__throw_bad_allocv@PLT	#
.L427:
# /usr/include/c++/13/bits/new_allocator.h:151: 	return static_cast<_Tp*>(_GLIBCXX_OPERATOR_NEW(__n * sizeof(_Tp)));
	mov	rdx, QWORD PTR -32[rbp]	# tmp92, __n
	mov	rax, rdx	# tmp93, tmp92
	add	rax, rax	# tmp93
	add	rax, rdx	# tmp93, tmp92
	sal	rax, 3	# tmp94,
	mov	rdi, rax	#, _6
	call	_Znwm@PLT	#
# /usr/include/c++/13/bits/new_allocator.h:151: 	return static_cast<_Tp*>(_GLIBCXX_OPERATOR_NEW(__n * sizeof(_Tp)));
	nop	
# /usr/include/c++/13/bits/new_allocator.h:152:       }
	leave	
	.cfi_def_cfa 7, 8
	ret	
	.cfi_endproc
.LFE11765:
	.size	_ZNSt15__new_allocatorISt6vectorISt4pairIiiESaIS2_EEE8allocateEmPKv, .-_ZNSt15__new_allocatorISt6vectorISt4pairIiiESaIS2_EEE8allocateEmPKv
	.section	.text._ZSt18__do_uninit_fill_nIPSt6vectorISt4pairIiiESaIS2_EEmS4_ET_S6_T0_RKT1_,"axG",@progbits,_ZSt18__do_uninit_fill_nIPSt6vectorISt4pairIiiESaIS2_EEmS4_ET_S6_T0_RKT1_,comdat
	.weak	_ZSt18__do_uninit_fill_nIPSt6vectorISt4pairIiiESaIS2_EEmS4_ET_S6_T0_RKT1_
	.type	_ZSt18__do_uninit_fill_nIPSt6vectorISt4pairIiiESaIS2_EEmS4_ET_S6_T0_RKT1_, @function
_ZSt18__do_uninit_fill_nIPSt6vectorISt4pairIiiESaIS2_EEmS4_ET_S6_T0_RKT1_:
.LFB11766:
	.cfi_startproc
	.cfi_personality 0x9b,DW.ref.__gxx_personality_v0
	.cfi_lsda 0x1b,.LLSDA11766
	endbr64	
	push	rbp	#
	.cfi_def_cfa_offset 16
	.cfi_offset 6, -16
	mov	rbp, rsp	#,
	.cfi_def_cfa_register 6
	push	rbx	#
	sub	rsp, 56	#,
	.cfi_offset 3, -24
	mov	QWORD PTR -40[rbp], rdi	# __first, __first
	mov	QWORD PTR -48[rbp], rsi	# __n, __n
	mov	QWORD PTR -56[rbp], rdx	# __x, __x
# /usr/include/c++/13/bits/stl_uninitialized.h:263:       _ForwardIterator __cur = __first;
	mov	rax, QWORD PTR -40[rbp]	# tmp87, __first
	mov	QWORD PTR -24[rbp], rax	# __cur, tmp87
# /usr/include/c++/13/bits/stl_uninitialized.h:266: 	  for (; __n > 0; --__n, (void) ++__cur)
	jmp	.L431	#
.L432:
# /usr/include/c++/13/bits/stl_uninitialized.h:267: 	    std::_Construct(std::__addressof(*__cur), __x);
	mov	rax, QWORD PTR -24[rbp]	# tmp88, __cur
	mov	rdi, rax	#, tmp88
	call	_ZSt11__addressofISt6vectorISt4pairIiiESaIS2_EEEPT_RS5_	#
	mov	rdx, rax	# _1,
# /usr/include/c++/13/bits/stl_uninitialized.h:267: 	    std::_Construct(std::__addressof(*__cur), __x);
	mov	rax, QWORD PTR -56[rbp]	# tmp89, __x
	mov	rsi, rax	#, tmp89
	mov	rdi, rdx	#, _1
.LEHB25:
	call	_ZSt10_ConstructISt6vectorISt4pairIiiESaIS2_EEJRKS4_EEvPT_DpOT0_	#
.LEHE25:
# /usr/include/c++/13/bits/stl_uninitialized.h:266: 	  for (; __n > 0; --__n, (void) ++__cur)
	sub	QWORD PTR -48[rbp], 1	# __n,
# /usr/include/c++/13/bits/stl_uninitialized.h:266: 	  for (; __n > 0; --__n, (void) ++__cur)
	add	QWORD PTR -24[rbp], 24	# __cur,
.L431:
# /usr/include/c++/13/bits/stl_uninitialized.h:266: 	  for (; __n > 0; --__n, (void) ++__cur)
	cmp	QWORD PTR -48[rbp], 0	# __n,
	jne	.L432	#,
# /usr/include/c++/13/bits/stl_uninitialized.h:268: 	  return __cur;
	mov	rax, QWORD PTR -24[rbp]	# _11, __cur
	jmp	.L438	#
.L436:
	endbr64	
# /usr/include/c++/13/bits/stl_uninitialized.h:270:       __catch(...)
	mov	rdi, rax	#, _2
	call	__cxa_begin_catch@PLT	#
# /usr/include/c++/13/bits/stl_uninitialized.h:272: 	  std::_Destroy(__first, __cur);
	mov	rdx, QWORD PTR -24[rbp]	# tmp92, __cur
	mov	rax, QWORD PTR -40[rbp]	# tmp93, __first
	mov	rsi, rdx	#, tmp92
	mov	rdi, rax	#, tmp93
.LEHB26:
	call	_ZSt8_DestroyIPSt6vectorISt4pairIiiESaIS2_EEEvT_S6_	#
# /usr/include/c++/13/bits/stl_uninitialized.h:273: 	  __throw_exception_again;
	call	__cxa_rethrow@PLT	#
.LEHE26:
.L437:
	endbr64	
# /usr/include/c++/13/bits/stl_uninitialized.h:270:       __catch(...)
	mov	rbx, rax	# tmp94,
	call	__cxa_end_catch@PLT	#
	mov	rax, rbx	# D.233394, tmp94
	mov	rdi, rax	#, D.233394
.LEHB27:
	call	_Unwind_Resume@PLT	#
.LEHE27:
.L438:
# /usr/include/c++/13/bits/stl_uninitialized.h:275:     }
	mov	rbx, QWORD PTR -8[rbp]	#,
	leave	
	.cfi_def_cfa 7, 8
	ret	
	.cfi_endproc
.LFE11766:
	.section	.gcc_except_table
	.align 4
.LLSDA11766:
	.byte	0xff
	.byte	0x9b
	.uleb128 .LLSDATT11766-.LLSDATTD11766
.LLSDATTD11766:
	.byte	0x1
	.uleb128 .LLSDACSE11766-.LLSDACSB11766
.LLSDACSB11766:
	.uleb128 .LEHB25-.LFB11766
	.uleb128 .LEHE25-.LEHB25
	.uleb128 .L436-.LFB11766
	.uleb128 0x1
	.uleb128 .LEHB26-.LFB11766
	.uleb128 .LEHE26-.LEHB26
	.uleb128 .L437-.LFB11766
	.uleb128 0
	.uleb128 .LEHB27-.LFB11766
	.uleb128 .LEHE27-.LEHB27
	.uleb128 0
	.uleb128 0
.LLSDACSE11766:
	.byte	0x1
	.byte	0
	.align 4
	.long	0

.LLSDATT11766:
	.section	.text._ZSt18__do_uninit_fill_nIPSt6vectorISt4pairIiiESaIS2_EEmS4_ET_S6_T0_RKT1_,"axG",@progbits,_ZSt18__do_uninit_fill_nIPSt6vectorISt4pairIiiESaIS2_EEmS4_ET_S6_T0_RKT1_,comdat
	.size	_ZSt18__do_uninit_fill_nIPSt6vectorISt4pairIiiESaIS2_EEmS4_ET_S6_T0_RKT1_, .-_ZSt18__do_uninit_fill_nIPSt6vectorISt4pairIiiESaIS2_EEmS4_ET_S6_T0_RKT1_
	.section	.text._ZNSt6vectorISt4pairIiiESaIS1_EE11_S_max_sizeERKS2_,"axG",@progbits,_ZNSt6vectorISt4pairIiiESaIS1_EE11_S_max_sizeERKS2_,comdat
	.weak	_ZNSt6vectorISt4pairIiiESaIS1_EE11_S_max_sizeERKS2_
	.type	_ZNSt6vectorISt4pairIiiESaIS1_EE11_S_max_sizeERKS2_, @function
_ZNSt6vectorISt4pairIiiESaIS1_EE11_S_max_sizeERKS2_:
.LFB11767:
	.cfi_startproc
	endbr64	
	push	rbp	#
	.cfi_def_cfa_offset 16
	.cfi_offset 6, -16
	mov	rbp, rsp	#,
	.cfi_def_cfa_register 6
	sub	rsp, 64	#,
	mov	QWORD PTR -56[rbp], rdi	# __a, __a
# /usr/include/c++/13/bits/stl_vector.h:1916:       _S_max_size(const _Tp_alloc_type& __a) _GLIBCXX_NOEXCEPT
	mov	rax, QWORD PTR fs:40	# tmp92, MEM[(<address-space-1> long unsigned int *)40B]
	mov	QWORD PTR -8[rbp], rax	# D.233395, tmp92
	xor	eax, eax	# tmp92
# /usr/include/c++/13/bits/stl_vector.h:1921: 	const size_t __diffmax
	movabs	rax, 1152921504606846975	# tmp95,
	mov	QWORD PTR -48[rbp], rax	# __diffmax, tmp95
	mov	rax, QWORD PTR -56[rbp]	# tmp86, __a
	mov	QWORD PTR -32[rbp], rax	# __a, tmp86
	mov	rax, QWORD PTR -32[rbp]	# tmp87, __a
	mov	QWORD PTR -24[rbp], rax	# this, tmp87
	mov	rax, QWORD PTR -24[rbp]	# tmp88, this
	mov	QWORD PTR -16[rbp], rax	# this, tmp88
# /usr/include/c++/13/bits/new_allocator.h:233: 	return std::size_t(__PTRDIFF_MAX__) / sizeof(_Tp);
	movabs	rax, 1152921504606846975	# D.233264,
# /usr/include/c++/13/bits/new_allocator.h:183:       { return _M_max_size(); }
	nop	
# /usr/include/c++/13/bits/alloc_traits.h:574: 	return __a.max_size();
	nop	
# /usr/include/c++/13/bits/stl_vector.h:1923: 	const size_t __allocmax = _Alloc_traits::max_size(__a);
	mov	QWORD PTR -40[rbp], rax	# __allocmax, D.233264
# /usr/include/c++/13/bits/stl_vector.h:1924: 	return (std::min)(__diffmax, __allocmax);
	lea	rdx, -40[rbp]	# tmp89,
	lea	rax, -48[rbp]	# tmp90,
	mov	rsi, rdx	#, tmp89
	mov	rdi, rax	#, tmp90
	call	_ZSt3minImERKT_S2_S2_	#
# /usr/include/c++/13/bits/stl_vector.h:1924: 	return (std::min)(__diffmax, __allocmax);
	mov	rax, QWORD PTR [rax]	# _8, *_2
# /usr/include/c++/13/bits/stl_vector.h:1925:       }
	mov	rdx, QWORD PTR -8[rbp]	# tmp93, D.233395
	sub	rdx, QWORD PTR fs:40	# tmp93, MEM[(<address-space-1> long unsigned int *)40B]
	je	.L444	#,
	call	__stack_chk_fail@PLT	#
.L444:
	leave	
	.cfi_def_cfa 7, 8
	ret	
	.cfi_endproc
.LFE11767:
	.size	_ZNSt6vectorISt4pairIiiESaIS1_EE11_S_max_sizeERKS2_, .-_ZNSt6vectorISt4pairIiiESaIS1_EE11_S_max_sizeERKS2_
	.section	.text._ZNKSt12_Vector_baseISt4pairIiiESaIS1_EE19_M_get_Tp_allocatorEv,"axG",@progbits,_ZNKSt12_Vector_baseISt4pairIiiESaIS1_EE19_M_get_Tp_allocatorEv,comdat
	.align 2
	.weak	_ZNKSt12_Vector_baseISt4pairIiiESaIS1_EE19_M_get_Tp_allocatorEv
	.type	_ZNKSt12_Vector_baseISt4pairIiiESaIS1_EE19_M_get_Tp_allocatorEv, @function
_ZNKSt12_Vector_baseISt4pairIiiESaIS1_EE19_M_get_Tp_allocatorEv:
.LFB11768:
	.cfi_startproc
	endbr64	
	push	rbp	#
	.cfi_def_cfa_offset 16
	.cfi_offset 6, -16
	mov	rbp, rsp	#,
	.cfi_def_cfa_register 6
	mov	QWORD PTR -8[rbp], rdi	# this, this
# /usr/include/c++/13/bits/stl_vector.h:307:       { return this->_M_impl; }
	mov	rax, QWORD PTR -8[rbp]	# _2, this
# /usr/include/c++/13/bits/stl_vector.h:307:       { return this->_M_impl; }
	pop	rbp	#
	.cfi_def_cfa 7, 8
	ret	
	.cfi_endproc
.LFE11768:
	.size	_ZNKSt12_Vector_baseISt4pairIiiESaIS1_EE19_M_get_Tp_allocatorEv, .-_ZNKSt12_Vector_baseISt4pairIiiESaIS1_EE19_M_get_Tp_allocatorEv
	.section	.text._ZNSt15__new_allocatorISt4pairIiiEE8allocateEmPKv,"axG",@progbits,_ZNSt15__new_allocatorISt4pairIiiEE8allocateEmPKv,comdat
	.align 2
	.weak	_ZNSt15__new_allocatorISt4pairIiiEE8allocateEmPKv
	.type	_ZNSt15__new_allocatorISt4pairIiiEE8allocateEmPKv, @function
_ZNSt15__new_allocatorISt4pairIiiEE8allocateEmPKv:
.LFB11769:
	.cfi_startproc
	endbr64	
	push	rbp	#
	.cfi_def_cfa_offset 16
	.cfi_offset 6, -16
	mov	rbp, rsp	#,
	.cfi_def_cfa_register 6
	sub	rsp, 48	#,
	mov	QWORD PTR -24[rbp], rdi	# this, this
	mov	QWORD PTR -32[rbp], rsi	# __n, __n
	mov	QWORD PTR -40[rbp], rdx	# D.231293, D.231293
	mov	rax, QWORD PTR -24[rbp]	# tmp90, this
	mov	QWORD PTR -8[rbp], rax	# this, tmp90
# /usr/include/c++/13/bits/new_allocator.h:233: 	return std::size_t(__PTRDIFF_MAX__) / sizeof(_Tp);
	movabs	rax, 1152921504606846975	# D.233231,
# /usr/include/c++/13/bits/new_allocator.h:134: 	if (__builtin_expect(__n > this->_M_max_size(), false))
	cmp	rax, QWORD PTR -32[rbp]	# D.233231, __n
	setb	al	#, _2
# /usr/include/c++/13/bits/new_allocator.h:134: 	if (__builtin_expect(__n > this->_M_max_size(), false))
	movzx	eax, al	# _3, _2
# /usr/include/c++/13/bits/new_allocator.h:134: 	if (__builtin_expect(__n > this->_M_max_size(), false))
	test	rax, rax	# _4
	setne	al	#, retval.11_9
# /usr/include/c++/13/bits/new_allocator.h:134: 	if (__builtin_expect(__n > this->_M_max_size(), false))
	test	al, al	# retval.11_9
	je	.L449	#,
# /usr/include/c++/13/bits/new_allocator.h:138: 	    if (__n > (std::size_t(-1) / sizeof(_Tp)))
	movabs	rax, 2305843009213693951	# tmp91,
	cmp	rax, QWORD PTR -32[rbp]	# tmp91, __n
	jnb	.L450	#,
# /usr/include/c++/13/bits/new_allocator.h:139: 	      std::__throw_bad_array_new_length();
	call	_ZSt28__throw_bad_array_new_lengthv@PLT	#
.L450:
# /usr/include/c++/13/bits/new_allocator.h:140: 	    std::__throw_bad_alloc();
	call	_ZSt17__throw_bad_allocv@PLT	#
.L449:
# /usr/include/c++/13/bits/new_allocator.h:151: 	return static_cast<_Tp*>(_GLIBCXX_OPERATOR_NEW(__n * sizeof(_Tp)));
	mov	rax, QWORD PTR -32[rbp]	# tmp92, __n
	sal	rax, 3	# _6,
	mov	rdi, rax	#, _6
	call	_Znwm@PLT	#
# /usr/include/c++/13/bits/new_allocator.h:151: 	return static_cast<_Tp*>(_GLIBCXX_OPERATOR_NEW(__n * sizeof(_Tp)));
	nop	
# /usr/include/c++/13/bits/new_allocator.h:152:       }
	leave	
	.cfi_def_cfa 7, 8
	ret	
	.cfi_endproc
.LFE11769:
	.size	_ZNSt15__new_allocatorISt4pairIiiEE8allocateEmPKv, .-_ZNSt15__new_allocatorISt4pairIiiEE8allocateEmPKv
	.section	.text._ZSt12__niter_baseIPSt4pairIiiEET_S3_,"axG",@progbits,_ZSt12__niter_baseIPSt4pairIiiEET_S3_,comdat
	.weak	_ZSt12__niter_baseIPSt4pairIiiEET_S3_
	.type	_ZSt12__niter_baseIPSt4pairIiiEET_S3_, @function
_ZSt12__niter_baseIPSt4pairIiiEET_S3_:
.LFB11770:
	.cfi_startproc
	endbr64	
	push	rbp	#
	.cfi_def_cfa_offset 16
	.cfi_offset 6, -16
	mov	rbp, rsp	#,
	.cfi_def_cfa_register 6
	mov	QWORD PTR -8[rbp], rdi	# __it, __it
# /usr/include/c++/13/bits/stl_algobase.h:318:     { return __it; }
	mov	rax, QWORD PTR -8[rbp]	# _2, __it
# /usr/include/c++/13/bits/stl_algobase.h:318:     { return __it; }
	pop	rbp	#
	.cfi_def_cfa 7, 8
	ret	
	.cfi_endproc
.LFE11770:
	.size	_ZSt12__niter_baseIPSt4pairIiiEET_S3_, .-_ZSt12__niter_baseIPSt4pairIiiEET_S3_
	.section	.text._ZSt14__relocate_a_1IPSt4pairIiiES2_SaIS1_EET0_T_S5_S4_RT1_,"axG",@progbits,_ZSt14__relocate_a_1IPSt4pairIiiES2_SaIS1_EET0_T_S5_S4_RT1_,comdat
	.weak	_ZSt14__relocate_a_1IPSt4pairIiiES2_SaIS1_EET0_T_S5_S4_RT1_
	.type	_ZSt14__relocate_a_1IPSt4pairIiiES2_SaIS1_EET0_T_S5_S4_RT1_, @function
_ZSt14__relocate_a_1IPSt4pairIiiES2_SaIS1_EET0_T_S5_S4_RT1_:
.LFB11771:
	.cfi_startproc
	endbr64	
	push	rbp	#
	.cfi_def_cfa_offset 16
	.cfi_offset 6, -16
	mov	rbp, rsp	#,
	.cfi_def_cfa_register 6
	push	rbx	#
	sub	rsp, 56	#,
	.cfi_offset 3, -24
	mov	QWORD PTR -40[rbp], rdi	# __first, __first
	mov	QWORD PTR -48[rbp], rsi	# __last, __last
	mov	QWORD PTR -56[rbp], rdx	# __result, __result
	mov	QWORD PTR -64[rbp], rcx	# __alloc, __alloc
# /usr/include/c++/13/bits/stl_uninitialized.h:1103:       _ForwardIterator __cur = __result;
	mov	rax, QWORD PTR -56[rbp]	# tmp86, __result
	mov	QWORD PTR -24[rbp], rax	# __cur, tmp86
# /usr/include/c++/13/bits/stl_uninitialized.h:1104:       for (; __first != __last; ++__first, (void)++__cur)
	jmp	.L455	#
.L456:
# /usr/include/c++/13/bits/stl_uninitialized.h:1105: 	std::__relocate_object_a(std::__addressof(*__cur),
	mov	rax, QWORD PTR -40[rbp]	# tmp87, __first
	mov	rdi, rax	#, tmp87
	call	_ZSt11__addressofISt4pairIiiEEPT_RS2_	#
	mov	rbx, rax	# _1,
# /usr/include/c++/13/bits/stl_uninitialized.h:1105: 	std::__relocate_object_a(std::__addressof(*__cur),
	mov	rax, QWORD PTR -24[rbp]	# tmp88, __cur
	mov	rdi, rax	#, tmp88
	call	_ZSt11__addressofISt4pairIiiEEPT_RS2_	#
	mov	rcx, rax	# _2,
# /usr/include/c++/13/bits/stl_uninitialized.h:1105: 	std::__relocate_object_a(std::__addressof(*__cur),
	mov	rax, QWORD PTR -64[rbp]	# tmp89, __alloc
	mov	rdx, rax	#, tmp89
	mov	rsi, rbx	#, _1
	mov	rdi, rcx	#, _2
	call	_ZSt19__relocate_object_aISt4pairIiiES1_SaIS1_EEvPT_PT0_RT1_	#
# /usr/include/c++/13/bits/stl_uninitialized.h:1104:       for (; __first != __last; ++__first, (void)++__cur)
	add	QWORD PTR -40[rbp], 8	# __first,
# /usr/include/c++/13/bits/stl_uninitialized.h:1104:       for (; __first != __last; ++__first, (void)++__cur)
	add	QWORD PTR -24[rbp], 8	# __cur,
.L455:
# /usr/include/c++/13/bits/stl_uninitialized.h:1104:       for (; __first != __last; ++__first, (void)++__cur)
	mov	rax, QWORD PTR -40[rbp]	# tmp90, __first
	cmp	rax, QWORD PTR -48[rbp]	# tmp90, __last
	jne	.L456	#,
# /usr/include/c++/13/bits/stl_uninitialized.h:1107:       return __cur;
	mov	rax, QWORD PTR -24[rbp]	# _11, __cur
# /usr/include/c++/13/bits/stl_uninitialized.h:1108:     }
	mov	rbx, QWORD PTR -8[rbp]	#,
	leave	
	.cfi_def_cfa 7, 8
	ret	
	.cfi_endproc
.LFE11771:
	.size	_ZSt14__relocate_a_1IPSt4pairIiiES2_SaIS1_EET0_T_S5_S4_RT1_, .-_ZSt14__relocate_a_1IPSt4pairIiiES2_SaIS1_EET0_T_S5_S4_RT1_
	.section	.text._ZNSt15__new_allocatorIiE8allocateEmPKv,"axG",@progbits,_ZNSt15__new_allocatorIiE8allocateEmPKv,comdat
	.align 2
	.weak	_ZNSt15__new_allocatorIiE8allocateEmPKv
	.type	_ZNSt15__new_allocatorIiE8allocateEmPKv, @function
_ZNSt15__new_allocatorIiE8allocateEmPKv:
.LFB11774:
	.cfi_startproc
	endbr64	
	push	rbp	#
	.cfi_def_cfa_offset 16
	.cfi_offset 6, -16
	mov	rbp, rsp	#,
	.cfi_def_cfa_register 6
	sub	rsp, 48	#,
	mov	QWORD PTR -24[rbp], rdi	# this, this
	mov	QWORD PTR -32[rbp], rsi	# __n, __n
	mov	QWORD PTR -40[rbp], rdx	# D.231317, D.231317
	mov	rax, QWORD PTR -24[rbp]	# tmp90, this
	mov	QWORD PTR -8[rbp], rax	# this, tmp90
# /usr/include/c++/13/bits/new_allocator.h:233: 	return std::size_t(__PTRDIFF_MAX__) / sizeof(_Tp);
	movabs	rax, 2305843009213693951	# D.233209,
# /usr/include/c++/13/bits/new_allocator.h:134: 	if (__builtin_expect(__n > this->_M_max_size(), false))
	cmp	rax, QWORD PTR -32[rbp]	# D.233209, __n
	setb	al	#, _2
# /usr/include/c++/13/bits/new_allocator.h:134: 	if (__builtin_expect(__n > this->_M_max_size(), false))
	movzx	eax, al	# _3, _2
# /usr/include/c++/13/bits/new_allocator.h:134: 	if (__builtin_expect(__n > this->_M_max_size(), false))
	test	rax, rax	# _4
	setne	al	#, retval.22_9
# /usr/include/c++/13/bits/new_allocator.h:134: 	if (__builtin_expect(__n > this->_M_max_size(), false))
	test	al, al	# retval.22_9
	je	.L460	#,
# /usr/include/c++/13/bits/new_allocator.h:138: 	    if (__n > (std::size_t(-1) / sizeof(_Tp)))
	movabs	rax, 4611686018427387903	# tmp91,
	cmp	rax, QWORD PTR -32[rbp]	# tmp91, __n
	jnb	.L461	#,
# /usr/include/c++/13/bits/new_allocator.h:139: 	      std::__throw_bad_array_new_length();
	call	_ZSt28__throw_bad_array_new_lengthv@PLT	#
.L461:
# /usr/include/c++/13/bits/new_allocator.h:140: 	    std::__throw_bad_alloc();
	call	_ZSt17__throw_bad_allocv@PLT	#
.L460:
# /usr/include/c++/13/bits/new_allocator.h:151: 	return static_cast<_Tp*>(_GLIBCXX_OPERATOR_NEW(__n * sizeof(_Tp)));
	mov	rax, QWORD PTR -32[rbp]	# tmp92, __n
	sal	rax, 2	# _6,
	mov	rdi, rax	#, _6
	call	_Znwm@PLT	#
# /usr/include/c++/13/bits/new_allocator.h:151: 	return static_cast<_Tp*>(_GLIBCXX_OPERATOR_NEW(__n * sizeof(_Tp)));
	nop	
# /usr/include/c++/13/bits/new_allocator.h:152:       }
	leave	
	.cfi_def_cfa 7, 8
	ret	
	.cfi_endproc
.LFE11774:
	.size	_ZNSt15__new_allocatorIiE8allocateEmPKv, .-_ZNSt15__new_allocatorIiE8allocateEmPKv
	.section	.text._ZSt6fill_nIPimiET_S1_T0_RKT1_,"axG",@progbits,_ZSt6fill_nIPimiET_S1_T0_RKT1_,comdat
	.weak	_ZSt6fill_nIPimiET_S1_T0_RKT1_
	.type	_ZSt6fill_nIPimiET_S1_T0_RKT1_, @function
_ZSt6fill_nIPimiET_S1_T0_RKT1_:
.LFB11775:
	.cfi_startproc
	endbr64	
	push	rbp	#
	.cfi_def_cfa_offset 16
	.cfi_offset 6, -16
	mov	rbp, rsp	#,
	.cfi_def_cfa_register 6
	sub	rsp, 32	#,
	mov	QWORD PTR -8[rbp], rdi	# __first, __first
	mov	QWORD PTR -16[rbp], rsi	# __n, __n
	mov	QWORD PTR -24[rbp], rdx	# __value, __value
# /usr/include/c++/13/bits/stl_iterator_base_types.h:240:     { return typename iterator_traits<_Iter>::iterator_category(); }
	nop	
# /usr/include/c++/13/bits/stl_algobase.h:1157:       return std::__fill_n_a(__first, std::__size_to_integer(__n), __value,
	mov	rax, QWORD PTR -16[rbp]	# tmp89, __n
	mov	rdi, rax	#, tmp89
	call	_ZSt17__size_to_integerm	#
	mov	rcx, rax	# _1,
# /usr/include/c++/13/bits/stl_algobase.h:1157:       return std::__fill_n_a(__first, std::__size_to_integer(__n), __value,
	mov	rax, QWORD PTR -8[rbp]	# __first.23_2, __first
	mov	rdx, QWORD PTR -24[rbp]	# tmp90, __value
	mov	rsi, rcx	#, _1
	mov	rdi, rax	#, __first.23_2
	call	_ZSt10__fill_n_aIPimiET_S1_T0_RKT1_St26random_access_iterator_tag	#
# /usr/include/c++/13/bits/stl_algobase.h:1159:     }
	leave	
	.cfi_def_cfa 7, 8
	ret	
	.cfi_endproc
.LFE11775:
	.size	_ZSt6fill_nIPimiET_S1_T0_RKT1_, .-_ZSt6fill_nIPimiET_S1_T0_RKT1_
	.section	.text._ZNKSt7greaterISt4pairIiiEEclERKS1_S4_,"axG",@progbits,_ZNKSt7greaterISt4pairIiiEEclERKS1_S4_,comdat
	.align 2
	.weak	_ZNKSt7greaterISt4pairIiiEEclERKS1_S4_
	.type	_ZNKSt7greaterISt4pairIiiEEclERKS1_S4_, @function
_ZNKSt7greaterISt4pairIiiEEclERKS1_S4_:
.LFB11776:
	.cfi_startproc
	endbr64	
	push	rbp	#
	.cfi_def_cfa_offset 16
	.cfi_offset 6, -16
	mov	rbp, rsp	#,
	.cfi_def_cfa_register 6
	sub	rsp, 32	#,
	mov	QWORD PTR -8[rbp], rdi	# this, this
	mov	QWORD PTR -16[rbp], rsi	# __x, __x
	mov	QWORD PTR -24[rbp], rdx	# __y, __y
# /usr/include/c++/13/bits/stl_function.h:398:       { return __x > __y; }
	mov	rdx, QWORD PTR -24[rbp]	# tmp84, __y
	mov	rax, QWORD PTR -16[rbp]	# tmp85, __x
	mov	rsi, rdx	#, tmp84
	mov	rdi, rax	#, tmp85
	call	_ZStgtIiiEbRKSt4pairIT_T0_ES5_	#
# /usr/include/c++/13/bits/stl_function.h:398:       { return __x > __y; }
	leave	
	.cfi_def_cfa 7, 8
	ret	
	.cfi_endproc
.LFE11776:
	.size	_ZNKSt7greaterISt4pairIiiEEclERKS1_S4_, .-_ZNKSt7greaterISt4pairIiiEEclERKS1_S4_
	.section	.text._ZN9__gnu_cxx5__ops15_Iter_comp_iterISt7greaterISt4pairIiiEEEclINS_17__normal_iteratorIPS4_St6vectorIS4_SaIS4_EEEESD_EEbT_T0_,"axG",@progbits,_ZN9__gnu_cxx5__ops15_Iter_comp_iterISt7greaterISt4pairIiiEEEclINS_17__normal_iteratorIPS4_St6vectorIS4_SaIS4_EEEESD_EEbT_T0_,comdat
	.align 2
	.weak	_ZN9__gnu_cxx5__ops15_Iter_comp_iterISt7greaterISt4pairIiiEEEclINS_17__normal_iteratorIPS4_St6vectorIS4_SaIS4_EEEESD_EEbT_T0_
	.type	_ZN9__gnu_cxx5__ops15_Iter_comp_iterISt7greaterISt4pairIiiEEEclINS_17__normal_iteratorIPS4_St6vectorIS4_SaIS4_EEEESD_EEbT_T0_, @function
_ZN9__gnu_cxx5__ops15_Iter_comp_iterISt7greaterISt4pairIiiEEEclINS_17__normal_iteratorIPS4_St6vectorIS4_SaIS4_EEEESD_EEbT_T0_:
.LFB11777:
	.cfi_startproc
	endbr64	
	push	rbp	#
	.cfi_def_cfa_offset 16
	.cfi_offset 6, -16
	mov	rbp, rsp	#,
	.cfi_def_cfa_register 6
	push	r12	#
	push	rbx	#
	sub	rsp, 32	#,
	.cfi_offset 12, -24
	.cfi_offset 3, -32
	mov	QWORD PTR -24[rbp], rdi	# this, this
	mov	QWORD PTR -32[rbp], rsi	# __it1, __it1
	mov	QWORD PTR -40[rbp], rdx	# __it2, __it2
# /usr/include/c++/13/bits/predefined_ops.h:158:         { return bool(_M_comp(*__it1, *__it2)); }
	mov	rbx, QWORD PTR -24[rbp]	# _1, this
# /usr/include/c++/13/bits/predefined_ops.h:158:         { return bool(_M_comp(*__it1, *__it2)); }
	lea	rax, -40[rbp]	# tmp87,
	mov	rdi, rax	#, tmp87
	call	_ZNK9__gnu_cxx17__normal_iteratorIPSt4pairIiiESt6vectorIS2_SaIS2_EEEdeEv	#
	mov	r12, rax	# _2,
# /usr/include/c++/13/bits/predefined_ops.h:158:         { return bool(_M_comp(*__it1, *__it2)); }
	lea	rax, -32[rbp]	# tmp88,
	mov	rdi, rax	#, tmp88
	call	_ZNK9__gnu_cxx17__normal_iteratorIPSt4pairIiiESt6vectorIS2_SaIS2_EEEdeEv	#
# /usr/include/c++/13/bits/predefined_ops.h:158:         { return bool(_M_comp(*__it1, *__it2)); }
	mov	rdx, r12	#, _2
	mov	rsi, rax	#, _3
	mov	rdi, rbx	#, _1
	call	_ZNKSt7greaterISt4pairIiiEEclERKS1_S4_	#
# /usr/include/c++/13/bits/predefined_ops.h:158:         { return bool(_M_comp(*__it1, *__it2)); }
	add	rsp, 32	#,
	pop	rbx	#
	pop	r12	#
	pop	rbp	#
	.cfi_def_cfa 7, 8
	ret	
	.cfi_endproc
.LFE11777:
	.size	_ZN9__gnu_cxx5__ops15_Iter_comp_iterISt7greaterISt4pairIiiEEEclINS_17__normal_iteratorIPS4_St6vectorIS4_SaIS4_EEEESD_EEbT_T0_, .-_ZN9__gnu_cxx5__ops15_Iter_comp_iterISt7greaterISt4pairIiiEEEclINS_17__normal_iteratorIPS4_St6vectorIS4_SaIS4_EEEESD_EEbT_T0_
	.section	.text._ZSt4moveIRN9__gnu_cxx5__ops15_Iter_comp_iterISt7greaterISt4pairIiiEEEEEONSt16remove_referenceIT_E4typeEOSA_,"axG",@progbits,_ZSt4moveIRN9__gnu_cxx5__ops15_Iter_comp_iterISt7greaterISt4pairIiiEEEEEONSt16remove_referenceIT_E4typeEOSA_,comdat
	.weak	_ZSt4moveIRN9__gnu_cxx5__ops15_Iter_comp_iterISt7greaterISt4pairIiiEEEEEONSt16remove_referenceIT_E4typeEOSA_
	.type	_ZSt4moveIRN9__gnu_cxx5__ops15_Iter_comp_iterISt7greaterISt4pairIiiEEEEEONSt16remove_referenceIT_E4typeEOSA_, @function
_ZSt4moveIRN9__gnu_cxx5__ops15_Iter_comp_iterISt7greaterISt4pairIiiEEEEEONSt16remove_referenceIT_E4typeEOSA_:
.LFB11778:
	.cfi_startproc
	endbr64	
	push	rbp	#
	.cfi_def_cfa_offset 16
	.cfi_offset 6, -16
	mov	rbp, rsp	#,
	.cfi_def_cfa_register 6
	mov	QWORD PTR -8[rbp], rdi	# __t, __t
# /usr/include/c++/13/bits/move.h:98:     { return static_cast<typename std::remove_reference<_Tp>::type&&>(__t); }
	mov	rax, QWORD PTR -8[rbp]	# _2, __t
# /usr/include/c++/13/bits/move.h:98:     { return static_cast<typename std::remove_reference<_Tp>::type&&>(__t); }
	pop	rbp	#
	.cfi_def_cfa 7, 8
	ret	
	.cfi_endproc
.LFE11778:
	.size	_ZSt4moveIRN9__gnu_cxx5__ops15_Iter_comp_iterISt7greaterISt4pairIiiEEEEEONSt16remove_referenceIT_E4typeEOSA_, .-_ZSt4moveIRN9__gnu_cxx5__ops15_Iter_comp_iterISt7greaterISt4pairIiiEEEEEONSt16remove_referenceIT_E4typeEOSA_
	.section	.text._ZN9__gnu_cxx5__ops14_Iter_comp_valISt7greaterISt4pairIiiEEEC2EONS0_15_Iter_comp_iterIS5_EE,"axG",@progbits,_ZN9__gnu_cxx5__ops14_Iter_comp_valISt7greaterISt4pairIiiEEEC5EONS0_15_Iter_comp_iterIS5_EE,comdat
	.align 2
	.weak	_ZN9__gnu_cxx5__ops14_Iter_comp_valISt7greaterISt4pairIiiEEEC2EONS0_15_Iter_comp_iterIS5_EE
	.type	_ZN9__gnu_cxx5__ops14_Iter_comp_valISt7greaterISt4pairIiiEEEC2EONS0_15_Iter_comp_iterIS5_EE, @function
_ZN9__gnu_cxx5__ops14_Iter_comp_valISt7greaterISt4pairIiiEEEC2EONS0_15_Iter_comp_iterIS5_EE:
.LFB11780:
	.cfi_startproc
	endbr64	
	push	rbp	#
	.cfi_def_cfa_offset 16
	.cfi_offset 6, -16
	mov	rbp, rsp	#,
	.cfi_def_cfa_register 6
	sub	rsp, 16	#,
	mov	QWORD PTR -8[rbp], rdi	# this, this
	mov	QWORD PTR -16[rbp], rsi	# __comp, __comp
# /usr/include/c++/13/bits/predefined_ops.h:188: 	: _M_comp(std::move(__comp._M_comp))
	mov	rax, QWORD PTR -16[rbp]	# _1, __comp
# /usr/include/c++/13/bits/predefined_ops.h:188: 	: _M_comp(std::move(__comp._M_comp))
	mov	rdi, rax	#, _1
	call	_ZSt4moveIRSt7greaterISt4pairIiiEEEONSt16remove_referenceIT_E4typeEOS6_	#
# /usr/include/c++/13/bits/predefined_ops.h:189:       { }
	nop	
	leave	
	.cfi_def_cfa 7, 8
	ret	
	.cfi_endproc
.LFE11780:
	.size	_ZN9__gnu_cxx5__ops14_Iter_comp_valISt7greaterISt4pairIiiEEEC2EONS0_15_Iter_comp_iterIS5_EE, .-_ZN9__gnu_cxx5__ops14_Iter_comp_valISt7greaterISt4pairIiiEEEC2EONS0_15_Iter_comp_iterIS5_EE
	.weak	_ZN9__gnu_cxx5__ops14_Iter_comp_valISt7greaterISt4pairIiiEEEC1EONS0_15_Iter_comp_iterIS5_EE
	.set	_ZN9__gnu_cxx5__ops14_Iter_comp_valISt7greaterISt4pairIiiEEEC1EONS0_15_Iter_comp_iterIS5_EE,_ZN9__gnu_cxx5__ops14_Iter_comp_valISt7greaterISt4pairIiiEEEC2EONS0_15_Iter_comp_iterIS5_EE
	.section	.text._ZNKSt12_Vector_baseIiSaIiEE19_M_get_Tp_allocatorEv,"axG",@progbits,_ZNKSt12_Vector_baseIiSaIiEE19_M_get_Tp_allocatorEv,comdat
	.align 2
	.weak	_ZNKSt12_Vector_baseIiSaIiEE19_M_get_Tp_allocatorEv
	.type	_ZNKSt12_Vector_baseIiSaIiEE19_M_get_Tp_allocatorEv, @function
_ZNKSt12_Vector_baseIiSaIiEE19_M_get_Tp_allocatorEv:
.LFB11782:
	.cfi_startproc
	endbr64	
	push	rbp	#
	.cfi_def_cfa_offset 16
	.cfi_offset 6, -16
	mov	rbp, rsp	#,
	.cfi_def_cfa_register 6
	mov	QWORD PTR -8[rbp], rdi	# this, this
# /usr/include/c++/13/bits/stl_vector.h:307:       { return this->_M_impl; }
	mov	rax, QWORD PTR -8[rbp]	# _2, this
# /usr/include/c++/13/bits/stl_vector.h:307:       { return this->_M_impl; }
	pop	rbp	#
	.cfi_def_cfa 7, 8
	ret	
	.cfi_endproc
.LFE11782:
	.size	_ZNKSt12_Vector_baseIiSaIiEE19_M_get_Tp_allocatorEv, .-_ZNKSt12_Vector_baseIiSaIiEE19_M_get_Tp_allocatorEv
	.section	.text._ZSt12__niter_baseIPiET_S1_,"axG",@progbits,_ZSt12__niter_baseIPiET_S1_,comdat
	.weak	_ZSt12__niter_baseIPiET_S1_
	.type	_ZSt12__niter_baseIPiET_S1_, @function
_ZSt12__niter_baseIPiET_S1_:
.LFB11783:
	.cfi_startproc
	endbr64	
	push	rbp	#
	.cfi_def_cfa_offset 16
	.cfi_offset 6, -16
	mov	rbp, rsp	#,
	.cfi_def_cfa_register 6
	mov	QWORD PTR -8[rbp], rdi	# __it, __it
# /usr/include/c++/13/bits/stl_algobase.h:318:     { return __it; }
	mov	rax, QWORD PTR -8[rbp]	# _2, __it
# /usr/include/c++/13/bits/stl_algobase.h:318:     { return __it; }
	pop	rbp	#
	.cfi_def_cfa 7, 8
	ret	
	.cfi_endproc
.LFE11783:
	.size	_ZSt12__niter_baseIPiET_S1_, .-_ZSt12__niter_baseIPiET_S1_
	.section	.text._ZSt14__relocate_a_1IiiENSt9enable_ifIXsrSt24__is_bitwise_relocatableIT_vE5valueEPS2_E4typeES4_S4_S4_RSaIT0_E,"axG",@progbits,_ZSt14__relocate_a_1IiiENSt9enable_ifIXsrSt24__is_bitwise_relocatableIT_vE5valueEPS2_E4typeES4_S4_S4_RSaIT0_E,comdat
	.weak	_ZSt14__relocate_a_1IiiENSt9enable_ifIXsrSt24__is_bitwise_relocatableIT_vE5valueEPS2_E4typeES4_S4_S4_RSaIT0_E
	.type	_ZSt14__relocate_a_1IiiENSt9enable_ifIXsrSt24__is_bitwise_relocatableIT_vE5valueEPS2_E4typeES4_S4_S4_RSaIT0_E, @function
_ZSt14__relocate_a_1IiiENSt9enable_ifIXsrSt24__is_bitwise_relocatableIT_vE5valueEPS2_E4typeES4_S4_S4_RSaIT0_E:
.LFB11784:
	.cfi_startproc
	endbr64	
	push	rbp	#
	.cfi_def_cfa_offset 16
	.cfi_offset 6, -16
	mov	rbp, rsp	#,
	.cfi_def_cfa_register 6
	sub	rsp, 48	#,
	mov	QWORD PTR -24[rbp], rdi	# __first, __first
	mov	QWORD PTR -32[rbp], rsi	# __last, __last
	mov	QWORD PTR -40[rbp], rdx	# __result, __result
	mov	QWORD PTR -48[rbp], rcx	# __alloc, __alloc
# /usr/include/c++/13/bits/stl_uninitialized.h:1118:       ptrdiff_t __count = __last - __first;
	mov	rax, QWORD PTR -32[rbp]	# tmp89, __last
	sub	rax, QWORD PTR -24[rbp]	# _1, __first
# /usr/include/c++/13/bits/stl_uninitialized.h:1118:       ptrdiff_t __count = __last - __first;
	sar	rax, 2	# tmp90,
	mov	QWORD PTR -8[rbp], rax	# __count, tmp90
# /usr/include/c++/13/bits/stl_uninitialized.h:1119:       if (__count > 0)
	cmp	QWORD PTR -8[rbp], 0	# __count,
	jle	.L478	#,
# /usr/include/c++/13/bits/stl_uninitialized.h:1131: 	  __builtin_memmove(__result, __first, __count * sizeof(_Tp));
	mov	rax, QWORD PTR -8[rbp]	# __count.47_2, __count
# /usr/include/c++/13/bits/stl_uninitialized.h:1131: 	  __builtin_memmove(__result, __first, __count * sizeof(_Tp));
	lea	rdx, 0[0+rax*4]	# _3,
	mov	rcx, QWORD PTR -24[rbp]	# tmp93, __first
	mov	rax, QWORD PTR -40[rbp]	# tmp94, __result
	mov	rsi, rcx	#, tmp93
	mov	rdi, rax	#, tmp94
	call	memmove@PLT	#
.L478:
# /usr/include/c++/13/bits/stl_uninitialized.h:1133:       return __result + __count;
	mov	rax, QWORD PTR -8[rbp]	# __count.48_4, __count
# /usr/include/c++/13/bits/stl_uninitialized.h:1133:       return __result + __count;
	lea	rdx, 0[0+rax*4]	# _5,
# /usr/include/c++/13/bits/stl_uninitialized.h:1133:       return __result + __count;
	mov	rax, QWORD PTR -40[rbp]	# tmp95, __result
	add	rax, rdx	# _13, _5
# /usr/include/c++/13/bits/stl_uninitialized.h:1134:     }
	leave	
	.cfi_def_cfa 7, 8
	ret	
	.cfi_endproc
.LFE11784:
	.size	_ZSt14__relocate_a_1IiiENSt9enable_ifIXsrSt24__is_bitwise_relocatableIT_vE5valueEPS2_E4typeES4_S4_S4_RSaIT0_E, .-_ZSt14__relocate_a_1IiiENSt9enable_ifIXsrSt24__is_bitwise_relocatableIT_vE5valueEPS2_E4typeES4_S4_S4_RSaIT0_E
	.section	.text._ZSt10_ConstructISt6vectorISt4pairIiiESaIS2_EEJRKS4_EEvPT_DpOT0_,"axG",@progbits,_ZSt10_ConstructISt6vectorISt4pairIiiESaIS2_EEJRKS4_EEvPT_DpOT0_,comdat
	.weak	_ZSt10_ConstructISt6vectorISt4pairIiiESaIS2_EEJRKS4_EEvPT_DpOT0_
	.type	_ZSt10_ConstructISt6vectorISt4pairIiiESaIS2_EEJRKS4_EEvPT_DpOT0_, @function
_ZSt10_ConstructISt6vectorISt4pairIiiESaIS2_EEJRKS4_EEvPT_DpOT0_:
.LFB11823:
	.cfi_startproc
	.cfi_personality 0x9b,DW.ref.__gxx_personality_v0
	.cfi_lsda 0x1b,.LLSDA11823
	endbr64	
	push	rbp	#
	.cfi_def_cfa_offset 16
	.cfi_offset 6, -16
	mov	rbp, rsp	#,
	.cfi_def_cfa_register 6
	push	r14	#
	push	r13	#
	push	r12	#
	push	rbx	#
	sub	rsp, 16	#,
	.cfi_offset 14, -24
	.cfi_offset 13, -32
	.cfi_offset 12, -40
	.cfi_offset 3, -48
	mov	QWORD PTR -40[rbp], rdi	# __p, __p
	mov	QWORD PTR -48[rbp], rsi	# __args#0, __args#0
# /usr/include/c++/13/bits/stl_construct.h:119:       ::new((void*)__p) _Tp(std::forward<_Args>(__args)...);
	mov	rbx, QWORD PTR -40[rbp]	# _4, __p
# /usr/include/c++/13/bits/stl_construct.h:119:       ::new((void*)__p) _Tp(std::forward<_Args>(__args)...);
	mov	rsi, rbx	#, _4
	mov	edi, 24	#,
	call	_ZnwmPv	#
	mov	r12, rax	# _1,
# /usr/include/c++/13/bits/stl_construct.h:119:       ::new((void*)__p) _Tp(std::forward<_Args>(__args)...);
	mov	r14d, 1	# _8,
	mov	rax, QWORD PTR -48[rbp]	# tmp88, __args#0
	mov	rdi, rax	#, tmp88
	call	_ZSt7forwardIRKSt6vectorISt4pairIiiESaIS2_EEEOT_RNSt16remove_referenceIS7_E4typeE	#
# /usr/include/c++/13/bits/stl_construct.h:119:       ::new((void*)__p) _Tp(std::forward<_Args>(__args)...);
	mov	rsi, rax	#, _2
	mov	rdi, r12	#, _1
.LEHB28:
	call	_ZNSt6vectorISt4pairIiiESaIS1_EEC1ERKS3_	#
.LEHE28:
# /usr/include/c++/13/bits/stl_construct.h:120:     }
	jmp	.L484	#
.L483:
	endbr64	
# /usr/include/c++/13/bits/stl_construct.h:119:       ::new((void*)__p) _Tp(std::forward<_Args>(__args)...);
	mov	r13, rax	# tmp89,
	test	r14b, r14b	# _8
	je	.L482	#,
# /usr/include/c++/13/bits/stl_construct.h:119:       ::new((void*)__p) _Tp(std::forward<_Args>(__args)...);
	mov	rsi, rbx	#, _4
	mov	rdi, r12	#, _1
	call	_ZdlPvS_	#
.L482:
	mov	rax, r13	# D.233396, tmp89
	mov	rdi, rax	#, D.233396
.LEHB29:
	call	_Unwind_Resume@PLT	#
.LEHE29:
.L484:
# /usr/include/c++/13/bits/stl_construct.h:120:     }
	add	rsp, 16	#,
	pop	rbx	#
	pop	r12	#
	pop	r13	#
	pop	r14	#
	pop	rbp	#
	.cfi_def_cfa 7, 8
	ret	
	.cfi_endproc
.LFE11823:
	.section	.gcc_except_table
.LLSDA11823:
	.byte	0xff
	.byte	0xff
	.byte	0x1
	.uleb128 .LLSDACSE11823-.LLSDACSB11823
.LLSDACSB11823:
	.uleb128 .LEHB28-.LFB11823
	.uleb128 .LEHE28-.LEHB28
	.uleb128 .L483-.LFB11823
	.uleb128 0
	.uleb128 .LEHB29-.LFB11823
	.uleb128 .LEHE29-.LEHB29
	.uleb128 0
	.uleb128 0
.LLSDACSE11823:
	.section	.text._ZSt10_ConstructISt6vectorISt4pairIiiESaIS2_EEJRKS4_EEvPT_DpOT0_,"axG",@progbits,_ZSt10_ConstructISt6vectorISt4pairIiiESaIS2_EEJRKS4_EEvPT_DpOT0_,comdat
	.size	_ZSt10_ConstructISt6vectorISt4pairIiiESaIS2_EEJRKS4_EEvPT_DpOT0_, .-_ZSt10_ConstructISt6vectorISt4pairIiiESaIS2_EEJRKS4_EEvPT_DpOT0_
	.section	.text._ZSt11__addressofISt4pairIiiEEPT_RS2_,"axG",@progbits,_ZSt11__addressofISt4pairIiiEEPT_RS2_,comdat
	.weak	_ZSt11__addressofISt4pairIiiEEPT_RS2_
	.type	_ZSt11__addressofISt4pairIiiEEPT_RS2_, @function
_ZSt11__addressofISt4pairIiiEEPT_RS2_:
.LFB11826:
	.cfi_startproc
	endbr64	
	push	rbp	#
	.cfi_def_cfa_offset 16
	.cfi_offset 6, -16
	mov	rbp, rsp	#,
	.cfi_def_cfa_register 6
	mov	QWORD PTR -8[rbp], rdi	# __r, __r
# /usr/include/c++/13/bits/move.h:52:     { return __builtin_addressof(__r); }
	mov	rax, QWORD PTR -8[rbp]	# _2, __r
# /usr/include/c++/13/bits/move.h:52:     { return __builtin_addressof(__r); }
	pop	rbp	#
	.cfi_def_cfa 7, 8
	ret	
	.cfi_endproc
.LFE11826:
	.size	_ZSt11__addressofISt4pairIiiEEPT_RS2_, .-_ZSt11__addressofISt4pairIiiEEPT_RS2_
	.section	.text._ZSt19__relocate_object_aISt4pairIiiES1_SaIS1_EEvPT_PT0_RT1_,"axG",@progbits,_ZSt19__relocate_object_aISt4pairIiiES1_SaIS1_EEvPT_PT0_RT1_,comdat
	.weak	_ZSt19__relocate_object_aISt4pairIiiES1_SaIS1_EEvPT_PT0_RT1_
	.type	_ZSt19__relocate_object_aISt4pairIiiES1_SaIS1_EEvPT_PT0_RT1_, @function
_ZSt19__relocate_object_aISt4pairIiiES1_SaIS1_EEvPT_PT0_RT1_:
.LFB11827:
	.cfi_startproc
	endbr64	
	push	rbp	#
	.cfi_def_cfa_offset 16
	.cfi_offset 6, -16
	mov	rbp, rsp	#,
	.cfi_def_cfa_register 6
	push	rbx	#
	sub	rsp, 120	#,
	.cfi_offset 3, -24
	mov	QWORD PTR -104[rbp], rdi	# __dest, __dest
	mov	QWORD PTR -112[rbp], rsi	# __orig, __orig
	mov	QWORD PTR -120[rbp], rdx	# __alloc, __alloc
# /usr/include/c++/13/bits/stl_uninitialized.h:1077:       __traits::construct(__alloc, __dest, std::move(*__orig));
	mov	rax, QWORD PTR -112[rbp]	# tmp90, __orig
	mov	rdi, rax	#, tmp90
	call	_ZSt4moveIRSt4pairIiiEEONSt16remove_referenceIT_E4typeEOS4_	#
	mov	rdx, QWORD PTR -120[rbp]	# tmp91, __alloc
	mov	QWORD PTR -64[rbp], rdx	# __a, tmp91
	mov	rdx, QWORD PTR -104[rbp]	# tmp92, __dest
	mov	QWORD PTR -56[rbp], rdx	# __p, tmp92
	mov	QWORD PTR -48[rbp], rax	# __args#0, _1
# /usr/include/c++/13/bits/alloc_traits.h:538: 	  __a.construct(__p, std::forward<_Args>(__args)...);
	mov	rax, QWORD PTR -48[rbp]	# tmp93, __args#0
	mov	rdi, rax	#, tmp93
	call	_ZSt7forwardISt4pairIiiEEOT_RNSt16remove_referenceIS2_E4typeE	#
	mov	rdx, QWORD PTR -64[rbp]	# tmp94, __a
	mov	QWORD PTR -40[rbp], rdx	# this, tmp94
	mov	rdx, QWORD PTR -56[rbp]	# tmp95, __p
	mov	QWORD PTR -32[rbp], rdx	# __p, tmp95
	mov	QWORD PTR -24[rbp], rax	# __args#0, _16
# /usr/include/c++/13/bits/new_allocator.h:191: 	{ ::new((void *)__p) _Up(std::forward<_Args>(__args)...); }
	mov	rax, QWORD PTR -32[rbp]	# _20, __p
# /usr/include/c++/13/bits/new_allocator.h:191: 	{ ::new((void *)__p) _Up(std::forward<_Args>(__args)...); }
	mov	rsi, rax	#, _20
	mov	edi, 8	#,
	call	_ZnwmPv	#
	mov	rbx, rax	# _21,
# /usr/include/c++/13/bits/new_allocator.h:191: 	{ ::new((void *)__p) _Up(std::forward<_Args>(__args)...); }
	mov	rax, QWORD PTR -24[rbp]	# tmp96, __args#0
	mov	rdi, rax	#, tmp96
	call	_ZSt7forwardISt4pairIiiEEOT_RNSt16remove_referenceIS2_E4typeE	#
# /usr/include/c++/13/bits/new_allocator.h:191: 	{ ::new((void *)__p) _Up(std::forward<_Args>(__args)...); }
	mov	rax, QWORD PTR [rax]	# tmp97, *_23
	mov	QWORD PTR [rbx], rax	# MEM[(struct pair *)_21], tmp97
# /usr/include/c++/13/bits/new_allocator.h:191: 	{ ::new((void *)__p) _Up(std::forward<_Args>(__args)...); }
	nop	
# /usr/include/c++/13/bits/alloc_traits.h:542: 	}
	nop	
# /usr/include/c++/13/bits/stl_uninitialized.h:1078:       __traits::destroy(__alloc, std::__addressof(*__orig));
	mov	rax, QWORD PTR -112[rbp]	# tmp98, __orig
	mov	rdi, rax	#, tmp98
	call	_ZSt11__addressofISt4pairIiiEEPT_RS2_	#
	mov	rdx, QWORD PTR -120[rbp]	# tmp99, __alloc
	mov	QWORD PTR -96[rbp], rdx	# __a, tmp99
	mov	QWORD PTR -88[rbp], rax	# __p, _2
	mov	rax, QWORD PTR -96[rbp]	# tmp100, __a
	mov	QWORD PTR -80[rbp], rax	# this, tmp100
	mov	rax, QWORD PTR -88[rbp]	# tmp101, __p
	mov	QWORD PTR -72[rbp], rax	# __p, tmp101
# /usr/include/c++/13/bits/new_allocator.h:198: 	{ __p->~_Up(); }
	nop	
# /usr/include/c++/13/bits/alloc_traits.h:562: 	}
	nop	
# /usr/include/c++/13/bits/stl_uninitialized.h:1079:     }
	nop	
	mov	rbx, QWORD PTR -8[rbp]	#,
	leave	
	.cfi_def_cfa 7, 8
	ret	
	.cfi_endproc
.LFE11827:
	.size	_ZSt19__relocate_object_aISt4pairIiiES1_SaIS1_EEvPT_PT0_RT1_, .-_ZSt19__relocate_object_aISt4pairIiiES1_SaIS1_EEvPT_PT0_RT1_
	.section	.text._ZSt10__fill_n_aIPimiET_S1_T0_RKT1_St26random_access_iterator_tag,"axG",@progbits,_ZSt10__fill_n_aIPimiET_S1_T0_RKT1_St26random_access_iterator_tag,comdat
	.weak	_ZSt10__fill_n_aIPimiET_S1_T0_RKT1_St26random_access_iterator_tag
	.type	_ZSt10__fill_n_aIPimiET_S1_T0_RKT1_St26random_access_iterator_tag, @function
_ZSt10__fill_n_aIPimiET_S1_T0_RKT1_St26random_access_iterator_tag:
.LFB11829:
	.cfi_startproc
	endbr64	
	push	rbp	#
	.cfi_def_cfa_offset 16
	.cfi_offset 6, -16
	mov	rbp, rsp	#,
	.cfi_def_cfa_register 6
	sub	rsp, 32	#,
	mov	QWORD PTR -8[rbp], rdi	# __first, __first
	mov	QWORD PTR -16[rbp], rsi	# __n, __n
	mov	QWORD PTR -24[rbp], rdx	# __value, __value
# /usr/include/c++/13/bits/stl_algobase.h:1123:       if (__n <= 0)
	cmp	QWORD PTR -16[rbp], 0	# __n,
	jne	.L489	#,
# /usr/include/c++/13/bits/stl_algobase.h:1124: 	return __first;
	mov	rax, QWORD PTR -8[rbp]	# _4, __first
	jmp	.L490	#
.L489:
# /usr/include/c++/13/bits/stl_algobase.h:1128:       std::__fill_a(__first, __first + __n, __value);
	mov	rax, QWORD PTR -16[rbp]	# tmp87, __n
	lea	rdx, 0[0+rax*4]	# _1,
# /usr/include/c++/13/bits/stl_algobase.h:1128:       std::__fill_a(__first, __first + __n, __value);
	mov	rax, QWORD PTR -8[rbp]	# tmp88, __first
	lea	rcx, [rdx+rax]	# _2,
	mov	rdx, QWORD PTR -24[rbp]	# tmp89, __value
	mov	rax, QWORD PTR -8[rbp]	# tmp90, __first
	mov	rsi, rcx	#, _2
	mov	rdi, rax	#, tmp90
	call	_ZSt8__fill_aIPiiEvT_S1_RKT0_	#
# /usr/include/c++/13/bits/stl_algobase.h:1129:       return __first + __n;
	mov	rax, QWORD PTR -16[rbp]	# tmp91, __n
	lea	rdx, 0[0+rax*4]	# _3,
# /usr/include/c++/13/bits/stl_algobase.h:1129:       return __first + __n;
	mov	rax, QWORD PTR -8[rbp]	# tmp92, __first
	add	rax, rdx	# _4, _3
.L490:
# /usr/include/c++/13/bits/stl_algobase.h:1130:     }
	leave	
	.cfi_def_cfa 7, 8
	ret	
	.cfi_endproc
.LFE11829:
	.size	_ZSt10__fill_n_aIPimiET_S1_T0_RKT1_St26random_access_iterator_tag, .-_ZSt10__fill_n_aIPimiET_S1_T0_RKT1_St26random_access_iterator_tag
	.section	.text._ZStgtIiiEbRKSt4pairIT_T0_ES5_,"axG",@progbits,_ZStgtIiiEbRKSt4pairIT_T0_ES5_,comdat
	.weak	_ZStgtIiiEbRKSt4pairIT_T0_ES5_
	.type	_ZStgtIiiEbRKSt4pairIT_T0_ES5_, @function
_ZStgtIiiEbRKSt4pairIT_T0_ES5_:
.LFB11830:
	.cfi_startproc
	endbr64	
	push	rbp	#
	.cfi_def_cfa_offset 16
	.cfi_offset 6, -16
	mov	rbp, rsp	#,
	.cfi_def_cfa_register 6
	sub	rsp, 16	#,
	mov	QWORD PTR -8[rbp], rdi	# __x, __x
	mov	QWORD PTR -16[rbp], rsi	# __y, __y
# /usr/include/c++/13/bits/stl_pair.h:849:     { return __y < __x; }
	mov	rdx, QWORD PTR -8[rbp]	# tmp84, __x
	mov	rax, QWORD PTR -16[rbp]	# tmp85, __y
	mov	rsi, rdx	#, tmp84
	mov	rdi, rax	#, tmp85
	call	_ZStltIiiEbRKSt4pairIT_T0_ES5_	#
# /usr/include/c++/13/bits/stl_pair.h:849:     { return __y < __x; }
	leave	
	.cfi_def_cfa 7, 8
	ret	
	.cfi_endproc
.LFE11830:
	.size	_ZStgtIiiEbRKSt4pairIT_T0_ES5_, .-_ZStgtIiiEbRKSt4pairIT_T0_ES5_
	.section	.text._ZSt7forwardIRKSt6vectorISt4pairIiiESaIS2_EEEOT_RNSt16remove_referenceIS7_E4typeE,"axG",@progbits,_ZSt7forwardIRKSt6vectorISt4pairIiiESaIS2_EEEOT_RNSt16remove_referenceIS7_E4typeE,comdat
	.weak	_ZSt7forwardIRKSt6vectorISt4pairIiiESaIS2_EEEOT_RNSt16remove_referenceIS7_E4typeE
	.type	_ZSt7forwardIRKSt6vectorISt4pairIiiESaIS2_EEEOT_RNSt16remove_referenceIS7_E4typeE, @function
_ZSt7forwardIRKSt6vectorISt4pairIiiESaIS2_EEEOT_RNSt16remove_referenceIS7_E4typeE:
.LFB11837:
	.cfi_startproc
	endbr64	
	push	rbp	#
	.cfi_def_cfa_offset 16
	.cfi_offset 6, -16
	mov	rbp, rsp	#,
	.cfi_def_cfa_register 6
	mov	QWORD PTR -8[rbp], rdi	# __t, __t
# /usr/include/c++/13/bits/move.h:71:     { return static_cast<_Tp&&>(__t); }
	mov	rax, QWORD PTR -8[rbp]	# _2, __t
# /usr/include/c++/13/bits/move.h:71:     { return static_cast<_Tp&&>(__t); }
	pop	rbp	#
	.cfi_def_cfa 7, 8
	ret	
	.cfi_endproc
.LFE11837:
	.size	_ZSt7forwardIRKSt6vectorISt4pairIiiESaIS2_EEEOT_RNSt16remove_referenceIS7_E4typeE, .-_ZSt7forwardIRKSt6vectorISt4pairIiiESaIS2_EEEOT_RNSt16remove_referenceIS7_E4typeE
	.section	.text._ZNSt6vectorISt4pairIiiESaIS1_EEC2ERKS3_,"axG",@progbits,_ZNSt6vectorISt4pairIiiESaIS1_EEC5ERKS3_,comdat
	.align 2
	.weak	_ZNSt6vectorISt4pairIiiESaIS1_EEC2ERKS3_
	.type	_ZNSt6vectorISt4pairIiiESaIS1_EEC2ERKS3_, @function
_ZNSt6vectorISt4pairIiiESaIS1_EEC2ERKS3_:
.LFB11839:
	.cfi_startproc
	.cfi_personality 0x9b,DW.ref.__gxx_personality_v0
	.cfi_lsda 0x1b,.LLSDA11839
	endbr64	
	push	rbp	#
	.cfi_def_cfa_offset 16
	.cfi_offset 6, -16
	mov	rbp, rsp	#,
	.cfi_def_cfa_register 6
	push	r13	#
	push	r12	#
	push	rbx	#
	sub	rsp, 88	#,
	.cfi_offset 13, -24
	.cfi_offset 12, -32
	.cfi_offset 3, -40
	mov	QWORD PTR -104[rbp], rdi	# this, this
	mov	QWORD PTR -112[rbp], rsi	# __x, __x
# /usr/include/c++/13/bits/stl_vector.h:601:       vector(const vector& __x)
	mov	rax, QWORD PTR fs:40	# tmp110, MEM[(<address-space-1> long unsigned int *)40B]
	mov	QWORD PTR -40[rbp], rax	# D.233399, tmp110
	xor	eax, eax	# tmp110
# /usr/include/c++/13/bits/stl_vector.h:603: 	_Alloc_traits::_S_select_on_copy(__x._M_get_Tp_allocator()))
	mov	rbx, QWORD PTR -104[rbp]	# _1, this
# /usr/include/c++/13/bits/stl_vector.h:603: 	_Alloc_traits::_S_select_on_copy(__x._M_get_Tp_allocator()))
	mov	rax, QWORD PTR -112[rbp]	# _2, __x
	mov	rdi, rax	#, _2
	call	_ZNKSt12_Vector_baseISt4pairIiiESaIS1_EE19_M_get_Tp_allocatorEv	#
	mov	QWORD PTR -88[rbp], rax	# __a, _3
	lea	rax, -89[rbp]	# retvalptr.49,
	mov	rdx, QWORD PTR -88[rbp]	# tmp96, __a
	mov	QWORD PTR -80[rbp], rdx	# __rhs, tmp96
	mov	QWORD PTR -72[rbp], rax	# this, retvalptr.49
	mov	rax, QWORD PTR -80[rbp]	# tmp97, __rhs
	mov	QWORD PTR -64[rbp], rax	# __a, tmp97
	mov	rax, QWORD PTR -72[rbp]	# tmp98, this
	mov	QWORD PTR -56[rbp], rax	# this, tmp98
	mov	rax, QWORD PTR -64[rbp]	# tmp99, __a
	mov	QWORD PTR -48[rbp], rax	# D.233314, tmp99
# /usr/include/c++/13/bits/new_allocator.h:92:       __new_allocator(const __new_allocator&) _GLIBCXX_USE_NOEXCEPT { }
	nop	
# /usr/include/c++/13/bits/allocator.h:168:       : __allocator_base<_Tp>(__a) { }
	nop	
# /usr/include/c++/13/bits/alloc_traits.h:588:       { return __rhs; }
	nop	
# /usr/include/c++/13/ext/alloc_traits.h:98:     { return _Base_type::select_on_container_copy_construction(__a); }
	nop	
# /usr/include/c++/13/bits/stl_vector.h:603: 	_Alloc_traits::_S_select_on_copy(__x._M_get_Tp_allocator()))
	mov	rax, QWORD PTR -112[rbp]	# tmp100, __x
	mov	rdi, rax	#, tmp100
	call	_ZNKSt6vectorISt4pairIiiESaIS1_EE4sizeEv	#
	mov	rcx, rax	# _4,
# /usr/include/c++/13/bits/stl_vector.h:603: 	_Alloc_traits::_S_select_on_copy(__x._M_get_Tp_allocator()))
	lea	rax, -89[rbp]	# tmp101,
	mov	rdx, rax	#, tmp101
	mov	rsi, rcx	#, _4
	mov	rdi, rbx	#, _1
.LEHB30:
	call	_ZNSt12_Vector_baseISt4pairIiiESaIS1_EEC2EmRKS2_	#
.LEHE30:
# /usr/include/c++/13/bits/allocator.h:184:       ~allocator() _GLIBCXX_NOTHROW { }
	lea	rax, -89[rbp]	# tmp102,
	mov	rdi, rax	#, tmp102
	call	_ZNSt15__new_allocatorISt4pairIiiEED2Ev	#
	nop	
# /usr/include/c++/13/bits/stl_vector.h:608: 				      _M_get_Tp_allocator());
	mov	rax, QWORD PTR -104[rbp]	# _5, this
	mov	rdi, rax	#, _5
	call	_ZNSt12_Vector_baseISt4pairIiiESaIS1_EE19_M_get_Tp_allocatorEv	#
	mov	r13, rax	# _6,
# /usr/include/c++/13/bits/stl_vector.h:606: 	  std::__uninitialized_copy_a(__x.begin(), __x.end(),
	mov	rax, QWORD PTR -104[rbp]	# tmp103, this
	mov	rbx, QWORD PTR [rax]	# _7, this_12(D)->D.210289._M_impl.D.209628._M_start
	mov	rax, QWORD PTR -112[rbp]	# tmp104, __x
	mov	rdi, rax	#, tmp104
	call	_ZNKSt6vectorISt4pairIiiESaIS1_EE3endEv	#
	mov	r12, rax	# D.232303,
# /usr/include/c++/13/bits/stl_vector.h:606: 	  std::__uninitialized_copy_a(__x.begin(), __x.end(),
	mov	rax, QWORD PTR -112[rbp]	# tmp105, __x
	mov	rdi, rax	#, tmp105
	call	_ZNKSt6vectorISt4pairIiiESaIS1_EE5beginEv	#
# /usr/include/c++/13/bits/stl_vector.h:606: 	  std::__uninitialized_copy_a(__x.begin(), __x.end(),
	mov	rcx, r13	#, _6
	mov	rdx, rbx	#, _7
	mov	rsi, r12	#, D.232303
	mov	rdi, rax	#, D.232304
.LEHB31:
	call	_ZSt22__uninitialized_copy_aIN9__gnu_cxx17__normal_iteratorIPKSt4pairIiiESt6vectorIS3_SaIS3_EEEEPS3_S3_ET0_T_SC_SB_RSaIT1_E	#
.LEHE31:
# /usr/include/c++/13/bits/stl_vector.h:605: 	this->_M_impl._M_finish =
	mov	rdx, QWORD PTR -104[rbp]	# tmp106, this
	mov	QWORD PTR 8[rdx], rax	# this_12(D)->D.210289._M_impl.D.209628._M_finish, _8
# /usr/include/c++/13/bits/stl_vector.h:609:       }
	nop	
	mov	rax, QWORD PTR -40[rbp]	# tmp111, D.233399
	sub	rax, QWORD PTR fs:40	# tmp111, MEM[(<address-space-1> long unsigned int *)40B]
	je	.L502	#,
	jmp	.L505	#
.L503:
	endbr64	
# /usr/include/c++/13/bits/allocator.h:184:       ~allocator() _GLIBCXX_NOTHROW { }
	mov	rbx, rax	# tmp108,
	lea	rax, -89[rbp]	# tmp107,
	mov	rdi, rax	#, tmp107
	call	_ZNSt15__new_allocatorISt4pairIiiEED2Ev	#
	nop	
	mov	rax, rbx	# D.233397, tmp108
	mov	rdx, QWORD PTR -40[rbp]	# tmp112, D.233399
	sub	rdx, QWORD PTR fs:40	# tmp112, MEM[(<address-space-1> long unsigned int *)40B]
	je	.L499	#,
	call	__stack_chk_fail@PLT	#
.L499:
	mov	rdi, rax	#, D.233397
.LEHB32:
	call	_Unwind_Resume@PLT	#
.L504:
	endbr64	
# /usr/include/c++/13/bits/stl_vector.h:609:       }
	mov	rbx, rax	# tmp109,
	mov	rax, QWORD PTR -104[rbp]	# _9, this
	mov	rdi, rax	#, _9
	call	_ZNSt12_Vector_baseISt4pairIiiESaIS1_EED2Ev	#
	mov	rax, rbx	# D.233398, tmp109
	mov	rdx, QWORD PTR -40[rbp]	# tmp113, D.233399
	sub	rdx, QWORD PTR fs:40	# tmp113, MEM[(<address-space-1> long unsigned int *)40B]
	je	.L501	#,
	call	__stack_chk_fail@PLT	#
.L501:
	mov	rdi, rax	#, D.233398
	call	_Unwind_Resume@PLT	#
.LEHE32:
.L505:
	call	__stack_chk_fail@PLT	#
.L502:
	add	rsp, 88	#,
	pop	rbx	#
	pop	r12	#
	pop	r13	#
	pop	rbp	#
	.cfi_def_cfa 7, 8
	ret	
	.cfi_endproc
.LFE11839:
	.section	.gcc_except_table
.LLSDA11839:
	.byte	0xff
	.byte	0xff
	.byte	0x1
	.uleb128 .LLSDACSE11839-.LLSDACSB11839
.LLSDACSB11839:
	.uleb128 .LEHB30-.LFB11839
	.uleb128 .LEHE30-.LEHB30
	.uleb128 .L503-.LFB11839
	.uleb128 0
	.uleb128 .LEHB31-.LFB11839
	.uleb128 .LEHE31-.LEHB31
	.uleb128 .L504-.LFB11839
	.uleb128 0
	.uleb128 .LEHB32-.LFB11839
	.uleb128 .LEHE32-.LEHB32
	.uleb128 0
	.uleb128 0
.LLSDACSE11839:
	.section	.text._ZNSt6vectorISt4pairIiiESaIS1_EEC2ERKS3_,"axG",@progbits,_ZNSt6vectorISt4pairIiiESaIS1_EEC5ERKS3_,comdat
	.size	_ZNSt6vectorISt4pairIiiESaIS1_EEC2ERKS3_, .-_ZNSt6vectorISt4pairIiiESaIS1_EEC2ERKS3_
	.weak	_ZNSt6vectorISt4pairIiiESaIS1_EEC1ERKS3_
	.set	_ZNSt6vectorISt4pairIiiESaIS1_EEC1ERKS3_,_ZNSt6vectorISt4pairIiiESaIS1_EEC2ERKS3_
	.section	.text._ZSt8__fill_aIPiiEvT_S1_RKT0_,"axG",@progbits,_ZSt8__fill_aIPiiEvT_S1_RKT0_,comdat
	.weak	_ZSt8__fill_aIPiiEvT_S1_RKT0_
	.type	_ZSt8__fill_aIPiiEvT_S1_RKT0_, @function
_ZSt8__fill_aIPiiEvT_S1_RKT0_:
.LFB11842:
	.cfi_startproc
	endbr64	
	push	rbp	#
	.cfi_def_cfa_offset 16
	.cfi_offset 6, -16
	mov	rbp, rsp	#,
	.cfi_def_cfa_register 6
	sub	rsp, 32	#,
	mov	QWORD PTR -8[rbp], rdi	# __first, __first
	mov	QWORD PTR -16[rbp], rsi	# __last, __last
	mov	QWORD PTR -24[rbp], rdx	# __value, __value
# /usr/include/c++/13/bits/stl_algobase.h:977:     { std::__fill_a1(__first, __last, __value); }
	mov	rdx, QWORD PTR -24[rbp]	# tmp82, __value
	mov	rcx, QWORD PTR -16[rbp]	# tmp83, __last
	mov	rax, QWORD PTR -8[rbp]	# tmp84, __first
	mov	rsi, rcx	#, tmp83
	mov	rdi, rax	#, tmp84
	call	_ZSt9__fill_a1IPiiEN9__gnu_cxx11__enable_ifIXsrSt11__is_scalarIT0_E7__valueEvE6__typeET_S8_RKS4_	#
# /usr/include/c++/13/bits/stl_algobase.h:977:     { std::__fill_a1(__first, __last, __value); }
	nop	
	leave	
	.cfi_def_cfa 7, 8
	ret	
	.cfi_endproc
.LFE11842:
	.size	_ZSt8__fill_aIPiiEvT_S1_RKT0_, .-_ZSt8__fill_aIPiiEvT_S1_RKT0_
	.section	.text._ZStltIiiEbRKSt4pairIT_T0_ES5_,"axG",@progbits,_ZStltIiiEbRKSt4pairIT_T0_ES5_,comdat
	.weak	_ZStltIiiEbRKSt4pairIT_T0_ES5_
	.type	_ZStltIiiEbRKSt4pairIT_T0_ES5_, @function
_ZStltIiiEbRKSt4pairIT_T0_ES5_:
.LFB11843:
	.cfi_startproc
	endbr64	
	push	rbp	#
	.cfi_def_cfa_offset 16
	.cfi_offset 6, -16
	mov	rbp, rsp	#,
	.cfi_def_cfa_register 6
	mov	QWORD PTR -8[rbp], rdi	# __x, __x
	mov	QWORD PTR -16[rbp], rsi	# __y, __y
# /usr/include/c++/13/bits/stl_pair.h:836:     { return __x.first < __y.first
	mov	rax, QWORD PTR -8[rbp]	# tmp90, __x
	mov	edx, DWORD PTR [rax]	# _1, __x_9(D)->first
# /usr/include/c++/13/bits/stl_pair.h:836:     { return __x.first < __y.first
	mov	rax, QWORD PTR -16[rbp]	# tmp91, __y
	mov	eax, DWORD PTR [rax]	# _2, __y_10(D)->first
# /usr/include/c++/13/bits/stl_pair.h:837: 	     || (!(__y.first < __x.first) && __x.second < __y.second); }
	cmp	edx, eax	# _1, _2
	jl	.L508	#,
# /usr/include/c++/13/bits/stl_pair.h:837: 	     || (!(__y.first < __x.first) && __x.second < __y.second); }
	mov	rax, QWORD PTR -16[rbp]	# tmp92, __y
	mov	edx, DWORD PTR [rax]	# _3, __y_10(D)->first
# /usr/include/c++/13/bits/stl_pair.h:837: 	     || (!(__y.first < __x.first) && __x.second < __y.second); }
	mov	rax, QWORD PTR -8[rbp]	# tmp93, __x
	mov	eax, DWORD PTR [rax]	# _4, __x_9(D)->first
# /usr/include/c++/13/bits/stl_pair.h:837: 	     || (!(__y.first < __x.first) && __x.second < __y.second); }
	cmp	edx, eax	# _3, _4
	jl	.L509	#,
# /usr/include/c++/13/bits/stl_pair.h:837: 	     || (!(__y.first < __x.first) && __x.second < __y.second); }
	mov	rax, QWORD PTR -8[rbp]	# tmp94, __x
	mov	edx, DWORD PTR 4[rax]	# _5, __x_9(D)->second
# /usr/include/c++/13/bits/stl_pair.h:837: 	     || (!(__y.first < __x.first) && __x.second < __y.second); }
	mov	rax, QWORD PTR -16[rbp]	# tmp95, __y
	mov	eax, DWORD PTR 4[rax]	# _6, __y_10(D)->second
# /usr/include/c++/13/bits/stl_pair.h:837: 	     || (!(__y.first < __x.first) && __x.second < __y.second); }
	cmp	edx, eax	# _5, _6
	jge	.L509	#,
.L508:
# /usr/include/c++/13/bits/stl_pair.h:837: 	     || (!(__y.first < __x.first) && __x.second < __y.second); }
	mov	eax, 1	# iftmp.36_7,
# /usr/include/c++/13/bits/stl_pair.h:837: 	     || (!(__y.first < __x.first) && __x.second < __y.second); }
	jmp	.L510	#
.L509:
# /usr/include/c++/13/bits/stl_pair.h:837: 	     || (!(__y.first < __x.first) && __x.second < __y.second); }
	mov	eax, 0	# iftmp.36_7,
.L510:
# /usr/include/c++/13/bits/stl_pair.h:837: 	     || (!(__y.first < __x.first) && __x.second < __y.second); }
	pop	rbp	#
	.cfi_def_cfa 7, 8
	ret	
	.cfi_endproc
.LFE11843:
	.size	_ZStltIiiEbRKSt4pairIT_T0_ES5_, .-_ZStltIiiEbRKSt4pairIT_T0_ES5_
	.section	.text._ZNSt12_Vector_baseISt4pairIiiESaIS1_EEC2EmRKS2_,"axG",@progbits,_ZNSt12_Vector_baseISt4pairIiiESaIS1_EEC5EmRKS2_,comdat
	.align 2
	.weak	_ZNSt12_Vector_baseISt4pairIiiESaIS1_EEC2EmRKS2_
	.type	_ZNSt12_Vector_baseISt4pairIiiESaIS1_EEC2EmRKS2_, @function
_ZNSt12_Vector_baseISt4pairIiiESaIS1_EEC2EmRKS2_:
.LFB11849:
	.cfi_startproc
	.cfi_personality 0x9b,DW.ref.__gxx_personality_v0
	.cfi_lsda 0x1b,.LLSDA11849
	endbr64	
	push	rbp	#
	.cfi_def_cfa_offset 16
	.cfi_offset 6, -16
	mov	rbp, rsp	#,
	.cfi_def_cfa_register 6
	push	rbx	#
	sub	rsp, 40	#,
	.cfi_offset 3, -24
	mov	QWORD PTR -24[rbp], rdi	# this, this
	mov	QWORD PTR -32[rbp], rsi	# __n, __n
	mov	QWORD PTR -40[rbp], rdx	# __a, __a
# /usr/include/c++/13/bits/stl_vector.h:334:       : _M_impl(__a)
	mov	rax, QWORD PTR -24[rbp]	# _1, this
	mov	rdx, QWORD PTR -40[rbp]	# tmp85, __a
	mov	rsi, rdx	#, tmp85
	mov	rdi, rax	#, _1
	call	_ZNSt12_Vector_baseISt4pairIiiESaIS1_EE12_Vector_implC1ERKS2_	#
# /usr/include/c++/13/bits/stl_vector.h:335:       { _M_create_storage(__n); }
	mov	rdx, QWORD PTR -32[rbp]	# tmp86, __n
	mov	rax, QWORD PTR -24[rbp]	# tmp87, this
	mov	rsi, rdx	#, tmp86
	mov	rdi, rax	#, tmp87
.LEHB33:
	call	_ZNSt12_Vector_baseISt4pairIiiESaIS1_EE17_M_create_storageEm	#
.LEHE33:
# /usr/include/c++/13/bits/stl_vector.h:335:       { _M_create_storage(__n); }
	jmp	.L515	#
.L514:
	endbr64	
# /usr/include/c++/13/bits/stl_vector.h:335:       { _M_create_storage(__n); }
	mov	rbx, rax	# tmp88,
	mov	rax, QWORD PTR -24[rbp]	# _2, this
	mov	rdi, rax	#, _2
	call	_ZNSt12_Vector_baseISt4pairIiiESaIS1_EE12_Vector_implD1Ev	#
	mov	rax, rbx	# D.233400, tmp88
	mov	rdi, rax	#, D.233400
.LEHB34:
	call	_Unwind_Resume@PLT	#
.LEHE34:
.L515:
# /usr/include/c++/13/bits/stl_vector.h:335:       { _M_create_storage(__n); }
	mov	rbx, QWORD PTR -8[rbp]	#,
	leave	
	.cfi_def_cfa 7, 8
	ret	
	.cfi_endproc
.LFE11849:
	.section	.gcc_except_table
.LLSDA11849:
	.byte	0xff
	.byte	0xff
	.byte	0x1
	.uleb128 .LLSDACSE11849-.LLSDACSB11849
.LLSDACSB11849:
	.uleb128 .LEHB33-.LFB11849
	.uleb128 .LEHE33-.LEHB33
	.uleb128 .L514-.LFB11849
	.uleb128 0
	.uleb128 .LEHB34-.LFB11849
	.uleb128 .LEHE34-.LEHB34
	.uleb128 0
	.uleb128 0
.LLSDACSE11849:
	.section	.text._ZNSt12_Vector_baseISt4pairIiiESaIS1_EEC2EmRKS2_,"axG",@progbits,_ZNSt12_Vector_baseISt4pairIiiESaIS1_EEC5EmRKS2_,comdat
	.size	_ZNSt12_Vector_baseISt4pairIiiESaIS1_EEC2EmRKS2_, .-_ZNSt12_Vector_baseISt4pairIiiESaIS1_EEC2EmRKS2_
	.weak	_ZNSt12_Vector_baseISt4pairIiiESaIS1_EEC1EmRKS2_
	.set	_ZNSt12_Vector_baseISt4pairIiiESaIS1_EEC1EmRKS2_,_ZNSt12_Vector_baseISt4pairIiiESaIS1_EEC2EmRKS2_
	.section	.text._ZSt22__uninitialized_copy_aIN9__gnu_cxx17__normal_iteratorIPKSt4pairIiiESt6vectorIS3_SaIS3_EEEEPS3_S3_ET0_T_SC_SB_RSaIT1_E,"axG",@progbits,_ZSt22__uninitialized_copy_aIN9__gnu_cxx17__normal_iteratorIPKSt4pairIiiESt6vectorIS3_SaIS3_EEEEPS3_S3_ET0_T_SC_SB_RSaIT1_E,comdat
	.weak	_ZSt22__uninitialized_copy_aIN9__gnu_cxx17__normal_iteratorIPKSt4pairIiiESt6vectorIS3_SaIS3_EEEEPS3_S3_ET0_T_SC_SB_RSaIT1_E
	.type	_ZSt22__uninitialized_copy_aIN9__gnu_cxx17__normal_iteratorIPKSt4pairIiiESt6vectorIS3_SaIS3_EEEEPS3_S3_ET0_T_SC_SB_RSaIT1_E, @function
_ZSt22__uninitialized_copy_aIN9__gnu_cxx17__normal_iteratorIPKSt4pairIiiESt6vectorIS3_SaIS3_EEEEPS3_S3_ET0_T_SC_SB_RSaIT1_E:
.LFB11851:
	.cfi_startproc
	endbr64	
	push	rbp	#
	.cfi_def_cfa_offset 16
	.cfi_offset 6, -16
	mov	rbp, rsp	#,
	.cfi_def_cfa_register 6
	sub	rsp, 32	#,
	mov	QWORD PTR -8[rbp], rdi	# __first, __first
	mov	QWORD PTR -16[rbp], rsi	# __last, __last
	mov	QWORD PTR -24[rbp], rdx	# __result, __result
	mov	QWORD PTR -32[rbp], rcx	# D.231643, D.231643
# /usr/include/c++/13/bits/stl_uninitialized.h:373:       return std::uninitialized_copy(__first, __last, __result);
	mov	rdx, QWORD PTR -24[rbp]	# tmp84, __result
	mov	rcx, QWORD PTR -16[rbp]	# tmp85, __last
	mov	rax, QWORD PTR -8[rbp]	# tmp86, __first
	mov	rsi, rcx	#, tmp85
	mov	rdi, rax	#, tmp86
	call	_ZSt18uninitialized_copyIN9__gnu_cxx17__normal_iteratorIPKSt4pairIiiESt6vectorIS3_SaIS3_EEEEPS3_ET0_T_SC_SB_	#
# /usr/include/c++/13/bits/stl_uninitialized.h:374:     }
	leave	
	.cfi_def_cfa 7, 8
	ret	
	.cfi_endproc
.LFE11851:
	.size	_ZSt22__uninitialized_copy_aIN9__gnu_cxx17__normal_iteratorIPKSt4pairIiiESt6vectorIS3_SaIS3_EEEEPS3_S3_ET0_T_SC_SB_RSaIT1_E, .-_ZSt22__uninitialized_copy_aIN9__gnu_cxx17__normal_iteratorIPKSt4pairIiiESt6vectorIS3_SaIS3_EEEEPS3_S3_ET0_T_SC_SB_RSaIT1_E
	.section	.text._ZNSt12_Vector_baseISt4pairIiiESaIS1_EE12_Vector_implC2ERKS2_,"axG",@progbits,_ZNSt12_Vector_baseISt4pairIiiESaIS1_EE12_Vector_implC5ERKS2_,comdat
	.align 2
	.weak	_ZNSt12_Vector_baseISt4pairIiiESaIS1_EE12_Vector_implC2ERKS2_
	.type	_ZNSt12_Vector_baseISt4pairIiiESaIS1_EE12_Vector_implC2ERKS2_, @function
_ZNSt12_Vector_baseISt4pairIiiESaIS1_EE12_Vector_implC2ERKS2_:
.LFB11865:
	.cfi_startproc
	endbr64	
	push	rbp	#
	.cfi_def_cfa_offset 16
	.cfi_offset 6, -16
	mov	rbp, rsp	#,
	.cfi_def_cfa_register 6
	sub	rsp, 48	#,
	mov	QWORD PTR -40[rbp], rdi	# this, this
	mov	QWORD PTR -48[rbp], rsi	# __a, __a
	mov	rax, QWORD PTR -40[rbp]	# tmp83, this
	mov	QWORD PTR -32[rbp], rax	# this, tmp83
	mov	rax, QWORD PTR -48[rbp]	# tmp84, __a
	mov	QWORD PTR -24[rbp], rax	# __a, tmp84
	mov	rax, QWORD PTR -32[rbp]	# tmp85, this
	mov	QWORD PTR -16[rbp], rax	# this, tmp85
	mov	rax, QWORD PTR -24[rbp]	# tmp86, __a
	mov	QWORD PTR -8[rbp], rax	# D.233308, tmp86
# /usr/include/c++/13/bits/new_allocator.h:92:       __new_allocator(const __new_allocator&) _GLIBCXX_USE_NOEXCEPT { }
	nop	
# /usr/include/c++/13/bits/allocator.h:168:       : __allocator_base<_Tp>(__a) { }
	nop	
# /usr/include/c++/13/bits/stl_vector.h:147: 	: _Tp_alloc_type(__a)
	mov	rax, QWORD PTR -40[rbp]	# _1, this
	mov	rdi, rax	#, _1
	call	_ZNSt12_Vector_baseISt4pairIiiESaIS1_EE17_Vector_impl_dataC2Ev	#
# /usr/include/c++/13/bits/stl_vector.h:148: 	{ }
	nop	
	leave	
	.cfi_def_cfa 7, 8
	ret	
	.cfi_endproc
.LFE11865:
	.size	_ZNSt12_Vector_baseISt4pairIiiESaIS1_EE12_Vector_implC2ERKS2_, .-_ZNSt12_Vector_baseISt4pairIiiESaIS1_EE12_Vector_implC2ERKS2_
	.weak	_ZNSt12_Vector_baseISt4pairIiiESaIS1_EE12_Vector_implC1ERKS2_
	.set	_ZNSt12_Vector_baseISt4pairIiiESaIS1_EE12_Vector_implC1ERKS2_,_ZNSt12_Vector_baseISt4pairIiiESaIS1_EE12_Vector_implC2ERKS2_
	.section	.text._ZNSt12_Vector_baseISt4pairIiiESaIS1_EE17_M_create_storageEm,"axG",@progbits,_ZNSt12_Vector_baseISt4pairIiiESaIS1_EE17_M_create_storageEm,comdat
	.align 2
	.weak	_ZNSt12_Vector_baseISt4pairIiiESaIS1_EE17_M_create_storageEm
	.type	_ZNSt12_Vector_baseISt4pairIiiESaIS1_EE17_M_create_storageEm, @function
_ZNSt12_Vector_baseISt4pairIiiESaIS1_EE17_M_create_storageEm:
.LFB11867:
	.cfi_startproc
	endbr64	
	push	rbp	#
	.cfi_def_cfa_offset 16
	.cfi_offset 6, -16
	mov	rbp, rsp	#,
	.cfi_def_cfa_register 6
	sub	rsp, 16	#,
	mov	QWORD PTR -8[rbp], rdi	# this, this
	mov	QWORD PTR -16[rbp], rsi	# __n, __n
# /usr/include/c++/13/bits/stl_vector.h:398: 	this->_M_impl._M_start = this->_M_allocate(__n);
	mov	rdx, QWORD PTR -16[rbp]	# tmp87, __n
	mov	rax, QWORD PTR -8[rbp]	# tmp88, this
	mov	rsi, rdx	#, tmp87
	mov	rdi, rax	#, tmp88
	call	_ZNSt12_Vector_baseISt4pairIiiESaIS1_EE11_M_allocateEm	#
# /usr/include/c++/13/bits/stl_vector.h:398: 	this->_M_impl._M_start = this->_M_allocate(__n);
	mov	rdx, QWORD PTR -8[rbp]	# tmp89, this
	mov	QWORD PTR [rdx], rax	# this_7(D)->_M_impl.D.209628._M_start, _1
# /usr/include/c++/13/bits/stl_vector.h:399: 	this->_M_impl._M_finish = this->_M_impl._M_start;
	mov	rax, QWORD PTR -8[rbp]	# tmp90, this
	mov	rdx, QWORD PTR [rax]	# _2, this_7(D)->_M_impl.D.209628._M_start
# /usr/include/c++/13/bits/stl_vector.h:399: 	this->_M_impl._M_finish = this->_M_impl._M_start;
	mov	rax, QWORD PTR -8[rbp]	# tmp91, this
	mov	QWORD PTR 8[rax], rdx	# this_7(D)->_M_impl.D.209628._M_finish, _2
# /usr/include/c++/13/bits/stl_vector.h:400: 	this->_M_impl._M_end_of_storage = this->_M_impl._M_start + __n;
	mov	rax, QWORD PTR -8[rbp]	# tmp92, this
	mov	rax, QWORD PTR [rax]	# _3, this_7(D)->_M_impl.D.209628._M_start
# /usr/include/c++/13/bits/stl_vector.h:400: 	this->_M_impl._M_end_of_storage = this->_M_impl._M_start + __n;
	mov	rdx, QWORD PTR -16[rbp]	# tmp93, __n
	sal	rdx, 3	# _4,
	add	rdx, rax	# _5, _3
# /usr/include/c++/13/bits/stl_vector.h:400: 	this->_M_impl._M_end_of_storage = this->_M_impl._M_start + __n;
	mov	rax, QWORD PTR -8[rbp]	# tmp94, this
	mov	QWORD PTR 16[rax], rdx	# this_7(D)->_M_impl.D.209628._M_end_of_storage, _5
# /usr/include/c++/13/bits/stl_vector.h:401:       }
	nop	
	leave	
	.cfi_def_cfa 7, 8
	ret	
	.cfi_endproc
.LFE11867:
	.size	_ZNSt12_Vector_baseISt4pairIiiESaIS1_EE17_M_create_storageEm, .-_ZNSt12_Vector_baseISt4pairIiiESaIS1_EE17_M_create_storageEm
	.section	.text._ZSt18uninitialized_copyIN9__gnu_cxx17__normal_iteratorIPKSt4pairIiiESt6vectorIS3_SaIS3_EEEEPS3_ET0_T_SC_SB_,"axG",@progbits,_ZSt18uninitialized_copyIN9__gnu_cxx17__normal_iteratorIPKSt4pairIiiESt6vectorIS3_SaIS3_EEEEPS3_ET0_T_SC_SB_,comdat
	.weak	_ZSt18uninitialized_copyIN9__gnu_cxx17__normal_iteratorIPKSt4pairIiiESt6vectorIS3_SaIS3_EEEEPS3_ET0_T_SC_SB_
	.type	_ZSt18uninitialized_copyIN9__gnu_cxx17__normal_iteratorIPKSt4pairIiiESt6vectorIS3_SaIS3_EEEEPS3_ET0_T_SC_SB_, @function
_ZSt18uninitialized_copyIN9__gnu_cxx17__normal_iteratorIPKSt4pairIiiESt6vectorIS3_SaIS3_EEEEPS3_ET0_T_SC_SB_:
.LFB11868:
	.cfi_startproc
	endbr64	
	push	rbp	#
	.cfi_def_cfa_offset 16
	.cfi_offset 6, -16
	mov	rbp, rsp	#,
	.cfi_def_cfa_register 6
	sub	rsp, 48	#,
	mov	QWORD PTR -24[rbp], rdi	# __first, __first
	mov	QWORD PTR -32[rbp], rsi	# __last, __last
	mov	QWORD PTR -40[rbp], rdx	# __result, __result
# /usr/include/c++/13/bits/stl_uninitialized.h:174:       const bool __can_memmove = __is_trivial(_ValueType1);
	mov	BYTE PTR -2[rbp], 0	# __can_memmove,
# /usr/include/c++/13/bits/stl_uninitialized.h:181:       const bool __assignable
	mov	BYTE PTR -1[rbp], 0	# __assignable,
# /usr/include/c++/13/bits/stl_uninitialized.h:185: 	__uninit_copy(__first, __last, __result);
	mov	rdx, QWORD PTR -40[rbp]	# tmp84, __result
	mov	rcx, QWORD PTR -32[rbp]	# tmp85, __last
	mov	rax, QWORD PTR -24[rbp]	# tmp86, __first
	mov	rsi, rcx	#, tmp85
	mov	rdi, rax	#, tmp86
	call	_ZNSt20__uninitialized_copyILb0EE13__uninit_copyIN9__gnu_cxx17__normal_iteratorIPKSt4pairIiiESt6vectorIS5_SaIS5_EEEEPS5_EET0_T_SE_SD_	#
# /usr/include/c++/13/bits/stl_uninitialized.h:186:     }
	leave	
	.cfi_def_cfa 7, 8
	ret	
	.cfi_endproc
.LFE11868:
	.size	_ZSt18uninitialized_copyIN9__gnu_cxx17__normal_iteratorIPKSt4pairIiiESt6vectorIS3_SaIS3_EEEEPS3_ET0_T_SC_SB_, .-_ZSt18uninitialized_copyIN9__gnu_cxx17__normal_iteratorIPKSt4pairIiiESt6vectorIS3_SaIS3_EEEEPS3_ET0_T_SC_SB_
	.section	.text._ZNSt20__uninitialized_copyILb0EE13__uninit_copyIN9__gnu_cxx17__normal_iteratorIPKSt4pairIiiESt6vectorIS5_SaIS5_EEEEPS5_EET0_T_SE_SD_,"axG",@progbits,_ZNSt20__uninitialized_copyILb0EE13__uninit_copyIN9__gnu_cxx17__normal_iteratorIPKSt4pairIiiESt6vectorIS5_SaIS5_EEEEPS5_EET0_T_SE_SD_,comdat
	.weak	_ZNSt20__uninitialized_copyILb0EE13__uninit_copyIN9__gnu_cxx17__normal_iteratorIPKSt4pairIiiESt6vectorIS5_SaIS5_EEEEPS5_EET0_T_SE_SD_
	.type	_ZNSt20__uninitialized_copyILb0EE13__uninit_copyIN9__gnu_cxx17__normal_iteratorIPKSt4pairIiiESt6vectorIS5_SaIS5_EEEEPS5_EET0_T_SE_SD_, @function
_ZNSt20__uninitialized_copyILb0EE13__uninit_copyIN9__gnu_cxx17__normal_iteratorIPKSt4pairIiiESt6vectorIS5_SaIS5_EEEEPS5_EET0_T_SE_SD_:
.LFB11874:
	.cfi_startproc
	endbr64	
	push	rbp	#
	.cfi_def_cfa_offset 16
	.cfi_offset 6, -16
	mov	rbp, rsp	#,
	.cfi_def_cfa_register 6
	sub	rsp, 32	#,
	mov	QWORD PTR -8[rbp], rdi	# __first, __first
	mov	QWORD PTR -16[rbp], rsi	# __last, __last
	mov	QWORD PTR -24[rbp], rdx	# __result, __result
# /usr/include/c++/13/bits/stl_uninitialized.h:137: 	{ return std::__do_uninit_copy(__first, __last, __result); }
	mov	rdx, QWORD PTR -24[rbp]	# tmp84, __result
	mov	rcx, QWORD PTR -16[rbp]	# tmp85, __last
	mov	rax, QWORD PTR -8[rbp]	# tmp86, __first
	mov	rsi, rcx	#, tmp85
	mov	rdi, rax	#, tmp86
	call	_ZSt16__do_uninit_copyIN9__gnu_cxx17__normal_iteratorIPKSt4pairIiiESt6vectorIS3_SaIS3_EEEEPS3_ET0_T_SC_SB_	#
# /usr/include/c++/13/bits/stl_uninitialized.h:137: 	{ return std::__do_uninit_copy(__first, __last, __result); }
	leave	
	.cfi_def_cfa 7, 8
	ret	
	.cfi_endproc
.LFE11874:
	.size	_ZNSt20__uninitialized_copyILb0EE13__uninit_copyIN9__gnu_cxx17__normal_iteratorIPKSt4pairIiiESt6vectorIS5_SaIS5_EEEEPS5_EET0_T_SE_SD_, .-_ZNSt20__uninitialized_copyILb0EE13__uninit_copyIN9__gnu_cxx17__normal_iteratorIPKSt4pairIiiESt6vectorIS5_SaIS5_EEEEPS5_EET0_T_SE_SD_
	.section	.text._ZSt16__do_uninit_copyIN9__gnu_cxx17__normal_iteratorIPKSt4pairIiiESt6vectorIS3_SaIS3_EEEEPS3_ET0_T_SC_SB_,"axG",@progbits,_ZSt16__do_uninit_copyIN9__gnu_cxx17__normal_iteratorIPKSt4pairIiiESt6vectorIS3_SaIS3_EEEEPS3_ET0_T_SC_SB_,comdat
	.weak	_ZSt16__do_uninit_copyIN9__gnu_cxx17__normal_iteratorIPKSt4pairIiiESt6vectorIS3_SaIS3_EEEEPS3_ET0_T_SC_SB_
	.type	_ZSt16__do_uninit_copyIN9__gnu_cxx17__normal_iteratorIPKSt4pairIiiESt6vectorIS3_SaIS3_EEEEPS3_ET0_T_SC_SB_, @function
_ZSt16__do_uninit_copyIN9__gnu_cxx17__normal_iteratorIPKSt4pairIiiESt6vectorIS3_SaIS3_EEEEPS3_ET0_T_SC_SB_:
.LFB11879:
	.cfi_startproc
	endbr64	
	push	rbp	#
	.cfi_def_cfa_offset 16
	.cfi_offset 6, -16
	mov	rbp, rsp	#,
	.cfi_def_cfa_register 6
	push	rbx	#
	sub	rsp, 56	#,
	.cfi_offset 3, -24
	mov	QWORD PTR -40[rbp], rdi	# __first, __first
	mov	QWORD PTR -48[rbp], rsi	# __last, __last
	mov	QWORD PTR -56[rbp], rdx	# __result, __result
# /usr/include/c++/13/bits/stl_uninitialized.h:116:       _ForwardIterator __cur = __result;
	mov	rax, QWORD PTR -56[rbp]	# tmp88, __result
	mov	QWORD PTR -24[rbp], rax	# __cur, tmp88
# /usr/include/c++/13/bits/stl_uninitialized.h:119: 	  for (; __first != __last; ++__first, (void)++__cur)
	jmp	.L525	#
.L526:
# /usr/include/c++/13/bits/stl_uninitialized.h:120: 	    std::_Construct(std::__addressof(*__cur), *__first);
	lea	rax, -40[rbp]	# tmp89,
	mov	rdi, rax	#, tmp89
	call	_ZNK9__gnu_cxx17__normal_iteratorIPKSt4pairIiiESt6vectorIS2_SaIS2_EEEdeEv	#
	mov	rbx, rax	# _1,
# /usr/include/c++/13/bits/stl_uninitialized.h:120: 	    std::_Construct(std::__addressof(*__cur), *__first);
	mov	rax, QWORD PTR -24[rbp]	# tmp90, __cur
	mov	rdi, rax	#, tmp90
	call	_ZSt11__addressofISt4pairIiiEEPT_RS2_	#
# /usr/include/c++/13/bits/stl_uninitialized.h:120: 	    std::_Construct(std::__addressof(*__cur), *__first);
	mov	rsi, rbx	#, _1
	mov	rdi, rax	#, _2
	call	_ZSt10_ConstructISt4pairIiiEJRKS1_EEvPT_DpOT0_	#
# /usr/include/c++/13/bits/stl_uninitialized.h:119: 	  for (; __first != __last; ++__first, (void)++__cur)
	lea	rax, -40[rbp]	# tmp91,
	mov	rdi, rax	#, tmp91
	call	_ZN9__gnu_cxx17__normal_iteratorIPKSt4pairIiiESt6vectorIS2_SaIS2_EEEppEv	#
# /usr/include/c++/13/bits/stl_uninitialized.h:119: 	  for (; __first != __last; ++__first, (void)++__cur)
	add	QWORD PTR -24[rbp], 8	# __cur,
.L525:
# /usr/include/c++/13/bits/stl_uninitialized.h:119: 	  for (; __first != __last; ++__first, (void)++__cur)
	lea	rdx, -48[rbp]	# tmp92,
	lea	rax, -40[rbp]	# tmp93,
	mov	rsi, rdx	#, tmp92
	mov	rdi, rax	#, tmp93
	call	_ZN9__gnu_cxxneIPKSt4pairIiiESt6vectorIS2_SaIS2_EEEEbRKNS_17__normal_iteratorIT_T0_EESD_	#
	test	al, al	# retval.12_10
	jne	.L526	#,
# /usr/include/c++/13/bits/stl_uninitialized.h:121: 	  return __cur;
	mov	rax, QWORD PTR -24[rbp]	# _11, __cur
# /usr/include/c++/13/bits/stl_uninitialized.h:128:     }
	mov	rbx, QWORD PTR -8[rbp]	#,
	leave	
	.cfi_def_cfa 7, 8
	ret	
	.cfi_endproc
.LFE11879:
	.size	_ZSt16__do_uninit_copyIN9__gnu_cxx17__normal_iteratorIPKSt4pairIiiESt6vectorIS3_SaIS3_EEEEPS3_ET0_T_SC_SB_, .-_ZSt16__do_uninit_copyIN9__gnu_cxx17__normal_iteratorIPKSt4pairIiiESt6vectorIS3_SaIS3_EEEEPS3_ET0_T_SC_SB_
	.section	.text._ZN9__gnu_cxxneIPKSt4pairIiiESt6vectorIS2_SaIS2_EEEEbRKNS_17__normal_iteratorIT_T0_EESD_,"axG",@progbits,_ZN9__gnu_cxxneIPKSt4pairIiiESt6vectorIS2_SaIS2_EEEEbRKNS_17__normal_iteratorIT_T0_EESD_,comdat
	.weak	_ZN9__gnu_cxxneIPKSt4pairIiiESt6vectorIS2_SaIS2_EEEEbRKNS_17__normal_iteratorIT_T0_EESD_
	.type	_ZN9__gnu_cxxneIPKSt4pairIiiESt6vectorIS2_SaIS2_EEEEbRKNS_17__normal_iteratorIT_T0_EESD_, @function
_ZN9__gnu_cxxneIPKSt4pairIiiESt6vectorIS2_SaIS2_EEEEbRKNS_17__normal_iteratorIT_T0_EESD_:
.LFB11880:
	.cfi_startproc
	endbr64	
	push	rbp	#
	.cfi_def_cfa_offset 16
	.cfi_offset 6, -16
	mov	rbp, rsp	#,
	.cfi_def_cfa_register 6
	push	rbx	#
	sub	rsp, 24	#,
	.cfi_offset 3, -24
	mov	QWORD PTR -24[rbp], rdi	# __lhs, __lhs
	mov	QWORD PTR -32[rbp], rsi	# __rhs, __rhs
# /usr/include/c++/13/bits/stl_iterator.h:1244:     { return __lhs.base() != __rhs.base(); }
	mov	rax, QWORD PTR -24[rbp]	# tmp88, __lhs
	mov	rdi, rax	#, tmp88
	call	_ZNK9__gnu_cxx17__normal_iteratorIPKSt4pairIiiESt6vectorIS2_SaIS2_EEE4baseEv	#
# /usr/include/c++/13/bits/stl_iterator.h:1244:     { return __lhs.base() != __rhs.base(); }
	mov	rbx, QWORD PTR [rax]	# _2, *_1
# /usr/include/c++/13/bits/stl_iterator.h:1244:     { return __lhs.base() != __rhs.base(); }
	mov	rax, QWORD PTR -32[rbp]	# tmp89, __rhs
	mov	rdi, rax	#, tmp89
	call	_ZNK9__gnu_cxx17__normal_iteratorIPKSt4pairIiiESt6vectorIS2_SaIS2_EEE4baseEv	#
# /usr/include/c++/13/bits/stl_iterator.h:1244:     { return __lhs.base() != __rhs.base(); }
	mov	rax, QWORD PTR [rax]	# _4, *_3
# /usr/include/c++/13/bits/stl_iterator.h:1244:     { return __lhs.base() != __rhs.base(); }
	cmp	rbx, rax	# _2, _4
	setne	al	#, _10
# /usr/include/c++/13/bits/stl_iterator.h:1244:     { return __lhs.base() != __rhs.base(); }
	mov	rbx, QWORD PTR -8[rbp]	#,
	leave	
	.cfi_def_cfa 7, 8
	ret	
	.cfi_endproc
.LFE11880:
	.size	_ZN9__gnu_cxxneIPKSt4pairIiiESt6vectorIS2_SaIS2_EEEEbRKNS_17__normal_iteratorIT_T0_EESD_, .-_ZN9__gnu_cxxneIPKSt4pairIiiESt6vectorIS2_SaIS2_EEEEbRKNS_17__normal_iteratorIT_T0_EESD_
	.section	.text._ZN9__gnu_cxx17__normal_iteratorIPKSt4pairIiiESt6vectorIS2_SaIS2_EEEppEv,"axG",@progbits,_ZN9__gnu_cxx17__normal_iteratorIPKSt4pairIiiESt6vectorIS2_SaIS2_EEEppEv,comdat
	.align 2
	.weak	_ZN9__gnu_cxx17__normal_iteratorIPKSt4pairIiiESt6vectorIS2_SaIS2_EEEppEv
	.type	_ZN9__gnu_cxx17__normal_iteratorIPKSt4pairIiiESt6vectorIS2_SaIS2_EEEppEv, @function
_ZN9__gnu_cxx17__normal_iteratorIPKSt4pairIiiESt6vectorIS2_SaIS2_EEEppEv:
.LFB11881:
	.cfi_startproc
	endbr64	
	push	rbp	#
	.cfi_def_cfa_offset 16
	.cfi_offset 6, -16
	mov	rbp, rsp	#,
	.cfi_def_cfa_register 6
	mov	QWORD PTR -8[rbp], rdi	# this, this
# /usr/include/c++/13/bits/stl_iterator.h:1111: 	++_M_current;
	mov	rax, QWORD PTR -8[rbp]	# tmp86, this
	mov	rax, QWORD PTR [rax]	# _1, this_4(D)->_M_current
# /usr/include/c++/13/bits/stl_iterator.h:1111: 	++_M_current;
	lea	rdx, 8[rax]	# _2,
	mov	rax, QWORD PTR -8[rbp]	# tmp87, this
	mov	QWORD PTR [rax], rdx	# this_4(D)->_M_current, _2
# /usr/include/c++/13/bits/stl_iterator.h:1112: 	return *this;
	mov	rax, QWORD PTR -8[rbp]	# _6, this
# /usr/include/c++/13/bits/stl_iterator.h:1113:       }
	pop	rbp	#
	.cfi_def_cfa 7, 8
	ret	
	.cfi_endproc
.LFE11881:
	.size	_ZN9__gnu_cxx17__normal_iteratorIPKSt4pairIiiESt6vectorIS2_SaIS2_EEEppEv, .-_ZN9__gnu_cxx17__normal_iteratorIPKSt4pairIiiESt6vectorIS2_SaIS2_EEEppEv
	.section	.text._ZSt10_ConstructISt4pairIiiEJRKS1_EEvPT_DpOT0_,"axG",@progbits,_ZSt10_ConstructISt4pairIiiEJRKS1_EEvPT_DpOT0_,comdat
	.weak	_ZSt10_ConstructISt4pairIiiEJRKS1_EEvPT_DpOT0_
	.type	_ZSt10_ConstructISt4pairIiiEJRKS1_EEvPT_DpOT0_, @function
_ZSt10_ConstructISt4pairIiiEJRKS1_EEvPT_DpOT0_:
.LFB11882:
	.cfi_startproc
	endbr64	
	push	rbp	#
	.cfi_def_cfa_offset 16
	.cfi_offset 6, -16
	mov	rbp, rsp	#,
	.cfi_def_cfa_register 6
	push	rbx	#
	sub	rsp, 24	#,
	.cfi_offset 3, -24
	mov	QWORD PTR -24[rbp], rdi	# __p, __p
	mov	QWORD PTR -32[rbp], rsi	# __args#0, __args#0
# /usr/include/c++/13/bits/stl_construct.h:119:       ::new((void*)__p) _Tp(std::forward<_Args>(__args)...);
	mov	rax, QWORD PTR -24[rbp]	# _3, __p
# /usr/include/c++/13/bits/stl_construct.h:119:       ::new((void*)__p) _Tp(std::forward<_Args>(__args)...);
	mov	rsi, rax	#, _3
	mov	edi, 8	#,
	call	_ZnwmPv	#
	mov	rbx, rax	# _6,
# /usr/include/c++/13/bits/stl_construct.h:119:       ::new((void*)__p) _Tp(std::forward<_Args>(__args)...);
	mov	rax, QWORD PTR -32[rbp]	# tmp87, __args#0
	mov	rdi, rax	#, tmp87
	call	_ZSt7forwardIRKSt4pairIiiEEOT_RNSt16remove_referenceIS4_E4typeE	#
# /usr/include/c++/13/bits/stl_construct.h:119:       ::new((void*)__p) _Tp(std::forward<_Args>(__args)...);
	mov	rax, QWORD PTR [rax]	# tmp88, *_1
	mov	QWORD PTR [rbx], rax	# MEM[(struct pair *)_6], tmp88
# /usr/include/c++/13/bits/stl_construct.h:120:     }
	nop	
	mov	rbx, QWORD PTR -8[rbp]	#,
	leave	
	.cfi_def_cfa 7, 8
	ret	
	.cfi_endproc
.LFE11882:
	.size	_ZSt10_ConstructISt4pairIiiEJRKS1_EEvPT_DpOT0_, .-_ZSt10_ConstructISt4pairIiiEJRKS1_EEvPT_DpOT0_
	.section	.text._ZSt7forwardIRKSt4pairIiiEEOT_RNSt16remove_referenceIS4_E4typeE,"axG",@progbits,_ZSt7forwardIRKSt4pairIiiEEOT_RNSt16remove_referenceIS4_E4typeE,comdat
	.weak	_ZSt7forwardIRKSt4pairIiiEEOT_RNSt16remove_referenceIS4_E4typeE
	.type	_ZSt7forwardIRKSt4pairIiiEEOT_RNSt16remove_referenceIS4_E4typeE, @function
_ZSt7forwardIRKSt4pairIiiEEOT_RNSt16remove_referenceIS4_E4typeE:
.LFB11883:
	.cfi_startproc
	endbr64	
	push	rbp	#
	.cfi_def_cfa_offset 16
	.cfi_offset 6, -16
	mov	rbp, rsp	#,
	.cfi_def_cfa_register 6
	mov	QWORD PTR -8[rbp], rdi	# __t, __t
# /usr/include/c++/13/bits/move.h:71:     { return static_cast<_Tp&&>(__t); }
	mov	rax, QWORD PTR -8[rbp]	# _2, __t
# /usr/include/c++/13/bits/move.h:71:     { return static_cast<_Tp&&>(__t); }
	pop	rbp	#
	.cfi_def_cfa 7, 8
	ret	
	.cfi_endproc
.LFE11883:
	.size	_ZSt7forwardIRKSt4pairIiiEEOT_RNSt16remove_referenceIS4_E4typeE, .-_ZSt7forwardIRKSt4pairIiiEEOT_RNSt16remove_referenceIS4_E4typeE
	.section	.rodata
	.type	_ZNSt8__detail30__integer_to_chars_is_unsignedIjEE, @object
	.size	_ZNSt8__detail30__integer_to_chars_is_unsignedIjEE, 1
_ZNSt8__detail30__integer_to_chars_is_unsignedIjEE:
	.byte	1
	.type	_ZNSt8__detail30__integer_to_chars_is_unsignedImEE, @object
	.size	_ZNSt8__detail30__integer_to_chars_is_unsignedImEE, 1
_ZNSt8__detail30__integer_to_chars_is_unsignedImEE:
	.byte	1
	.type	_ZNSt8__detail30__integer_to_chars_is_unsignedIyEE, @object
	.size	_ZNSt8__detail30__integer_to_chars_is_unsignedIyEE, 1
_ZNSt8__detail30__integer_to_chars_is_unsignedIyEE:
	.byte	1
	.type	_ZSt12__is_ratio_vISt5ratioILl1ELl1000000000EEE, @object
	.size	_ZSt12__is_ratio_vISt5ratioILl1ELl1000000000EEE, 1
_ZSt12__is_ratio_vISt5ratioILl1ELl1000000000EEE:
	.byte	1
	.type	_ZSt12__is_ratio_vISt5ratioILl1ELl1EEE, @object
	.size	_ZSt12__is_ratio_vISt5ratioILl1ELl1EEE, 1
_ZSt12__is_ratio_vISt5ratioILl1ELl1EEE:
	.byte	1
	.type	_ZSt12__is_ratio_vISt5ratioILl1000000000ELl1EEE, @object
	.size	_ZSt12__is_ratio_vISt5ratioILl1000000000ELl1EEE, 1
_ZSt12__is_ratio_vISt5ratioILl1000000000ELl1EEE:
	.byte	1
	.type	_ZNSt8__detail30__integer_to_chars_is_unsignedIoEE, @object
	.size	_ZNSt8__detail30__integer_to_chars_is_unsignedIoEE, 1
_ZNSt8__detail30__integer_to_chars_is_unsignedIoEE:
	.byte	1
	.hidden	DW.ref.__gxx_personality_v0
	.weak	DW.ref.__gxx_personality_v0
	.section	.data.rel.local.DW.ref.__gxx_personality_v0,"awG",@progbits,DW.ref.__gxx_personality_v0,comdat
	.align 8
	.type	DW.ref.__gxx_personality_v0, @object
	.size	DW.ref.__gxx_personality_v0, 8
DW.ref.__gxx_personality_v0:
	.quad	__gxx_personality_v0
	.ident	"GCC: (Ubuntu 13.2.0-23ubuntu4) 13.2.0"
	.section	.note.GNU-stack,"",@progbits
	.section	.note.gnu.property,"a"
	.align 8
	.long	1f - 0f
	.long	4f - 1f
	.long	5
0:
	.string	"GNU"
1:
	.align 8
	.long	0xc0000002
	.long	3f - 2f
2:
	.long	0x3
3:
	.align 8
4:
