	.file	"Ternary_Search.cpp"
	.intel_syntax noprefix
# GNU C++17 (Ubuntu 13.2.0-23ubuntu4) version 13.2.0 (x86_64-linux-gnu)
#	compiled by GNU C version 13.2.0, GMP version 6.3.0, MPFR version 4.2.1, MPC version 1.3.1, isl version isl-0.26-GMP

# GGC heuristics: --param ggc-min-expand=100 --param ggc-min-heapsize=131072
# options passed: -masm=intel -mtune=generic -march=x86-64 -O0 -fasynchronous-unwind-tables -fstack-protector-strong -fstack-clash-protection -fcf-protection
	.text
	.section	.text._ZSt17__size_to_integerm,"axG",@progbits,_ZSt17__size_to_integerm,comdat
	.weak	_ZSt17__size_to_integerm
	.type	_ZSt17__size_to_integerm, @function
_ZSt17__size_to_integerm:
.LFB354:
	.cfi_startproc
	endbr64	
	push	rbp	#
	.cfi_def_cfa_offset 16
	.cfi_offset 6, -16
	mov	rbp, rsp	#,
	.cfi_def_cfa_register 6
	mov	QWORD PTR -8[rbp], rdi	# __n, __n
# /usr/include/c++/13/bits/stl_algobase.h:1018:   __size_to_integer(unsigned long __n) { return __n; }
	mov	rax, QWORD PTR -8[rbp]	# _2, __n
# /usr/include/c++/13/bits/stl_algobase.h:1018:   __size_to_integer(unsigned long __n) { return __n; }
	pop	rbp	#
	.cfi_def_cfa 7, 8
	ret	
	.cfi_endproc
.LFE354:
	.size	_ZSt17__size_to_integerm, .-_ZSt17__size_to_integerm
	.section	.text._ZnwmPv,"axG",@progbits,_ZnwmPv,comdat
	.weak	_ZnwmPv
	.type	_ZnwmPv, @function
_ZnwmPv:
.LFB471:
	.cfi_startproc
	endbr64	
	push	rbp	#
	.cfi_def_cfa_offset 16
	.cfi_offset 6, -16
	mov	rbp, rsp	#,
	.cfi_def_cfa_register 6
	mov	QWORD PTR -8[rbp], rdi	# D.15836, D.15836
	mov	QWORD PTR -16[rbp], rsi	# __p, __p
# /usr/include/c++/13/new:175: { return __p; }
	mov	rax, QWORD PTR -16[rbp]	# _2, __p
# /usr/include/c++/13/new:175: { return __p; }
	pop	rbp	#
	.cfi_def_cfa 7, 8
	ret	
	.cfi_endproc
.LFE471:
	.size	_ZnwmPv, .-_ZnwmPv
	.section	.text._ZSt3minImERKT_S2_S2_,"axG",@progbits,_ZSt3minImERKT_S2_S2_,comdat
	.weak	_ZSt3minImERKT_S2_S2_
	.type	_ZSt3minImERKT_S2_S2_, @function
_ZSt3minImERKT_S2_S2_:
.LFB1923:
	.cfi_startproc
	endbr64	
	push	rbp	#
	.cfi_def_cfa_offset 16
	.cfi_offset 6, -16
	mov	rbp, rsp	#,
	.cfi_def_cfa_register 6
	mov	QWORD PTR -8[rbp], rdi	# __a, __a
	mov	QWORD PTR -16[rbp], rsi	# __b, __b
# /usr/include/c++/13/bits/stl_algobase.h:238:       if (__b < __a)
	mov	rax, QWORD PTR -16[rbp]	# tmp86, __b
	mov	rdx, QWORD PTR [rax]	# _1, *__b_5(D)
	mov	rax, QWORD PTR -8[rbp]	# tmp87, __a
	mov	rax, QWORD PTR [rax]	# _2, *__a_6(D)
# /usr/include/c++/13/bits/stl_algobase.h:238:       if (__b < __a)
	cmp	rdx, rax	# _1, _2
	jnb	.L6	#,
# /usr/include/c++/13/bits/stl_algobase.h:239: 	return __b;
	mov	rax, QWORD PTR -16[rbp]	# _3, __b
	jmp	.L7	#
.L6:
# /usr/include/c++/13/bits/stl_algobase.h:240:       return __a;
	mov	rax, QWORD PTR -8[rbp]	# _3, __a
.L7:
# /usr/include/c++/13/bits/stl_algobase.h:241:     }
	pop	rbp	#
	.cfi_def_cfa 7, 8
	ret	
	.cfi_endproc
.LFE1923:
	.size	_ZSt3minImERKT_S2_S2_, .-_ZSt3minImERKT_S2_S2_
#APP
	.globl _ZSt21ios_base_library_initv
#NO_APP
	.text
	.globl	_Z14ternary_searchRSt6vectorIiSaIiEEiii
	.type	_Z14ternary_searchRSt6vectorIiSaIiEEiii, @function
_Z14ternary_searchRSt6vectorIiSaIiEEiii:
.LFB9770:
	.cfi_startproc
	endbr64	
	push	rbp	#
	.cfi_def_cfa_offset 16
	.cfi_offset 6, -16
	mov	rbp, rsp	#,
	.cfi_def_cfa_register 6
	sub	rsp, 48	#,
	mov	QWORD PTR -24[rbp], rdi	# vec, vec
	mov	DWORD PTR -28[rbp], esi	# l, l
	mov	DWORD PTR -32[rbp], edx	# r, r
	mov	DWORD PTR -36[rbp], ecx	# x, x
# Ternary_Search.cpp:6:     if (r >= l) {
	mov	eax, DWORD PTR -32[rbp]	# tmp108, r
	cmp	eax, DWORD PTR -28[rbp]	# tmp108, l
	jl	.L9	#,
# Ternary_Search.cpp:7: 	int mid1 = l + (r - l) / 3;
	mov	eax, DWORD PTR -32[rbp]	# tmp109, r
	sub	eax, DWORD PTR -28[rbp]	# _1, l
# Ternary_Search.cpp:7: 	int mid1 = l + (r - l) / 3;
	movsx	rdx, eax	# tmp110, _1
	imul	rdx, rdx, 1431655766	# tmp111, tmp110,
	shr	rdx, 32	# tmp112,
	sar	eax, 31	# tmp113,
	sub	edx, eax	# _2, tmp113
# Ternary_Search.cpp:7: 	int mid1 = l + (r - l) / 3;
	mov	eax, DWORD PTR -28[rbp]	# tmp117, l
	add	eax, edx	# tmp116, _2
	mov	DWORD PTR -8[rbp], eax	# mid1, tmp116
# Ternary_Search.cpp:8: 	int mid2 = r - (r - l) / 3;
	mov	eax, DWORD PTR -32[rbp]	# tmp118, r
	sub	eax, DWORD PTR -28[rbp]	# _3, l
# Ternary_Search.cpp:8: 	int mid2 = r - (r - l) / 3;
	movsx	rdx, eax	# tmp119, _3
	imul	rdx, rdx, 1431655766	# tmp120, tmp119,
	shr	rdx, 32	# tmp121,
	sar	eax, 31	# tmp122,
	sub	eax, edx	# tmp122, tmp121
	mov	ecx, eax	# _4, tmp122
# Ternary_Search.cpp:8: 	int mid2 = r - (r - l) / 3;
	mov	eax, DWORD PTR -32[rbp]	# tmp126, r
	add	eax, ecx	# tmp125, _4
	mov	DWORD PTR -4[rbp], eax	# mid2, tmp125
# Ternary_Search.cpp:9: 	if (vec[mid1] == x)
	mov	eax, DWORD PTR -8[rbp]	# tmp127, mid1
	movsx	rdx, eax	# _5, tmp127
	mov	rax, QWORD PTR -24[rbp]	# tmp128, vec
	mov	rsi, rdx	#, _5
	mov	rdi, rax	#, tmp128
	call	_ZNSt6vectorIiSaIiEEixEm	#
# Ternary_Search.cpp:9: 	if (vec[mid1] == x)
	mov	eax, DWORD PTR [rax]	# _7, *_6
	cmp	DWORD PTR -36[rbp], eax	# x, _7
	sete	al	#, retval.0_32
# Ternary_Search.cpp:9: 	if (vec[mid1] == x)
	test	al, al	# retval.0_32
	je	.L10	#,
# Ternary_Search.cpp:10: 	    return mid1;
	mov	eax, DWORD PTR -8[rbp]	# _21, mid1
	jmp	.L11	#
.L10:
# Ternary_Search.cpp:11: 	if (vec[mid2] == x)
	mov	eax, DWORD PTR -4[rbp]	# tmp129, mid2
	movsx	rdx, eax	# _8, tmp129
	mov	rax, QWORD PTR -24[rbp]	# tmp130, vec
	mov	rsi, rdx	#, _8
	mov	rdi, rax	#, tmp130
	call	_ZNSt6vectorIiSaIiEEixEm	#
# Ternary_Search.cpp:11: 	if (vec[mid2] == x)
	mov	eax, DWORD PTR [rax]	# _10, *_9
	cmp	DWORD PTR -36[rbp], eax	# x, _10
	sete	al	#, retval.1_34
# Ternary_Search.cpp:11: 	if (vec[mid2] == x)
	test	al, al	# retval.1_34
	je	.L12	#,
# Ternary_Search.cpp:12: 	    return mid2;
	mov	eax, DWORD PTR -4[rbp]	# _21, mid2
	jmp	.L11	#
.L12:
# Ternary_Search.cpp:13: 	if (x < vec[mid1])
	mov	eax, DWORD PTR -8[rbp]	# tmp131, mid1
	movsx	rdx, eax	# _11, tmp131
	mov	rax, QWORD PTR -24[rbp]	# tmp132, vec
	mov	rsi, rdx	#, _11
	mov	rdi, rax	#, tmp132
	call	_ZNSt6vectorIiSaIiEEixEm	#
# Ternary_Search.cpp:13: 	if (x < vec[mid1])
	mov	eax, DWORD PTR [rax]	# _13, *_12
	cmp	DWORD PTR -36[rbp], eax	# x, _13
	setl	al	#, retval.2_36
# Ternary_Search.cpp:13: 	if (x < vec[mid1])
	test	al, al	# retval.2_36
	je	.L13	#,
# Ternary_Search.cpp:14: 	    return ternary_search(vec, l, mid1 - 1, x);
	mov	eax, DWORD PTR -8[rbp]	# tmp133, mid1
	lea	edi, -1[rax]	# _14,
	mov	edx, DWORD PTR -36[rbp]	# tmp134, x
	mov	esi, DWORD PTR -28[rbp]	# tmp135, l
	mov	rax, QWORD PTR -24[rbp]	# tmp136, vec
	mov	ecx, edx	#, tmp134
	mov	edx, edi	#, _14
	mov	rdi, rax	#, tmp136
	call	_Z14ternary_searchRSt6vectorIiSaIiEEiii	#
# Ternary_Search.cpp:14: 	    return ternary_search(vec, l, mid1 - 1, x);
	jmp	.L11	#
.L13:
# Ternary_Search.cpp:15: 	else if (x > vec[mid2])
	mov	eax, DWORD PTR -4[rbp]	# tmp137, mid2
	movsx	rdx, eax	# _15, tmp137
	mov	rax, QWORD PTR -24[rbp]	# tmp138, vec
	mov	rsi, rdx	#, _15
	mov	rdi, rax	#, tmp138
	call	_ZNSt6vectorIiSaIiEEixEm	#
# Ternary_Search.cpp:15: 	else if (x > vec[mid2])
	mov	eax, DWORD PTR [rax]	# _17, *_16
	cmp	DWORD PTR -36[rbp], eax	# x, _17
	setg	al	#, retval.3_38
# Ternary_Search.cpp:15: 	else if (x > vec[mid2])
	test	al, al	# retval.3_38
	je	.L14	#,
# Ternary_Search.cpp:16: 	    return ternary_search(vec, mid2 + 1, r, x);
	mov	eax, DWORD PTR -4[rbp]	# tmp139, mid2
	lea	esi, 1[rax]	# _18,
	mov	ecx, DWORD PTR -36[rbp]	# tmp140, x
	mov	edx, DWORD PTR -32[rbp]	# tmp141, r
	mov	rax, QWORD PTR -24[rbp]	# tmp142, vec
	mov	rdi, rax	#, tmp142
	call	_Z14ternary_searchRSt6vectorIiSaIiEEiii	#
# Ternary_Search.cpp:16: 	    return ternary_search(vec, mid2 + 1, r, x);
	jmp	.L11	#
.L14:
# Ternary_Search.cpp:18: 	    return ternary_search(vec, mid1 + 1, mid2 - 1, x);
	mov	eax, DWORD PTR -4[rbp]	# tmp143, mid2
	lea	edi, -1[rax]	# _19,
	mov	eax, DWORD PTR -8[rbp]	# tmp144, mid1
	lea	esi, 1[rax]	# _20,
	mov	edx, DWORD PTR -36[rbp]	# tmp145, x
	mov	rax, QWORD PTR -24[rbp]	# tmp146, vec
	mov	ecx, edx	#, tmp145
	mov	edx, edi	#, _19
	mov	rdi, rax	#, tmp146
	call	_Z14ternary_searchRSt6vectorIiSaIiEEiii	#
# Ternary_Search.cpp:18: 	    return ternary_search(vec, mid1 + 1, mid2 - 1, x);
	jmp	.L11	#
.L9:
# Ternary_Search.cpp:20:     return -1;
	mov	eax, -1	# _21,
.L11:
# Ternary_Search.cpp:21: }
	leave	
	.cfi_def_cfa 7, 8
	ret	
	.cfi_endproc
.LFE9770:
	.size	_Z14ternary_searchRSt6vectorIiSaIiEEiii, .-_Z14ternary_searchRSt6vectorIiSaIiEEiii
	.section	.rodata
.LC0:
	.string	"\n"
	.text
	.globl	main
	.type	main, @function
main:
.LFB9771:
	.cfi_startproc
	.cfi_personality 0x9b,DW.ref.__gxx_personality_v0
	.cfi_lsda 0x1b,.LLSDA9771
	endbr64	
	push	rbp	#
	.cfi_def_cfa_offset 16
	.cfi_offset 6, -16
	mov	rbp, rsp	#,
	.cfi_def_cfa_register 6
	push	rbx	#
	sub	rsp, 72	#,
	.cfi_offset 3, -24
# Ternary_Search.cpp:23: int main() {
	mov	rax, QWORD PTR fs:40	# tmp114, MEM[(<address-space-1> long unsigned int *)40B]
	mov	QWORD PTR -24[rbp], rax	# D.225063, tmp114
	xor	eax, eax	# tmp114
# Ternary_Search.cpp:24:     ios::sync_with_stdio(false);
	mov	edi, 0	#,
.LEHB0:
	call	_ZNSt8ios_base15sync_with_stdioEb@PLT	#
# Ternary_Search.cpp:25:     cin.tie(0);
	mov	esi, 0	#,
	lea	rax, _ZSt3cin[rip+16]	# tmp95,
	mov	rdi, rax	#, tmp95
	call	_ZNSt9basic_iosIcSt11char_traitsIcEE3tieEPSo@PLT	#
# Ternary_Search.cpp:28:     cin >> n;
	lea	rax, -64[rbp]	# tmp96,
	mov	rsi, rax	#, tmp96
	lea	rax, _ZSt3cin[rip]	# tmp97,
	mov	rdi, rax	#, tmp97
	call	_ZNSirsERi@PLT	#
.LEHE0:
	lea	rax, -65[rbp]	# tmp98,
	mov	QWORD PTR -56[rbp], rax	# this, tmp98
# /usr/include/c++/13/bits/new_allocator.h:88:       __new_allocator() _GLIBCXX_USE_NOEXCEPT { }
	nop	
# /usr/include/c++/13/bits/allocator.h:163:       allocator() _GLIBCXX_NOTHROW { }
	nop	
# Ternary_Search.cpp:29:     vector<int> vec(n);
	mov	eax, DWORD PTR -64[rbp]	# n.4_1, n
	movsx	rcx, eax	# _2, n.4_1
	lea	rdx, -65[rbp]	# tmp99,
	lea	rax, -48[rbp]	# tmp100,
	mov	rsi, rcx	#, _2
	mov	rdi, rax	#, tmp100
.LEHB1:
	call	_ZNSt6vectorIiSaIiEEC1EmRKS0_	#
.LEHE1:
# /usr/include/c++/13/bits/allocator.h:184:       ~allocator() _GLIBCXX_NOTHROW { }
	lea	rax, -65[rbp]	# tmp101,
	mov	rdi, rax	#, tmp101
	call	_ZNSt15__new_allocatorIiED2Ev	#
	nop	
# Ternary_Search.cpp:30:     for (int i = 0; i < n; i++) {
	mov	DWORD PTR -60[rbp], 0	# i,
# Ternary_Search.cpp:30:     for (int i = 0; i < n; i++) {
	jmp	.L16	#
.L17:
# Ternary_Search.cpp:31: 	cin >> vec[i];
	mov	eax, DWORD PTR -60[rbp]	# tmp102, i
	movsx	rdx, eax	# _3, tmp102
	lea	rax, -48[rbp]	# tmp103,
	mov	rsi, rdx	#, _3
	mov	rdi, rax	#, tmp103
	call	_ZNSt6vectorIiSaIiEEixEm	#
# Ternary_Search.cpp:31: 	cin >> vec[i];
	mov	rsi, rax	#, _4
	lea	rax, _ZSt3cin[rip]	# tmp104,
	mov	rdi, rax	#, tmp104
.LEHB2:
	call	_ZNSirsERi@PLT	#
# Ternary_Search.cpp:30:     for (int i = 0; i < n; i++) {
	add	DWORD PTR -60[rbp], 1	# i,
.L16:
# Ternary_Search.cpp:30:     for (int i = 0; i < n; i++) {
	mov	eax, DWORD PTR -64[rbp]	# n.5_5, n
	cmp	DWORD PTR -60[rbp], eax	# i, n.5_5
	jl	.L17	#,
# Ternary_Search.cpp:33:     cout << ternary_search(vec, 0, n - 1, 14) << "\n";
	mov	eax, DWORD PTR -64[rbp]	# n.6_6, n
	lea	edx, -1[rax]	# _7,
	lea	rax, -48[rbp]	# tmp105,
	mov	ecx, 14	#,
	mov	esi, 0	#,
	mov	rdi, rax	#, tmp105
	call	_Z14ternary_searchRSt6vectorIiSaIiEEiii	#
# Ternary_Search.cpp:33:     cout << ternary_search(vec, 0, n - 1, 14) << "\n";
	mov	esi, eax	#, _8
	lea	rax, _ZSt4cout[rip]	# tmp106,
	mov	rdi, rax	#, tmp106
	call	_ZNSolsEi@PLT	#
	mov	rdx, rax	# _9,
# Ternary_Search.cpp:33:     cout << ternary_search(vec, 0, n - 1, 14) << "\n";
	lea	rax, .LC0[rip]	# tmp107,
	mov	rsi, rax	#, tmp107
	mov	rdi, rdx	#, _9
	call	_ZStlsISt11char_traitsIcEERSt13basic_ostreamIcT_ES5_PKc@PLT	#
.LEHE2:
# Ternary_Search.cpp:34:     return 0;
	mov	ebx, 0	# _26,
# Ternary_Search.cpp:35: }
	lea	rax, -48[rbp]	# tmp108,
	mov	rdi, rax	#, tmp108
	call	_ZNSt6vectorIiSaIiEED1Ev	#
	mov	eax, ebx	# <retval>, _26
	mov	rdx, QWORD PTR -24[rbp]	# tmp115, D.225063
	sub	rdx, QWORD PTR fs:40	# tmp115, MEM[(<address-space-1> long unsigned int *)40B]
	je	.L23	#,
	jmp	.L26	#
.L24:
	endbr64	
# /usr/include/c++/13/bits/allocator.h:184:       ~allocator() _GLIBCXX_NOTHROW { }
	mov	rbx, rax	# tmp111,
	lea	rax, -65[rbp]	# tmp110,
	mov	rdi, rax	#, tmp110
	call	_ZNSt15__new_allocatorIiED2Ev	#
	nop	
	mov	rax, rbx	# D.225061, tmp111
	mov	rdx, QWORD PTR -24[rbp]	# tmp116, D.225063
	sub	rdx, QWORD PTR fs:40	# tmp116, MEM[(<address-space-1> long unsigned int *)40B]
	je	.L20	#,
	call	__stack_chk_fail@PLT	#
.L20:
	mov	rdi, rax	#, D.225061
.LEHB3:
	call	_Unwind_Resume@PLT	#
.L25:
	endbr64	
# Ternary_Search.cpp:35: }
	mov	rbx, rax	# tmp113,
	lea	rax, -48[rbp]	# tmp112,
	mov	rdi, rax	#, tmp112
	call	_ZNSt6vectorIiSaIiEED1Ev	#
	mov	rax, rbx	# D.225062, tmp113
	mov	rdx, QWORD PTR -24[rbp]	# tmp117, D.225063
	sub	rdx, QWORD PTR fs:40	# tmp117, MEM[(<address-space-1> long unsigned int *)40B]
	je	.L22	#,
	call	__stack_chk_fail@PLT	#
.L22:
	mov	rdi, rax	#, D.225062
	call	_Unwind_Resume@PLT	#
.LEHE3:
.L26:
	call	__stack_chk_fail@PLT	#
.L23:
	mov	rbx, QWORD PTR -8[rbp]	#,
	leave	
	.cfi_def_cfa 7, 8
	ret	
	.cfi_endproc
.LFE9771:
	.globl	__gxx_personality_v0
	.section	.gcc_except_table,"a",@progbits
.LLSDA9771:
	.byte	0xff
	.byte	0xff
	.byte	0x1
	.uleb128 .LLSDACSE9771-.LLSDACSB9771
.LLSDACSB9771:
	.uleb128 .LEHB0-.LFB9771
	.uleb128 .LEHE0-.LEHB0
	.uleb128 0
	.uleb128 0
	.uleb128 .LEHB1-.LFB9771
	.uleb128 .LEHE1-.LEHB1
	.uleb128 .L24-.LFB9771
	.uleb128 0
	.uleb128 .LEHB2-.LFB9771
	.uleb128 .LEHE2-.LEHB2
	.uleb128 .L25-.LFB9771
	.uleb128 0
	.uleb128 .LEHB3-.LFB9771
	.uleb128 .LEHE3-.LEHB3
	.uleb128 0
	.uleb128 0
.LLSDACSE9771:
	.text
	.size	main, .-main
	.section	.text._ZNSt6vectorIiSaIiEEixEm,"axG",@progbits,_ZNSt6vectorIiSaIiEEixEm,comdat
	.align 2
	.weak	_ZNSt6vectorIiSaIiEEixEm
	.type	_ZNSt6vectorIiSaIiEEixEm, @function
_ZNSt6vectorIiSaIiEEixEm:
.LFB10457:
	.cfi_startproc
	endbr64	
	push	rbp	#
	.cfi_def_cfa_offset 16
	.cfi_offset 6, -16
	mov	rbp, rsp	#,
	.cfi_def_cfa_register 6
	mov	QWORD PTR -8[rbp], rdi	# this, this
	mov	QWORD PTR -16[rbp], rsi	# __n, __n
# /usr/include/c++/13/bits/stl_vector.h:1129: 	return *(this->_M_impl._M_start + __n);
	mov	rax, QWORD PTR -8[rbp]	# tmp86, this
	mov	rax, QWORD PTR [rax]	# _1, this_4(D)->D.188304._M_impl.D.187644._M_start
# /usr/include/c++/13/bits/stl_vector.h:1129: 	return *(this->_M_impl._M_start + __n);
	mov	rdx, QWORD PTR -16[rbp]	# tmp87, __n
	sal	rdx, 2	# _2,
# /usr/include/c++/13/bits/stl_vector.h:1129: 	return *(this->_M_impl._M_start + __n);
	add	rax, rdx	# _6, _2
# /usr/include/c++/13/bits/stl_vector.h:1130:       }
	pop	rbp	#
	.cfi_def_cfa 7, 8
	ret	
	.cfi_endproc
.LFE10457:
	.size	_ZNSt6vectorIiSaIiEEixEm, .-_ZNSt6vectorIiSaIiEEixEm
	.section	.text._ZNSt6vectorIiSaIiEEC2EmRKS0_,"axG",@progbits,_ZNSt6vectorIiSaIiEEC5EmRKS0_,comdat
	.align 2
	.weak	_ZNSt6vectorIiSaIiEEC2EmRKS0_
	.type	_ZNSt6vectorIiSaIiEEC2EmRKS0_, @function
_ZNSt6vectorIiSaIiEEC2EmRKS0_:
.LFB10466:
	.cfi_startproc
	.cfi_personality 0x9b,DW.ref.__gxx_personality_v0
	.cfi_lsda 0x1b,.LLSDA10466
	endbr64	
	push	rbp	#
	.cfi_def_cfa_offset 16
	.cfi_offset 6, -16
	mov	rbp, rsp	#,
	.cfi_def_cfa_register 6
	push	rbx	#
	sub	rsp, 40	#,
	.cfi_offset 3, -24
	mov	QWORD PTR -24[rbp], rdi	# this, this
	mov	QWORD PTR -32[rbp], rsi	# __n, __n
	mov	QWORD PTR -40[rbp], rdx	# __a, __a
# /usr/include/c++/13/bits/stl_vector.h:557:       : _Base(_S_check_init_len(__n, __a), __a)
	mov	rbx, QWORD PTR -24[rbp]	# _1, this
	mov	rdx, QWORD PTR -40[rbp]	# tmp86, __a
	mov	rax, QWORD PTR -32[rbp]	# tmp87, __n
	mov	rsi, rdx	#, tmp86
	mov	rdi, rax	#, tmp87
.LEHB4:
	call	_ZNSt6vectorIiSaIiEE17_S_check_init_lenEmRKS0_	#
	mov	rcx, rax	# _2,
# /usr/include/c++/13/bits/stl_vector.h:557:       : _Base(_S_check_init_len(__n, __a), __a)
	mov	rax, QWORD PTR -40[rbp]	# tmp88, __a
	mov	rdx, rax	#, tmp88
	mov	rsi, rcx	#, _2
	mov	rdi, rbx	#, _1
	call	_ZNSt12_Vector_baseIiSaIiEEC2EmRKS0_	#
.LEHE4:
# /usr/include/c++/13/bits/stl_vector.h:558:       { _M_default_initialize(__n); }
	mov	rdx, QWORD PTR -32[rbp]	# tmp89, __n
	mov	rax, QWORD PTR -24[rbp]	# tmp90, this
	mov	rsi, rdx	#, tmp89
	mov	rdi, rax	#, tmp90
.LEHB5:
	call	_ZNSt6vectorIiSaIiEE21_M_default_initializeEm	#
.LEHE5:
# /usr/include/c++/13/bits/stl_vector.h:558:       { _M_default_initialize(__n); }
	jmp	.L32	#
.L31:
	endbr64	
# /usr/include/c++/13/bits/stl_vector.h:558:       { _M_default_initialize(__n); }
	mov	rbx, rax	# tmp91,
	mov	rax, QWORD PTR -24[rbp]	# _3, this
	mov	rdi, rax	#, _3
	call	_ZNSt12_Vector_baseIiSaIiEED2Ev	#
	mov	rax, rbx	# D.225066, tmp91
	mov	rdi, rax	#, D.225066
.LEHB6:
	call	_Unwind_Resume@PLT	#
.LEHE6:
.L32:
# /usr/include/c++/13/bits/stl_vector.h:558:       { _M_default_initialize(__n); }
	mov	rbx, QWORD PTR -8[rbp]	#,
	leave	
	.cfi_def_cfa 7, 8
	ret	
	.cfi_endproc
.LFE10466:
	.section	.gcc_except_table
.LLSDA10466:
	.byte	0xff
	.byte	0xff
	.byte	0x1
	.uleb128 .LLSDACSE10466-.LLSDACSB10466
.LLSDACSB10466:
	.uleb128 .LEHB4-.LFB10466
	.uleb128 .LEHE4-.LEHB4
	.uleb128 0
	.uleb128 0
	.uleb128 .LEHB5-.LFB10466
	.uleb128 .LEHE5-.LEHB5
	.uleb128 .L31-.LFB10466
	.uleb128 0
	.uleb128 .LEHB6-.LFB10466
	.uleb128 .LEHE6-.LEHB6
	.uleb128 0
	.uleb128 0
.LLSDACSE10466:
	.section	.text._ZNSt6vectorIiSaIiEEC2EmRKS0_,"axG",@progbits,_ZNSt6vectorIiSaIiEEC5EmRKS0_,comdat
	.size	_ZNSt6vectorIiSaIiEEC2EmRKS0_, .-_ZNSt6vectorIiSaIiEEC2EmRKS0_
	.weak	_ZNSt6vectorIiSaIiEEC1EmRKS0_
	.set	_ZNSt6vectorIiSaIiEEC1EmRKS0_,_ZNSt6vectorIiSaIiEEC2EmRKS0_
	.section	.text._ZNSt6vectorIiSaIiEED2Ev,"axG",@progbits,_ZNSt6vectorIiSaIiEED5Ev,comdat
	.align 2
	.weak	_ZNSt6vectorIiSaIiEED2Ev
	.type	_ZNSt6vectorIiSaIiEED2Ev, @function
_ZNSt6vectorIiSaIiEED2Ev:
.LFB10469:
	.cfi_startproc
	.cfi_personality 0x9b,DW.ref.__gxx_personality_v0
	.cfi_lsda 0x1b,.LLSDA10469
	endbr64	
	push	rbp	#
	.cfi_def_cfa_offset 16
	.cfi_offset 6, -16
	mov	rbp, rsp	#,
	.cfi_def_cfa_register 6
	sub	rsp, 48	#,
	mov	QWORD PTR -40[rbp], rdi	# this, this
# /usr/include/c++/13/bits/stl_vector.h:736: 		      _M_get_Tp_allocator());
	mov	rax, QWORD PTR -40[rbp]	# _1, this
	mov	rdi, rax	#, _1
	call	_ZNSt12_Vector_baseIiSaIiEE19_M_get_Tp_allocatorEv	#
# /usr/include/c++/13/bits/stl_vector.h:735: 	std::_Destroy(this->_M_impl._M_start, this->_M_impl._M_finish,
	mov	rdx, QWORD PTR -40[rbp]	# tmp87, this
	mov	rdx, QWORD PTR 8[rdx]	# _3, this_6(D)->D.188304._M_impl.D.187644._M_finish
	mov	rcx, QWORD PTR -40[rbp]	# tmp88, this
	mov	rcx, QWORD PTR [rcx]	# _4, this_6(D)->D.188304._M_impl.D.187644._M_start
	mov	QWORD PTR -24[rbp], rcx	# __first, _4
	mov	QWORD PTR -16[rbp], rdx	# __last, _3
	mov	QWORD PTR -8[rbp], rax	# D.225013, _2
# /usr/include/c++/13/bits/alloc_traits.h:948:       std::_Destroy(__first, __last);
	mov	rdx, QWORD PTR -16[rbp]	# tmp89, __last
	mov	rax, QWORD PTR -24[rbp]	# tmp90, __first
	mov	rsi, rdx	#, tmp89
	mov	rdi, rax	#, tmp90
	call	_ZSt8_DestroyIPiEvT_S1_	#
# /usr/include/c++/13/bits/alloc_traits.h:949:     }
	nop	
# /usr/include/c++/13/bits/stl_vector.h:738:       }
	mov	rax, QWORD PTR -40[rbp]	# _5, this
	mov	rdi, rax	#, _5
	call	_ZNSt12_Vector_baseIiSaIiEED2Ev	#
	nop	
	leave	
	.cfi_def_cfa 7, 8
	ret	
	.cfi_endproc
.LFE10469:
	.section	.gcc_except_table
.LLSDA10469:
	.byte	0xff
	.byte	0xff
	.byte	0x1
	.uleb128 .LLSDACSE10469-.LLSDACSB10469
.LLSDACSB10469:
.LLSDACSE10469:
	.section	.text._ZNSt6vectorIiSaIiEED2Ev,"axG",@progbits,_ZNSt6vectorIiSaIiEED5Ev,comdat
	.size	_ZNSt6vectorIiSaIiEED2Ev, .-_ZNSt6vectorIiSaIiEED2Ev
	.weak	_ZNSt6vectorIiSaIiEED1Ev
	.set	_ZNSt6vectorIiSaIiEED1Ev,_ZNSt6vectorIiSaIiEED2Ev
	.section	.text._ZNSt15__new_allocatorIiED2Ev,"axG",@progbits,_ZNSt15__new_allocatorIiED5Ev,comdat
	.align 2
	.weak	_ZNSt15__new_allocatorIiED2Ev
	.type	_ZNSt15__new_allocatorIiED2Ev, @function
_ZNSt15__new_allocatorIiED2Ev:
.LFB10899:
	.cfi_startproc
	endbr64	
	push	rbp	#
	.cfi_def_cfa_offset 16
	.cfi_offset 6, -16
	mov	rbp, rsp	#,
	.cfi_def_cfa_register 6
	mov	QWORD PTR -8[rbp], rdi	# this, this
# /usr/include/c++/13/bits/new_allocator.h:104:       ~__new_allocator() _GLIBCXX_USE_NOEXCEPT { }
	nop	
	pop	rbp	#
	.cfi_def_cfa 7, 8
	ret	
	.cfi_endproc
.LFE10899:
	.size	_ZNSt15__new_allocatorIiED2Ev, .-_ZNSt15__new_allocatorIiED2Ev
	.weak	_ZNSt15__new_allocatorIiED1Ev
	.set	_ZNSt15__new_allocatorIiED1Ev,_ZNSt15__new_allocatorIiED2Ev
	.section	.rodata
	.align 8
.LC1:
	.string	"cannot create std::vector larger than max_size()"
	.section	.text._ZNSt6vectorIiSaIiEE17_S_check_init_lenEmRKS0_,"axG",@progbits,_ZNSt6vectorIiSaIiEE17_S_check_init_lenEmRKS0_,comdat
	.weak	_ZNSt6vectorIiSaIiEE17_S_check_init_lenEmRKS0_
	.type	_ZNSt6vectorIiSaIiEE17_S_check_init_lenEmRKS0_, @function
_ZNSt6vectorIiSaIiEE17_S_check_init_lenEmRKS0_:
.LFB10901:
	.cfi_startproc
	endbr64	
	push	rbp	#
	.cfi_def_cfa_offset 16
	.cfi_offset 6, -16
	mov	rbp, rsp	#,
	.cfi_def_cfa_register 6
	push	rbx	#
	sub	rsp, 72	#,
	.cfi_offset 3, -24
	mov	QWORD PTR -72[rbp], rdi	# __n, __n
	mov	QWORD PTR -80[rbp], rsi	# __a, __a
# /usr/include/c++/13/bits/stl_vector.h:1907:       _S_check_init_len(size_type __n, const allocator_type& __a)
	mov	rax, QWORD PTR fs:40	# tmp93, MEM[(<address-space-1> long unsigned int *)40B]
	mov	QWORD PTR -24[rbp], rax	# D.225067, tmp93
	xor	eax, eax	# tmp93
	mov	rax, QWORD PTR -80[rbp]	# tmp86, __a
	mov	QWORD PTR -48[rbp], rax	# __a, tmp86
	lea	rax, -49[rbp]	# tmp87,
	mov	QWORD PTR -40[rbp], rax	# this, tmp87
	mov	rax, QWORD PTR -48[rbp]	# tmp88, __a
	mov	QWORD PTR -32[rbp], rax	# D.225047, tmp88
# /usr/include/c++/13/bits/new_allocator.h:92:       __new_allocator(const __new_allocator&) _GLIBCXX_USE_NOEXCEPT { }
	nop	
# /usr/include/c++/13/bits/allocator.h:168:       : __allocator_base<_Tp>(__a) { }
	nop	
# /usr/include/c++/13/bits/stl_vector.h:1909: 	if (__n > _S_max_size(_Tp_alloc_type(__a)))
	lea	rax, -49[rbp]	# tmp89,
	mov	rdi, rax	#, tmp89
	call	_ZNSt6vectorIiSaIiEE11_S_max_sizeERKS0_	#
# /usr/include/c++/13/bits/stl_vector.h:1909: 	if (__n > _S_max_size(_Tp_alloc_type(__a)))
	cmp	rax, QWORD PTR -72[rbp]	# _1, __n
	setb	bl	#, retval.7_6
# /usr/include/c++/13/bits/allocator.h:184:       ~allocator() _GLIBCXX_NOTHROW { }
	lea	rax, -49[rbp]	# tmp90,
	mov	rdi, rax	#, tmp90
	call	_ZNSt15__new_allocatorIiED2Ev	#
	nop	
# /usr/include/c++/13/bits/stl_vector.h:1909: 	if (__n > _S_max_size(_Tp_alloc_type(__a)))
	test	bl, bl	# retval.7_6
	je	.L36	#,
# /usr/include/c++/13/bits/stl_vector.h:1910: 	  __throw_length_error(
	mov	rax, QWORD PTR -24[rbp]	# tmp94, D.225067
	sub	rax, QWORD PTR fs:40	# tmp94, MEM[(<address-space-1> long unsigned int *)40B]
	je	.L37	#,
	call	__stack_chk_fail@PLT	#
.L37:
	lea	rax, .LC1[rip]	# tmp91,
	mov	rdi, rax	#, tmp91
	call	_ZSt20__throw_length_errorPKc@PLT	#
.L36:
# /usr/include/c++/13/bits/stl_vector.h:1912: 	return __n;
	mov	rax, QWORD PTR -72[rbp]	# _8, __n
# /usr/include/c++/13/bits/stl_vector.h:1913:       }
	mov	rdx, QWORD PTR -24[rbp]	# tmp95, D.225067
	sub	rdx, QWORD PTR fs:40	# tmp95, MEM[(<address-space-1> long unsigned int *)40B]
	je	.L39	#,
	call	__stack_chk_fail@PLT	#
.L39:
	mov	rbx, QWORD PTR -8[rbp]	#,
	leave	
	.cfi_def_cfa 7, 8
	ret	
	.cfi_endproc
.LFE10901:
	.size	_ZNSt6vectorIiSaIiEE17_S_check_init_lenEmRKS0_, .-_ZNSt6vectorIiSaIiEE17_S_check_init_lenEmRKS0_
	.section	.text._ZNSt12_Vector_baseIiSaIiEE12_Vector_implD2Ev,"axG",@progbits,_ZNSt12_Vector_baseIiSaIiEE12_Vector_implD5Ev,comdat
	.align 2
	.weak	_ZNSt12_Vector_baseIiSaIiEE12_Vector_implD2Ev
	.type	_ZNSt12_Vector_baseIiSaIiEE12_Vector_implD2Ev, @function
_ZNSt12_Vector_baseIiSaIiEE12_Vector_implD2Ev:
.LFB10904:
	.cfi_startproc
	endbr64	
	push	rbp	#
	.cfi_def_cfa_offset 16
	.cfi_offset 6, -16
	mov	rbp, rsp	#,
	.cfi_def_cfa_register 6
	sub	rsp, 32	#,
	mov	QWORD PTR -24[rbp], rdi	# this, this
	mov	rax, QWORD PTR -24[rbp]	# tmp82, this
	mov	QWORD PTR -8[rbp], rax	# this, tmp82
# /usr/include/c++/13/bits/allocator.h:184:       ~allocator() _GLIBCXX_NOTHROW { }
	mov	rax, QWORD PTR -8[rbp]	# tmp83, this
	mov	rdi, rax	#, tmp83
	call	_ZNSt15__new_allocatorIiED2Ev	#
	nop	
# /usr/include/c++/13/bits/stl_vector.h:133:       struct _Vector_impl
	nop	
	leave	
	.cfi_def_cfa 7, 8
	ret	
	.cfi_endproc
.LFE10904:
	.size	_ZNSt12_Vector_baseIiSaIiEE12_Vector_implD2Ev, .-_ZNSt12_Vector_baseIiSaIiEE12_Vector_implD2Ev
	.weak	_ZNSt12_Vector_baseIiSaIiEE12_Vector_implD1Ev
	.set	_ZNSt12_Vector_baseIiSaIiEE12_Vector_implD1Ev,_ZNSt12_Vector_baseIiSaIiEE12_Vector_implD2Ev
	.section	.text._ZNSt12_Vector_baseIiSaIiEEC2EmRKS0_,"axG",@progbits,_ZNSt12_Vector_baseIiSaIiEEC5EmRKS0_,comdat
	.align 2
	.weak	_ZNSt12_Vector_baseIiSaIiEEC2EmRKS0_
	.type	_ZNSt12_Vector_baseIiSaIiEEC2EmRKS0_, @function
_ZNSt12_Vector_baseIiSaIiEEC2EmRKS0_:
.LFB10906:
	.cfi_startproc
	.cfi_personality 0x9b,DW.ref.__gxx_personality_v0
	.cfi_lsda 0x1b,.LLSDA10906
	endbr64	
	push	rbp	#
	.cfi_def_cfa_offset 16
	.cfi_offset 6, -16
	mov	rbp, rsp	#,
	.cfi_def_cfa_register 6
	push	rbx	#
	sub	rsp, 40	#,
	.cfi_offset 3, -24
	mov	QWORD PTR -24[rbp], rdi	# this, this
	mov	QWORD PTR -32[rbp], rsi	# __n, __n
	mov	QWORD PTR -40[rbp], rdx	# __a, __a
# /usr/include/c++/13/bits/stl_vector.h:334:       : _M_impl(__a)
	mov	rax, QWORD PTR -24[rbp]	# _1, this
	mov	rdx, QWORD PTR -40[rbp]	# tmp85, __a
	mov	rsi, rdx	#, tmp85
	mov	rdi, rax	#, _1
	call	_ZNSt12_Vector_baseIiSaIiEE12_Vector_implC1ERKS0_	#
# /usr/include/c++/13/bits/stl_vector.h:335:       { _M_create_storage(__n); }
	mov	rdx, QWORD PTR -32[rbp]	# tmp86, __n
	mov	rax, QWORD PTR -24[rbp]	# tmp87, this
	mov	rsi, rdx	#, tmp86
	mov	rdi, rax	#, tmp87
.LEHB7:
	call	_ZNSt12_Vector_baseIiSaIiEE17_M_create_storageEm	#
.LEHE7:
# /usr/include/c++/13/bits/stl_vector.h:335:       { _M_create_storage(__n); }
	jmp	.L44	#
.L43:
	endbr64	
# /usr/include/c++/13/bits/stl_vector.h:335:       { _M_create_storage(__n); }
	mov	rbx, rax	# tmp88,
	mov	rax, QWORD PTR -24[rbp]	# _2, this
	mov	rdi, rax	#, _2
	call	_ZNSt12_Vector_baseIiSaIiEE12_Vector_implD1Ev	#
	mov	rax, rbx	# D.225069, tmp88
	mov	rdi, rax	#, D.225069
.LEHB8:
	call	_Unwind_Resume@PLT	#
.LEHE8:
.L44:
# /usr/include/c++/13/bits/stl_vector.h:335:       { _M_create_storage(__n); }
	mov	rbx, QWORD PTR -8[rbp]	#,
	leave	
	.cfi_def_cfa 7, 8
	ret	
	.cfi_endproc
.LFE10906:
	.section	.gcc_except_table
.LLSDA10906:
	.byte	0xff
	.byte	0xff
	.byte	0x1
	.uleb128 .LLSDACSE10906-.LLSDACSB10906
.LLSDACSB10906:
	.uleb128 .LEHB7-.LFB10906
	.uleb128 .LEHE7-.LEHB7
	.uleb128 .L43-.LFB10906
	.uleb128 0
	.uleb128 .LEHB8-.LFB10906
	.uleb128 .LEHE8-.LEHB8
	.uleb128 0
	.uleb128 0
.LLSDACSE10906:
	.section	.text._ZNSt12_Vector_baseIiSaIiEEC2EmRKS0_,"axG",@progbits,_ZNSt12_Vector_baseIiSaIiEEC5EmRKS0_,comdat
	.size	_ZNSt12_Vector_baseIiSaIiEEC2EmRKS0_, .-_ZNSt12_Vector_baseIiSaIiEEC2EmRKS0_
	.weak	_ZNSt12_Vector_baseIiSaIiEEC1EmRKS0_
	.set	_ZNSt12_Vector_baseIiSaIiEEC1EmRKS0_,_ZNSt12_Vector_baseIiSaIiEEC2EmRKS0_
	.section	.text._ZNSt12_Vector_baseIiSaIiEED2Ev,"axG",@progbits,_ZNSt12_Vector_baseIiSaIiEED5Ev,comdat
	.align 2
	.weak	_ZNSt12_Vector_baseIiSaIiEED2Ev
	.type	_ZNSt12_Vector_baseIiSaIiEED2Ev, @function
_ZNSt12_Vector_baseIiSaIiEED2Ev:
.LFB10909:
	.cfi_startproc
	.cfi_personality 0x9b,DW.ref.__gxx_personality_v0
	.cfi_lsda 0x1b,.LLSDA10909
	endbr64	
	push	rbp	#
	.cfi_def_cfa_offset 16
	.cfi_offset 6, -16
	mov	rbp, rsp	#,
	.cfi_def_cfa_register 6
	sub	rsp, 16	#,
	mov	QWORD PTR -8[rbp], rdi	# this, this
# /usr/include/c++/13/bits/stl_vector.h:370: 		      _M_impl._M_end_of_storage - _M_impl._M_start);
	mov	rax, QWORD PTR -8[rbp]	# tmp89, this
	mov	rdx, QWORD PTR 16[rax]	# _1, this_9(D)->_M_impl.D.187644._M_end_of_storage
# /usr/include/c++/13/bits/stl_vector.h:370: 		      _M_impl._M_end_of_storage - _M_impl._M_start);
	mov	rax, QWORD PTR -8[rbp]	# tmp90, this
	mov	rax, QWORD PTR [rax]	# _2, this_9(D)->_M_impl.D.187644._M_start
# /usr/include/c++/13/bits/stl_vector.h:370: 		      _M_impl._M_end_of_storage - _M_impl._M_start);
	sub	rdx, rax	# _3, _2
	mov	rax, rdx	# _3, _3
	sar	rax, 2	# _3,
# /usr/include/c++/13/bits/stl_vector.h:369: 	_M_deallocate(_M_impl._M_start,
	mov	rdx, rax	# _5, _4
	mov	rax, QWORD PTR -8[rbp]	# tmp92, this
	mov	rcx, QWORD PTR [rax]	# _6, this_9(D)->_M_impl.D.187644._M_start
	mov	rax, QWORD PTR -8[rbp]	# tmp93, this
	mov	rsi, rcx	#, _6
	mov	rdi, rax	#, tmp93
	call	_ZNSt12_Vector_baseIiSaIiEE13_M_deallocateEPim	#
# /usr/include/c++/13/bits/stl_vector.h:371:       }
	mov	rax, QWORD PTR -8[rbp]	# _7, this
	mov	rdi, rax	#, _7
	call	_ZNSt12_Vector_baseIiSaIiEE12_Vector_implD1Ev	#
	nop	
	leave	
	.cfi_def_cfa 7, 8
	ret	
	.cfi_endproc
.LFE10909:
	.section	.gcc_except_table
.LLSDA10909:
	.byte	0xff
	.byte	0xff
	.byte	0x1
	.uleb128 .LLSDACSE10909-.LLSDACSB10909
.LLSDACSB10909:
.LLSDACSE10909:
	.section	.text._ZNSt12_Vector_baseIiSaIiEED2Ev,"axG",@progbits,_ZNSt12_Vector_baseIiSaIiEED5Ev,comdat
	.size	_ZNSt12_Vector_baseIiSaIiEED2Ev, .-_ZNSt12_Vector_baseIiSaIiEED2Ev
	.weak	_ZNSt12_Vector_baseIiSaIiEED1Ev
	.set	_ZNSt12_Vector_baseIiSaIiEED1Ev,_ZNSt12_Vector_baseIiSaIiEED2Ev
	.section	.text._ZNSt6vectorIiSaIiEE21_M_default_initializeEm,"axG",@progbits,_ZNSt6vectorIiSaIiEE21_M_default_initializeEm,comdat
	.align 2
	.weak	_ZNSt6vectorIiSaIiEE21_M_default_initializeEm
	.type	_ZNSt6vectorIiSaIiEE21_M_default_initializeEm, @function
_ZNSt6vectorIiSaIiEE21_M_default_initializeEm:
.LFB10911:
	.cfi_startproc
	endbr64	
	push	rbp	#
	.cfi_def_cfa_offset 16
	.cfi_offset 6, -16
	mov	rbp, rsp	#,
	.cfi_def_cfa_register 6
	sub	rsp, 16	#,
	mov	QWORD PTR -8[rbp], rdi	# this, this
	mov	QWORD PTR -16[rbp], rsi	# __n, __n
# /usr/include/c++/13/bits/stl_vector.h:1719: 					   _M_get_Tp_allocator());
	mov	rax, QWORD PTR -8[rbp]	# _1, this
	mov	rdi, rax	#, _1
	call	_ZNSt12_Vector_baseIiSaIiEE19_M_get_Tp_allocatorEv	#
	mov	rdx, rax	# _2,
# /usr/include/c++/13/bits/stl_vector.h:1718: 	  std::__uninitialized_default_n_a(this->_M_impl._M_start, __n,
	mov	rax, QWORD PTR -8[rbp]	# tmp86, this
	mov	rax, QWORD PTR [rax]	# _3, this_5(D)->D.188304._M_impl.D.187644._M_start
	mov	rcx, QWORD PTR -16[rbp]	# tmp87, __n
	mov	rsi, rcx	#, tmp87
	mov	rdi, rax	#, _3
	call	_ZSt27__uninitialized_default_n_aIPimiET_S1_T0_RSaIT1_E	#
# /usr/include/c++/13/bits/stl_vector.h:1717: 	this->_M_impl._M_finish =
	mov	rdx, QWORD PTR -8[rbp]	# tmp88, this
	mov	QWORD PTR 8[rdx], rax	# this_5(D)->D.188304._M_impl.D.187644._M_finish, _4
# /usr/include/c++/13/bits/stl_vector.h:1720:       }
	nop	
	leave	
	.cfi_def_cfa 7, 8
	ret	
	.cfi_endproc
.LFE10911:
	.size	_ZNSt6vectorIiSaIiEE21_M_default_initializeEm, .-_ZNSt6vectorIiSaIiEE21_M_default_initializeEm
	.section	.text._ZNSt12_Vector_baseIiSaIiEE19_M_get_Tp_allocatorEv,"axG",@progbits,_ZNSt12_Vector_baseIiSaIiEE19_M_get_Tp_allocatorEv,comdat
	.align 2
	.weak	_ZNSt12_Vector_baseIiSaIiEE19_M_get_Tp_allocatorEv
	.type	_ZNSt12_Vector_baseIiSaIiEE19_M_get_Tp_allocatorEv, @function
_ZNSt12_Vector_baseIiSaIiEE19_M_get_Tp_allocatorEv:
.LFB10912:
	.cfi_startproc
	endbr64	
	push	rbp	#
	.cfi_def_cfa_offset 16
	.cfi_offset 6, -16
	mov	rbp, rsp	#,
	.cfi_def_cfa_register 6
	mov	QWORD PTR -8[rbp], rdi	# this, this
# /usr/include/c++/13/bits/stl_vector.h:302:       { return this->_M_impl; }
	mov	rax, QWORD PTR -8[rbp]	# _2, this
# /usr/include/c++/13/bits/stl_vector.h:302:       { return this->_M_impl; }
	pop	rbp	#
	.cfi_def_cfa 7, 8
	ret	
	.cfi_endproc
.LFE10912:
	.size	_ZNSt12_Vector_baseIiSaIiEE19_M_get_Tp_allocatorEv, .-_ZNSt12_Vector_baseIiSaIiEE19_M_get_Tp_allocatorEv
	.section	.text._ZNSt6vectorIiSaIiEE11_S_max_sizeERKS0_,"axG",@progbits,_ZNSt6vectorIiSaIiEE11_S_max_sizeERKS0_,comdat
	.weak	_ZNSt6vectorIiSaIiEE11_S_max_sizeERKS0_
	.type	_ZNSt6vectorIiSaIiEE11_S_max_sizeERKS0_, @function
_ZNSt6vectorIiSaIiEE11_S_max_sizeERKS0_:
.LFB11126:
	.cfi_startproc
	endbr64	
	push	rbp	#
	.cfi_def_cfa_offset 16
	.cfi_offset 6, -16
	mov	rbp, rsp	#,
	.cfi_def_cfa_register 6
	sub	rsp, 64	#,
	mov	QWORD PTR -56[rbp], rdi	# __a, __a
# /usr/include/c++/13/bits/stl_vector.h:1916:       _S_max_size(const _Tp_alloc_type& __a) _GLIBCXX_NOEXCEPT
	mov	rax, QWORD PTR fs:40	# tmp92, MEM[(<address-space-1> long unsigned int *)40B]
	mov	QWORD PTR -8[rbp], rax	# D.225070, tmp92
	xor	eax, eax	# tmp92
# /usr/include/c++/13/bits/stl_vector.h:1921: 	const size_t __diffmax
	movabs	rax, 2305843009213693951	# tmp95,
	mov	QWORD PTR -48[rbp], rax	# __diffmax, tmp95
	mov	rax, QWORD PTR -56[rbp]	# tmp86, __a
	mov	QWORD PTR -32[rbp], rax	# __a, tmp86
	mov	rax, QWORD PTR -32[rbp]	# tmp87, __a
	mov	QWORD PTR -24[rbp], rax	# this, tmp87
	mov	rax, QWORD PTR -24[rbp]	# tmp88, this
	mov	QWORD PTR -16[rbp], rax	# this, tmp88
# /usr/include/c++/13/bits/new_allocator.h:233: 	return std::size_t(__PTRDIFF_MAX__) / sizeof(_Tp);
	movabs	rax, 2305843009213693951	# D.225037,
# /usr/include/c++/13/bits/new_allocator.h:183:       { return _M_max_size(); }
	nop	
# /usr/include/c++/13/bits/alloc_traits.h:574: 	return __a.max_size();
	nop	
# /usr/include/c++/13/bits/stl_vector.h:1923: 	const size_t __allocmax = _Alloc_traits::max_size(__a);
	mov	QWORD PTR -40[rbp], rax	# __allocmax, D.225037
# /usr/include/c++/13/bits/stl_vector.h:1924: 	return (std::min)(__diffmax, __allocmax);
	lea	rdx, -40[rbp]	# tmp89,
	lea	rax, -48[rbp]	# tmp90,
	mov	rsi, rdx	#, tmp89
	mov	rdi, rax	#, tmp90
	call	_ZSt3minImERKT_S2_S2_	#
# /usr/include/c++/13/bits/stl_vector.h:1924: 	return (std::min)(__diffmax, __allocmax);
	mov	rax, QWORD PTR [rax]	# _8, *_2
# /usr/include/c++/13/bits/stl_vector.h:1925:       }
	mov	rdx, QWORD PTR -8[rbp]	# tmp93, D.225070
	sub	rdx, QWORD PTR fs:40	# tmp93, MEM[(<address-space-1> long unsigned int *)40B]
	je	.L54	#,
	call	__stack_chk_fail@PLT	#
.L54:
	leave	
	.cfi_def_cfa 7, 8
	ret	
	.cfi_endproc
.LFE11126:
	.size	_ZNSt6vectorIiSaIiEE11_S_max_sizeERKS0_, .-_ZNSt6vectorIiSaIiEE11_S_max_sizeERKS0_
	.section	.text._ZNSt12_Vector_baseIiSaIiEE12_Vector_implC2ERKS0_,"axG",@progbits,_ZNSt12_Vector_baseIiSaIiEE12_Vector_implC5ERKS0_,comdat
	.align 2
	.weak	_ZNSt12_Vector_baseIiSaIiEE12_Vector_implC2ERKS0_
	.type	_ZNSt12_Vector_baseIiSaIiEE12_Vector_implC2ERKS0_, @function
_ZNSt12_Vector_baseIiSaIiEE12_Vector_implC2ERKS0_:
.LFB11131:
	.cfi_startproc
	endbr64	
	push	rbp	#
	.cfi_def_cfa_offset 16
	.cfi_offset 6, -16
	mov	rbp, rsp	#,
	.cfi_def_cfa_register 6
	sub	rsp, 48	#,
	mov	QWORD PTR -40[rbp], rdi	# this, this
	mov	QWORD PTR -48[rbp], rsi	# __a, __a
	mov	rax, QWORD PTR -40[rbp]	# tmp83, this
	mov	QWORD PTR -32[rbp], rax	# this, tmp83
	mov	rax, QWORD PTR -48[rbp]	# tmp84, __a
	mov	QWORD PTR -24[rbp], rax	# __a, tmp84
	mov	rax, QWORD PTR -32[rbp]	# tmp85, this
	mov	QWORD PTR -16[rbp], rax	# this, tmp85
	mov	rax, QWORD PTR -24[rbp]	# tmp86, __a
	mov	QWORD PTR -8[rbp], rax	# D.225006, tmp86
# /usr/include/c++/13/bits/new_allocator.h:92:       __new_allocator(const __new_allocator&) _GLIBCXX_USE_NOEXCEPT { }
	nop	
# /usr/include/c++/13/bits/allocator.h:168:       : __allocator_base<_Tp>(__a) { }
	nop	
# /usr/include/c++/13/bits/stl_vector.h:147: 	: _Tp_alloc_type(__a)
	mov	rax, QWORD PTR -40[rbp]	# _1, this
	mov	rdi, rax	#, _1
	call	_ZNSt12_Vector_baseIiSaIiEE17_Vector_impl_dataC2Ev	#
# /usr/include/c++/13/bits/stl_vector.h:148: 	{ }
	nop	
	leave	
	.cfi_def_cfa 7, 8
	ret	
	.cfi_endproc
.LFE11131:
	.size	_ZNSt12_Vector_baseIiSaIiEE12_Vector_implC2ERKS0_, .-_ZNSt12_Vector_baseIiSaIiEE12_Vector_implC2ERKS0_
	.weak	_ZNSt12_Vector_baseIiSaIiEE12_Vector_implC1ERKS0_
	.set	_ZNSt12_Vector_baseIiSaIiEE12_Vector_implC1ERKS0_,_ZNSt12_Vector_baseIiSaIiEE12_Vector_implC2ERKS0_
	.section	.text._ZNSt12_Vector_baseIiSaIiEE17_M_create_storageEm,"axG",@progbits,_ZNSt12_Vector_baseIiSaIiEE17_M_create_storageEm,comdat
	.align 2
	.weak	_ZNSt12_Vector_baseIiSaIiEE17_M_create_storageEm
	.type	_ZNSt12_Vector_baseIiSaIiEE17_M_create_storageEm, @function
_ZNSt12_Vector_baseIiSaIiEE17_M_create_storageEm:
.LFB11133:
	.cfi_startproc
	endbr64	
	push	rbp	#
	.cfi_def_cfa_offset 16
	.cfi_offset 6, -16
	mov	rbp, rsp	#,
	.cfi_def_cfa_register 6
	sub	rsp, 16	#,
	mov	QWORD PTR -8[rbp], rdi	# this, this
	mov	QWORD PTR -16[rbp], rsi	# __n, __n
# /usr/include/c++/13/bits/stl_vector.h:398: 	this->_M_impl._M_start = this->_M_allocate(__n);
	mov	rdx, QWORD PTR -16[rbp]	# tmp87, __n
	mov	rax, QWORD PTR -8[rbp]	# tmp88, this
	mov	rsi, rdx	#, tmp87
	mov	rdi, rax	#, tmp88
	call	_ZNSt12_Vector_baseIiSaIiEE11_M_allocateEm	#
# /usr/include/c++/13/bits/stl_vector.h:398: 	this->_M_impl._M_start = this->_M_allocate(__n);
	mov	rdx, QWORD PTR -8[rbp]	# tmp89, this
	mov	QWORD PTR [rdx], rax	# this_7(D)->_M_impl.D.187644._M_start, _1
# /usr/include/c++/13/bits/stl_vector.h:399: 	this->_M_impl._M_finish = this->_M_impl._M_start;
	mov	rax, QWORD PTR -8[rbp]	# tmp90, this
	mov	rdx, QWORD PTR [rax]	# _2, this_7(D)->_M_impl.D.187644._M_start
# /usr/include/c++/13/bits/stl_vector.h:399: 	this->_M_impl._M_finish = this->_M_impl._M_start;
	mov	rax, QWORD PTR -8[rbp]	# tmp91, this
	mov	QWORD PTR 8[rax], rdx	# this_7(D)->_M_impl.D.187644._M_finish, _2
# /usr/include/c++/13/bits/stl_vector.h:400: 	this->_M_impl._M_end_of_storage = this->_M_impl._M_start + __n;
	mov	rax, QWORD PTR -8[rbp]	# tmp92, this
	mov	rax, QWORD PTR [rax]	# _3, this_7(D)->_M_impl.D.187644._M_start
# /usr/include/c++/13/bits/stl_vector.h:400: 	this->_M_impl._M_end_of_storage = this->_M_impl._M_start + __n;
	mov	rdx, QWORD PTR -16[rbp]	# tmp93, __n
	sal	rdx, 2	# _4,
	add	rdx, rax	# _5, _3
# /usr/include/c++/13/bits/stl_vector.h:400: 	this->_M_impl._M_end_of_storage = this->_M_impl._M_start + __n;
	mov	rax, QWORD PTR -8[rbp]	# tmp94, this
	mov	QWORD PTR 16[rax], rdx	# this_7(D)->_M_impl.D.187644._M_end_of_storage, _5
# /usr/include/c++/13/bits/stl_vector.h:401:       }
	nop	
	leave	
	.cfi_def_cfa 7, 8
	ret	
	.cfi_endproc
.LFE11133:
	.size	_ZNSt12_Vector_baseIiSaIiEE17_M_create_storageEm, .-_ZNSt12_Vector_baseIiSaIiEE17_M_create_storageEm
	.section	.text._ZNSt12_Vector_baseIiSaIiEE13_M_deallocateEPim,"axG",@progbits,_ZNSt12_Vector_baseIiSaIiEE13_M_deallocateEPim,comdat
	.align 2
	.weak	_ZNSt12_Vector_baseIiSaIiEE13_M_deallocateEPim
	.type	_ZNSt12_Vector_baseIiSaIiEE13_M_deallocateEPim, @function
_ZNSt12_Vector_baseIiSaIiEE13_M_deallocateEPim:
.LFB11134:
	.cfi_startproc
	endbr64	
	push	rbp	#
	.cfi_def_cfa_offset 16
	.cfi_offset 6, -16
	mov	rbp, rsp	#,
	.cfi_def_cfa_register 6
	sub	rsp, 64	#,
	mov	QWORD PTR -40[rbp], rdi	# this, this
	mov	QWORD PTR -48[rbp], rsi	# __p, __p
	mov	QWORD PTR -56[rbp], rdx	# __n, __n
# /usr/include/c++/13/bits/stl_vector.h:389: 	if (__p)
	cmp	QWORD PTR -48[rbp], 0	# __p,
	je	.L59	#,
# /usr/include/c++/13/bits/stl_vector.h:390: 	  _Tr::deallocate(_M_impl, __p, __n);
	mov	rax, QWORD PTR -40[rbp]	# _1, this
	mov	QWORD PTR -24[rbp], rax	# __a, _1
	mov	rax, QWORD PTR -48[rbp]	# tmp83, __p
	mov	QWORD PTR -16[rbp], rax	# __p, tmp83
	mov	rax, QWORD PTR -56[rbp]	# tmp84, __n
	mov	QWORD PTR -8[rbp], rax	# __n, tmp84
# /usr/include/c++/13/bits/alloc_traits.h:517:       { __a.deallocate(__p, __n); }
	mov	rdx, QWORD PTR -8[rbp]	# tmp85, __n
	mov	rcx, QWORD PTR -16[rbp]	# tmp86, __p
	mov	rax, QWORD PTR -24[rbp]	# tmp87, __a
	mov	rsi, rcx	#, tmp86
	mov	rdi, rax	#, tmp87
	call	_ZNSt15__new_allocatorIiE10deallocateEPim	#
# /usr/include/c++/13/bits/alloc_traits.h:517:       { __a.deallocate(__p, __n); }
	nop	
.L59:
# /usr/include/c++/13/bits/stl_vector.h:391:       }
	nop	
	leave	
	.cfi_def_cfa 7, 8
	ret	
	.cfi_endproc
.LFE11134:
	.size	_ZNSt12_Vector_baseIiSaIiEE13_M_deallocateEPim, .-_ZNSt12_Vector_baseIiSaIiEE13_M_deallocateEPim
	.section	.text._ZSt27__uninitialized_default_n_aIPimiET_S1_T0_RSaIT1_E,"axG",@progbits,_ZSt27__uninitialized_default_n_aIPimiET_S1_T0_RSaIT1_E,comdat
	.weak	_ZSt27__uninitialized_default_n_aIPimiET_S1_T0_RSaIT1_E
	.type	_ZSt27__uninitialized_default_n_aIPimiET_S1_T0_RSaIT1_E, @function
_ZSt27__uninitialized_default_n_aIPimiET_S1_T0_RSaIT1_E:
.LFB11135:
	.cfi_startproc
	endbr64	
	push	rbp	#
	.cfi_def_cfa_offset 16
	.cfi_offset 6, -16
	mov	rbp, rsp	#,
	.cfi_def_cfa_register 6
	sub	rsp, 32	#,
	mov	QWORD PTR -8[rbp], rdi	# __first, __first
	mov	QWORD PTR -16[rbp], rsi	# __n, __n
	mov	QWORD PTR -24[rbp], rdx	# D.220897, D.220897
# /usr/include/c++/13/bits/stl_uninitialized.h:779:     { return std::__uninitialized_default_n(__first, __n); }
	mov	rdx, QWORD PTR -16[rbp]	# tmp84, __n
	mov	rax, QWORD PTR -8[rbp]	# tmp85, __first
	mov	rsi, rdx	#, tmp84
	mov	rdi, rax	#, tmp85
	call	_ZSt25__uninitialized_default_nIPimET_S1_T0_	#
# /usr/include/c++/13/bits/stl_uninitialized.h:779:     { return std::__uninitialized_default_n(__first, __n); }
	leave	
	.cfi_def_cfa 7, 8
	ret	
	.cfi_endproc
.LFE11135:
	.size	_ZSt27__uninitialized_default_n_aIPimiET_S1_T0_RSaIT1_E, .-_ZSt27__uninitialized_default_n_aIPimiET_S1_T0_RSaIT1_E
	.section	.text._ZSt8_DestroyIPiEvT_S1_,"axG",@progbits,_ZSt8_DestroyIPiEvT_S1_,comdat
	.weak	_ZSt8_DestroyIPiEvT_S1_
	.type	_ZSt8_DestroyIPiEvT_S1_, @function
_ZSt8_DestroyIPiEvT_S1_:
.LFB11136:
	.cfi_startproc
	endbr64	
	push	rbp	#
	.cfi_def_cfa_offset 16
	.cfi_offset 6, -16
	mov	rbp, rsp	#,
	.cfi_def_cfa_register 6
	sub	rsp, 16	#,
	mov	QWORD PTR -8[rbp], rdi	# __first, __first
	mov	QWORD PTR -16[rbp], rsi	# __last, __last
# /usr/include/c++/13/bits/stl_construct.h:196: 	__destroy(__first, __last);
	mov	rdx, QWORD PTR -16[rbp]	# tmp82, __last
	mov	rax, QWORD PTR -8[rbp]	# tmp83, __first
	mov	rsi, rdx	#, tmp82
	mov	rdi, rax	#, tmp83
	call	_ZNSt12_Destroy_auxILb1EE9__destroyIPiEEvT_S3_	#
# /usr/include/c++/13/bits/stl_construct.h:197:     }
	nop	
	leave	
	.cfi_def_cfa 7, 8
	ret	
	.cfi_endproc
.LFE11136:
	.size	_ZSt8_DestroyIPiEvT_S1_, .-_ZSt8_DestroyIPiEvT_S1_
	.section	.text._ZNSt12_Vector_baseIiSaIiEE17_Vector_impl_dataC2Ev,"axG",@progbits,_ZNSt12_Vector_baseIiSaIiEE17_Vector_impl_dataC5Ev,comdat
	.align 2
	.weak	_ZNSt12_Vector_baseIiSaIiEE17_Vector_impl_dataC2Ev
	.type	_ZNSt12_Vector_baseIiSaIiEE17_Vector_impl_dataC2Ev, @function
_ZNSt12_Vector_baseIiSaIiEE17_Vector_impl_dataC2Ev:
.LFB11290:
	.cfi_startproc
	endbr64	
	push	rbp	#
	.cfi_def_cfa_offset 16
	.cfi_offset 6, -16
	mov	rbp, rsp	#,
	.cfi_def_cfa_register 6
	mov	QWORD PTR -8[rbp], rdi	# this, this
# /usr/include/c++/13/bits/stl_vector.h:100: 	: _M_start(), _M_finish(), _M_end_of_storage()
	mov	rax, QWORD PTR -8[rbp]	# tmp82, this
	mov	QWORD PTR [rax], 0	# this_2(D)->_M_start,
# /usr/include/c++/13/bits/stl_vector.h:100: 	: _M_start(), _M_finish(), _M_end_of_storage()
	mov	rax, QWORD PTR -8[rbp]	# tmp83, this
	mov	QWORD PTR 8[rax], 0	# this_2(D)->_M_finish,
# /usr/include/c++/13/bits/stl_vector.h:100: 	: _M_start(), _M_finish(), _M_end_of_storage()
	mov	rax, QWORD PTR -8[rbp]	# tmp84, this
	mov	QWORD PTR 16[rax], 0	# this_2(D)->_M_end_of_storage,
# /usr/include/c++/13/bits/stl_vector.h:101: 	{ }
	nop	
	pop	rbp	#
	.cfi_def_cfa 7, 8
	ret	
	.cfi_endproc
.LFE11290:
	.size	_ZNSt12_Vector_baseIiSaIiEE17_Vector_impl_dataC2Ev, .-_ZNSt12_Vector_baseIiSaIiEE17_Vector_impl_dataC2Ev
	.weak	_ZNSt12_Vector_baseIiSaIiEE17_Vector_impl_dataC1Ev
	.set	_ZNSt12_Vector_baseIiSaIiEE17_Vector_impl_dataC1Ev,_ZNSt12_Vector_baseIiSaIiEE17_Vector_impl_dataC2Ev
	.section	.text._ZNSt12_Vector_baseIiSaIiEE11_M_allocateEm,"axG",@progbits,_ZNSt12_Vector_baseIiSaIiEE11_M_allocateEm,comdat
	.align 2
	.weak	_ZNSt12_Vector_baseIiSaIiEE11_M_allocateEm
	.type	_ZNSt12_Vector_baseIiSaIiEE11_M_allocateEm, @function
_ZNSt12_Vector_baseIiSaIiEE11_M_allocateEm:
.LFB11292:
	.cfi_startproc
	endbr64	
	push	rbp	#
	.cfi_def_cfa_offset 16
	.cfi_offset 6, -16
	mov	rbp, rsp	#,
	.cfi_def_cfa_register 6
	sub	rsp, 32	#,
	mov	QWORD PTR -24[rbp], rdi	# this, this
	mov	QWORD PTR -32[rbp], rsi	# __n, __n
# /usr/include/c++/13/bits/stl_vector.h:381: 	return __n != 0 ? _Tr::allocate(_M_impl, __n) : pointer();
	cmp	QWORD PTR -32[rbp], 0	# __n,
	je	.L65	#,
# /usr/include/c++/13/bits/stl_vector.h:381: 	return __n != 0 ? _Tr::allocate(_M_impl, __n) : pointer();
	mov	rax, QWORD PTR -24[rbp]	# _1, this
	mov	QWORD PTR -16[rbp], rax	# __a, _1
	mov	rax, QWORD PTR -32[rbp]	# tmp85, __n
	mov	QWORD PTR -8[rbp], rax	# __n, tmp85
# /usr/include/c++/13/bits/alloc_traits.h:482:       { return __a.allocate(__n); }
	mov	rcx, QWORD PTR -8[rbp]	# tmp86, __n
	mov	rax, QWORD PTR -16[rbp]	# tmp87, __a
	mov	edx, 0	#,
	mov	rsi, rcx	#, tmp86
	mov	rdi, rax	#, tmp87
	call	_ZNSt15__new_allocatorIiE8allocateEmPKv	#
# /usr/include/c++/13/bits/alloc_traits.h:482:       { return __a.allocate(__n); }
	nop	
	jmp	.L67	#
.L65:
# /usr/include/c++/13/bits/stl_vector.h:381: 	return __n != 0 ? _Tr::allocate(_M_impl, __n) : pointer();
	mov	eax, 0	# D.225016,
.L67:
# /usr/include/c++/13/bits/stl_vector.h:382:       }
	leave	
	.cfi_def_cfa 7, 8
	ret	
	.cfi_endproc
.LFE11292:
	.size	_ZNSt12_Vector_baseIiSaIiEE11_M_allocateEm, .-_ZNSt12_Vector_baseIiSaIiEE11_M_allocateEm
	.section	.text._ZSt25__uninitialized_default_nIPimET_S1_T0_,"axG",@progbits,_ZSt25__uninitialized_default_nIPimET_S1_T0_,comdat
	.weak	_ZSt25__uninitialized_default_nIPimET_S1_T0_
	.type	_ZSt25__uninitialized_default_nIPimET_S1_T0_, @function
_ZSt25__uninitialized_default_nIPimET_S1_T0_:
.LFB11294:
	.cfi_startproc
	endbr64	
	push	rbp	#
	.cfi_def_cfa_offset 16
	.cfi_offset 6, -16
	mov	rbp, rsp	#,
	.cfi_def_cfa_register 6
	sub	rsp, 32	#,
	mov	QWORD PTR -24[rbp], rdi	# __first, __first
	mov	QWORD PTR -32[rbp], rsi	# __n, __n
# /usr/include/c++/13/bits/stl_uninitialized.h:707:       constexpr bool __can_fill
	mov	BYTE PTR -1[rbp], 1	# __can_fill,
# /usr/include/c++/13/bits/stl_uninitialized.h:712: 	__uninit_default_n(__first, __n);
	mov	rdx, QWORD PTR -32[rbp]	# tmp84, __n
	mov	rax, QWORD PTR -24[rbp]	# tmp85, __first
	mov	rsi, rdx	#, tmp84
	mov	rdi, rax	#, tmp85
	call	_ZNSt27__uninitialized_default_n_1ILb1EE18__uninit_default_nIPimEET_S3_T0_	#
# /usr/include/c++/13/bits/stl_uninitialized.h:713:     }
	leave	
	.cfi_def_cfa 7, 8
	ret	
	.cfi_endproc
.LFE11294:
	.size	_ZSt25__uninitialized_default_nIPimET_S1_T0_, .-_ZSt25__uninitialized_default_nIPimET_S1_T0_
	.section	.text._ZNSt12_Destroy_auxILb1EE9__destroyIPiEEvT_S3_,"axG",@progbits,_ZNSt12_Destroy_auxILb1EE9__destroyIPiEEvT_S3_,comdat
	.weak	_ZNSt12_Destroy_auxILb1EE9__destroyIPiEEvT_S3_
	.type	_ZNSt12_Destroy_auxILb1EE9__destroyIPiEEvT_S3_, @function
_ZNSt12_Destroy_auxILb1EE9__destroyIPiEEvT_S3_:
.LFB11295:
	.cfi_startproc
	endbr64	
	push	rbp	#
	.cfi_def_cfa_offset 16
	.cfi_offset 6, -16
	mov	rbp, rsp	#,
	.cfi_def_cfa_register 6
	mov	QWORD PTR -8[rbp], rdi	# D.223204, D.223204
	mov	QWORD PTR -16[rbp], rsi	# D.223205, D.223205
# /usr/include/c++/13/bits/stl_construct.h:172:         __destroy(_ForwardIterator, _ForwardIterator) { }
	nop	
	pop	rbp	#
	.cfi_def_cfa 7, 8
	ret	
	.cfi_endproc
.LFE11295:
	.size	_ZNSt12_Destroy_auxILb1EE9__destroyIPiEEvT_S3_, .-_ZNSt12_Destroy_auxILb1EE9__destroyIPiEEvT_S3_
	.section	.text._ZNSt15__new_allocatorIiE10deallocateEPim,"axG",@progbits,_ZNSt15__new_allocatorIiE10deallocateEPim,comdat
	.align 2
	.weak	_ZNSt15__new_allocatorIiE10deallocateEPim
	.type	_ZNSt15__new_allocatorIiE10deallocateEPim, @function
_ZNSt15__new_allocatorIiE10deallocateEPim:
.LFB11399:
	.cfi_startproc
	endbr64	
	push	rbp	#
	.cfi_def_cfa_offset 16
	.cfi_offset 6, -16
	mov	rbp, rsp	#,
	.cfi_def_cfa_register 6
	sub	rsp, 32	#,
	mov	QWORD PTR -8[rbp], rdi	# this, this
	mov	QWORD PTR -16[rbp], rsi	# __p, __p
	mov	QWORD PTR -24[rbp], rdx	# __n, __n
# /usr/include/c++/13/bits/new_allocator.h:172: 	_GLIBCXX_OPERATOR_DELETE(_GLIBCXX_SIZED_DEALLOC(__p, __n));
	mov	rax, QWORD PTR -24[rbp]	# tmp83, __n
	lea	rdx, 0[0+rax*4]	# _2,
	mov	rax, QWORD PTR -16[rbp]	# tmp84, __p
	mov	rsi, rdx	#, _2
	mov	rdi, rax	#, tmp84
	call	_ZdlPvm@PLT	#
# /usr/include/c++/13/bits/new_allocator.h:173:       }
	leave	
	.cfi_def_cfa 7, 8
	ret	
	.cfi_endproc
.LFE11399:
	.size	_ZNSt15__new_allocatorIiE10deallocateEPim, .-_ZNSt15__new_allocatorIiE10deallocateEPim
	.section	.text._ZNSt27__uninitialized_default_n_1ILb1EE18__uninit_default_nIPimEET_S3_T0_,"axG",@progbits,_ZNSt27__uninitialized_default_n_1ILb1EE18__uninit_default_nIPimEET_S3_T0_,comdat
	.weak	_ZNSt27__uninitialized_default_n_1ILb1EE18__uninit_default_nIPimEET_S3_T0_
	.type	_ZNSt27__uninitialized_default_n_1ILb1EE18__uninit_default_nIPimEET_S3_T0_, @function
_ZNSt27__uninitialized_default_n_1ILb1EE18__uninit_default_nIPimEET_S3_T0_:
.LFB11400:
	.cfi_startproc
	endbr64	
	push	rbp	#
	.cfi_def_cfa_offset 16
	.cfi_offset 6, -16
	mov	rbp, rsp	#,
	.cfi_def_cfa_register 6
	sub	rsp, 32	#,
	mov	QWORD PTR -24[rbp], rdi	# __first, __first
	mov	QWORD PTR -32[rbp], rsi	# __n, __n
# /usr/include/c++/13/bits/stl_uninitialized.h:662: 	  if (__n > 0)
	cmp	QWORD PTR -32[rbp], 0	# __n,
	je	.L75	#,
# /usr/include/c++/13/bits/stl_uninitialized.h:665: 		= std::__addressof(*__first);
	mov	rax, QWORD PTR -24[rbp]	# tmp86, __first
	mov	rdi, rax	#, tmp86
	call	_ZSt11__addressofIiEPT_RS0_	#
	mov	QWORD PTR -8[rbp], rax	# __val, tmp87
# /usr/include/c++/13/bits/stl_uninitialized.h:666: 	      std::_Construct(__val);
	mov	rax, QWORD PTR -8[rbp]	# tmp88, __val
	mov	rdi, rax	#, tmp88
	call	_ZSt10_ConstructIiJEEvPT_DpOT0_	#
# /usr/include/c++/13/bits/stl_uninitialized.h:667: 	      ++__first;
	add	QWORD PTR -24[rbp], 4	# __first,
# /usr/include/c++/13/bits/stl_uninitialized.h:668: 	      __first = std::fill_n(__first, __n - 1, *__val);
	mov	rax, QWORD PTR -32[rbp]	# tmp89, __n
	lea	rcx, -1[rax]	# _1,
	mov	rdx, QWORD PTR -8[rbp]	# tmp90, __val
	mov	rax, QWORD PTR -24[rbp]	# tmp91, __first
	mov	rsi, rcx	#, _1
	mov	rdi, rax	#, tmp91
	call	_ZSt6fill_nIPimiET_S1_T0_RKT1_	#
# /usr/include/c++/13/bits/stl_uninitialized.h:668: 	      __first = std::fill_n(__first, __n - 1, *__val);
	mov	QWORD PTR -24[rbp], rax	# __first, _12
.L75:
# /usr/include/c++/13/bits/stl_uninitialized.h:670: 	  return __first;
	mov	rax, QWORD PTR -24[rbp]	# _14, __first
# /usr/include/c++/13/bits/stl_uninitialized.h:671: 	}
	leave	
	.cfi_def_cfa 7, 8
	ret	
	.cfi_endproc
.LFE11400:
	.size	_ZNSt27__uninitialized_default_n_1ILb1EE18__uninit_default_nIPimEET_S3_T0_, .-_ZNSt27__uninitialized_default_n_1ILb1EE18__uninit_default_nIPimEET_S3_T0_
	.section	.text._ZNSt15__new_allocatorIiE8allocateEmPKv,"axG",@progbits,_ZNSt15__new_allocatorIiE8allocateEmPKv,comdat
	.align 2
	.weak	_ZNSt15__new_allocatorIiE8allocateEmPKv
	.type	_ZNSt15__new_allocatorIiE8allocateEmPKv, @function
_ZNSt15__new_allocatorIiE8allocateEmPKv:
.LFB11486:
	.cfi_startproc
	endbr64	
	push	rbp	#
	.cfi_def_cfa_offset 16
	.cfi_offset 6, -16
	mov	rbp, rsp	#,
	.cfi_def_cfa_register 6
	sub	rsp, 48	#,
	mov	QWORD PTR -24[rbp], rdi	# this, this
	mov	QWORD PTR -32[rbp], rsi	# __n, __n
	mov	QWORD PTR -40[rbp], rdx	# D.224167, D.224167
	mov	rax, QWORD PTR -24[rbp]	# tmp90, this
	mov	QWORD PTR -8[rbp], rax	# this, tmp90
# /usr/include/c++/13/bits/new_allocator.h:233: 	return std::size_t(__PTRDIFF_MAX__) / sizeof(_Tp);
	movabs	rax, 2305843009213693951	# D.225050,
# /usr/include/c++/13/bits/new_allocator.h:134: 	if (__builtin_expect(__n > this->_M_max_size(), false))
	cmp	rax, QWORD PTR -32[rbp]	# D.225050, __n
	setb	al	#, _2
# /usr/include/c++/13/bits/new_allocator.h:134: 	if (__builtin_expect(__n > this->_M_max_size(), false))
	movzx	eax, al	# _3, _2
# /usr/include/c++/13/bits/new_allocator.h:134: 	if (__builtin_expect(__n > this->_M_max_size(), false))
	test	rax, rax	# _4
	setne	al	#, retval.9_9
# /usr/include/c++/13/bits/new_allocator.h:134: 	if (__builtin_expect(__n > this->_M_max_size(), false))
	test	al, al	# retval.9_9
	je	.L79	#,
# /usr/include/c++/13/bits/new_allocator.h:138: 	    if (__n > (std::size_t(-1) / sizeof(_Tp)))
	movabs	rax, 4611686018427387903	# tmp91,
	cmp	rax, QWORD PTR -32[rbp]	# tmp91, __n
	jnb	.L80	#,
# /usr/include/c++/13/bits/new_allocator.h:139: 	      std::__throw_bad_array_new_length();
	call	_ZSt28__throw_bad_array_new_lengthv@PLT	#
.L80:
# /usr/include/c++/13/bits/new_allocator.h:140: 	    std::__throw_bad_alloc();
	call	_ZSt17__throw_bad_allocv@PLT	#
.L79:
# /usr/include/c++/13/bits/new_allocator.h:151: 	return static_cast<_Tp*>(_GLIBCXX_OPERATOR_NEW(__n * sizeof(_Tp)));
	mov	rax, QWORD PTR -32[rbp]	# tmp92, __n
	sal	rax, 2	# _6,
	mov	rdi, rax	#, _6
	call	_Znwm@PLT	#
# /usr/include/c++/13/bits/new_allocator.h:151: 	return static_cast<_Tp*>(_GLIBCXX_OPERATOR_NEW(__n * sizeof(_Tp)));
	nop	
# /usr/include/c++/13/bits/new_allocator.h:152:       }
	leave	
	.cfi_def_cfa 7, 8
	ret	
	.cfi_endproc
.LFE11486:
	.size	_ZNSt15__new_allocatorIiE8allocateEmPKv, .-_ZNSt15__new_allocatorIiE8allocateEmPKv
	.section	.text._ZSt11__addressofIiEPT_RS0_,"axG",@progbits,_ZSt11__addressofIiEPT_RS0_,comdat
	.weak	_ZSt11__addressofIiEPT_RS0_
	.type	_ZSt11__addressofIiEPT_RS0_, @function
_ZSt11__addressofIiEPT_RS0_:
.LFB11487:
	.cfi_startproc
	endbr64	
	push	rbp	#
	.cfi_def_cfa_offset 16
	.cfi_offset 6, -16
	mov	rbp, rsp	#,
	.cfi_def_cfa_register 6
	mov	QWORD PTR -8[rbp], rdi	# __r, __r
# /usr/include/c++/13/bits/move.h:52:     { return __builtin_addressof(__r); }
	mov	rax, QWORD PTR -8[rbp]	# _2, __r
# /usr/include/c++/13/bits/move.h:52:     { return __builtin_addressof(__r); }
	pop	rbp	#
	.cfi_def_cfa 7, 8
	ret	
	.cfi_endproc
.LFE11487:
	.size	_ZSt11__addressofIiEPT_RS0_, .-_ZSt11__addressofIiEPT_RS0_
	.section	.text._ZSt10_ConstructIiJEEvPT_DpOT0_,"axG",@progbits,_ZSt10_ConstructIiJEEvPT_DpOT0_,comdat
	.weak	_ZSt10_ConstructIiJEEvPT_DpOT0_
	.type	_ZSt10_ConstructIiJEEvPT_DpOT0_, @function
_ZSt10_ConstructIiJEEvPT_DpOT0_:
.LFB11488:
	.cfi_startproc
	endbr64	
	push	rbp	#
	.cfi_def_cfa_offset 16
	.cfi_offset 6, -16
	mov	rbp, rsp	#,
	.cfi_def_cfa_register 6
	sub	rsp, 16	#,
	mov	QWORD PTR -8[rbp], rdi	# __p, __p
# /usr/include/c++/13/bits/stl_construct.h:119:       ::new((void*)__p) _Tp(std::forward<_Args>(__args)...);
	mov	rax, QWORD PTR -8[rbp]	# _2, __p
# /usr/include/c++/13/bits/stl_construct.h:119:       ::new((void*)__p) _Tp(std::forward<_Args>(__args)...);
	mov	rsi, rax	#, _2
	mov	edi, 4	#,
	call	_ZnwmPv	#
# /usr/include/c++/13/bits/stl_construct.h:119:       ::new((void*)__p) _Tp(std::forward<_Args>(__args)...);
	mov	DWORD PTR [rax], 0	# MEM[(int *)_5],
# /usr/include/c++/13/bits/stl_construct.h:120:     }
	nop	
	leave	
	.cfi_def_cfa 7, 8
	ret	
	.cfi_endproc
.LFE11488:
	.size	_ZSt10_ConstructIiJEEvPT_DpOT0_, .-_ZSt10_ConstructIiJEEvPT_DpOT0_
	.section	.text._ZSt6fill_nIPimiET_S1_T0_RKT1_,"axG",@progbits,_ZSt6fill_nIPimiET_S1_T0_RKT1_,comdat
	.weak	_ZSt6fill_nIPimiET_S1_T0_RKT1_
	.type	_ZSt6fill_nIPimiET_S1_T0_RKT1_, @function
_ZSt6fill_nIPimiET_S1_T0_RKT1_:
.LFB11489:
	.cfi_startproc
	endbr64	
	push	rbp	#
	.cfi_def_cfa_offset 16
	.cfi_offset 6, -16
	mov	rbp, rsp	#,
	.cfi_def_cfa_register 6
	sub	rsp, 32	#,
	mov	QWORD PTR -8[rbp], rdi	# __first, __first
	mov	QWORD PTR -16[rbp], rsi	# __n, __n
	mov	QWORD PTR -24[rbp], rdx	# __value, __value
# /usr/include/c++/13/bits/stl_iterator_base_types.h:240:     { return typename iterator_traits<_Iter>::iterator_category(); }
	nop	
# /usr/include/c++/13/bits/stl_algobase.h:1157:       return std::__fill_n_a(__first, std::__size_to_integer(__n), __value,
	mov	rax, QWORD PTR -16[rbp]	# tmp89, __n
	mov	rdi, rax	#, tmp89
	call	_ZSt17__size_to_integerm	#
	mov	rcx, rax	# _1,
# /usr/include/c++/13/bits/stl_algobase.h:1157:       return std::__fill_n_a(__first, std::__size_to_integer(__n), __value,
	mov	rax, QWORD PTR -8[rbp]	# __first.10_2, __first
	mov	rdx, QWORD PTR -24[rbp]	# tmp90, __value
	mov	rsi, rcx	#, _1
	mov	rdi, rax	#, __first.10_2
	call	_ZSt10__fill_n_aIPimiET_S1_T0_RKT1_St26random_access_iterator_tag	#
# /usr/include/c++/13/bits/stl_algobase.h:1159:     }
	leave	
	.cfi_def_cfa 7, 8
	ret	
	.cfi_endproc
.LFE11489:
	.size	_ZSt6fill_nIPimiET_S1_T0_RKT1_, .-_ZSt6fill_nIPimiET_S1_T0_RKT1_
	.section	.text._ZSt10__fill_n_aIPimiET_S1_T0_RKT1_St26random_access_iterator_tag,"axG",@progbits,_ZSt10__fill_n_aIPimiET_S1_T0_RKT1_St26random_access_iterator_tag,comdat
	.weak	_ZSt10__fill_n_aIPimiET_S1_T0_RKT1_St26random_access_iterator_tag
	.type	_ZSt10__fill_n_aIPimiET_S1_T0_RKT1_St26random_access_iterator_tag, @function
_ZSt10__fill_n_aIPimiET_S1_T0_RKT1_St26random_access_iterator_tag:
.LFB11529:
	.cfi_startproc
	endbr64	
	push	rbp	#
	.cfi_def_cfa_offset 16
	.cfi_offset 6, -16
	mov	rbp, rsp	#,
	.cfi_def_cfa_register 6
	sub	rsp, 32	#,
	mov	QWORD PTR -8[rbp], rdi	# __first, __first
	mov	QWORD PTR -16[rbp], rsi	# __n, __n
	mov	QWORD PTR -24[rbp], rdx	# __value, __value
# /usr/include/c++/13/bits/stl_algobase.h:1123:       if (__n <= 0)
	cmp	QWORD PTR -16[rbp], 0	# __n,
	jne	.L89	#,
# /usr/include/c++/13/bits/stl_algobase.h:1124: 	return __first;
	mov	rax, QWORD PTR -8[rbp]	# _4, __first
	jmp	.L90	#
.L89:
# /usr/include/c++/13/bits/stl_algobase.h:1128:       std::__fill_a(__first, __first + __n, __value);
	mov	rax, QWORD PTR -16[rbp]	# tmp87, __n
	lea	rdx, 0[0+rax*4]	# _1,
# /usr/include/c++/13/bits/stl_algobase.h:1128:       std::__fill_a(__first, __first + __n, __value);
	mov	rax, QWORD PTR -8[rbp]	# tmp88, __first
	lea	rcx, [rdx+rax]	# _2,
	mov	rdx, QWORD PTR -24[rbp]	# tmp89, __value
	mov	rax, QWORD PTR -8[rbp]	# tmp90, __first
	mov	rsi, rcx	#, _2
	mov	rdi, rax	#, tmp90
	call	_ZSt8__fill_aIPiiEvT_S1_RKT0_	#
# /usr/include/c++/13/bits/stl_algobase.h:1129:       return __first + __n;
	mov	rax, QWORD PTR -16[rbp]	# tmp91, __n
	lea	rdx, 0[0+rax*4]	# _3,
# /usr/include/c++/13/bits/stl_algobase.h:1129:       return __first + __n;
	mov	rax, QWORD PTR -8[rbp]	# tmp92, __first
	add	rax, rdx	# _4, _3
.L90:
# /usr/include/c++/13/bits/stl_algobase.h:1130:     }
	leave	
	.cfi_def_cfa 7, 8
	ret	
	.cfi_endproc
.LFE11529:
	.size	_ZSt10__fill_n_aIPimiET_S1_T0_RKT1_St26random_access_iterator_tag, .-_ZSt10__fill_n_aIPimiET_S1_T0_RKT1_St26random_access_iterator_tag
	.section	.text._ZSt8__fill_aIPiiEvT_S1_RKT0_,"axG",@progbits,_ZSt8__fill_aIPiiEvT_S1_RKT0_,comdat
	.weak	_ZSt8__fill_aIPiiEvT_S1_RKT0_
	.type	_ZSt8__fill_aIPiiEvT_S1_RKT0_, @function
_ZSt8__fill_aIPiiEvT_S1_RKT0_:
.LFB11536:
	.cfi_startproc
	endbr64	
	push	rbp	#
	.cfi_def_cfa_offset 16
	.cfi_offset 6, -16
	mov	rbp, rsp	#,
	.cfi_def_cfa_register 6
	sub	rsp, 32	#,
	mov	QWORD PTR -8[rbp], rdi	# __first, __first
	mov	QWORD PTR -16[rbp], rsi	# __last, __last
	mov	QWORD PTR -24[rbp], rdx	# __value, __value
# /usr/include/c++/13/bits/stl_algobase.h:977:     { std::__fill_a1(__first, __last, __value); }
	mov	rdx, QWORD PTR -24[rbp]	# tmp82, __value
	mov	rcx, QWORD PTR -16[rbp]	# tmp83, __last
	mov	rax, QWORD PTR -8[rbp]	# tmp84, __first
	mov	rsi, rcx	#, tmp83
	mov	rdi, rax	#, tmp84
	call	_ZSt9__fill_a1IPiiEN9__gnu_cxx11__enable_ifIXsrSt11__is_scalarIT0_E7__valueEvE6__typeET_S8_RKS4_	#
# /usr/include/c++/13/bits/stl_algobase.h:977:     { std::__fill_a1(__first, __last, __value); }
	nop	
	leave	
	.cfi_def_cfa 7, 8
	ret	
	.cfi_endproc
.LFE11536:
	.size	_ZSt8__fill_aIPiiEvT_S1_RKT0_, .-_ZSt8__fill_aIPiiEvT_S1_RKT0_
	.section	.text._ZSt9__fill_a1IPiiEN9__gnu_cxx11__enable_ifIXsrSt11__is_scalarIT0_E7__valueEvE6__typeET_S8_RKS4_,"axG",@progbits,_ZSt9__fill_a1IPiiEN9__gnu_cxx11__enable_ifIXsrSt11__is_scalarIT0_E7__valueEvE6__typeET_S8_RKS4_,comdat
	.weak	_ZSt9__fill_a1IPiiEN9__gnu_cxx11__enable_ifIXsrSt11__is_scalarIT0_E7__valueEvE6__typeET_S8_RKS4_
	.type	_ZSt9__fill_a1IPiiEN9__gnu_cxx11__enable_ifIXsrSt11__is_scalarIT0_E7__valueEvE6__typeET_S8_RKS4_, @function
_ZSt9__fill_a1IPiiEN9__gnu_cxx11__enable_ifIXsrSt11__is_scalarIT0_E7__valueEvE6__typeET_S8_RKS4_:
.LFB11540:
	.cfi_startproc
	endbr64	
	push	rbp	#
	.cfi_def_cfa_offset 16
	.cfi_offset 6, -16
	mov	rbp, rsp	#,
	.cfi_def_cfa_register 6
	mov	QWORD PTR -24[rbp], rdi	# __first, __first
	mov	QWORD PTR -32[rbp], rsi	# __last, __last
	mov	QWORD PTR -40[rbp], rdx	# __value, __value
# /usr/include/c++/13/bits/stl_algobase.h:929:       const _Tp __tmp = __value;
	mov	rax, QWORD PTR -40[rbp]	# tmp82, __value
	mov	eax, DWORD PTR [rax]	# tmp83, *__value_4(D)
	mov	DWORD PTR -4[rbp], eax	# __tmp, tmp83
# /usr/include/c++/13/bits/stl_algobase.h:930:       for (; __first != __last; ++__first)
	jmp	.L93	#
.L94:
# /usr/include/c++/13/bits/stl_algobase.h:931: 	*__first = __tmp;
	mov	rax, QWORD PTR -24[rbp]	# tmp84, __first
	mov	edx, DWORD PTR -4[rbp]	# tmp85, __tmp
	mov	DWORD PTR [rax], edx	# *__first_1, tmp85
# /usr/include/c++/13/bits/stl_algobase.h:930:       for (; __first != __last; ++__first)
	add	QWORD PTR -24[rbp], 4	# __first,
.L93:
# /usr/include/c++/13/bits/stl_algobase.h:930:       for (; __first != __last; ++__first)
	mov	rax, QWORD PTR -24[rbp]	# tmp86, __first
	cmp	rax, QWORD PTR -32[rbp]	# tmp86, __last
	jne	.L94	#,
# /usr/include/c++/13/bits/stl_algobase.h:932:     }
	nop	
	nop	
	pop	rbp	#
	.cfi_def_cfa 7, 8
	ret	
	.cfi_endproc
.LFE11540:
	.size	_ZSt9__fill_a1IPiiEN9__gnu_cxx11__enable_ifIXsrSt11__is_scalarIT0_E7__valueEvE6__typeET_S8_RKS4_, .-_ZSt9__fill_a1IPiiEN9__gnu_cxx11__enable_ifIXsrSt11__is_scalarIT0_E7__valueEvE6__typeET_S8_RKS4_
	.section	.rodata
	.type	_ZNSt8__detail30__integer_to_chars_is_unsignedIjEE, @object
	.size	_ZNSt8__detail30__integer_to_chars_is_unsignedIjEE, 1
_ZNSt8__detail30__integer_to_chars_is_unsignedIjEE:
	.byte	1
	.type	_ZNSt8__detail30__integer_to_chars_is_unsignedImEE, @object
	.size	_ZNSt8__detail30__integer_to_chars_is_unsignedImEE, 1
_ZNSt8__detail30__integer_to_chars_is_unsignedImEE:
	.byte	1
	.type	_ZNSt8__detail30__integer_to_chars_is_unsignedIyEE, @object
	.size	_ZNSt8__detail30__integer_to_chars_is_unsignedIyEE, 1
_ZNSt8__detail30__integer_to_chars_is_unsignedIyEE:
	.byte	1
	.type	_ZSt12__is_ratio_vISt5ratioILl1ELl1000000000EEE, @object
	.size	_ZSt12__is_ratio_vISt5ratioILl1ELl1000000000EEE, 1
_ZSt12__is_ratio_vISt5ratioILl1ELl1000000000EEE:
	.byte	1
	.type	_ZSt12__is_ratio_vISt5ratioILl1ELl1EEE, @object
	.size	_ZSt12__is_ratio_vISt5ratioILl1ELl1EEE, 1
_ZSt12__is_ratio_vISt5ratioILl1ELl1EEE:
	.byte	1
	.type	_ZSt12__is_ratio_vISt5ratioILl1000000000ELl1EEE, @object
	.size	_ZSt12__is_ratio_vISt5ratioILl1000000000ELl1EEE, 1
_ZSt12__is_ratio_vISt5ratioILl1000000000ELl1EEE:
	.byte	1
	.type	_ZNSt8__detail30__integer_to_chars_is_unsignedIoEE, @object
	.size	_ZNSt8__detail30__integer_to_chars_is_unsignedIoEE, 1
_ZNSt8__detail30__integer_to_chars_is_unsignedIoEE:
	.byte	1
	.hidden	DW.ref.__gxx_personality_v0
	.weak	DW.ref.__gxx_personality_v0
	.section	.data.rel.local.DW.ref.__gxx_personality_v0,"awG",@progbits,DW.ref.__gxx_personality_v0,comdat
	.align 8
	.type	DW.ref.__gxx_personality_v0, @object
	.size	DW.ref.__gxx_personality_v0, 8
DW.ref.__gxx_personality_v0:
	.quad	__gxx_personality_v0
	.ident	"GCC: (Ubuntu 13.2.0-23ubuntu4) 13.2.0"
	.section	.note.GNU-stack,"",@progbits
	.section	.note.gnu.property,"a"
	.align 8
	.long	1f - 0f
	.long	4f - 1f
	.long	5
0:
	.string	"GNU"
1:
	.align 8
	.long	0xc0000002
	.long	3f - 2f
2:
	.long	0x3
3:
	.align 8
4:
