	.file	"Z_function.cpp"
	.intel_syntax noprefix
# GNU C++17 (Ubuntu 13.2.0-23ubuntu4) version 13.2.0 (x86_64-linux-gnu)
#	compiled by GNU C version 13.2.0, GMP version 6.3.0, MPFR version 4.2.1, MPC version 1.3.1, isl version isl-0.26-GMP

# GGC heuristics: --param ggc-min-expand=100 --param ggc-min-heapsize=131072
# options passed: -masm=intel -mtune=generic -march=x86-64 -O0 -fasynchronous-unwind-tables -fstack-protector-strong -fstack-clash-protection -fcf-protection
	.text
	.section	.text._ZSt17__size_to_integerm,"axG",@progbits,_ZSt17__size_to_integerm,comdat
	.weak	_ZSt17__size_to_integerm
	.type	_ZSt17__size_to_integerm, @function
_ZSt17__size_to_integerm:
.LFB354:
	.cfi_startproc
	endbr64	
	push	rbp	#
	.cfi_def_cfa_offset 16
	.cfi_offset 6, -16
	mov	rbp, rsp	#,
	.cfi_def_cfa_register 6
	mov	QWORD PTR -8[rbp], rdi	# __n, __n
# /usr/include/c++/13/bits/stl_algobase.h:1018:   __size_to_integer(unsigned long __n) { return __n; }
	mov	rax, QWORD PTR -8[rbp]	# _2, __n
# /usr/include/c++/13/bits/stl_algobase.h:1018:   __size_to_integer(unsigned long __n) { return __n; }
	pop	rbp	#
	.cfi_def_cfa 7, 8
	ret	
	.cfi_endproc
.LFE354:
	.size	_ZSt17__size_to_integerm, .-_ZSt17__size_to_integerm
	.section	.text._ZnwmPv,"axG",@progbits,_ZnwmPv,comdat
	.weak	_ZnwmPv
	.type	_ZnwmPv, @function
_ZnwmPv:
.LFB471:
	.cfi_startproc
	endbr64	
	push	rbp	#
	.cfi_def_cfa_offset 16
	.cfi_offset 6, -16
	mov	rbp, rsp	#,
	.cfi_def_cfa_register 6
	mov	QWORD PTR -8[rbp], rdi	# D.15836, D.15836
	mov	QWORD PTR -16[rbp], rsi	# __p, __p
# /usr/include/c++/13/new:175: { return __p; }
	mov	rax, QWORD PTR -16[rbp]	# _2, __p
# /usr/include/c++/13/new:175: { return __p; }
	pop	rbp	#
	.cfi_def_cfa 7, 8
	ret	
	.cfi_endproc
.LFE471:
	.size	_ZnwmPv, .-_ZnwmPv
	.section	.text._ZSt3minImERKT_S2_S2_,"axG",@progbits,_ZSt3minImERKT_S2_S2_,comdat
	.weak	_ZSt3minImERKT_S2_S2_
	.type	_ZSt3minImERKT_S2_S2_, @function
_ZSt3minImERKT_S2_S2_:
.LFB1923:
	.cfi_startproc
	endbr64	
	push	rbp	#
	.cfi_def_cfa_offset 16
	.cfi_offset 6, -16
	mov	rbp, rsp	#,
	.cfi_def_cfa_register 6
	mov	QWORD PTR -8[rbp], rdi	# __a, __a
	mov	QWORD PTR -16[rbp], rsi	# __b, __b
# /usr/include/c++/13/bits/stl_algobase.h:238:       if (__b < __a)
	mov	rax, QWORD PTR -16[rbp]	# tmp86, __b
	mov	rdx, QWORD PTR [rax]	# _1, *__b_5(D)
	mov	rax, QWORD PTR -8[rbp]	# tmp87, __a
	mov	rax, QWORD PTR [rax]	# _2, *__a_6(D)
# /usr/include/c++/13/bits/stl_algobase.h:238:       if (__b < __a)
	cmp	rdx, rax	# _1, _2
	jnb	.L6	#,
# /usr/include/c++/13/bits/stl_algobase.h:239: 	return __b;
	mov	rax, QWORD PTR -16[rbp]	# _3, __b
	jmp	.L7	#
.L6:
# /usr/include/c++/13/bits/stl_algobase.h:240:       return __a;
	mov	rax, QWORD PTR -8[rbp]	# _3, __a
.L7:
# /usr/include/c++/13/bits/stl_algobase.h:241:     }
	pop	rbp	#
	.cfi_def_cfa 7, 8
	ret	
	.cfi_endproc
.LFE1923:
	.size	_ZSt3minImERKT_S2_S2_, .-_ZSt3minImERKT_S2_S2_
#APP
	.globl _ZSt21ios_base_library_initv
#NO_APP
	.section	.text._ZNSt12_Vector_baseIiSaIiEE12_Vector_implD2Ev,"axG",@progbits,_ZNSt12_Vector_baseIiSaIiEE12_Vector_implD5Ev,comdat
	.align 2
	.weak	_ZNSt12_Vector_baseIiSaIiEE12_Vector_implD2Ev
	.type	_ZNSt12_Vector_baseIiSaIiEE12_Vector_implD2Ev, @function
_ZNSt12_Vector_baseIiSaIiEE12_Vector_implD2Ev:
.LFB9774:
	.cfi_startproc
	endbr64	
	push	rbp	#
	.cfi_def_cfa_offset 16
	.cfi_offset 6, -16
	mov	rbp, rsp	#,
	.cfi_def_cfa_register 6
	sub	rsp, 32	#,
	mov	QWORD PTR -24[rbp], rdi	# this, this
	mov	rax, QWORD PTR -24[rbp]	# tmp82, this
	mov	QWORD PTR -8[rbp], rax	# this, tmp82
# /usr/include/c++/13/bits/allocator.h:184:       ~allocator() _GLIBCXX_NOTHROW { }
	mov	rax, QWORD PTR -8[rbp]	# tmp83, this
	mov	rdi, rax	#, tmp83
	call	_ZNSt15__new_allocatorIiED2Ev	#
	nop	
# /usr/include/c++/13/bits/stl_vector.h:133:       struct _Vector_impl
	nop	
	leave	
	.cfi_def_cfa 7, 8
	ret	
	.cfi_endproc
.LFE9774:
	.size	_ZNSt12_Vector_baseIiSaIiEE12_Vector_implD2Ev, .-_ZNSt12_Vector_baseIiSaIiEE12_Vector_implD2Ev
	.weak	_ZNSt12_Vector_baseIiSaIiEE12_Vector_implD1Ev
	.set	_ZNSt12_Vector_baseIiSaIiEE12_Vector_implD1Ev,_ZNSt12_Vector_baseIiSaIiEE12_Vector_implD2Ev
	.text
	.globl	_Z9zfunctionRNSt7__cxx1112basic_stringIcSt11char_traitsIcESaIcEEE
	.type	_Z9zfunctionRNSt7__cxx1112basic_stringIcSt11char_traitsIcESaIcEEE, @function
_Z9zfunctionRNSt7__cxx1112basic_stringIcSt11char_traitsIcESaIcEEE:
.LFB9770:
	.cfi_startproc
	.cfi_personality 0x9b,DW.ref.__gxx_personality_v0
	.cfi_lsda 0x1b,.LLSDA9770
	endbr64	
	push	rbp	#
	.cfi_def_cfa_offset 16
	.cfi_offset 6, -16
	mov	rbp, rsp	#,
	.cfi_def_cfa_register 6
	push	rbx	#
	sub	rsp, 72	#,
	.cfi_offset 3, -24
	mov	QWORD PTR -72[rbp], rdi	# .result_ptr, .result_ptr
	mov	QWORD PTR -80[rbp], rsi	# s, s
# Z_function.cpp:5: vector<int> zfunction(string &s) {
	mov	rax, QWORD PTR fs:40	# tmp164, MEM[(<address-space-1> long unsigned int *)40B]
	mov	QWORD PTR -24[rbp], rax	# D.225249, tmp164
	xor	eax, eax	# tmp164
# Z_function.cpp:6:     int n = (int) s.size();
	mov	rax, QWORD PTR -80[rbp]	# tmp124, s
	mov	rdi, rax	#, tmp124
	call	_ZNKSt7__cxx1112basic_stringIcSt11char_traitsIcESaIcEE4sizeEv@PLT	#
# Z_function.cpp:6:     int n = (int) s.size();
	mov	DWORD PTR -36[rbp], eax	# n, _1
	lea	rax, -52[rbp]	# tmp125,
	mov	QWORD PTR -32[rbp], rax	# this, tmp125
# /usr/include/c++/13/bits/new_allocator.h:88:       __new_allocator() _GLIBCXX_USE_NOEXCEPT { }
	nop	
# /usr/include/c++/13/bits/allocator.h:163:       allocator() _GLIBCXX_NOTHROW { }
	nop	
# Z_function.cpp:7:     vector<int> z(n);
	mov	eax, DWORD PTR -36[rbp]	# tmp126, n
	movsx	rcx, eax	# _2, tmp126
	lea	rdx, -52[rbp]	# tmp127,
	mov	rax, QWORD PTR -72[rbp]	# tmp128, <retval>
	mov	rsi, rcx	#, _2
	mov	rdi, rax	#, tmp128
.LEHB0:
	call	_ZNSt6vectorIiSaIiEEC1EmRKS0_	#
.LEHE0:
# /usr/include/c++/13/bits/allocator.h:184:       ~allocator() _GLIBCXX_NOTHROW { }
	lea	rax, -52[rbp]	# tmp129,
	mov	rdi, rax	#, tmp129
	call	_ZNSt15__new_allocatorIiED2Ev	#
	nop	
# Z_function.cpp:8:     int l = 0, r = 0;
	mov	DWORD PTR -48[rbp], 0	# l,
# Z_function.cpp:8:     int l = 0, r = 0;
	mov	DWORD PTR -44[rbp], 0	# r,
# Z_function.cpp:9:     for (int i = 1; i < n; i++) {
	mov	DWORD PTR -40[rbp], 1	# i,
# Z_function.cpp:9:     for (int i = 1; i < n; i++) {
	jmp	.L10	#
.L17:
# Z_function.cpp:10: 	if (i < r) {
	mov	eax, DWORD PTR -40[rbp]	# tmp130, i
	cmp	eax, DWORD PTR -44[rbp]	# tmp130, r
	jge	.L12	#,
# Z_function.cpp:11: 	    z[i] = min(r - i, z[i - l]);
	mov	eax, DWORD PTR -40[rbp]	# tmp131, i
	sub	eax, DWORD PTR -48[rbp]	# _3, l
# Z_function.cpp:11: 	    z[i] = min(r - i, z[i - l]);
	movsx	rdx, eax	# _4, _3
	mov	rax, QWORD PTR -72[rbp]	# tmp132, <retval>
	mov	rsi, rdx	#, _4
	mov	rdi, rax	#, tmp132
	call	_ZNSt6vectorIiSaIiEEixEm	#
	mov	rdx, rax	# _5,
# Z_function.cpp:11: 	    z[i] = min(r - i, z[i - l]);
	mov	eax, DWORD PTR -44[rbp]	# tmp133, r
	sub	eax, DWORD PTR -40[rbp]	# _6, i
	mov	DWORD PTR -52[rbp], eax	# MEM[(int *)_94], _6
# Z_function.cpp:11: 	    z[i] = min(r - i, z[i - l]);
	lea	rax, -52[rbp]	# tmp134,
	mov	rsi, rdx	#, _5
	mov	rdi, rax	#, tmp134
	call	_ZSt3minIiERKT_S2_S2_	#
# Z_function.cpp:11: 	    z[i] = min(r - i, z[i - l]);
	mov	ebx, DWORD PTR [rax]	# _8, *_7
# Z_function.cpp:11: 	    z[i] = min(r - i, z[i - l]);
	mov	eax, DWORD PTR -40[rbp]	# tmp135, i
	movsx	rdx, eax	# _9, tmp135
	mov	rax, QWORD PTR -72[rbp]	# tmp136, <retval>
	mov	rsi, rdx	#, _9
	mov	rdi, rax	#, tmp136
	call	_ZNSt6vectorIiSaIiEEixEm	#
# Z_function.cpp:11: 	    z[i] = min(r - i, z[i - l]);
	mov	DWORD PTR [rax], ebx	# *_10, _8
# Z_function.cpp:13: 	while (i + z[i] < n && s[z[i]] == s[i + z[i]]) {
	jmp	.L12	#
.L15:
# Z_function.cpp:14: 	    z[i]++;
	mov	eax, DWORD PTR -40[rbp]	# tmp137, i
	movsx	rdx, eax	# _11, tmp137
	mov	rax, QWORD PTR -72[rbp]	# tmp138, <retval>
	mov	rsi, rdx	#, _11
	mov	rdi, rax	#, tmp138
	call	_ZNSt6vectorIiSaIiEEixEm	#
# Z_function.cpp:14: 	    z[i]++;
	mov	edx, DWORD PTR [rax]	# _13, *_12
	add	edx, 1	# _14,
	mov	DWORD PTR [rax], edx	# *_12, _14
.L12:
# Z_function.cpp:13: 	while (i + z[i] < n && s[z[i]] == s[i + z[i]]) {
	mov	eax, DWORD PTR -40[rbp]	# tmp139, i
	movsx	rdx, eax	# _15, tmp139
	mov	rax, QWORD PTR -72[rbp]	# tmp140, <retval>
	mov	rsi, rdx	#, _15
	mov	rdi, rax	#, tmp140
	call	_ZNSt6vectorIiSaIiEEixEm	#
# Z_function.cpp:13: 	while (i + z[i] < n && s[z[i]] == s[i + z[i]]) {
	mov	edx, DWORD PTR [rax]	# _17, *_16
	mov	eax, DWORD PTR -40[rbp]	# tmp141, i
	add	eax, edx	# _18, _17
# Z_function.cpp:13: 	while (i + z[i] < n && s[z[i]] == s[i + z[i]]) {
	cmp	DWORD PTR -36[rbp], eax	# n, _18
	jle	.L13	#,
# Z_function.cpp:13: 	while (i + z[i] < n && s[z[i]] == s[i + z[i]]) {
	mov	eax, DWORD PTR -40[rbp]	# tmp142, i
	movsx	rdx, eax	# _19, tmp142
	mov	rax, QWORD PTR -72[rbp]	# tmp143, <retval>
	mov	rsi, rdx	#, _19
	mov	rdi, rax	#, tmp143
	call	_ZNSt6vectorIiSaIiEEixEm	#
# Z_function.cpp:13: 	while (i + z[i] < n && s[z[i]] == s[i + z[i]]) {
	mov	eax, DWORD PTR [rax]	# _21, *_20
	movsx	rdx, eax	# _22, _21
	mov	rax, QWORD PTR -80[rbp]	# tmp144, s
	mov	rsi, rdx	#, _22
	mov	rdi, rax	#, tmp144
.LEHB1:
	call	_ZNSt7__cxx1112basic_stringIcSt11char_traitsIcESaIcEEixEm@PLT	#
# Z_function.cpp:13: 	while (i + z[i] < n && s[z[i]] == s[i + z[i]]) {
	movzx	ebx, BYTE PTR [rax]	# _24, *_23
# Z_function.cpp:13: 	while (i + z[i] < n && s[z[i]] == s[i + z[i]]) {
	mov	eax, DWORD PTR -40[rbp]	# tmp145, i
	movsx	rdx, eax	# _25, tmp145
	mov	rax, QWORD PTR -72[rbp]	# tmp146, <retval>
	mov	rsi, rdx	#, _25
	mov	rdi, rax	#, tmp146
	call	_ZNSt6vectorIiSaIiEEixEm	#
# Z_function.cpp:13: 	while (i + z[i] < n && s[z[i]] == s[i + z[i]]) {
	mov	edx, DWORD PTR [rax]	# _27, *_26
	mov	eax, DWORD PTR -40[rbp]	# tmp147, i
	add	eax, edx	# _28, _27
# Z_function.cpp:13: 	while (i + z[i] < n && s[z[i]] == s[i + z[i]]) {
	movsx	rdx, eax	# _29, _28
	mov	rax, QWORD PTR -80[rbp]	# tmp148, s
	mov	rsi, rdx	#, _29
	mov	rdi, rax	#, tmp148
	call	_ZNSt7__cxx1112basic_stringIcSt11char_traitsIcESaIcEEixEm@PLT	#
.LEHE1:
# Z_function.cpp:13: 	while (i + z[i] < n && s[z[i]] == s[i + z[i]]) {
	movzx	eax, BYTE PTR [rax]	# _31, *_30
# Z_function.cpp:13: 	while (i + z[i] < n && s[z[i]] == s[i + z[i]]) {
	cmp	bl, al	# _24, _31
	jne	.L13	#,
# Z_function.cpp:13: 	while (i + z[i] < n && s[z[i]] == s[i + z[i]]) {
	mov	eax, 1	# iftmp.1_44,
# Z_function.cpp:13: 	while (i + z[i] < n && s[z[i]] == s[i + z[i]]) {
	jmp	.L14	#
.L13:
# Z_function.cpp:13: 	while (i + z[i] < n && s[z[i]] == s[i + z[i]]) {
	mov	eax, 0	# iftmp.1_44,
.L14:
# Z_function.cpp:13: 	while (i + z[i] < n && s[z[i]] == s[i + z[i]]) {
	test	al, al	# iftmp.1_44
	jne	.L15	#,
# Z_function.cpp:16: 	if (i + z[i] > r) {
	mov	eax, DWORD PTR -40[rbp]	# tmp149, i
	movsx	rdx, eax	# _32, tmp149
	mov	rax, QWORD PTR -72[rbp]	# tmp150, <retval>
	mov	rsi, rdx	#, _32
	mov	rdi, rax	#, tmp150
	call	_ZNSt6vectorIiSaIiEEixEm	#
# Z_function.cpp:16: 	if (i + z[i] > r) {
	mov	edx, DWORD PTR [rax]	# _34, *_33
	mov	eax, DWORD PTR -40[rbp]	# tmp151, i
	add	eax, edx	# _35, _34
# Z_function.cpp:16: 	if (i + z[i] > r) {
	cmp	DWORD PTR -44[rbp], eax	# r, _35
	setl	al	#, retval.2_80
# Z_function.cpp:16: 	if (i + z[i] > r) {
	test	al, al	# retval.2_80
	je	.L16	#,
# Z_function.cpp:17: 	    l = i;
	mov	eax, DWORD PTR -40[rbp]	# tmp152, i
	mov	DWORD PTR -48[rbp], eax	# l, tmp152
# Z_function.cpp:18: 	    r = i + z[i];
	mov	eax, DWORD PTR -40[rbp]	# tmp153, i
	movsx	rdx, eax	# _36, tmp153
	mov	rax, QWORD PTR -72[rbp]	# tmp154, <retval>
	mov	rsi, rdx	#, _36
	mov	rdi, rax	#, tmp154
	call	_ZNSt6vectorIiSaIiEEixEm	#
# Z_function.cpp:18: 	    r = i + z[i];
	mov	edx, DWORD PTR [rax]	# _38, *_37
# Z_function.cpp:18: 	    r = i + z[i];
	mov	eax, DWORD PTR -40[rbp]	# tmp158, i
	add	eax, edx	# tmp157, _38
	mov	DWORD PTR -44[rbp], eax	# r, tmp157
.L16:
# Z_function.cpp:9:     for (int i = 1; i < n; i++) {
	add	DWORD PTR -40[rbp], 1	# i,
.L10:
# Z_function.cpp:9:     for (int i = 1; i < n; i++) {
	mov	eax, DWORD PTR -40[rbp]	# tmp159, i
	cmp	eax, DWORD PTR -36[rbp]	# tmp159, n
	jl	.L17	#,
# Z_function.cpp:21:     return z;
	jmp	.L26	#
.L24:
	endbr64	
# /usr/include/c++/13/bits/allocator.h:184:       ~allocator() _GLIBCXX_NOTHROW { }
	mov	rbx, rax	# tmp161,
	lea	rax, -52[rbp]	# tmp160,
	mov	rdi, rax	#, tmp160
	call	_ZNSt15__new_allocatorIiED2Ev	#
	nop	
	mov	rax, rbx	# D.225246, tmp161
	mov	rdx, QWORD PTR -24[rbp]	# tmp165, D.225249
	sub	rdx, QWORD PTR fs:40	# tmp165, MEM[(<address-space-1> long unsigned int *)40B]
	je	.L20	#,
	call	__stack_chk_fail@PLT	#
.L20:
	mov	rdi, rax	#, D.225246
.LEHB2:
	call	_Unwind_Resume@PLT	#
.L25:
	endbr64	
# Z_function.cpp:22: }
	mov	rbx, rax	# tmp163,
	mov	rax, QWORD PTR -72[rbp]	# tmp162, <retval>
	mov	rdi, rax	#, tmp162
	call	_ZNSt6vectorIiSaIiEED1Ev	#
	mov	rax, rbx	# D.225247, tmp163
	mov	rdx, QWORD PTR -24[rbp]	# tmp166, D.225249
	sub	rdx, QWORD PTR fs:40	# tmp166, MEM[(<address-space-1> long unsigned int *)40B]
	je	.L22	#,
	call	__stack_chk_fail@PLT	#
.L22:
	mov	rdi, rax	#, D.225247
	call	_Unwind_Resume@PLT	#
.LEHE2:
.L26:
	mov	rax, QWORD PTR -24[rbp]	# tmp167, D.225249
	sub	rax, QWORD PTR fs:40	# tmp167, MEM[(<address-space-1> long unsigned int *)40B]
	je	.L23	#,
	call	__stack_chk_fail@PLT	#
.L23:
	mov	rax, QWORD PTR -72[rbp]	#, <retval>
	mov	rbx, QWORD PTR -8[rbp]	#,
	leave	
	.cfi_def_cfa 7, 8
	ret	
	.cfi_endproc
.LFE9770:
	.globl	__gxx_personality_v0
	.section	.gcc_except_table,"a",@progbits
.LLSDA9770:
	.byte	0xff
	.byte	0xff
	.byte	0x1
	.uleb128 .LLSDACSE9770-.LLSDACSB9770
.LLSDACSB9770:
	.uleb128 .LEHB0-.LFB9770
	.uleb128 .LEHE0-.LEHB0
	.uleb128 .L24-.LFB9770
	.uleb128 0
	.uleb128 .LEHB1-.LFB9770
	.uleb128 .LEHE1-.LEHB1
	.uleb128 .L25-.LFB9770
	.uleb128 0
	.uleb128 .LEHB2-.LFB9770
	.uleb128 .LEHE2-.LEHB2
	.uleb128 0
	.uleb128 0
.LLSDACSE9770:
	.text
	.size	_Z9zfunctionRNSt7__cxx1112basic_stringIcSt11char_traitsIcESaIcEEE, .-_Z9zfunctionRNSt7__cxx1112basic_stringIcSt11char_traitsIcESaIcEEE
	.section	.rodata
.LC0:
	.string	" "
.LC1:
	.string	"\n"
	.text
	.globl	main
	.type	main, @function
main:
.LFB9780:
	.cfi_startproc
	.cfi_personality 0x9b,DW.ref.__gxx_personality_v0
	.cfi_lsda 0x1b,.LLSDA9780
	endbr64	
	push	rbp	#
	.cfi_def_cfa_offset 16
	.cfi_offset 6, -16
	mov	rbp, rsp	#,
	.cfi_def_cfa_register 6
	push	rbx	#
	sub	rsp, 136	#,
	.cfi_offset 3, -24
# Z_function.cpp:24: int main() {
	mov	rax, QWORD PTR fs:40	# tmp125, MEM[(<address-space-1> long unsigned int *)40B]
	mov	QWORD PTR -24[rbp], rax	# D.225253, tmp125
	xor	eax, eax	# tmp125
# Z_function.cpp:25:     ios::sync_with_stdio(false);
	mov	edi, 0	#,
.LEHB3:
	call	_ZNSt8ios_base15sync_with_stdioEb@PLT	#
# Z_function.cpp:26:     cin.tie(0);
	mov	esi, 0	#,
	lea	rax, _ZSt3cin[rip+16]	# tmp91,
	mov	rdi, rax	#, tmp91
	call	_ZNSt9basic_iosIcSt11char_traitsIcEE3tieEPSo@PLT	#
# Z_function.cpp:29:     cin >> t;
	lea	rax, -132[rbp]	# tmp92,
	mov	rsi, rax	#, tmp92
	lea	rax, _ZSt3cin[rip]	# tmp93,
	mov	rdi, rax	#, tmp93
	call	_ZNSirsERi@PLT	#
.LEHE3:
# Z_function.cpp:30:     while (t--) {
	jmp	.L28	#
.L31:
# Z_function.cpp:31: 	string s;
	lea	rax, -64[rbp]	# tmp94,
	mov	rdi, rax	#, tmp94
	call	_ZNSt7__cxx1112basic_stringIcSt11char_traitsIcESaIcEEC1Ev@PLT	#
# Z_function.cpp:32: 	cin >> s;
	lea	rax, -64[rbp]	# tmp95,
	mov	rsi, rax	#, tmp95
	lea	rax, _ZSt3cin[rip]	# tmp96,
	mov	rdi, rax	#, tmp96
.LEHB4:
	call	_ZStrsIcSt11char_traitsIcESaIcEERSt13basic_istreamIT_T0_ES7_RNSt7__cxx1112basic_stringIS4_S5_T1_EE@PLT	#
# Z_function.cpp:33: 	vector<int> res = zfunction(s);
	lea	rax, -96[rbp]	# tmp97,
	lea	rdx, -64[rbp]	# tmp98,
	mov	rsi, rdx	#, tmp98
	mov	rdi, rax	#, tmp97
	call	_Z9zfunctionRNSt7__cxx1112basic_stringIcSt11char_traitsIcESaIcEEE	#
.LEHE4:
# Z_function.cpp:34: 	for (auto &&a : res) {
	lea	rax, -96[rbp]	# tmp99,
	mov	QWORD PTR -112[rbp], rax	# __for_range, tmp99
	mov	rax, QWORD PTR -112[rbp]	# tmp100, __for_range
	mov	rdi, rax	#, tmp100
	call	_ZNSt6vectorIiSaIiEE5beginEv	#
	mov	QWORD PTR -128[rbp], rax	# __for_begin, tmp102
# Z_function.cpp:34: 	for (auto &&a : res) {
	mov	rax, QWORD PTR -112[rbp]	# tmp103, __for_range
	mov	rdi, rax	#, tmp103
	call	_ZNSt6vectorIiSaIiEE3endEv	#
	mov	QWORD PTR -120[rbp], rax	# __for_end, tmp105
# Z_function.cpp:34: 	for (auto &&a : res) {
	jmp	.L29	#
.L30:
# Z_function.cpp:34: 	for (auto &&a : res) {
	lea	rax, -128[rbp]	# tmp106,
	mov	rdi, rax	#, tmp106
	call	_ZNK9__gnu_cxx17__normal_iteratorIPiSt6vectorIiSaIiEEEdeEv	#
	mov	QWORD PTR -104[rbp], rax	# a, tmp107
# Z_function.cpp:35: 	    cout << a << " ";
	mov	rax, QWORD PTR -104[rbp]	# tmp108, a
	mov	eax, DWORD PTR [rax]	# _1, *a_36
	mov	esi, eax	#, _1
	lea	rax, _ZSt4cout[rip]	# tmp109,
	mov	rdi, rax	#, tmp109
.LEHB5:
	call	_ZNSolsEi@PLT	#
	mov	rdx, rax	# _2,
# Z_function.cpp:35: 	    cout << a << " ";
	lea	rax, .LC0[rip]	# tmp110,
	mov	rsi, rax	#, tmp110
	mov	rdi, rdx	#, _2
	call	_ZStlsISt11char_traitsIcEERSt13basic_ostreamIcT_ES5_PKc@PLT	#
# Z_function.cpp:34: 	for (auto &&a : res) {
	lea	rax, -128[rbp]	# tmp111,
	mov	rdi, rax	#, tmp111
	call	_ZN9__gnu_cxx17__normal_iteratorIPiSt6vectorIiSaIiEEEppEv	#
.L29:
# Z_function.cpp:34: 	for (auto &&a : res) {
	lea	rdx, -120[rbp]	# tmp112,
	lea	rax, -128[rbp]	# tmp113,
	mov	rsi, rdx	#, tmp112
	mov	rdi, rax	#, tmp113
	call	_ZN9__gnu_cxxneIPiSt6vectorIiSaIiEEEEbRKNS_17__normal_iteratorIT_T0_EESA_	#
	test	al, al	# retval.7_27
	jne	.L30	#,
# Z_function.cpp:37: 	cout << "\n";
	lea	rax, .LC1[rip]	# tmp114,
	mov	rsi, rax	#, tmp114
	lea	rax, _ZSt4cout[rip]	# tmp115,
	mov	rdi, rax	#, tmp115
	call	_ZStlsISt11char_traitsIcEERSt13basic_ostreamIcT_ES5_PKc@PLT	#
.LEHE5:
# Z_function.cpp:38:     }
	lea	rax, -96[rbp]	# tmp116,
	mov	rdi, rax	#, tmp116
	call	_ZNSt6vectorIiSaIiEED1Ev	#
# Z_function.cpp:38:     }
	lea	rax, -64[rbp]	# tmp117,
	mov	rdi, rax	#, tmp117
	call	_ZNSt7__cxx1112basic_stringIcSt11char_traitsIcESaIcEED1Ev@PLT	#
.L28:
# Z_function.cpp:30:     while (t--) {
	mov	eax, DWORD PTR -132[rbp]	# t.9_3, t
	lea	edx, -1[rax]	# _5,
	mov	DWORD PTR -132[rbp], edx	# t, _5
	test	eax, eax	# t.9_3
	setne	al	#, retval.8_17
	test	al, al	# retval.8_17
	jne	.L31	#,
# Z_function.cpp:39:     return 0;
	mov	eax, 0	# _18,
# Z_function.cpp:40: }
	mov	rdx, QWORD PTR -24[rbp]	# tmp126, D.225253
	sub	rdx, QWORD PTR fs:40	# tmp126, MEM[(<address-space-1> long unsigned int *)40B]
	je	.L36	#,
	jmp	.L39	#
.L38:
	endbr64	
# Z_function.cpp:38:     }
	mov	rbx, rax	# tmp121,
	lea	rax, -96[rbp]	# tmp119,
	mov	rdi, rax	#, tmp119
	call	_ZNSt6vectorIiSaIiEED1Ev	#
	jmp	.L34	#
.L37:
	endbr64	
	mov	rbx, rax	# tmp120,
.L34:
	lea	rax, -64[rbp]	# tmp124,
	mov	rdi, rax	#, tmp124
	call	_ZNSt7__cxx1112basic_stringIcSt11char_traitsIcESaIcEED1Ev@PLT	#
	mov	rax, rbx	# D.225252, tmp120
	mov	rdx, QWORD PTR -24[rbp]	# tmp127, D.225253
	sub	rdx, QWORD PTR fs:40	# tmp127, MEM[(<address-space-1> long unsigned int *)40B]
	je	.L35	#,
	call	__stack_chk_fail@PLT	#
.L35:
	mov	rdi, rax	#, D.225252
.LEHB6:
	call	_Unwind_Resume@PLT	#
.LEHE6:
.L39:
# Z_function.cpp:40: }
	call	__stack_chk_fail@PLT	#
.L36:
	mov	rbx, QWORD PTR -8[rbp]	#,
	leave	
	.cfi_def_cfa 7, 8
	ret	
	.cfi_endproc
.LFE9780:
	.section	.gcc_except_table
.LLSDA9780:
	.byte	0xff
	.byte	0xff
	.byte	0x1
	.uleb128 .LLSDACSE9780-.LLSDACSB9780
.LLSDACSB9780:
	.uleb128 .LEHB3-.LFB9780
	.uleb128 .LEHE3-.LEHB3
	.uleb128 0
	.uleb128 0
	.uleb128 .LEHB4-.LFB9780
	.uleb128 .LEHE4-.LEHB4
	.uleb128 .L37-.LFB9780
	.uleb128 0
	.uleb128 .LEHB5-.LFB9780
	.uleb128 .LEHE5-.LEHB5
	.uleb128 .L38-.LFB9780
	.uleb128 0
	.uleb128 .LEHB6-.LFB9780
	.uleb128 .LEHE6-.LEHB6
	.uleb128 0
	.uleb128 0
.LLSDACSE9780:
	.text
	.size	main, .-main
	.section	.text._ZNSt6vectorIiSaIiEEC2EmRKS0_,"axG",@progbits,_ZNSt6vectorIiSaIiEEC5EmRKS0_,comdat
	.align 2
	.weak	_ZNSt6vectorIiSaIiEEC2EmRKS0_
	.type	_ZNSt6vectorIiSaIiEEC2EmRKS0_, @function
_ZNSt6vectorIiSaIiEEC2EmRKS0_:
.LFB10473:
	.cfi_startproc
	.cfi_personality 0x9b,DW.ref.__gxx_personality_v0
	.cfi_lsda 0x1b,.LLSDA10473
	endbr64	
	push	rbp	#
	.cfi_def_cfa_offset 16
	.cfi_offset 6, -16
	mov	rbp, rsp	#,
	.cfi_def_cfa_register 6
	push	rbx	#
	sub	rsp, 40	#,
	.cfi_offset 3, -24
	mov	QWORD PTR -24[rbp], rdi	# this, this
	mov	QWORD PTR -32[rbp], rsi	# __n, __n
	mov	QWORD PTR -40[rbp], rdx	# __a, __a
# /usr/include/c++/13/bits/stl_vector.h:557:       : _Base(_S_check_init_len(__n, __a), __a)
	mov	rbx, QWORD PTR -24[rbp]	# _1, this
	mov	rdx, QWORD PTR -40[rbp]	# tmp86, __a
	mov	rax, QWORD PTR -32[rbp]	# tmp87, __n
	mov	rsi, rdx	#, tmp86
	mov	rdi, rax	#, tmp87
.LEHB7:
	call	_ZNSt6vectorIiSaIiEE17_S_check_init_lenEmRKS0_	#
	mov	rcx, rax	# _2,
# /usr/include/c++/13/bits/stl_vector.h:557:       : _Base(_S_check_init_len(__n, __a), __a)
	mov	rax, QWORD PTR -40[rbp]	# tmp88, __a
	mov	rdx, rax	#, tmp88
	mov	rsi, rcx	#, _2
	mov	rdi, rbx	#, _1
	call	_ZNSt12_Vector_baseIiSaIiEEC2EmRKS0_	#
.LEHE7:
# /usr/include/c++/13/bits/stl_vector.h:558:       { _M_default_initialize(__n); }
	mov	rdx, QWORD PTR -32[rbp]	# tmp89, __n
	mov	rax, QWORD PTR -24[rbp]	# tmp90, this
	mov	rsi, rdx	#, tmp89
	mov	rdi, rax	#, tmp90
.LEHB8:
	call	_ZNSt6vectorIiSaIiEE21_M_default_initializeEm	#
.LEHE8:
# /usr/include/c++/13/bits/stl_vector.h:558:       { _M_default_initialize(__n); }
	jmp	.L43	#
.L42:
	endbr64	
# /usr/include/c++/13/bits/stl_vector.h:558:       { _M_default_initialize(__n); }
	mov	rbx, rax	# tmp91,
	mov	rax, QWORD PTR -24[rbp]	# _3, this
	mov	rdi, rax	#, _3
	call	_ZNSt12_Vector_baseIiSaIiEED2Ev	#
	mov	rax, rbx	# D.225257, tmp91
	mov	rdi, rax	#, D.225257
.LEHB9:
	call	_Unwind_Resume@PLT	#
.LEHE9:
.L43:
# /usr/include/c++/13/bits/stl_vector.h:558:       { _M_default_initialize(__n); }
	mov	rbx, QWORD PTR -8[rbp]	#,
	leave	
	.cfi_def_cfa 7, 8
	ret	
	.cfi_endproc
.LFE10473:
	.section	.gcc_except_table
.LLSDA10473:
	.byte	0xff
	.byte	0xff
	.byte	0x1
	.uleb128 .LLSDACSE10473-.LLSDACSB10473
.LLSDACSB10473:
	.uleb128 .LEHB7-.LFB10473
	.uleb128 .LEHE7-.LEHB7
	.uleb128 0
	.uleb128 0
	.uleb128 .LEHB8-.LFB10473
	.uleb128 .LEHE8-.LEHB8
	.uleb128 .L42-.LFB10473
	.uleb128 0
	.uleb128 .LEHB9-.LFB10473
	.uleb128 .LEHE9-.LEHB9
	.uleb128 0
	.uleb128 0
.LLSDACSE10473:
	.section	.text._ZNSt6vectorIiSaIiEEC2EmRKS0_,"axG",@progbits,_ZNSt6vectorIiSaIiEEC5EmRKS0_,comdat
	.size	_ZNSt6vectorIiSaIiEEC2EmRKS0_, .-_ZNSt6vectorIiSaIiEEC2EmRKS0_
	.weak	_ZNSt6vectorIiSaIiEEC1EmRKS0_
	.set	_ZNSt6vectorIiSaIiEEC1EmRKS0_,_ZNSt6vectorIiSaIiEEC2EmRKS0_
	.section	.text._ZNSt6vectorIiSaIiEED2Ev,"axG",@progbits,_ZNSt6vectorIiSaIiEED5Ev,comdat
	.align 2
	.weak	_ZNSt6vectorIiSaIiEED2Ev
	.type	_ZNSt6vectorIiSaIiEED2Ev, @function
_ZNSt6vectorIiSaIiEED2Ev:
.LFB10476:
	.cfi_startproc
	.cfi_personality 0x9b,DW.ref.__gxx_personality_v0
	.cfi_lsda 0x1b,.LLSDA10476
	endbr64	
	push	rbp	#
	.cfi_def_cfa_offset 16
	.cfi_offset 6, -16
	mov	rbp, rsp	#,
	.cfi_def_cfa_register 6
	sub	rsp, 48	#,
	mov	QWORD PTR -40[rbp], rdi	# this, this
# /usr/include/c++/13/bits/stl_vector.h:736: 		      _M_get_Tp_allocator());
	mov	rax, QWORD PTR -40[rbp]	# _1, this
	mov	rdi, rax	#, _1
	call	_ZNSt12_Vector_baseIiSaIiEE19_M_get_Tp_allocatorEv	#
# /usr/include/c++/13/bits/stl_vector.h:735: 	std::_Destroy(this->_M_impl._M_start, this->_M_impl._M_finish,
	mov	rdx, QWORD PTR -40[rbp]	# tmp87, this
	mov	rdx, QWORD PTR 8[rdx]	# _3, this_6(D)->D.188304._M_impl.D.187644._M_finish
	mov	rcx, QWORD PTR -40[rbp]	# tmp88, this
	mov	rcx, QWORD PTR [rcx]	# _4, this_6(D)->D.188304._M_impl.D.187644._M_start
	mov	QWORD PTR -24[rbp], rcx	# __first, _4
	mov	QWORD PTR -16[rbp], rdx	# __last, _3
	mov	QWORD PTR -8[rbp], rax	# D.225184, _2
# /usr/include/c++/13/bits/alloc_traits.h:948:       std::_Destroy(__first, __last);
	mov	rdx, QWORD PTR -16[rbp]	# tmp89, __last
	mov	rax, QWORD PTR -24[rbp]	# tmp90, __first
	mov	rsi, rdx	#, tmp89
	mov	rdi, rax	#, tmp90
	call	_ZSt8_DestroyIPiEvT_S1_	#
# /usr/include/c++/13/bits/alloc_traits.h:949:     }
	nop	
# /usr/include/c++/13/bits/stl_vector.h:738:       }
	mov	rax, QWORD PTR -40[rbp]	# _5, this
	mov	rdi, rax	#, _5
	call	_ZNSt12_Vector_baseIiSaIiEED2Ev	#
	nop	
	leave	
	.cfi_def_cfa 7, 8
	ret	
	.cfi_endproc
.LFE10476:
	.section	.gcc_except_table
.LLSDA10476:
	.byte	0xff
	.byte	0xff
	.byte	0x1
	.uleb128 .LLSDACSE10476-.LLSDACSB10476
.LLSDACSB10476:
.LLSDACSE10476:
	.section	.text._ZNSt6vectorIiSaIiEED2Ev,"axG",@progbits,_ZNSt6vectorIiSaIiEED5Ev,comdat
	.size	_ZNSt6vectorIiSaIiEED2Ev, .-_ZNSt6vectorIiSaIiEED2Ev
	.weak	_ZNSt6vectorIiSaIiEED1Ev
	.set	_ZNSt6vectorIiSaIiEED1Ev,_ZNSt6vectorIiSaIiEED2Ev
	.section	.text._ZNSt6vectorIiSaIiEEixEm,"axG",@progbits,_ZNSt6vectorIiSaIiEEixEm,comdat
	.align 2
	.weak	_ZNSt6vectorIiSaIiEEixEm
	.type	_ZNSt6vectorIiSaIiEEixEm, @function
_ZNSt6vectorIiSaIiEEixEm:
.LFB10478:
	.cfi_startproc
	endbr64	
	push	rbp	#
	.cfi_def_cfa_offset 16
	.cfi_offset 6, -16
	mov	rbp, rsp	#,
	.cfi_def_cfa_register 6
	mov	QWORD PTR -8[rbp], rdi	# this, this
	mov	QWORD PTR -16[rbp], rsi	# __n, __n
# /usr/include/c++/13/bits/stl_vector.h:1129: 	return *(this->_M_impl._M_start + __n);
	mov	rax, QWORD PTR -8[rbp]	# tmp86, this
	mov	rax, QWORD PTR [rax]	# _1, this_4(D)->D.188304._M_impl.D.187644._M_start
# /usr/include/c++/13/bits/stl_vector.h:1129: 	return *(this->_M_impl._M_start + __n);
	mov	rdx, QWORD PTR -16[rbp]	# tmp87, __n
	sal	rdx, 2	# _2,
# /usr/include/c++/13/bits/stl_vector.h:1129: 	return *(this->_M_impl._M_start + __n);
	add	rax, rdx	# _6, _2
# /usr/include/c++/13/bits/stl_vector.h:1130:       }
	pop	rbp	#
	.cfi_def_cfa 7, 8
	ret	
	.cfi_endproc
.LFE10478:
	.size	_ZNSt6vectorIiSaIiEEixEm, .-_ZNSt6vectorIiSaIiEEixEm
	.section	.text._ZSt3minIiERKT_S2_S2_,"axG",@progbits,_ZSt3minIiERKT_S2_S2_,comdat
	.weak	_ZSt3minIiERKT_S2_S2_
	.type	_ZSt3minIiERKT_S2_S2_, @function
_ZSt3minIiERKT_S2_S2_:
.LFB10479:
	.cfi_startproc
	endbr64	
	push	rbp	#
	.cfi_def_cfa_offset 16
	.cfi_offset 6, -16
	mov	rbp, rsp	#,
	.cfi_def_cfa_register 6
	mov	QWORD PTR -8[rbp], rdi	# __a, __a
	mov	QWORD PTR -16[rbp], rsi	# __b, __b
# /usr/include/c++/13/bits/stl_algobase.h:238:       if (__b < __a)
	mov	rax, QWORD PTR -16[rbp]	# tmp86, __b
	mov	edx, DWORD PTR [rax]	# _1, *__b_5(D)
	mov	rax, QWORD PTR -8[rbp]	# tmp87, __a
	mov	eax, DWORD PTR [rax]	# _2, *__a_6(D)
# /usr/include/c++/13/bits/stl_algobase.h:238:       if (__b < __a)
	cmp	edx, eax	# _1, _2
	jge	.L48	#,
# /usr/include/c++/13/bits/stl_algobase.h:239: 	return __b;
	mov	rax, QWORD PTR -16[rbp]	# _3, __b
	jmp	.L49	#
.L48:
# /usr/include/c++/13/bits/stl_algobase.h:240:       return __a;
	mov	rax, QWORD PTR -8[rbp]	# _3, __a
.L49:
# /usr/include/c++/13/bits/stl_algobase.h:241:     }
	pop	rbp	#
	.cfi_def_cfa 7, 8
	ret	
	.cfi_endproc
.LFE10479:
	.size	_ZSt3minIiERKT_S2_S2_, .-_ZSt3minIiERKT_S2_S2_
	.section	.text._ZNSt12_Vector_baseIiSaIiEED2Ev,"axG",@progbits,_ZNSt12_Vector_baseIiSaIiEED5Ev,comdat
	.align 2
	.weak	_ZNSt12_Vector_baseIiSaIiEED2Ev
	.type	_ZNSt12_Vector_baseIiSaIiEED2Ev, @function
_ZNSt12_Vector_baseIiSaIiEED2Ev:
.LFB10484:
	.cfi_startproc
	.cfi_personality 0x9b,DW.ref.__gxx_personality_v0
	.cfi_lsda 0x1b,.LLSDA10484
	endbr64	
	push	rbp	#
	.cfi_def_cfa_offset 16
	.cfi_offset 6, -16
	mov	rbp, rsp	#,
	.cfi_def_cfa_register 6
	sub	rsp, 16	#,
	mov	QWORD PTR -8[rbp], rdi	# this, this
# /usr/include/c++/13/bits/stl_vector.h:370: 		      _M_impl._M_end_of_storage - _M_impl._M_start);
	mov	rax, QWORD PTR -8[rbp]	# tmp89, this
	mov	rdx, QWORD PTR 16[rax]	# _1, this_9(D)->_M_impl.D.187644._M_end_of_storage
# /usr/include/c++/13/bits/stl_vector.h:370: 		      _M_impl._M_end_of_storage - _M_impl._M_start);
	mov	rax, QWORD PTR -8[rbp]	# tmp90, this
	mov	rax, QWORD PTR [rax]	# _2, this_9(D)->_M_impl.D.187644._M_start
# /usr/include/c++/13/bits/stl_vector.h:370: 		      _M_impl._M_end_of_storage - _M_impl._M_start);
	sub	rdx, rax	# _3, _2
	mov	rax, rdx	# _3, _3
	sar	rax, 2	# _3,
# /usr/include/c++/13/bits/stl_vector.h:369: 	_M_deallocate(_M_impl._M_start,
	mov	rdx, rax	# _5, _4
	mov	rax, QWORD PTR -8[rbp]	# tmp92, this
	mov	rcx, QWORD PTR [rax]	# _6, this_9(D)->_M_impl.D.187644._M_start
	mov	rax, QWORD PTR -8[rbp]	# tmp93, this
	mov	rsi, rcx	#, _6
	mov	rdi, rax	#, tmp93
	call	_ZNSt12_Vector_baseIiSaIiEE13_M_deallocateEPim	#
# /usr/include/c++/13/bits/stl_vector.h:371:       }
	mov	rax, QWORD PTR -8[rbp]	# _7, this
	mov	rdi, rax	#, _7
	call	_ZNSt12_Vector_baseIiSaIiEE12_Vector_implD1Ev	#
	nop	
	leave	
	.cfi_def_cfa 7, 8
	ret	
	.cfi_endproc
.LFE10484:
	.section	.gcc_except_table
.LLSDA10484:
	.byte	0xff
	.byte	0xff
	.byte	0x1
	.uleb128 .LLSDACSE10484-.LLSDACSB10484
.LLSDACSB10484:
.LLSDACSE10484:
	.section	.text._ZNSt12_Vector_baseIiSaIiEED2Ev,"axG",@progbits,_ZNSt12_Vector_baseIiSaIiEED5Ev,comdat
	.size	_ZNSt12_Vector_baseIiSaIiEED2Ev, .-_ZNSt12_Vector_baseIiSaIiEED2Ev
	.weak	_ZNSt12_Vector_baseIiSaIiEED1Ev
	.set	_ZNSt12_Vector_baseIiSaIiEED1Ev,_ZNSt12_Vector_baseIiSaIiEED2Ev
	.section	.text._ZNSt6vectorIiSaIiEE5beginEv,"axG",@progbits,_ZNSt6vectorIiSaIiEE5beginEv,comdat
	.align 2
	.weak	_ZNSt6vectorIiSaIiEE5beginEv
	.type	_ZNSt6vectorIiSaIiEE5beginEv, @function
_ZNSt6vectorIiSaIiEE5beginEv:
.LFB10487:
	.cfi_startproc
	endbr64	
	push	rbp	#
	.cfi_def_cfa_offset 16
	.cfi_offset 6, -16
	mov	rbp, rsp	#,
	.cfi_def_cfa_register 6
	sub	rsp, 32	#,
	mov	QWORD PTR -24[rbp], rdi	# this, this
# /usr/include/c++/13/bits/stl_vector.h:873:       begin() _GLIBCXX_NOEXCEPT
	mov	rax, QWORD PTR fs:40	# tmp87, MEM[(<address-space-1> long unsigned int *)40B]
	mov	QWORD PTR -8[rbp], rax	# D.225258, tmp87
	xor	eax, eax	# tmp87
# /usr/include/c++/13/bits/stl_vector.h:874:       { return iterator(this->_M_impl._M_start); }
	mov	rdx, QWORD PTR -24[rbp]	# _1, this
# /usr/include/c++/13/bits/stl_vector.h:874:       { return iterator(this->_M_impl._M_start); }
	lea	rax, -16[rbp]	# tmp85,
	mov	rsi, rdx	#, _1
	mov	rdi, rax	#, tmp85
	call	_ZN9__gnu_cxx17__normal_iteratorIPiSt6vectorIiSaIiEEEC1ERKS1_	#
# /usr/include/c++/13/bits/stl_vector.h:874:       { return iterator(this->_M_impl._M_start); }
	mov	rax, QWORD PTR -16[rbp]	# D.225093, D.214792
# /usr/include/c++/13/bits/stl_vector.h:874:       { return iterator(this->_M_impl._M_start); }
	mov	rdx, QWORD PTR -8[rbp]	# tmp88, D.225258
	sub	rdx, QWORD PTR fs:40	# tmp88, MEM[(<address-space-1> long unsigned int *)40B]
	je	.L53	#,
	call	__stack_chk_fail@PLT	#
.L53:
	leave	
	.cfi_def_cfa 7, 8
	ret	
	.cfi_endproc
.LFE10487:
	.size	_ZNSt6vectorIiSaIiEE5beginEv, .-_ZNSt6vectorIiSaIiEE5beginEv
	.section	.text._ZNSt6vectorIiSaIiEE3endEv,"axG",@progbits,_ZNSt6vectorIiSaIiEE3endEv,comdat
	.align 2
	.weak	_ZNSt6vectorIiSaIiEE3endEv
	.type	_ZNSt6vectorIiSaIiEE3endEv, @function
_ZNSt6vectorIiSaIiEE3endEv:
.LFB10488:
	.cfi_startproc
	endbr64	
	push	rbp	#
	.cfi_def_cfa_offset 16
	.cfi_offset 6, -16
	mov	rbp, rsp	#,
	.cfi_def_cfa_register 6
	sub	rsp, 32	#,
	mov	QWORD PTR -24[rbp], rdi	# this, this
# /usr/include/c++/13/bits/stl_vector.h:893:       end() _GLIBCXX_NOEXCEPT
	mov	rax, QWORD PTR fs:40	# tmp88, MEM[(<address-space-1> long unsigned int *)40B]
	mov	QWORD PTR -8[rbp], rax	# D.225259, tmp88
	xor	eax, eax	# tmp88
# /usr/include/c++/13/bits/stl_vector.h:894:       { return iterator(this->_M_impl._M_finish); }
	mov	rax, QWORD PTR -24[rbp]	# tmp85, this
	lea	rdx, 8[rax]	# _1,
# /usr/include/c++/13/bits/stl_vector.h:894:       { return iterator(this->_M_impl._M_finish); }
	lea	rax, -16[rbp]	# tmp86,
	mov	rsi, rdx	#, _1
	mov	rdi, rax	#, tmp86
	call	_ZN9__gnu_cxx17__normal_iteratorIPiSt6vectorIiSaIiEEEC1ERKS1_	#
# /usr/include/c++/13/bits/stl_vector.h:894:       { return iterator(this->_M_impl._M_finish); }
	mov	rax, QWORD PTR -16[rbp]	# D.225096, D.214794
# /usr/include/c++/13/bits/stl_vector.h:894:       { return iterator(this->_M_impl._M_finish); }
	mov	rdx, QWORD PTR -8[rbp]	# tmp89, D.225259
	sub	rdx, QWORD PTR fs:40	# tmp89, MEM[(<address-space-1> long unsigned int *)40B]
	je	.L56	#,
	call	__stack_chk_fail@PLT	#
.L56:
	leave	
	.cfi_def_cfa 7, 8
	ret	
	.cfi_endproc
.LFE10488:
	.size	_ZNSt6vectorIiSaIiEE3endEv, .-_ZNSt6vectorIiSaIiEE3endEv
	.section	.text._ZN9__gnu_cxxneIPiSt6vectorIiSaIiEEEEbRKNS_17__normal_iteratorIT_T0_EESA_,"axG",@progbits,_ZN9__gnu_cxxneIPiSt6vectorIiSaIiEEEEbRKNS_17__normal_iteratorIT_T0_EESA_,comdat
	.weak	_ZN9__gnu_cxxneIPiSt6vectorIiSaIiEEEEbRKNS_17__normal_iteratorIT_T0_EESA_
	.type	_ZN9__gnu_cxxneIPiSt6vectorIiSaIiEEEEbRKNS_17__normal_iteratorIT_T0_EESA_, @function
_ZN9__gnu_cxxneIPiSt6vectorIiSaIiEEEEbRKNS_17__normal_iteratorIT_T0_EESA_:
.LFB10489:
	.cfi_startproc
	endbr64	
	push	rbp	#
	.cfi_def_cfa_offset 16
	.cfi_offset 6, -16
	mov	rbp, rsp	#,
	.cfi_def_cfa_register 6
	push	rbx	#
	sub	rsp, 24	#,
	.cfi_offset 3, -24
	mov	QWORD PTR -24[rbp], rdi	# __lhs, __lhs
	mov	QWORD PTR -32[rbp], rsi	# __rhs, __rhs
# /usr/include/c++/13/bits/stl_iterator.h:1244:     { return __lhs.base() != __rhs.base(); }
	mov	rax, QWORD PTR -24[rbp]	# tmp88, __lhs
	mov	rdi, rax	#, tmp88
	call	_ZNK9__gnu_cxx17__normal_iteratorIPiSt6vectorIiSaIiEEE4baseEv	#
# /usr/include/c++/13/bits/stl_iterator.h:1244:     { return __lhs.base() != __rhs.base(); }
	mov	rbx, QWORD PTR [rax]	# _2, *_1
# /usr/include/c++/13/bits/stl_iterator.h:1244:     { return __lhs.base() != __rhs.base(); }
	mov	rax, QWORD PTR -32[rbp]	# tmp89, __rhs
	mov	rdi, rax	#, tmp89
	call	_ZNK9__gnu_cxx17__normal_iteratorIPiSt6vectorIiSaIiEEE4baseEv	#
# /usr/include/c++/13/bits/stl_iterator.h:1244:     { return __lhs.base() != __rhs.base(); }
	mov	rax, QWORD PTR [rax]	# _4, *_3
# /usr/include/c++/13/bits/stl_iterator.h:1244:     { return __lhs.base() != __rhs.base(); }
	cmp	rbx, rax	# _2, _4
	setne	al	#, _10
# /usr/include/c++/13/bits/stl_iterator.h:1244:     { return __lhs.base() != __rhs.base(); }
	mov	rbx, QWORD PTR -8[rbp]	#,
	leave	
	.cfi_def_cfa 7, 8
	ret	
	.cfi_endproc
.LFE10489:
	.size	_ZN9__gnu_cxxneIPiSt6vectorIiSaIiEEEEbRKNS_17__normal_iteratorIT_T0_EESA_, .-_ZN9__gnu_cxxneIPiSt6vectorIiSaIiEEEEbRKNS_17__normal_iteratorIT_T0_EESA_
	.section	.text._ZN9__gnu_cxx17__normal_iteratorIPiSt6vectorIiSaIiEEEppEv,"axG",@progbits,_ZN9__gnu_cxx17__normal_iteratorIPiSt6vectorIiSaIiEEEppEv,comdat
	.align 2
	.weak	_ZN9__gnu_cxx17__normal_iteratorIPiSt6vectorIiSaIiEEEppEv
	.type	_ZN9__gnu_cxx17__normal_iteratorIPiSt6vectorIiSaIiEEEppEv, @function
_ZN9__gnu_cxx17__normal_iteratorIPiSt6vectorIiSaIiEEEppEv:
.LFB10490:
	.cfi_startproc
	endbr64	
	push	rbp	#
	.cfi_def_cfa_offset 16
	.cfi_offset 6, -16
	mov	rbp, rsp	#,
	.cfi_def_cfa_register 6
	mov	QWORD PTR -8[rbp], rdi	# this, this
# /usr/include/c++/13/bits/stl_iterator.h:1111: 	++_M_current;
	mov	rax, QWORD PTR -8[rbp]	# tmp86, this
	mov	rax, QWORD PTR [rax]	# _1, this_4(D)->_M_current
# /usr/include/c++/13/bits/stl_iterator.h:1111: 	++_M_current;
	lea	rdx, 4[rax]	# _2,
	mov	rax, QWORD PTR -8[rbp]	# tmp87, this
	mov	QWORD PTR [rax], rdx	# this_4(D)->_M_current, _2
# /usr/include/c++/13/bits/stl_iterator.h:1112: 	return *this;
	mov	rax, QWORD PTR -8[rbp]	# _6, this
# /usr/include/c++/13/bits/stl_iterator.h:1113:       }
	pop	rbp	#
	.cfi_def_cfa 7, 8
	ret	
	.cfi_endproc
.LFE10490:
	.size	_ZN9__gnu_cxx17__normal_iteratorIPiSt6vectorIiSaIiEEEppEv, .-_ZN9__gnu_cxx17__normal_iteratorIPiSt6vectorIiSaIiEEEppEv
	.section	.text._ZNK9__gnu_cxx17__normal_iteratorIPiSt6vectorIiSaIiEEEdeEv,"axG",@progbits,_ZNK9__gnu_cxx17__normal_iteratorIPiSt6vectorIiSaIiEEEdeEv,comdat
	.align 2
	.weak	_ZNK9__gnu_cxx17__normal_iteratorIPiSt6vectorIiSaIiEEEdeEv
	.type	_ZNK9__gnu_cxx17__normal_iteratorIPiSt6vectorIiSaIiEEEdeEv, @function
_ZNK9__gnu_cxx17__normal_iteratorIPiSt6vectorIiSaIiEEEdeEv:
.LFB10491:
	.cfi_startproc
	endbr64	
	push	rbp	#
	.cfi_def_cfa_offset 16
	.cfi_offset 6, -16
	mov	rbp, rsp	#,
	.cfi_def_cfa_register 6
	mov	QWORD PTR -8[rbp], rdi	# this, this
# /usr/include/c++/13/bits/stl_iterator.h:1100:       { return *_M_current; }
	mov	rax, QWORD PTR -8[rbp]	# tmp84, this
	mov	rax, QWORD PTR [rax]	# _3, this_2(D)->_M_current
# /usr/include/c++/13/bits/stl_iterator.h:1100:       { return *_M_current; }
	pop	rbp	#
	.cfi_def_cfa 7, 8
	ret	
	.cfi_endproc
.LFE10491:
	.size	_ZNK9__gnu_cxx17__normal_iteratorIPiSt6vectorIiSaIiEEEdeEv, .-_ZNK9__gnu_cxx17__normal_iteratorIPiSt6vectorIiSaIiEEEdeEv
	.section	.text._ZNSt15__new_allocatorIiED2Ev,"axG",@progbits,_ZNSt15__new_allocatorIiED5Ev,comdat
	.align 2
	.weak	_ZNSt15__new_allocatorIiED2Ev
	.type	_ZNSt15__new_allocatorIiED2Ev, @function
_ZNSt15__new_allocatorIiED2Ev:
.LFB10920:
	.cfi_startproc
	endbr64	
	push	rbp	#
	.cfi_def_cfa_offset 16
	.cfi_offset 6, -16
	mov	rbp, rsp	#,
	.cfi_def_cfa_register 6
	mov	QWORD PTR -8[rbp], rdi	# this, this
# /usr/include/c++/13/bits/new_allocator.h:104:       ~__new_allocator() _GLIBCXX_USE_NOEXCEPT { }
	nop	
	pop	rbp	#
	.cfi_def_cfa 7, 8
	ret	
	.cfi_endproc
.LFE10920:
	.size	_ZNSt15__new_allocatorIiED2Ev, .-_ZNSt15__new_allocatorIiED2Ev
	.weak	_ZNSt15__new_allocatorIiED1Ev
	.set	_ZNSt15__new_allocatorIiED1Ev,_ZNSt15__new_allocatorIiED2Ev
	.section	.rodata
	.align 8
.LC2:
	.string	"cannot create std::vector larger than max_size()"
	.section	.text._ZNSt6vectorIiSaIiEE17_S_check_init_lenEmRKS0_,"axG",@progbits,_ZNSt6vectorIiSaIiEE17_S_check_init_lenEmRKS0_,comdat
	.weak	_ZNSt6vectorIiSaIiEE17_S_check_init_lenEmRKS0_
	.type	_ZNSt6vectorIiSaIiEE17_S_check_init_lenEmRKS0_, @function
_ZNSt6vectorIiSaIiEE17_S_check_init_lenEmRKS0_:
.LFB10922:
	.cfi_startproc
	endbr64	
	push	rbp	#
	.cfi_def_cfa_offset 16
	.cfi_offset 6, -16
	mov	rbp, rsp	#,
	.cfi_def_cfa_register 6
	push	rbx	#
	sub	rsp, 72	#,
	.cfi_offset 3, -24
	mov	QWORD PTR -72[rbp], rdi	# __n, __n
	mov	QWORD PTR -80[rbp], rsi	# __a, __a
# /usr/include/c++/13/bits/stl_vector.h:1907:       _S_check_init_len(size_type __n, const allocator_type& __a)
	mov	rax, QWORD PTR fs:40	# tmp93, MEM[(<address-space-1> long unsigned int *)40B]
	mov	QWORD PTR -24[rbp], rax	# D.225260, tmp93
	xor	eax, eax	# tmp93
	mov	rax, QWORD PTR -80[rbp]	# tmp86, __a
	mov	QWORD PTR -48[rbp], rax	# __a, tmp86
	lea	rax, -49[rbp]	# tmp87,
	mov	QWORD PTR -40[rbp], rax	# this, tmp87
	mov	rax, QWORD PTR -48[rbp]	# tmp88, __a
	mov	QWORD PTR -32[rbp], rax	# D.225232, tmp88
# /usr/include/c++/13/bits/new_allocator.h:92:       __new_allocator(const __new_allocator&) _GLIBCXX_USE_NOEXCEPT { }
	nop	
# /usr/include/c++/13/bits/allocator.h:168:       : __allocator_base<_Tp>(__a) { }
	nop	
# /usr/include/c++/13/bits/stl_vector.h:1909: 	if (__n > _S_max_size(_Tp_alloc_type(__a)))
	lea	rax, -49[rbp]	# tmp89,
	mov	rdi, rax	#, tmp89
	call	_ZNSt6vectorIiSaIiEE11_S_max_sizeERKS0_	#
# /usr/include/c++/13/bits/stl_vector.h:1909: 	if (__n > _S_max_size(_Tp_alloc_type(__a)))
	cmp	rax, QWORD PTR -72[rbp]	# _1, __n
	setb	bl	#, retval.3_6
# /usr/include/c++/13/bits/allocator.h:184:       ~allocator() _GLIBCXX_NOTHROW { }
	lea	rax, -49[rbp]	# tmp90,
	mov	rdi, rax	#, tmp90
	call	_ZNSt15__new_allocatorIiED2Ev	#
	nop	
# /usr/include/c++/13/bits/stl_vector.h:1909: 	if (__n > _S_max_size(_Tp_alloc_type(__a)))
	test	bl, bl	# retval.3_6
	je	.L65	#,
# /usr/include/c++/13/bits/stl_vector.h:1910: 	  __throw_length_error(
	mov	rax, QWORD PTR -24[rbp]	# tmp94, D.225260
	sub	rax, QWORD PTR fs:40	# tmp94, MEM[(<address-space-1> long unsigned int *)40B]
	je	.L66	#,
	call	__stack_chk_fail@PLT	#
.L66:
	lea	rax, .LC2[rip]	# tmp91,
	mov	rdi, rax	#, tmp91
	call	_ZSt20__throw_length_errorPKc@PLT	#
.L65:
# /usr/include/c++/13/bits/stl_vector.h:1912: 	return __n;
	mov	rax, QWORD PTR -72[rbp]	# _8, __n
# /usr/include/c++/13/bits/stl_vector.h:1913:       }
	mov	rdx, QWORD PTR -24[rbp]	# tmp95, D.225260
	sub	rdx, QWORD PTR fs:40	# tmp95, MEM[(<address-space-1> long unsigned int *)40B]
	je	.L68	#,
	call	__stack_chk_fail@PLT	#
.L68:
	mov	rbx, QWORD PTR -8[rbp]	#,
	leave	
	.cfi_def_cfa 7, 8
	ret	
	.cfi_endproc
.LFE10922:
	.size	_ZNSt6vectorIiSaIiEE17_S_check_init_lenEmRKS0_, .-_ZNSt6vectorIiSaIiEE17_S_check_init_lenEmRKS0_
	.section	.text._ZNSt12_Vector_baseIiSaIiEEC2EmRKS0_,"axG",@progbits,_ZNSt12_Vector_baseIiSaIiEEC5EmRKS0_,comdat
	.align 2
	.weak	_ZNSt12_Vector_baseIiSaIiEEC2EmRKS0_
	.type	_ZNSt12_Vector_baseIiSaIiEEC2EmRKS0_, @function
_ZNSt12_Vector_baseIiSaIiEEC2EmRKS0_:
.LFB10924:
	.cfi_startproc
	.cfi_personality 0x9b,DW.ref.__gxx_personality_v0
	.cfi_lsda 0x1b,.LLSDA10924
	endbr64	
	push	rbp	#
	.cfi_def_cfa_offset 16
	.cfi_offset 6, -16
	mov	rbp, rsp	#,
	.cfi_def_cfa_register 6
	push	rbx	#
	sub	rsp, 40	#,
	.cfi_offset 3, -24
	mov	QWORD PTR -24[rbp], rdi	# this, this
	mov	QWORD PTR -32[rbp], rsi	# __n, __n
	mov	QWORD PTR -40[rbp], rdx	# __a, __a
# /usr/include/c++/13/bits/stl_vector.h:334:       : _M_impl(__a)
	mov	rax, QWORD PTR -24[rbp]	# _1, this
	mov	rdx, QWORD PTR -40[rbp]	# tmp85, __a
	mov	rsi, rdx	#, tmp85
	mov	rdi, rax	#, _1
	call	_ZNSt12_Vector_baseIiSaIiEE12_Vector_implC1ERKS0_	#
# /usr/include/c++/13/bits/stl_vector.h:335:       { _M_create_storage(__n); }
	mov	rdx, QWORD PTR -32[rbp]	# tmp86, __n
	mov	rax, QWORD PTR -24[rbp]	# tmp87, this
	mov	rsi, rdx	#, tmp86
	mov	rdi, rax	#, tmp87
.LEHB10:
	call	_ZNSt12_Vector_baseIiSaIiEE17_M_create_storageEm	#
.LEHE10:
# /usr/include/c++/13/bits/stl_vector.h:335:       { _M_create_storage(__n); }
	jmp	.L72	#
.L71:
	endbr64	
# /usr/include/c++/13/bits/stl_vector.h:335:       { _M_create_storage(__n); }
	mov	rbx, rax	# tmp88,
	mov	rax, QWORD PTR -24[rbp]	# _2, this
	mov	rdi, rax	#, _2
	call	_ZNSt12_Vector_baseIiSaIiEE12_Vector_implD1Ev	#
	mov	rax, rbx	# D.225262, tmp88
	mov	rdi, rax	#, D.225262
.LEHB11:
	call	_Unwind_Resume@PLT	#
.LEHE11:
.L72:
# /usr/include/c++/13/bits/stl_vector.h:335:       { _M_create_storage(__n); }
	mov	rbx, QWORD PTR -8[rbp]	#,
	leave	
	.cfi_def_cfa 7, 8
	ret	
	.cfi_endproc
.LFE10924:
	.section	.gcc_except_table
.LLSDA10924:
	.byte	0xff
	.byte	0xff
	.byte	0x1
	.uleb128 .LLSDACSE10924-.LLSDACSB10924
.LLSDACSB10924:
	.uleb128 .LEHB10-.LFB10924
	.uleb128 .LEHE10-.LEHB10
	.uleb128 .L71-.LFB10924
	.uleb128 0
	.uleb128 .LEHB11-.LFB10924
	.uleb128 .LEHE11-.LEHB11
	.uleb128 0
	.uleb128 0
.LLSDACSE10924:
	.section	.text._ZNSt12_Vector_baseIiSaIiEEC2EmRKS0_,"axG",@progbits,_ZNSt12_Vector_baseIiSaIiEEC5EmRKS0_,comdat
	.size	_ZNSt12_Vector_baseIiSaIiEEC2EmRKS0_, .-_ZNSt12_Vector_baseIiSaIiEEC2EmRKS0_
	.weak	_ZNSt12_Vector_baseIiSaIiEEC1EmRKS0_
	.set	_ZNSt12_Vector_baseIiSaIiEEC1EmRKS0_,_ZNSt12_Vector_baseIiSaIiEEC2EmRKS0_
	.section	.text._ZNSt6vectorIiSaIiEE21_M_default_initializeEm,"axG",@progbits,_ZNSt6vectorIiSaIiEE21_M_default_initializeEm,comdat
	.align 2
	.weak	_ZNSt6vectorIiSaIiEE21_M_default_initializeEm
	.type	_ZNSt6vectorIiSaIiEE21_M_default_initializeEm, @function
_ZNSt6vectorIiSaIiEE21_M_default_initializeEm:
.LFB10926:
	.cfi_startproc
	endbr64	
	push	rbp	#
	.cfi_def_cfa_offset 16
	.cfi_offset 6, -16
	mov	rbp, rsp	#,
	.cfi_def_cfa_register 6
	sub	rsp, 16	#,
	mov	QWORD PTR -8[rbp], rdi	# this, this
	mov	QWORD PTR -16[rbp], rsi	# __n, __n
# /usr/include/c++/13/bits/stl_vector.h:1719: 					   _M_get_Tp_allocator());
	mov	rax, QWORD PTR -8[rbp]	# _1, this
	mov	rdi, rax	#, _1
	call	_ZNSt12_Vector_baseIiSaIiEE19_M_get_Tp_allocatorEv	#
	mov	rdx, rax	# _2,
# /usr/include/c++/13/bits/stl_vector.h:1718: 	  std::__uninitialized_default_n_a(this->_M_impl._M_start, __n,
	mov	rax, QWORD PTR -8[rbp]	# tmp86, this
	mov	rax, QWORD PTR [rax]	# _3, this_5(D)->D.188304._M_impl.D.187644._M_start
	mov	rcx, QWORD PTR -16[rbp]	# tmp87, __n
	mov	rsi, rcx	#, tmp87
	mov	rdi, rax	#, _3
	call	_ZSt27__uninitialized_default_n_aIPimiET_S1_T0_RSaIT1_E	#
# /usr/include/c++/13/bits/stl_vector.h:1717: 	this->_M_impl._M_finish =
	mov	rdx, QWORD PTR -8[rbp]	# tmp88, this
	mov	QWORD PTR 8[rdx], rax	# this_5(D)->D.188304._M_impl.D.187644._M_finish, _4
# /usr/include/c++/13/bits/stl_vector.h:1720:       }
	nop	
	leave	
	.cfi_def_cfa 7, 8
	ret	
	.cfi_endproc
.LFE10926:
	.size	_ZNSt6vectorIiSaIiEE21_M_default_initializeEm, .-_ZNSt6vectorIiSaIiEE21_M_default_initializeEm
	.section	.text._ZNSt12_Vector_baseIiSaIiEE19_M_get_Tp_allocatorEv,"axG",@progbits,_ZNSt12_Vector_baseIiSaIiEE19_M_get_Tp_allocatorEv,comdat
	.align 2
	.weak	_ZNSt12_Vector_baseIiSaIiEE19_M_get_Tp_allocatorEv
	.type	_ZNSt12_Vector_baseIiSaIiEE19_M_get_Tp_allocatorEv, @function
_ZNSt12_Vector_baseIiSaIiEE19_M_get_Tp_allocatorEv:
.LFB10927:
	.cfi_startproc
	endbr64	
	push	rbp	#
	.cfi_def_cfa_offset 16
	.cfi_offset 6, -16
	mov	rbp, rsp	#,
	.cfi_def_cfa_register 6
	mov	QWORD PTR -8[rbp], rdi	# this, this
# /usr/include/c++/13/bits/stl_vector.h:302:       { return this->_M_impl; }
	mov	rax, QWORD PTR -8[rbp]	# _2, this
# /usr/include/c++/13/bits/stl_vector.h:302:       { return this->_M_impl; }
	pop	rbp	#
	.cfi_def_cfa 7, 8
	ret	
	.cfi_endproc
.LFE10927:
	.size	_ZNSt12_Vector_baseIiSaIiEE19_M_get_Tp_allocatorEv, .-_ZNSt12_Vector_baseIiSaIiEE19_M_get_Tp_allocatorEv
	.section	.text._ZNSt12_Vector_baseIiSaIiEE13_M_deallocateEPim,"axG",@progbits,_ZNSt12_Vector_baseIiSaIiEE13_M_deallocateEPim,comdat
	.align 2
	.weak	_ZNSt12_Vector_baseIiSaIiEE13_M_deallocateEPim
	.type	_ZNSt12_Vector_baseIiSaIiEE13_M_deallocateEPim, @function
_ZNSt12_Vector_baseIiSaIiEE13_M_deallocateEPim:
.LFB10936:
	.cfi_startproc
	endbr64	
	push	rbp	#
	.cfi_def_cfa_offset 16
	.cfi_offset 6, -16
	mov	rbp, rsp	#,
	.cfi_def_cfa_register 6
	sub	rsp, 64	#,
	mov	QWORD PTR -40[rbp], rdi	# this, this
	mov	QWORD PTR -48[rbp], rsi	# __p, __p
	mov	QWORD PTR -56[rbp], rdx	# __n, __n
# /usr/include/c++/13/bits/stl_vector.h:389: 	if (__p)
	cmp	QWORD PTR -48[rbp], 0	# __p,
	je	.L78	#,
# /usr/include/c++/13/bits/stl_vector.h:390: 	  _Tr::deallocate(_M_impl, __p, __n);
	mov	rax, QWORD PTR -40[rbp]	# _1, this
	mov	QWORD PTR -24[rbp], rax	# __a, _1
	mov	rax, QWORD PTR -48[rbp]	# tmp83, __p
	mov	QWORD PTR -16[rbp], rax	# __p, tmp83
	mov	rax, QWORD PTR -56[rbp]	# tmp84, __n
	mov	QWORD PTR -8[rbp], rax	# __n, tmp84
# /usr/include/c++/13/bits/alloc_traits.h:517:       { __a.deallocate(__p, __n); }
	mov	rdx, QWORD PTR -8[rbp]	# tmp85, __n
	mov	rcx, QWORD PTR -16[rbp]	# tmp86, __p
	mov	rax, QWORD PTR -24[rbp]	# tmp87, __a
	mov	rsi, rcx	#, tmp86
	mov	rdi, rax	#, tmp87
	call	_ZNSt15__new_allocatorIiE10deallocateEPim	#
# /usr/include/c++/13/bits/alloc_traits.h:517:       { __a.deallocate(__p, __n); }
	nop	
.L78:
# /usr/include/c++/13/bits/stl_vector.h:391:       }
	nop	
	leave	
	.cfi_def_cfa 7, 8
	ret	
	.cfi_endproc
.LFE10936:
	.size	_ZNSt12_Vector_baseIiSaIiEE13_M_deallocateEPim, .-_ZNSt12_Vector_baseIiSaIiEE13_M_deallocateEPim
	.section	.text._ZN9__gnu_cxx17__normal_iteratorIPiSt6vectorIiSaIiEEEC2ERKS1_,"axG",@progbits,_ZN9__gnu_cxx17__normal_iteratorIPiSt6vectorIiSaIiEEEC5ERKS1_,comdat
	.align 2
	.weak	_ZN9__gnu_cxx17__normal_iteratorIPiSt6vectorIiSaIiEEEC2ERKS1_
	.type	_ZN9__gnu_cxx17__normal_iteratorIPiSt6vectorIiSaIiEEEC2ERKS1_, @function
_ZN9__gnu_cxx17__normal_iteratorIPiSt6vectorIiSaIiEEEC2ERKS1_:
.LFB10938:
	.cfi_startproc
	endbr64	
	push	rbp	#
	.cfi_def_cfa_offset 16
	.cfi_offset 6, -16
	mov	rbp, rsp	#,
	.cfi_def_cfa_register 6
	mov	QWORD PTR -8[rbp], rdi	# this, this
	mov	QWORD PTR -16[rbp], rsi	# __i, __i
# /usr/include/c++/13/bits/stl_iterator.h:1077:       : _M_current(__i) { }
	mov	rax, QWORD PTR -16[rbp]	# tmp83, __i
	mov	rdx, QWORD PTR [rax]	# _1, *__i_5(D)
	mov	rax, QWORD PTR -8[rbp]	# tmp84, this
	mov	QWORD PTR [rax], rdx	# this_3(D)->_M_current, _1
# /usr/include/c++/13/bits/stl_iterator.h:1077:       : _M_current(__i) { }
	nop	
	pop	rbp	#
	.cfi_def_cfa 7, 8
	ret	
	.cfi_endproc
.LFE10938:
	.size	_ZN9__gnu_cxx17__normal_iteratorIPiSt6vectorIiSaIiEEEC2ERKS1_, .-_ZN9__gnu_cxx17__normal_iteratorIPiSt6vectorIiSaIiEEEC2ERKS1_
	.weak	_ZN9__gnu_cxx17__normal_iteratorIPiSt6vectorIiSaIiEEEC1ERKS1_
	.set	_ZN9__gnu_cxx17__normal_iteratorIPiSt6vectorIiSaIiEEEC1ERKS1_,_ZN9__gnu_cxx17__normal_iteratorIPiSt6vectorIiSaIiEEEC2ERKS1_
	.section	.text._ZNK9__gnu_cxx17__normal_iteratorIPiSt6vectorIiSaIiEEE4baseEv,"axG",@progbits,_ZNK9__gnu_cxx17__normal_iteratorIPiSt6vectorIiSaIiEEE4baseEv,comdat
	.align 2
	.weak	_ZNK9__gnu_cxx17__normal_iteratorIPiSt6vectorIiSaIiEEE4baseEv
	.type	_ZNK9__gnu_cxx17__normal_iteratorIPiSt6vectorIiSaIiEEE4baseEv, @function
_ZNK9__gnu_cxx17__normal_iteratorIPiSt6vectorIiSaIiEEE4baseEv:
.LFB10940:
	.cfi_startproc
	endbr64	
	push	rbp	#
	.cfi_def_cfa_offset 16
	.cfi_offset 6, -16
	mov	rbp, rsp	#,
	.cfi_def_cfa_register 6
	mov	QWORD PTR -8[rbp], rdi	# this, this
# /usr/include/c++/13/bits/stl_iterator.h:1163:       { return _M_current; }
	mov	rax, QWORD PTR -8[rbp]	# _2, this
# /usr/include/c++/13/bits/stl_iterator.h:1163:       { return _M_current; }
	pop	rbp	#
	.cfi_def_cfa 7, 8
	ret	
	.cfi_endproc
.LFE10940:
	.size	_ZNK9__gnu_cxx17__normal_iteratorIPiSt6vectorIiSaIiEEE4baseEv, .-_ZNK9__gnu_cxx17__normal_iteratorIPiSt6vectorIiSaIiEEE4baseEv
	.section	.text._ZNSt6vectorIiSaIiEE11_S_max_sizeERKS0_,"axG",@progbits,_ZNSt6vectorIiSaIiEE11_S_max_sizeERKS0_,comdat
	.weak	_ZNSt6vectorIiSaIiEE11_S_max_sizeERKS0_
	.type	_ZNSt6vectorIiSaIiEE11_S_max_sizeERKS0_, @function
_ZNSt6vectorIiSaIiEE11_S_max_sizeERKS0_:
.LFB11153:
	.cfi_startproc
	endbr64	
	push	rbp	#
	.cfi_def_cfa_offset 16
	.cfi_offset 6, -16
	mov	rbp, rsp	#,
	.cfi_def_cfa_register 6
	sub	rsp, 64	#,
	mov	QWORD PTR -56[rbp], rdi	# __a, __a
# /usr/include/c++/13/bits/stl_vector.h:1916:       _S_max_size(const _Tp_alloc_type& __a) _GLIBCXX_NOEXCEPT
	mov	rax, QWORD PTR fs:40	# tmp92, MEM[(<address-space-1> long unsigned int *)40B]
	mov	QWORD PTR -8[rbp], rax	# D.225263, tmp92
	xor	eax, eax	# tmp92
# /usr/include/c++/13/bits/stl_vector.h:1921: 	const size_t __diffmax
	movabs	rax, 2305843009213693951	# tmp95,
	mov	QWORD PTR -48[rbp], rax	# __diffmax, tmp95
	mov	rax, QWORD PTR -56[rbp]	# tmp86, __a
	mov	QWORD PTR -32[rbp], rax	# __a, tmp86
	mov	rax, QWORD PTR -32[rbp]	# tmp87, __a
	mov	QWORD PTR -24[rbp], rax	# this, tmp87
	mov	rax, QWORD PTR -24[rbp]	# tmp88, this
	mov	QWORD PTR -16[rbp], rax	# this, tmp88
# /usr/include/c++/13/bits/new_allocator.h:233: 	return std::size_t(__PTRDIFF_MAX__) / sizeof(_Tp);
	movabs	rax, 2305843009213693951	# D.225222,
# /usr/include/c++/13/bits/new_allocator.h:183:       { return _M_max_size(); }
	nop	
# /usr/include/c++/13/bits/alloc_traits.h:574: 	return __a.max_size();
	nop	
# /usr/include/c++/13/bits/stl_vector.h:1923: 	const size_t __allocmax = _Alloc_traits::max_size(__a);
	mov	QWORD PTR -40[rbp], rax	# __allocmax, D.225222
# /usr/include/c++/13/bits/stl_vector.h:1924: 	return (std::min)(__diffmax, __allocmax);
	lea	rdx, -40[rbp]	# tmp89,
	lea	rax, -48[rbp]	# tmp90,
	mov	rsi, rdx	#, tmp89
	mov	rdi, rax	#, tmp90
	call	_ZSt3minImERKT_S2_S2_	#
# /usr/include/c++/13/bits/stl_vector.h:1924: 	return (std::min)(__diffmax, __allocmax);
	mov	rax, QWORD PTR [rax]	# _8, *_2
# /usr/include/c++/13/bits/stl_vector.h:1925:       }
	mov	rdx, QWORD PTR -8[rbp]	# tmp93, D.225263
	sub	rdx, QWORD PTR fs:40	# tmp93, MEM[(<address-space-1> long unsigned int *)40B]
	je	.L87	#,
	call	__stack_chk_fail@PLT	#
.L87:
	leave	
	.cfi_def_cfa 7, 8
	ret	
	.cfi_endproc
.LFE11153:
	.size	_ZNSt6vectorIiSaIiEE11_S_max_sizeERKS0_, .-_ZNSt6vectorIiSaIiEE11_S_max_sizeERKS0_
	.section	.text._ZNSt12_Vector_baseIiSaIiEE12_Vector_implC2ERKS0_,"axG",@progbits,_ZNSt12_Vector_baseIiSaIiEE12_Vector_implC5ERKS0_,comdat
	.align 2
	.weak	_ZNSt12_Vector_baseIiSaIiEE12_Vector_implC2ERKS0_
	.type	_ZNSt12_Vector_baseIiSaIiEE12_Vector_implC2ERKS0_, @function
_ZNSt12_Vector_baseIiSaIiEE12_Vector_implC2ERKS0_:
.LFB11155:
	.cfi_startproc
	endbr64	
	push	rbp	#
	.cfi_def_cfa_offset 16
	.cfi_offset 6, -16
	mov	rbp, rsp	#,
	.cfi_def_cfa_register 6
	sub	rsp, 48	#,
	mov	QWORD PTR -40[rbp], rdi	# this, this
	mov	QWORD PTR -48[rbp], rsi	# __a, __a
	mov	rax, QWORD PTR -40[rbp]	# tmp83, this
	mov	QWORD PTR -32[rbp], rax	# this, tmp83
	mov	rax, QWORD PTR -48[rbp]	# tmp84, __a
	mov	QWORD PTR -24[rbp], rax	# __a, tmp84
	mov	rax, QWORD PTR -32[rbp]	# tmp85, this
	mov	QWORD PTR -16[rbp], rax	# this, tmp85
	mov	rax, QWORD PTR -24[rbp]	# tmp86, __a
	mov	QWORD PTR -8[rbp], rax	# D.225197, tmp86
# /usr/include/c++/13/bits/new_allocator.h:92:       __new_allocator(const __new_allocator&) _GLIBCXX_USE_NOEXCEPT { }
	nop	
# /usr/include/c++/13/bits/allocator.h:168:       : __allocator_base<_Tp>(__a) { }
	nop	
# /usr/include/c++/13/bits/stl_vector.h:147: 	: _Tp_alloc_type(__a)
	mov	rax, QWORD PTR -40[rbp]	# _1, this
	mov	rdi, rax	#, _1
	call	_ZNSt12_Vector_baseIiSaIiEE17_Vector_impl_dataC2Ev	#
# /usr/include/c++/13/bits/stl_vector.h:148: 	{ }
	nop	
	leave	
	.cfi_def_cfa 7, 8
	ret	
	.cfi_endproc
.LFE11155:
	.size	_ZNSt12_Vector_baseIiSaIiEE12_Vector_implC2ERKS0_, .-_ZNSt12_Vector_baseIiSaIiEE12_Vector_implC2ERKS0_
	.weak	_ZNSt12_Vector_baseIiSaIiEE12_Vector_implC1ERKS0_
	.set	_ZNSt12_Vector_baseIiSaIiEE12_Vector_implC1ERKS0_,_ZNSt12_Vector_baseIiSaIiEE12_Vector_implC2ERKS0_
	.section	.text._ZNSt12_Vector_baseIiSaIiEE17_M_create_storageEm,"axG",@progbits,_ZNSt12_Vector_baseIiSaIiEE17_M_create_storageEm,comdat
	.align 2
	.weak	_ZNSt12_Vector_baseIiSaIiEE17_M_create_storageEm
	.type	_ZNSt12_Vector_baseIiSaIiEE17_M_create_storageEm, @function
_ZNSt12_Vector_baseIiSaIiEE17_M_create_storageEm:
.LFB11157:
	.cfi_startproc
	endbr64	
	push	rbp	#
	.cfi_def_cfa_offset 16
	.cfi_offset 6, -16
	mov	rbp, rsp	#,
	.cfi_def_cfa_register 6
	sub	rsp, 16	#,
	mov	QWORD PTR -8[rbp], rdi	# this, this
	mov	QWORD PTR -16[rbp], rsi	# __n, __n
# /usr/include/c++/13/bits/stl_vector.h:398: 	this->_M_impl._M_start = this->_M_allocate(__n);
	mov	rdx, QWORD PTR -16[rbp]	# tmp87, __n
	mov	rax, QWORD PTR -8[rbp]	# tmp88, this
	mov	rsi, rdx	#, tmp87
	mov	rdi, rax	#, tmp88
	call	_ZNSt12_Vector_baseIiSaIiEE11_M_allocateEm	#
# /usr/include/c++/13/bits/stl_vector.h:398: 	this->_M_impl._M_start = this->_M_allocate(__n);
	mov	rdx, QWORD PTR -8[rbp]	# tmp89, this
	mov	QWORD PTR [rdx], rax	# this_7(D)->_M_impl.D.187644._M_start, _1
# /usr/include/c++/13/bits/stl_vector.h:399: 	this->_M_impl._M_finish = this->_M_impl._M_start;
	mov	rax, QWORD PTR -8[rbp]	# tmp90, this
	mov	rdx, QWORD PTR [rax]	# _2, this_7(D)->_M_impl.D.187644._M_start
# /usr/include/c++/13/bits/stl_vector.h:399: 	this->_M_impl._M_finish = this->_M_impl._M_start;
	mov	rax, QWORD PTR -8[rbp]	# tmp91, this
	mov	QWORD PTR 8[rax], rdx	# this_7(D)->_M_impl.D.187644._M_finish, _2
# /usr/include/c++/13/bits/stl_vector.h:400: 	this->_M_impl._M_end_of_storage = this->_M_impl._M_start + __n;
	mov	rax, QWORD PTR -8[rbp]	# tmp92, this
	mov	rax, QWORD PTR [rax]	# _3, this_7(D)->_M_impl.D.187644._M_start
# /usr/include/c++/13/bits/stl_vector.h:400: 	this->_M_impl._M_end_of_storage = this->_M_impl._M_start + __n;
	mov	rdx, QWORD PTR -16[rbp]	# tmp93, __n
	sal	rdx, 2	# _4,
	add	rdx, rax	# _5, _3
# /usr/include/c++/13/bits/stl_vector.h:400: 	this->_M_impl._M_end_of_storage = this->_M_impl._M_start + __n;
	mov	rax, QWORD PTR -8[rbp]	# tmp94, this
	mov	QWORD PTR 16[rax], rdx	# this_7(D)->_M_impl.D.187644._M_end_of_storage, _5
# /usr/include/c++/13/bits/stl_vector.h:401:       }
	nop	
	leave	
	.cfi_def_cfa 7, 8
	ret	
	.cfi_endproc
.LFE11157:
	.size	_ZNSt12_Vector_baseIiSaIiEE17_M_create_storageEm, .-_ZNSt12_Vector_baseIiSaIiEE17_M_create_storageEm
	.section	.text._ZSt27__uninitialized_default_n_aIPimiET_S1_T0_RSaIT1_E,"axG",@progbits,_ZSt27__uninitialized_default_n_aIPimiET_S1_T0_RSaIT1_E,comdat
	.weak	_ZSt27__uninitialized_default_n_aIPimiET_S1_T0_RSaIT1_E
	.type	_ZSt27__uninitialized_default_n_aIPimiET_S1_T0_RSaIT1_E, @function
_ZSt27__uninitialized_default_n_aIPimiET_S1_T0_RSaIT1_E:
.LFB11158:
	.cfi_startproc
	endbr64	
	push	rbp	#
	.cfi_def_cfa_offset 16
	.cfi_offset 6, -16
	mov	rbp, rsp	#,
	.cfi_def_cfa_register 6
	sub	rsp, 32	#,
	mov	QWORD PTR -8[rbp], rdi	# __first, __first
	mov	QWORD PTR -16[rbp], rsi	# __n, __n
	mov	QWORD PTR -24[rbp], rdx	# D.221028, D.221028
# /usr/include/c++/13/bits/stl_uninitialized.h:779:     { return std::__uninitialized_default_n(__first, __n); }
	mov	rdx, QWORD PTR -16[rbp]	# tmp84, __n
	mov	rax, QWORD PTR -8[rbp]	# tmp85, __first
	mov	rsi, rdx	#, tmp84
	mov	rdi, rax	#, tmp85
	call	_ZSt25__uninitialized_default_nIPimET_S1_T0_	#
# /usr/include/c++/13/bits/stl_uninitialized.h:779:     { return std::__uninitialized_default_n(__first, __n); }
	leave	
	.cfi_def_cfa 7, 8
	ret	
	.cfi_endproc
.LFE11158:
	.size	_ZSt27__uninitialized_default_n_aIPimiET_S1_T0_RSaIT1_E, .-_ZSt27__uninitialized_default_n_aIPimiET_S1_T0_RSaIT1_E
	.section	.text._ZSt8_DestroyIPiEvT_S1_,"axG",@progbits,_ZSt8_DestroyIPiEvT_S1_,comdat
	.weak	_ZSt8_DestroyIPiEvT_S1_
	.type	_ZSt8_DestroyIPiEvT_S1_, @function
_ZSt8_DestroyIPiEvT_S1_:
.LFB11159:
	.cfi_startproc
	endbr64	
	push	rbp	#
	.cfi_def_cfa_offset 16
	.cfi_offset 6, -16
	mov	rbp, rsp	#,
	.cfi_def_cfa_register 6
	sub	rsp, 16	#,
	mov	QWORD PTR -8[rbp], rdi	# __first, __first
	mov	QWORD PTR -16[rbp], rsi	# __last, __last
# /usr/include/c++/13/bits/stl_construct.h:196: 	__destroy(__first, __last);
	mov	rdx, QWORD PTR -16[rbp]	# tmp82, __last
	mov	rax, QWORD PTR -8[rbp]	# tmp83, __first
	mov	rsi, rdx	#, tmp82
	mov	rdi, rax	#, tmp83
	call	_ZNSt12_Destroy_auxILb1EE9__destroyIPiEEvT_S3_	#
# /usr/include/c++/13/bits/stl_construct.h:197:     }
	nop	
	leave	
	.cfi_def_cfa 7, 8
	ret	
	.cfi_endproc
.LFE11159:
	.size	_ZSt8_DestroyIPiEvT_S1_, .-_ZSt8_DestroyIPiEvT_S1_
	.section	.text._ZNSt12_Vector_baseIiSaIiEE17_Vector_impl_dataC2Ev,"axG",@progbits,_ZNSt12_Vector_baseIiSaIiEE17_Vector_impl_dataC5Ev,comdat
	.align 2
	.weak	_ZNSt12_Vector_baseIiSaIiEE17_Vector_impl_dataC2Ev
	.type	_ZNSt12_Vector_baseIiSaIiEE17_Vector_impl_dataC2Ev, @function
_ZNSt12_Vector_baseIiSaIiEE17_Vector_impl_dataC2Ev:
.LFB11314:
	.cfi_startproc
	endbr64	
	push	rbp	#
	.cfi_def_cfa_offset 16
	.cfi_offset 6, -16
	mov	rbp, rsp	#,
	.cfi_def_cfa_register 6
	mov	QWORD PTR -8[rbp], rdi	# this, this
# /usr/include/c++/13/bits/stl_vector.h:100: 	: _M_start(), _M_finish(), _M_end_of_storage()
	mov	rax, QWORD PTR -8[rbp]	# tmp82, this
	mov	QWORD PTR [rax], 0	# this_2(D)->_M_start,
# /usr/include/c++/13/bits/stl_vector.h:100: 	: _M_start(), _M_finish(), _M_end_of_storage()
	mov	rax, QWORD PTR -8[rbp]	# tmp83, this
	mov	QWORD PTR 8[rax], 0	# this_2(D)->_M_finish,
# /usr/include/c++/13/bits/stl_vector.h:100: 	: _M_start(), _M_finish(), _M_end_of_storage()
	mov	rax, QWORD PTR -8[rbp]	# tmp84, this
	mov	QWORD PTR 16[rax], 0	# this_2(D)->_M_end_of_storage,
# /usr/include/c++/13/bits/stl_vector.h:101: 	{ }
	nop	
	pop	rbp	#
	.cfi_def_cfa 7, 8
	ret	
	.cfi_endproc
.LFE11314:
	.size	_ZNSt12_Vector_baseIiSaIiEE17_Vector_impl_dataC2Ev, .-_ZNSt12_Vector_baseIiSaIiEE17_Vector_impl_dataC2Ev
	.weak	_ZNSt12_Vector_baseIiSaIiEE17_Vector_impl_dataC1Ev
	.set	_ZNSt12_Vector_baseIiSaIiEE17_Vector_impl_dataC1Ev,_ZNSt12_Vector_baseIiSaIiEE17_Vector_impl_dataC2Ev
	.section	.text._ZNSt12_Vector_baseIiSaIiEE11_M_allocateEm,"axG",@progbits,_ZNSt12_Vector_baseIiSaIiEE11_M_allocateEm,comdat
	.align 2
	.weak	_ZNSt12_Vector_baseIiSaIiEE11_M_allocateEm
	.type	_ZNSt12_Vector_baseIiSaIiEE11_M_allocateEm, @function
_ZNSt12_Vector_baseIiSaIiEE11_M_allocateEm:
.LFB11316:
	.cfi_startproc
	endbr64	
	push	rbp	#
	.cfi_def_cfa_offset 16
	.cfi_offset 6, -16
	mov	rbp, rsp	#,
	.cfi_def_cfa_register 6
	sub	rsp, 32	#,
	mov	QWORD PTR -24[rbp], rdi	# this, this
	mov	QWORD PTR -32[rbp], rsi	# __n, __n
# /usr/include/c++/13/bits/stl_vector.h:381: 	return __n != 0 ? _Tr::allocate(_M_impl, __n) : pointer();
	cmp	QWORD PTR -32[rbp], 0	# __n,
	je	.L95	#,
# /usr/include/c++/13/bits/stl_vector.h:381: 	return __n != 0 ? _Tr::allocate(_M_impl, __n) : pointer();
	mov	rax, QWORD PTR -24[rbp]	# _1, this
	mov	QWORD PTR -16[rbp], rax	# __a, _1
	mov	rax, QWORD PTR -32[rbp]	# tmp85, __n
	mov	QWORD PTR -8[rbp], rax	# __n, tmp85
# /usr/include/c++/13/bits/alloc_traits.h:482:       { return __a.allocate(__n); }
	mov	rcx, QWORD PTR -8[rbp]	# tmp86, __n
	mov	rax, QWORD PTR -16[rbp]	# tmp87, __a
	mov	edx, 0	#,
	mov	rsi, rcx	#, tmp86
	mov	rdi, rax	#, tmp87
	call	_ZNSt15__new_allocatorIiE8allocateEmPKv	#
# /usr/include/c++/13/bits/alloc_traits.h:482:       { return __a.allocate(__n); }
	nop	
	jmp	.L97	#
.L95:
# /usr/include/c++/13/bits/stl_vector.h:381: 	return __n != 0 ? _Tr::allocate(_M_impl, __n) : pointer();
	mov	eax, 0	# D.225201,
.L97:
# /usr/include/c++/13/bits/stl_vector.h:382:       }
	leave	
	.cfi_def_cfa 7, 8
	ret	
	.cfi_endproc
.LFE11316:
	.size	_ZNSt12_Vector_baseIiSaIiEE11_M_allocateEm, .-_ZNSt12_Vector_baseIiSaIiEE11_M_allocateEm
	.section	.text._ZSt25__uninitialized_default_nIPimET_S1_T0_,"axG",@progbits,_ZSt25__uninitialized_default_nIPimET_S1_T0_,comdat
	.weak	_ZSt25__uninitialized_default_nIPimET_S1_T0_
	.type	_ZSt25__uninitialized_default_nIPimET_S1_T0_, @function
_ZSt25__uninitialized_default_nIPimET_S1_T0_:
.LFB11317:
	.cfi_startproc
	endbr64	
	push	rbp	#
	.cfi_def_cfa_offset 16
	.cfi_offset 6, -16
	mov	rbp, rsp	#,
	.cfi_def_cfa_register 6
	sub	rsp, 32	#,
	mov	QWORD PTR -24[rbp], rdi	# __first, __first
	mov	QWORD PTR -32[rbp], rsi	# __n, __n
# /usr/include/c++/13/bits/stl_uninitialized.h:707:       constexpr bool __can_fill
	mov	BYTE PTR -1[rbp], 1	# __can_fill,
# /usr/include/c++/13/bits/stl_uninitialized.h:712: 	__uninit_default_n(__first, __n);
	mov	rdx, QWORD PTR -32[rbp]	# tmp84, __n
	mov	rax, QWORD PTR -24[rbp]	# tmp85, __first
	mov	rsi, rdx	#, tmp84
	mov	rdi, rax	#, tmp85
	call	_ZNSt27__uninitialized_default_n_1ILb1EE18__uninit_default_nIPimEET_S3_T0_	#
# /usr/include/c++/13/bits/stl_uninitialized.h:713:     }
	leave	
	.cfi_def_cfa 7, 8
	ret	
	.cfi_endproc
.LFE11317:
	.size	_ZSt25__uninitialized_default_nIPimET_S1_T0_, .-_ZSt25__uninitialized_default_nIPimET_S1_T0_
	.section	.text._ZNSt12_Destroy_auxILb1EE9__destroyIPiEEvT_S3_,"axG",@progbits,_ZNSt12_Destroy_auxILb1EE9__destroyIPiEEvT_S3_,comdat
	.weak	_ZNSt12_Destroy_auxILb1EE9__destroyIPiEEvT_S3_
	.type	_ZNSt12_Destroy_auxILb1EE9__destroyIPiEEvT_S3_, @function
_ZNSt12_Destroy_auxILb1EE9__destroyIPiEEvT_S3_:
.LFB11318:
	.cfi_startproc
	endbr64	
	push	rbp	#
	.cfi_def_cfa_offset 16
	.cfi_offset 6, -16
	mov	rbp, rsp	#,
	.cfi_def_cfa_register 6
	mov	QWORD PTR -8[rbp], rdi	# D.223335, D.223335
	mov	QWORD PTR -16[rbp], rsi	# D.223336, D.223336
# /usr/include/c++/13/bits/stl_construct.h:172:         __destroy(_ForwardIterator, _ForwardIterator) { }
	nop	
	pop	rbp	#
	.cfi_def_cfa 7, 8
	ret	
	.cfi_endproc
.LFE11318:
	.size	_ZNSt12_Destroy_auxILb1EE9__destroyIPiEEvT_S3_, .-_ZNSt12_Destroy_auxILb1EE9__destroyIPiEEvT_S3_
	.section	.text._ZNSt15__new_allocatorIiE10deallocateEPim,"axG",@progbits,_ZNSt15__new_allocatorIiE10deallocateEPim,comdat
	.align 2
	.weak	_ZNSt15__new_allocatorIiE10deallocateEPim
	.type	_ZNSt15__new_allocatorIiE10deallocateEPim, @function
_ZNSt15__new_allocatorIiE10deallocateEPim:
.LFB11319:
	.cfi_startproc
	endbr64	
	push	rbp	#
	.cfi_def_cfa_offset 16
	.cfi_offset 6, -16
	mov	rbp, rsp	#,
	.cfi_def_cfa_register 6
	sub	rsp, 32	#,
	mov	QWORD PTR -8[rbp], rdi	# this, this
	mov	QWORD PTR -16[rbp], rsi	# __p, __p
	mov	QWORD PTR -24[rbp], rdx	# __n, __n
# /usr/include/c++/13/bits/new_allocator.h:172: 	_GLIBCXX_OPERATOR_DELETE(_GLIBCXX_SIZED_DEALLOC(__p, __n));
	mov	rax, QWORD PTR -24[rbp]	# tmp83, __n
	lea	rdx, 0[0+rax*4]	# _2,
	mov	rax, QWORD PTR -16[rbp]	# tmp84, __p
	mov	rsi, rdx	#, _2
	mov	rdi, rax	#, tmp84
	call	_ZdlPvm@PLT	#
# /usr/include/c++/13/bits/new_allocator.h:173:       }
	leave	
	.cfi_def_cfa 7, 8
	ret	
	.cfi_endproc
.LFE11319:
	.size	_ZNSt15__new_allocatorIiE10deallocateEPim, .-_ZNSt15__new_allocatorIiE10deallocateEPim
	.section	.text._ZNSt27__uninitialized_default_n_1ILb1EE18__uninit_default_nIPimEET_S3_T0_,"axG",@progbits,_ZNSt27__uninitialized_default_n_1ILb1EE18__uninit_default_nIPimEET_S3_T0_,comdat
	.weak	_ZNSt27__uninitialized_default_n_1ILb1EE18__uninit_default_nIPimEET_S3_T0_
	.type	_ZNSt27__uninitialized_default_n_1ILb1EE18__uninit_default_nIPimEET_S3_T0_, @function
_ZNSt27__uninitialized_default_n_1ILb1EE18__uninit_default_nIPimEET_S3_T0_:
.LFB11423:
	.cfi_startproc
	endbr64	
	push	rbp	#
	.cfi_def_cfa_offset 16
	.cfi_offset 6, -16
	mov	rbp, rsp	#,
	.cfi_def_cfa_register 6
	sub	rsp, 32	#,
	mov	QWORD PTR -24[rbp], rdi	# __first, __first
	mov	QWORD PTR -32[rbp], rsi	# __n, __n
# /usr/include/c++/13/bits/stl_uninitialized.h:662: 	  if (__n > 0)
	cmp	QWORD PTR -32[rbp], 0	# __n,
	je	.L105	#,
# /usr/include/c++/13/bits/stl_uninitialized.h:665: 		= std::__addressof(*__first);
	mov	rax, QWORD PTR -24[rbp]	# tmp86, __first
	mov	rdi, rax	#, tmp86
	call	_ZSt11__addressofIiEPT_RS0_	#
	mov	QWORD PTR -8[rbp], rax	# __val, tmp87
# /usr/include/c++/13/bits/stl_uninitialized.h:666: 	      std::_Construct(__val);
	mov	rax, QWORD PTR -8[rbp]	# tmp88, __val
	mov	rdi, rax	#, tmp88
	call	_ZSt10_ConstructIiJEEvPT_DpOT0_	#
# /usr/include/c++/13/bits/stl_uninitialized.h:667: 	      ++__first;
	add	QWORD PTR -24[rbp], 4	# __first,
# /usr/include/c++/13/bits/stl_uninitialized.h:668: 	      __first = std::fill_n(__first, __n - 1, *__val);
	mov	rax, QWORD PTR -32[rbp]	# tmp89, __n
	lea	rcx, -1[rax]	# _1,
	mov	rdx, QWORD PTR -8[rbp]	# tmp90, __val
	mov	rax, QWORD PTR -24[rbp]	# tmp91, __first
	mov	rsi, rcx	#, _1
	mov	rdi, rax	#, tmp91
	call	_ZSt6fill_nIPimiET_S1_T0_RKT1_	#
# /usr/include/c++/13/bits/stl_uninitialized.h:668: 	      __first = std::fill_n(__first, __n - 1, *__val);
	mov	QWORD PTR -24[rbp], rax	# __first, _12
.L105:
# /usr/include/c++/13/bits/stl_uninitialized.h:670: 	  return __first;
	mov	rax, QWORD PTR -24[rbp]	# _14, __first
# /usr/include/c++/13/bits/stl_uninitialized.h:671: 	}
	leave	
	.cfi_def_cfa 7, 8
	ret	
	.cfi_endproc
.LFE11423:
	.size	_ZNSt27__uninitialized_default_n_1ILb1EE18__uninit_default_nIPimEET_S3_T0_, .-_ZNSt27__uninitialized_default_n_1ILb1EE18__uninit_default_nIPimEET_S3_T0_
	.section	.text._ZNSt15__new_allocatorIiE8allocateEmPKv,"axG",@progbits,_ZNSt15__new_allocatorIiE8allocateEmPKv,comdat
	.align 2
	.weak	_ZNSt15__new_allocatorIiE8allocateEmPKv
	.type	_ZNSt15__new_allocatorIiE8allocateEmPKv, @function
_ZNSt15__new_allocatorIiE8allocateEmPKv:
.LFB11509:
	.cfi_startproc
	endbr64	
	push	rbp	#
	.cfi_def_cfa_offset 16
	.cfi_offset 6, -16
	mov	rbp, rsp	#,
	.cfi_def_cfa_register 6
	sub	rsp, 48	#,
	mov	QWORD PTR -24[rbp], rdi	# this, this
	mov	QWORD PTR -32[rbp], rsi	# __n, __n
	mov	QWORD PTR -40[rbp], rdx	# D.224298, D.224298
	mov	rax, QWORD PTR -24[rbp]	# tmp90, this
	mov	QWORD PTR -8[rbp], rax	# this, tmp90
# /usr/include/c++/13/bits/new_allocator.h:233: 	return std::size_t(__PTRDIFF_MAX__) / sizeof(_Tp);
	movabs	rax, 2305843009213693951	# D.225235,
# /usr/include/c++/13/bits/new_allocator.h:134: 	if (__builtin_expect(__n > this->_M_max_size(), false))
	cmp	rax, QWORD PTR -32[rbp]	# D.225235, __n
	setb	al	#, _2
# /usr/include/c++/13/bits/new_allocator.h:134: 	if (__builtin_expect(__n > this->_M_max_size(), false))
	movzx	eax, al	# _3, _2
# /usr/include/c++/13/bits/new_allocator.h:134: 	if (__builtin_expect(__n > this->_M_max_size(), false))
	test	rax, rax	# _4
	setne	al	#, retval.5_9
# /usr/include/c++/13/bits/new_allocator.h:134: 	if (__builtin_expect(__n > this->_M_max_size(), false))
	test	al, al	# retval.5_9
	je	.L109	#,
# /usr/include/c++/13/bits/new_allocator.h:138: 	    if (__n > (std::size_t(-1) / sizeof(_Tp)))
	movabs	rax, 4611686018427387903	# tmp91,
	cmp	rax, QWORD PTR -32[rbp]	# tmp91, __n
	jnb	.L110	#,
# /usr/include/c++/13/bits/new_allocator.h:139: 	      std::__throw_bad_array_new_length();
	call	_ZSt28__throw_bad_array_new_lengthv@PLT	#
.L110:
# /usr/include/c++/13/bits/new_allocator.h:140: 	    std::__throw_bad_alloc();
	call	_ZSt17__throw_bad_allocv@PLT	#
.L109:
# /usr/include/c++/13/bits/new_allocator.h:151: 	return static_cast<_Tp*>(_GLIBCXX_OPERATOR_NEW(__n * sizeof(_Tp)));
	mov	rax, QWORD PTR -32[rbp]	# tmp92, __n
	sal	rax, 2	# _6,
	mov	rdi, rax	#, _6
	call	_Znwm@PLT	#
# /usr/include/c++/13/bits/new_allocator.h:151: 	return static_cast<_Tp*>(_GLIBCXX_OPERATOR_NEW(__n * sizeof(_Tp)));
	nop	
# /usr/include/c++/13/bits/new_allocator.h:152:       }
	leave	
	.cfi_def_cfa 7, 8
	ret	
	.cfi_endproc
.LFE11509:
	.size	_ZNSt15__new_allocatorIiE8allocateEmPKv, .-_ZNSt15__new_allocatorIiE8allocateEmPKv
	.section	.text._ZSt11__addressofIiEPT_RS0_,"axG",@progbits,_ZSt11__addressofIiEPT_RS0_,comdat
	.weak	_ZSt11__addressofIiEPT_RS0_
	.type	_ZSt11__addressofIiEPT_RS0_, @function
_ZSt11__addressofIiEPT_RS0_:
.LFB11510:
	.cfi_startproc
	endbr64	
	push	rbp	#
	.cfi_def_cfa_offset 16
	.cfi_offset 6, -16
	mov	rbp, rsp	#,
	.cfi_def_cfa_register 6
	mov	QWORD PTR -8[rbp], rdi	# __r, __r
# /usr/include/c++/13/bits/move.h:52:     { return __builtin_addressof(__r); }
	mov	rax, QWORD PTR -8[rbp]	# _2, __r
# /usr/include/c++/13/bits/move.h:52:     { return __builtin_addressof(__r); }
	pop	rbp	#
	.cfi_def_cfa 7, 8
	ret	
	.cfi_endproc
.LFE11510:
	.size	_ZSt11__addressofIiEPT_RS0_, .-_ZSt11__addressofIiEPT_RS0_
	.section	.text._ZSt10_ConstructIiJEEvPT_DpOT0_,"axG",@progbits,_ZSt10_ConstructIiJEEvPT_DpOT0_,comdat
	.weak	_ZSt10_ConstructIiJEEvPT_DpOT0_
	.type	_ZSt10_ConstructIiJEEvPT_DpOT0_, @function
_ZSt10_ConstructIiJEEvPT_DpOT0_:
.LFB11511:
	.cfi_startproc
	endbr64	
	push	rbp	#
	.cfi_def_cfa_offset 16
	.cfi_offset 6, -16
	mov	rbp, rsp	#,
	.cfi_def_cfa_register 6
	sub	rsp, 16	#,
	mov	QWORD PTR -8[rbp], rdi	# __p, __p
# /usr/include/c++/13/bits/stl_construct.h:119:       ::new((void*)__p) _Tp(std::forward<_Args>(__args)...);
	mov	rax, QWORD PTR -8[rbp]	# _2, __p
# /usr/include/c++/13/bits/stl_construct.h:119:       ::new((void*)__p) _Tp(std::forward<_Args>(__args)...);
	mov	rsi, rax	#, _2
	mov	edi, 4	#,
	call	_ZnwmPv	#
# /usr/include/c++/13/bits/stl_construct.h:119:       ::new((void*)__p) _Tp(std::forward<_Args>(__args)...);
	mov	DWORD PTR [rax], 0	# MEM[(int *)_5],
# /usr/include/c++/13/bits/stl_construct.h:120:     }
	nop	
	leave	
	.cfi_def_cfa 7, 8
	ret	
	.cfi_endproc
.LFE11511:
	.size	_ZSt10_ConstructIiJEEvPT_DpOT0_, .-_ZSt10_ConstructIiJEEvPT_DpOT0_
	.section	.text._ZSt6fill_nIPimiET_S1_T0_RKT1_,"axG",@progbits,_ZSt6fill_nIPimiET_S1_T0_RKT1_,comdat
	.weak	_ZSt6fill_nIPimiET_S1_T0_RKT1_
	.type	_ZSt6fill_nIPimiET_S1_T0_RKT1_, @function
_ZSt6fill_nIPimiET_S1_T0_RKT1_:
.LFB11512:
	.cfi_startproc
	endbr64	
	push	rbp	#
	.cfi_def_cfa_offset 16
	.cfi_offset 6, -16
	mov	rbp, rsp	#,
	.cfi_def_cfa_register 6
	sub	rsp, 32	#,
	mov	QWORD PTR -8[rbp], rdi	# __first, __first
	mov	QWORD PTR -16[rbp], rsi	# __n, __n
	mov	QWORD PTR -24[rbp], rdx	# __value, __value
# /usr/include/c++/13/bits/stl_iterator_base_types.h:240:     { return typename iterator_traits<_Iter>::iterator_category(); }
	nop	
# /usr/include/c++/13/bits/stl_algobase.h:1157:       return std::__fill_n_a(__first, std::__size_to_integer(__n), __value,
	mov	rax, QWORD PTR -16[rbp]	# tmp89, __n
	mov	rdi, rax	#, tmp89
	call	_ZSt17__size_to_integerm	#
	mov	rcx, rax	# _1,
# /usr/include/c++/13/bits/stl_algobase.h:1157:       return std::__fill_n_a(__first, std::__size_to_integer(__n), __value,
	mov	rax, QWORD PTR -8[rbp]	# __first.6_2, __first
	mov	rdx, QWORD PTR -24[rbp]	# tmp90, __value
	mov	rsi, rcx	#, _1
	mov	rdi, rax	#, __first.6_2
	call	_ZSt10__fill_n_aIPimiET_S1_T0_RKT1_St26random_access_iterator_tag	#
# /usr/include/c++/13/bits/stl_algobase.h:1159:     }
	leave	
	.cfi_def_cfa 7, 8
	ret	
	.cfi_endproc
.LFE11512:
	.size	_ZSt6fill_nIPimiET_S1_T0_RKT1_, .-_ZSt6fill_nIPimiET_S1_T0_RKT1_
	.section	.text._ZSt10__fill_n_aIPimiET_S1_T0_RKT1_St26random_access_iterator_tag,"axG",@progbits,_ZSt10__fill_n_aIPimiET_S1_T0_RKT1_St26random_access_iterator_tag,comdat
	.weak	_ZSt10__fill_n_aIPimiET_S1_T0_RKT1_St26random_access_iterator_tag
	.type	_ZSt10__fill_n_aIPimiET_S1_T0_RKT1_St26random_access_iterator_tag, @function
_ZSt10__fill_n_aIPimiET_S1_T0_RKT1_St26random_access_iterator_tag:
.LFB11552:
	.cfi_startproc
	endbr64	
	push	rbp	#
	.cfi_def_cfa_offset 16
	.cfi_offset 6, -16
	mov	rbp, rsp	#,
	.cfi_def_cfa_register 6
	sub	rsp, 32	#,
	mov	QWORD PTR -8[rbp], rdi	# __first, __first
	mov	QWORD PTR -16[rbp], rsi	# __n, __n
	mov	QWORD PTR -24[rbp], rdx	# __value, __value
# /usr/include/c++/13/bits/stl_algobase.h:1123:       if (__n <= 0)
	cmp	QWORD PTR -16[rbp], 0	# __n,
	jne	.L119	#,
# /usr/include/c++/13/bits/stl_algobase.h:1124: 	return __first;
	mov	rax, QWORD PTR -8[rbp]	# _4, __first
	jmp	.L120	#
.L119:
# /usr/include/c++/13/bits/stl_algobase.h:1128:       std::__fill_a(__first, __first + __n, __value);
	mov	rax, QWORD PTR -16[rbp]	# tmp87, __n
	lea	rdx, 0[0+rax*4]	# _1,
# /usr/include/c++/13/bits/stl_algobase.h:1128:       std::__fill_a(__first, __first + __n, __value);
	mov	rax, QWORD PTR -8[rbp]	# tmp88, __first
	lea	rcx, [rdx+rax]	# _2,
	mov	rdx, QWORD PTR -24[rbp]	# tmp89, __value
	mov	rax, QWORD PTR -8[rbp]	# tmp90, __first
	mov	rsi, rcx	#, _2
	mov	rdi, rax	#, tmp90
	call	_ZSt8__fill_aIPiiEvT_S1_RKT0_	#
# /usr/include/c++/13/bits/stl_algobase.h:1129:       return __first + __n;
	mov	rax, QWORD PTR -16[rbp]	# tmp91, __n
	lea	rdx, 0[0+rax*4]	# _3,
# /usr/include/c++/13/bits/stl_algobase.h:1129:       return __first + __n;
	mov	rax, QWORD PTR -8[rbp]	# tmp92, __first
	add	rax, rdx	# _4, _3
.L120:
# /usr/include/c++/13/bits/stl_algobase.h:1130:     }
	leave	
	.cfi_def_cfa 7, 8
	ret	
	.cfi_endproc
.LFE11552:
	.size	_ZSt10__fill_n_aIPimiET_S1_T0_RKT1_St26random_access_iterator_tag, .-_ZSt10__fill_n_aIPimiET_S1_T0_RKT1_St26random_access_iterator_tag
	.section	.text._ZSt8__fill_aIPiiEvT_S1_RKT0_,"axG",@progbits,_ZSt8__fill_aIPiiEvT_S1_RKT0_,comdat
	.weak	_ZSt8__fill_aIPiiEvT_S1_RKT0_
	.type	_ZSt8__fill_aIPiiEvT_S1_RKT0_, @function
_ZSt8__fill_aIPiiEvT_S1_RKT0_:
.LFB11559:
	.cfi_startproc
	endbr64	
	push	rbp	#
	.cfi_def_cfa_offset 16
	.cfi_offset 6, -16
	mov	rbp, rsp	#,
	.cfi_def_cfa_register 6
	sub	rsp, 32	#,
	mov	QWORD PTR -8[rbp], rdi	# __first, __first
	mov	QWORD PTR -16[rbp], rsi	# __last, __last
	mov	QWORD PTR -24[rbp], rdx	# __value, __value
# /usr/include/c++/13/bits/stl_algobase.h:977:     { std::__fill_a1(__first, __last, __value); }
	mov	rdx, QWORD PTR -24[rbp]	# tmp82, __value
	mov	rcx, QWORD PTR -16[rbp]	# tmp83, __last
	mov	rax, QWORD PTR -8[rbp]	# tmp84, __first
	mov	rsi, rcx	#, tmp83
	mov	rdi, rax	#, tmp84
	call	_ZSt9__fill_a1IPiiEN9__gnu_cxx11__enable_ifIXsrSt11__is_scalarIT0_E7__valueEvE6__typeET_S8_RKS4_	#
# /usr/include/c++/13/bits/stl_algobase.h:977:     { std::__fill_a1(__first, __last, __value); }
	nop	
	leave	
	.cfi_def_cfa 7, 8
	ret	
	.cfi_endproc
.LFE11559:
	.size	_ZSt8__fill_aIPiiEvT_S1_RKT0_, .-_ZSt8__fill_aIPiiEvT_S1_RKT0_
	.section	.text._ZSt9__fill_a1IPiiEN9__gnu_cxx11__enable_ifIXsrSt11__is_scalarIT0_E7__valueEvE6__typeET_S8_RKS4_,"axG",@progbits,_ZSt9__fill_a1IPiiEN9__gnu_cxx11__enable_ifIXsrSt11__is_scalarIT0_E7__valueEvE6__typeET_S8_RKS4_,comdat
	.weak	_ZSt9__fill_a1IPiiEN9__gnu_cxx11__enable_ifIXsrSt11__is_scalarIT0_E7__valueEvE6__typeET_S8_RKS4_
	.type	_ZSt9__fill_a1IPiiEN9__gnu_cxx11__enable_ifIXsrSt11__is_scalarIT0_E7__valueEvE6__typeET_S8_RKS4_, @function
_ZSt9__fill_a1IPiiEN9__gnu_cxx11__enable_ifIXsrSt11__is_scalarIT0_E7__valueEvE6__typeET_S8_RKS4_:
.LFB11563:
	.cfi_startproc
	endbr64	
	push	rbp	#
	.cfi_def_cfa_offset 16
	.cfi_offset 6, -16
	mov	rbp, rsp	#,
	.cfi_def_cfa_register 6
	mov	QWORD PTR -24[rbp], rdi	# __first, __first
	mov	QWORD PTR -32[rbp], rsi	# __last, __last
	mov	QWORD PTR -40[rbp], rdx	# __value, __value
# /usr/include/c++/13/bits/stl_algobase.h:929:       const _Tp __tmp = __value;
	mov	rax, QWORD PTR -40[rbp]	# tmp82, __value
	mov	eax, DWORD PTR [rax]	# tmp83, *__value_4(D)
	mov	DWORD PTR -4[rbp], eax	# __tmp, tmp83
# /usr/include/c++/13/bits/stl_algobase.h:930:       for (; __first != __last; ++__first)
	jmp	.L123	#
.L124:
# /usr/include/c++/13/bits/stl_algobase.h:931: 	*__first = __tmp;
	mov	rax, QWORD PTR -24[rbp]	# tmp84, __first
	mov	edx, DWORD PTR -4[rbp]	# tmp85, __tmp
	mov	DWORD PTR [rax], edx	# *__first_1, tmp85
# /usr/include/c++/13/bits/stl_algobase.h:930:       for (; __first != __last; ++__first)
	add	QWORD PTR -24[rbp], 4	# __first,
.L123:
# /usr/include/c++/13/bits/stl_algobase.h:930:       for (; __first != __last; ++__first)
	mov	rax, QWORD PTR -24[rbp]	# tmp86, __first
	cmp	rax, QWORD PTR -32[rbp]	# tmp86, __last
	jne	.L124	#,
# /usr/include/c++/13/bits/stl_algobase.h:932:     }
	nop	
	nop	
	pop	rbp	#
	.cfi_def_cfa 7, 8
	ret	
	.cfi_endproc
.LFE11563:
	.size	_ZSt9__fill_a1IPiiEN9__gnu_cxx11__enable_ifIXsrSt11__is_scalarIT0_E7__valueEvE6__typeET_S8_RKS4_, .-_ZSt9__fill_a1IPiiEN9__gnu_cxx11__enable_ifIXsrSt11__is_scalarIT0_E7__valueEvE6__typeET_S8_RKS4_
	.section	.rodata
	.type	_ZNSt8__detail30__integer_to_chars_is_unsignedIjEE, @object
	.size	_ZNSt8__detail30__integer_to_chars_is_unsignedIjEE, 1
_ZNSt8__detail30__integer_to_chars_is_unsignedIjEE:
	.byte	1
	.type	_ZNSt8__detail30__integer_to_chars_is_unsignedImEE, @object
	.size	_ZNSt8__detail30__integer_to_chars_is_unsignedImEE, 1
_ZNSt8__detail30__integer_to_chars_is_unsignedImEE:
	.byte	1
	.type	_ZNSt8__detail30__integer_to_chars_is_unsignedIyEE, @object
	.size	_ZNSt8__detail30__integer_to_chars_is_unsignedIyEE, 1
_ZNSt8__detail30__integer_to_chars_is_unsignedIyEE:
	.byte	1
	.type	_ZSt12__is_ratio_vISt5ratioILl1ELl1000000000EEE, @object
	.size	_ZSt12__is_ratio_vISt5ratioILl1ELl1000000000EEE, 1
_ZSt12__is_ratio_vISt5ratioILl1ELl1000000000EEE:
	.byte	1
	.type	_ZSt12__is_ratio_vISt5ratioILl1ELl1EEE, @object
	.size	_ZSt12__is_ratio_vISt5ratioILl1ELl1EEE, 1
_ZSt12__is_ratio_vISt5ratioILl1ELl1EEE:
	.byte	1
	.type	_ZSt12__is_ratio_vISt5ratioILl1000000000ELl1EEE, @object
	.size	_ZSt12__is_ratio_vISt5ratioILl1000000000ELl1EEE, 1
_ZSt12__is_ratio_vISt5ratioILl1000000000ELl1EEE:
	.byte	1
	.type	_ZNSt8__detail30__integer_to_chars_is_unsignedIoEE, @object
	.size	_ZNSt8__detail30__integer_to_chars_is_unsignedIoEE, 1
_ZNSt8__detail30__integer_to_chars_is_unsignedIoEE:
	.byte	1
	.hidden	DW.ref.__gxx_personality_v0
	.weak	DW.ref.__gxx_personality_v0
	.section	.data.rel.local.DW.ref.__gxx_personality_v0,"awG",@progbits,DW.ref.__gxx_personality_v0,comdat
	.align 8
	.type	DW.ref.__gxx_personality_v0, @object
	.size	DW.ref.__gxx_personality_v0, 8
DW.ref.__gxx_personality_v0:
	.quad	__gxx_personality_v0
	.ident	"GCC: (Ubuntu 13.2.0-23ubuntu4) 13.2.0"
	.section	.note.GNU-stack,"",@progbits
	.section	.note.gnu.property,"a"
	.align 8
	.long	1f - 0f
	.long	4f - 1f
	.long	5
0:
	.string	"GNU"
1:
	.align 8
	.long	0xc0000002
	.long	3f - 2f
2:
	.long	0x3
3:
	.align 8
4:
